ARM GAS  /var/folders/yt/6z6x8bjn5sjf5fbb45bk5m4c0000gn/T//ccS933ay.s 			page 1


   1              		.syntax unified
   2              		.cpu cortex-m3
   3              		.fpu softvfp
   4              		.eabi_attribute 20, 1	@ Tag_ABI_FP_denormal
   5              		.eabi_attribute 21, 1	@ Tag_ABI_FP_exceptions
   6              		.eabi_attribute 23, 3	@ Tag_ABI_FP_number_model
   7              		.eabi_attribute 24, 1	@ Tag_ABI_align8_needed
   8              		.eabi_attribute 25, 1	@ Tag_ABI_align8_preserved
   9              		.eabi_attribute 26, 1	@ Tag_ABI_enum_size
  10              		.eabi_attribute 30, 4	@ Tag_ABI_optimization_goals
  11              		.eabi_attribute 34, 1	@ Tag_CPU_unaligned_access
  12              		.eabi_attribute 18, 4	@ Tag_ABI_PCS_wchar_t
  13              		.file	"usart.c"
  14              	@ GNU C (GNU Tools for ARM Embedded Processors) version 4.9.3 20150529 (release) [ARM/embedded-4_9-
  15              	@	compiled by GNU C version 4.2.1 (Based on Apple Inc. build 5658) (LLVM build 2336.9.00), GMP vers
  16              	@ GGC heuristics: --param ggc-min-expand=100 --param ggc-min-heapsize=131072
  17              	@ options passed:  -I . -I ./Libraries/CMSIS/CM3/CoreSupport
  18              	@ -I ./Libraries/CMSIS/CM3/DeviceSupport/ST/STM32F10x
  19              	@ -I ./Libraries/STM32F10x_StdPeriph_Driver/inc -I ./Libraries/Drivers/Leds
  20              	@ -I ./Libraries/Drivers/Buttons -I ./Libraries/Drivers/Usart
  21              	@ -I ./Libraries/Drivers/i2c -I ./Libraries/Drivers/BH1750
  22              	@ -I ./Libraries/Drivers/Utilities -I ./FreeRTOS/Source/include
  23              	@ -I ./FreeRTOS/Source/portable/GCC/ARM_CM3 -imultilib armv7-m
  24              	@ -iprefix /usr/local/Cellar/arm-none-eabi-gcc/20150921/bin/../lib/gcc/arm-none-eabi/4.9.3/
  25              	@ -isysroot /usr/local/Cellar/arm-none-eabi-gcc/20150921/bin/../arm-none-eabi
  26              	@ -MD Libraries/Drivers/Usart/usart.d -MF .dep/usart.o.d -MP
  27              	@ -MQ Libraries/Drivers/Usart/usart.o -D__USES_INITFINI__ -D STM32F10X_MD
  28              	@ -D USE_STDPERIPH_DRIVER -D GCC_ARMCM3 -D RUN_FROM_FLASH=1
  29              	@ Libraries/Drivers/Usart/usart.c -mcpu=cortex-m3 -mthumb
  30              	@ -auxbase-strip Libraries/Drivers/Usart/usart.o -gdwarf-2 -Os -Wall
  31              	@ -Wstrict-prototypes -fomit-frame-pointer -fverbose-asm
  32              	@ options enabled:  -faggressive-loop-optimizations -fauto-inc-dec
  33              	@ -fbranch-count-reg -fcaller-saves -fcombine-stack-adjustments -fcommon
  34              	@ -fcompare-elim -fcprop-registers -fcrossjumping -fcse-follow-jumps
  35              	@ -fdefer-pop -fdelete-null-pointer-checks -fdevirtualize
  36              	@ -fdevirtualize-speculatively -fdwarf2-cfi-asm -fearly-inlining
  37              	@ -feliminate-unused-debug-types -fexpensive-optimizations
  38              	@ -fforward-propagate -ffunction-cse -fgcse -fgcse-lm -fgnu-runtime
  39              	@ -fgnu-unique -fguess-branch-probability -fhoist-adjacent-loads -fident
  40              	@ -fif-conversion -fif-conversion2 -findirect-inlining -finline
  41              	@ -finline-atomics -finline-functions -finline-functions-called-once
  42              	@ -finline-small-functions -fipa-cp -fipa-profile -fipa-pure-const
  43              	@ -fipa-reference -fipa-sra -fira-hoist-pressure -fira-share-save-slots
  44              	@ -fira-share-spill-slots -fisolate-erroneous-paths-dereference -fivopts
  45              	@ -fkeep-static-consts -fleading-underscore -flifetime-dse -fmath-errno
  46              	@ -fmerge-constants -fmerge-debug-strings -fomit-frame-pointer
  47              	@ -foptimize-sibling-calls -fpartial-inlining -fpeephole -fpeephole2
  48              	@ -fprefetch-loop-arrays -freg-struct-return -freorder-blocks
  49              	@ -freorder-functions -frerun-cse-after-loop
  50              	@ -fsched-critical-path-heuristic -fsched-dep-count-heuristic
  51              	@ -fsched-group-heuristic -fsched-interblock -fsched-last-insn-heuristic
  52              	@ -fsched-pressure -fsched-rank-heuristic -fsched-spec
  53              	@ -fsched-spec-insn-heuristic -fsched-stalled-insns-dep -fschedule-insns2
  54              	@ -fsection-anchors -fshow-column -fsigned-zeros -fsplit-ivs-in-unroller
  55              	@ -fsplit-wide-types -fstrict-aliasing -fstrict-overflow
  56              	@ -fstrict-volatile-bitfields -fsync-libcalls -fthread-jumps
  57              	@ -ftoplevel-reorder -ftrapping-math -ftree-bit-ccp -ftree-builtin-call-dce
ARM GAS  /var/folders/yt/6z6x8bjn5sjf5fbb45bk5m4c0000gn/T//ccS933ay.s 			page 2


  58              	@ -ftree-ccp -ftree-ch -ftree-coalesce-vars -ftree-copy-prop
  59              	@ -ftree-copyrename -ftree-cselim -ftree-dce -ftree-dominator-opts
  60              	@ -ftree-dse -ftree-forwprop -ftree-fre -ftree-loop-if-convert
  61              	@ -ftree-loop-im -ftree-loop-ivcanon -ftree-loop-optimize
  62              	@ -ftree-parallelize-loops= -ftree-phiprop -ftree-pre -ftree-pta
  63              	@ -ftree-reassoc -ftree-scev-cprop -ftree-sink -ftree-slsr -ftree-sra
  64              	@ -ftree-switch-conversion -ftree-tail-merge -ftree-ter -ftree-vrp
  65              	@ -funit-at-a-time -fvar-tracking -fvar-tracking-assignments -fverbose-asm
  66              	@ -fzero-initialized-in-bss -mfix-cortex-m3-ldrd -mlittle-endian -mlra
  67              	@ -mpic-data-is-text-relative -msched-prolog -mthumb -munaligned-access
  68              	@ -mvectorize-with-neon-quad
  69              	
  70              		.text
  71              	.Ltext0:
  72              		.cfi_sections	.debug_frame
  73              		.align	1
  74              		.global	Usart1Init
  75              		.thumb
  76              		.thumb_func
  77              		.type	Usart1Init, %function
  78              	Usart1Init:
  79              	.LFB34:
  80              		.file 1 "Libraries/Drivers/Usart/usart.c"
   1:Libraries/Drivers/Usart/usart.c **** /*
   2:Libraries/Drivers/Usart/usart.c ****  * usart.c
   3:Libraries/Drivers/Usart/usart.c ****  */
   4:Libraries/Drivers/Usart/usart.c **** #include "usart.h"
   5:Libraries/Drivers/Usart/usart.c **** #include "mytasks.h"
   6:Libraries/Drivers/Usart/usart.c **** #define serPUT_STRING_CHAR_DELAY                ( 5 / portTICK_RATE_MS )
   7:Libraries/Drivers/Usart/usart.c **** 
   8:Libraries/Drivers/Usart/usart.c **** void Usart1Init(void)
   9:Libraries/Drivers/Usart/usart.c **** {
  81              		.loc 1 9 0
  82              		.cfi_startproc
  83              		@ args = 0, pretend = 0, frame = 32
  84              		@ frame_needed = 0, uses_anonymous_args = 0
  85 0000 70B5     		push	{r4, r5, r6, lr}	@
  86              	.LCFI0:
  87              		.cfi_def_cfa_offset 16
  88              		.cfi_offset 4, -16
  89              		.cfi_offset 5, -12
  90              		.cfi_offset 6, -8
  91              		.cfi_offset 14, -4
  10:Libraries/Drivers/Usart/usart.c **** 	GPIO_InitTypeDef GPIO_InitStructure;
  11:Libraries/Drivers/Usart/usart.c **** 	USART_InitTypeDef USART_InitStructure;
  12:Libraries/Drivers/Usart/usart.c **** 	USART_ClockInitTypeDef  USART_ClockInitStructure;
  13:Libraries/Drivers/Usart/usart.c **** 	//enable bus clocks
  14:Libraries/Drivers/Usart/usart.c **** 	RCC_APB2PeriphClockCmd(RCC_APB2Periph_USART1 | RCC_APB2Periph_GPIOA | RCC_APB2Periph_AFIO, ENABLE)
  92              		.loc 1 14 0
  93 0002 44F20500 		movw	r0, #16389	@,
   9:Libraries/Drivers/Usart/usart.c **** 	GPIO_InitTypeDef GPIO_InitStructure;
  94              		.loc 1 9 0
  95 0006 88B0     		sub	sp, sp, #32	@,,
  96              	.LCFI1:
  97              		.cfi_def_cfa_offset 48
  98              		.loc 1 14 0
  99 0008 0121     		movs	r1, #1	@,
ARM GAS  /var/folders/yt/6z6x8bjn5sjf5fbb45bk5m4c0000gn/T//ccS933ay.s 			page 3


 100 000a FFF7FEFF 		bl	RCC_APB2PeriphClockCmd	@
 101              	.LVL0:
  15:Libraries/Drivers/Usart/usart.c **** 	//Set USART1 Tx (PA.09) as AF push-pull
  16:Libraries/Drivers/Usart/usart.c **** 	GPIO_InitStructure.GPIO_Pin = GPIO_Pin_9;
  17:Libraries/Drivers/Usart/usart.c **** 	GPIO_InitStructure.GPIO_Mode = GPIO_Mode_AF_PP;
  18:Libraries/Drivers/Usart/usart.c **** 	GPIO_InitStructure.GPIO_Speed = GPIO_Speed_50MHz;
  19:Libraries/Drivers/Usart/usart.c **** 	GPIO_Init(GPIOA, &GPIO_InitStructure);
 102              		.loc 1 19 0
 103 000e 2D4C     		ldr	r4, .L2	@ tmp116,
  16:Libraries/Drivers/Usart/usart.c **** 	GPIO_InitStructure.GPIO_Mode = GPIO_Mode_AF_PP;
 104              		.loc 1 16 0
 105 0010 4FF40073 		mov	r3, #512	@ tmp111,
 106 0014 ADF80030 		strh	r3, [sp]	@ movhi	@ tmp111, GPIO_InitStructure.GPIO_Pin
  17:Libraries/Drivers/Usart/usart.c **** 	GPIO_InitStructure.GPIO_Speed = GPIO_Speed_50MHz;
 107              		.loc 1 17 0
 108 0018 1823     		movs	r3, #24	@ tmp112,
 109 001a 8DF80330 		strb	r3, [sp, #3]	@ tmp112, GPIO_InitStructure.GPIO_Mode
 110              		.loc 1 19 0
 111 001e 2046     		mov	r0, r4	@, tmp116
  18:Libraries/Drivers/Usart/usart.c **** 	GPIO_Init(GPIOA, &GPIO_InitStructure);
 112              		.loc 1 18 0
 113 0020 0323     		movs	r3, #3	@ tmp114,
 114              		.loc 1 19 0
 115 0022 6946     		mov	r1, sp	@,
  18:Libraries/Drivers/Usart/usart.c **** 	GPIO_Init(GPIOA, &GPIO_InitStructure);
 116              		.loc 1 18 0
 117 0024 8DF80230 		strb	r3, [sp, #2]	@ tmp114, GPIO_InitStructure.GPIO_Speed
 118              		.loc 1 19 0
 119 0028 FFF7FEFF 		bl	GPIO_Init	@
 120              	.LVL1:
  20:Libraries/Drivers/Usart/usart.c **** 	//Set USART1 Rx (PA.10) as input floating
  21:Libraries/Drivers/Usart/usart.c **** 	GPIO_InitStructure.GPIO_Pin = GPIO_Pin_10;
 121              		.loc 1 21 0
 122 002c 4FF48063 		mov	r3, #1024	@ tmp119,
  22:Libraries/Drivers/Usart/usart.c **** 	GPIO_InitStructure.GPIO_Mode = GPIO_Mode_IN_FLOATING;
  23:Libraries/Drivers/Usart/usart.c **** 	GPIO_Init(GPIOA, &GPIO_InitStructure);
 123              		.loc 1 23 0
 124 0030 6946     		mov	r1, sp	@,
  21:Libraries/Drivers/Usart/usart.c **** 	GPIO_InitStructure.GPIO_Mode = GPIO_Mode_IN_FLOATING;
 125              		.loc 1 21 0
 126 0032 ADF80030 		strh	r3, [sp]	@ movhi	@ tmp119, GPIO_InitStructure.GPIO_Pin
 127              		.loc 1 23 0
 128 0036 2046     		mov	r0, r4	@, tmp116
  22:Libraries/Drivers/Usart/usart.c **** 	GPIO_InitStructure.GPIO_Mode = GPIO_Mode_IN_FLOATING;
 129              		.loc 1 22 0
 130 0038 0423     		movs	r3, #4	@ tmp120,
  24:Libraries/Drivers/Usart/usart.c **** 	USART_ClockStructInit(&USART_ClockInitStructure);
  25:Libraries/Drivers/Usart/usart.c **** 	USART_ClockInit(USART1, &USART_ClockInitStructure);
 131              		.loc 1 25 0
 132 003a 04F54054 		add	r4, r4, #12288	@ tmp125, tmp125,
  22:Libraries/Drivers/Usart/usart.c **** 	GPIO_Init(GPIOA, &GPIO_InitStructure);
 133              		.loc 1 22 0
 134 003e 8DF80330 		strb	r3, [sp, #3]	@ tmp120, GPIO_InitStructure.GPIO_Mode
  23:Libraries/Drivers/Usart/usart.c **** 	USART_ClockStructInit(&USART_ClockInitStructure);
 135              		.loc 1 23 0
 136 0042 FFF7FEFF 		bl	GPIO_Init	@
 137              	.LVL2:
ARM GAS  /var/folders/yt/6z6x8bjn5sjf5fbb45bk5m4c0000gn/T//ccS933ay.s 			page 4


  24:Libraries/Drivers/Usart/usart.c **** 	USART_ClockStructInit(&USART_ClockInitStructure);
 138              		.loc 1 24 0
 139 0046 02A8     		add	r0, sp, #8	@ tmp153,,
 140 0048 FFF7FEFF 		bl	USART_ClockStructInit	@
 141              	.LVL3:
 142              		.loc 1 25 0
 143 004c 2046     		mov	r0, r4	@, tmp125
 144 004e 02A9     		add	r1, sp, #8	@ tmp154,,
 145 0050 FFF7FEFF 		bl	USART_ClockInit	@
 146              	.LVL4:
  26:Libraries/Drivers/Usart/usart.c **** 
  27:Libraries/Drivers/Usart/usart.c **** 	USART_InitStructure.USART_BaudRate = 9600;
 147              		.loc 1 27 0
 148 0054 4FF41653 		mov	r3, #9600	@ tmp127,
  28:Libraries/Drivers/Usart/usart.c **** 	USART_InitStructure.USART_WordLength = USART_WordLength_8b;
 149              		.loc 1 28 0
 150 0058 0025     		movs	r5, #0	@ tmp129,
  27:Libraries/Drivers/Usart/usart.c **** 	USART_InitStructure.USART_WordLength = USART_WordLength_8b;
 151              		.loc 1 27 0
 152 005a 0493     		str	r3, [sp, #16]	@ tmp127, USART_InitStructure.USART_BaudRate
  29:Libraries/Drivers/Usart/usart.c **** 	USART_InitStructure.USART_StopBits = USART_StopBits_1;
  30:Libraries/Drivers/Usart/usart.c **** 	USART_InitStructure.USART_Parity = USART_Parity_No ;
  31:Libraries/Drivers/Usart/usart.c **** 	USART_InitStructure.USART_Mode = USART_Mode_Rx | USART_Mode_Tx;
  32:Libraries/Drivers/Usart/usart.c **** 	USART_InitStructure.USART_HardwareFlowControl = USART_HardwareFlowControl_None;
  33:Libraries/Drivers/Usart/usart.c **** 	//Write USART1 parameters
  34:Libraries/Drivers/Usart/usart.c **** 	USART_Init(USART1, &USART_InitStructure);
 153              		.loc 1 34 0
 154 005c 2046     		mov	r0, r4	@, tmp125
  31:Libraries/Drivers/Usart/usart.c **** 	USART_InitStructure.USART_HardwareFlowControl = USART_HardwareFlowControl_None;
 155              		.loc 1 31 0
 156 005e 0C23     		movs	r3, #12	@ tmp135,
 157              		.loc 1 34 0
 158 0060 04A9     		add	r1, sp, #16	@,,
  31:Libraries/Drivers/Usart/usart.c **** 	USART_InitStructure.USART_HardwareFlowControl = USART_HardwareFlowControl_None;
 159              		.loc 1 31 0
 160 0062 ADF81A30 		strh	r3, [sp, #26]	@ movhi	@ tmp135, USART_InitStructure.USART_Mode
  28:Libraries/Drivers/Usart/usart.c **** 	USART_InitStructure.USART_StopBits = USART_StopBits_1;
 161              		.loc 1 28 0
 162 0066 ADF81450 		strh	r5, [sp, #20]	@ movhi	@ tmp129, USART_InitStructure.USART_WordLength
  29:Libraries/Drivers/Usart/usart.c **** 	USART_InitStructure.USART_StopBits = USART_StopBits_1;
 163              		.loc 1 29 0
 164 006a ADF81650 		strh	r5, [sp, #22]	@ movhi	@ tmp129, USART_InitStructure.USART_StopBits
  30:Libraries/Drivers/Usart/usart.c **** 	USART_InitStructure.USART_Mode = USART_Mode_Rx | USART_Mode_Tx;
 165              		.loc 1 30 0
 166 006e ADF81850 		strh	r5, [sp, #24]	@ movhi	@ tmp129, USART_InitStructure.USART_Parity
  32:Libraries/Drivers/Usart/usart.c **** 	//Write USART1 parameters
 167              		.loc 1 32 0
 168 0072 ADF81C50 		strh	r5, [sp, #28]	@ movhi	@ tmp129, USART_InitStructure.USART_HardwareFlowControl
 169              		.loc 1 34 0
 170 0076 FFF7FEFF 		bl	USART_Init	@
 171              	.LVL5:
  35:Libraries/Drivers/Usart/usart.c **** 	//Enable USART1
  36:Libraries/Drivers/Usart/usart.c **** 	USART_Cmd(USART1, ENABLE);
 172              		.loc 1 36 0
 173 007a 2046     		mov	r0, r4	@, tmp125
 174 007c 0121     		movs	r1, #1	@,
 175 007e FFF7FEFF 		bl	USART_Cmd	@
ARM GAS  /var/folders/yt/6z6x8bjn5sjf5fbb45bk5m4c0000gn/T//ccS933ay.s 			page 5


 176              	.LVL6:
  37:Libraries/Drivers/Usart/usart.c **** 	USART_DMACmd( USART1, ( USART_DMAReq_Tx | USART_DMAReq_Rx ), ENABLE );
 177              		.loc 1 37 0
 178 0082 2046     		mov	r0, r4	@, tmp125
 179 0084 C021     		movs	r1, #192	@,
 180 0086 0122     		movs	r2, #1	@,
 181 0088 FFF7FEFF 		bl	USART_DMACmd	@
 182              	.LVL7:
  38:Libraries/Drivers/Usart/usart.c **** 
  39:Libraries/Drivers/Usart/usart.c **** 	//configure NVIC
  40:Libraries/Drivers/Usart/usart.c **** 	NVIC_InitTypeDef NVIC_InitStructure;
  41:Libraries/Drivers/Usart/usart.c **** 	//select NVIC channel to configure
  42:Libraries/Drivers/Usart/usart.c **** 	NVIC_InitStructure.NVIC_IRQChannel = USART1_IRQn;
 183              		.loc 1 42 0
 184 008c 2523     		movs	r3, #37	@ tmp142,
 185 008e 8DF80430 		strb	r3, [sp, #4]	@ tmp142, NVIC_InitStructure.NVIC_IRQChannel
  43:Libraries/Drivers/Usart/usart.c **** 	//set priority to lowest
  44:Libraries/Drivers/Usart/usart.c **** 	NVIC_InitStructure.NVIC_IRQChannelPreemptionPriority = 0x0F;
  45:Libraries/Drivers/Usart/usart.c **** 	//set subpriority to lowest
  46:Libraries/Drivers/Usart/usart.c **** 	NVIC_InitStructure.NVIC_IRQChannelSubPriority = 0x0F;
  47:Libraries/Drivers/Usart/usart.c **** 	//enable IRQ channel
  48:Libraries/Drivers/Usart/usart.c **** 	NVIC_InitStructure.NVIC_IRQChannelCmd = ENABLE;
 186              		.loc 1 48 0
 187 0092 0126     		movs	r6, #1	@ tmp148,
  44:Libraries/Drivers/Usart/usart.c **** 	//set subpriority to lowest
 188              		.loc 1 44 0
 189 0094 0F23     		movs	r3, #15	@ tmp144,
  49:Libraries/Drivers/Usart/usart.c **** 	//update NVIC registers
  50:Libraries/Drivers/Usart/usart.c **** 	NVIC_Init(&NVIC_InitStructure);
 190              		.loc 1 50 0
 191 0096 01A8     		add	r0, sp, #4	@,,
  44:Libraries/Drivers/Usart/usart.c **** 	//set subpriority to lowest
 192              		.loc 1 44 0
 193 0098 8DF80530 		strb	r3, [sp, #5]	@ tmp144, NVIC_InitStructure.NVIC_IRQChannelPreemptionPriority
  46:Libraries/Drivers/Usart/usart.c **** 	//enable IRQ channel
 194              		.loc 1 46 0
 195 009c 8DF80630 		strb	r3, [sp, #6]	@ tmp144, NVIC_InitStructure.NVIC_IRQChannelSubPriority
  48:Libraries/Drivers/Usart/usart.c **** 	//update NVIC registers
 196              		.loc 1 48 0
 197 00a0 8DF80760 		strb	r6, [sp, #7]	@ tmp148, NVIC_InitStructure.NVIC_IRQChannelCmd
 198              		.loc 1 50 0
 199 00a4 FFF7FEFF 		bl	NVIC_Init	@
 200              	.LVL8:
  51:Libraries/Drivers/Usart/usart.c **** 	//disable Transmit Data Register empty interrupt
  52:Libraries/Drivers/Usart/usart.c **** 	USART_ITConfig(USART1, USART_IT_TXE, DISABLE);
 201              		.loc 1 52 0
 202 00a8 2046     		mov	r0, r4	@, tmp125
 203 00aa 2A46     		mov	r2, r5	@, tmp129
 204 00ac 40F22771 		movw	r1, #1831	@,
 205 00b0 FFF7FEFF 		bl	USART_ITConfig	@
 206              	.LVL9:
  53:Libraries/Drivers/Usart/usart.c **** 	//enable Receive Data register not empty interrupt
  54:Libraries/Drivers/Usart/usart.c **** 	USART_ITConfig(USART1, USART_IT_RXNE, ENABLE);
 207              		.loc 1 54 0
 208 00b4 2046     		mov	r0, r4	@, tmp125
 209 00b6 40F22551 		movw	r1, #1317	@,
 210 00ba 3246     		mov	r2, r6	@, tmp148
ARM GAS  /var/folders/yt/6z6x8bjn5sjf5fbb45bk5m4c0000gn/T//ccS933ay.s 			page 6


 211 00bc FFF7FEFF 		bl	USART_ITConfig	@
 212              	.LVL10:
  55:Libraries/Drivers/Usart/usart.c **** }
 213              		.loc 1 55 0
 214 00c0 08B0     		add	sp, sp, #32	@,,
 215              	.LCFI2:
 216              		.cfi_def_cfa_offset 16
 217              		@ sp needed	@
 218 00c2 70BD     		pop	{r4, r5, r6, pc}	@
 219              	.L3:
 220              		.align	2
 221              	.L2:
 222 00c4 00080140 		.word	1073809408
 223              		.cfi_endproc
 224              	.LFE34:
 225              		.size	Usart1Init, .-Usart1Init
 226              		.align	1
 227              		.global	Usart1PutChar
 228              		.thumb
 229              		.thumb_func
 230              		.type	Usart1PutChar, %function
 231              	Usart1PutChar:
 232              	.LFB35:
  56:Libraries/Drivers/Usart/usart.c **** uint32_t Usart1PutChar(char ch)
  57:Libraries/Drivers/Usart/usart.c **** {
 233              		.loc 1 57 0
 234              		.cfi_startproc
 235              		@ args = 0, pretend = 0, frame = 8
 236              		@ frame_needed = 0, uses_anonymous_args = 0
 237              	.LVL11:
 238 00c8 13B5     		push	{r0, r1, r4, lr}	@
 239              	.LCFI3:
 240              		.cfi_def_cfa_offset 16
 241              		.cfi_offset 4, -8
 242              		.cfi_offset 14, -4
  58:Libraries/Drivers/Usart/usart.c ****   if( xQueueSend( TxQueue, &ch, 10 ) == pdPASS )
 243              		.loc 1 58 0
 244 00ca 0B4B     		ldr	r3, .L8	@ tmp116,
  57:Libraries/Drivers/Usart/usart.c ****   if( xQueueSend( TxQueue, &ch, 10 ) == pdPASS )
 245              		.loc 1 57 0
 246 00cc 02A9     		add	r1, sp, #8	@ tmp117,,
 247 00ce 01F8010D 		strb	r0, [r1, #-1]!	@ ch, ch
 248              		.loc 1 58 0
 249 00d2 0A22     		movs	r2, #10	@,
 250 00d4 1868     		ldr	r0, [r3]	@, TxQueue
 251              	.LVL12:
 252 00d6 0023     		movs	r3, #0	@,
 253 00d8 FFF7FEFF 		bl	xQueueGenericSend	@
 254              	.LVL13:
 255 00dc 0128     		cmp	r0, #1	@ D.6020,
 256 00de 0446     		mov	r4, r0	@ D.6020,
 257 00e0 07D1     		bne	.L6	@,
  59:Libraries/Drivers/Usart/usart.c ****     {
  60:Libraries/Drivers/Usart/usart.c ****       USART_ITConfig(USART1, USART_IT_TXE, ENABLE);
 258              		.loc 1 60 0
 259 00e2 0648     		ldr	r0, .L8+4	@,
 260 00e4 40F22771 		movw	r1, #1831	@,
ARM GAS  /var/folders/yt/6z6x8bjn5sjf5fbb45bk5m4c0000gn/T//ccS933ay.s 			page 7


 261 00e8 2246     		mov	r2, r4	@, D.6020
 262 00ea FFF7FEFF 		bl	USART_ITConfig	@
 263              	.LVL14:
  61:Libraries/Drivers/Usart/usart.c ****       return pdTRUE;
 264              		.loc 1 61 0
 265 00ee 2046     		mov	r0, r4	@ D.6018, D.6020
 266 00f0 00E0     		b	.L5	@
 267              	.L6:
  62:Libraries/Drivers/Usart/usart.c ****     }else{
  63:Libraries/Drivers/Usart/usart.c ****      return pdFAIL;
 268              		.loc 1 63 0
 269 00f2 0020     		movs	r0, #0	@ D.6018,
 270              	.L5:
  64:Libraries/Drivers/Usart/usart.c ****     }
  65:Libraries/Drivers/Usart/usart.c **** }
 271              		.loc 1 65 0
 272 00f4 02B0     		add	sp, sp, #8	@,,
 273              	.LCFI4:
 274              		.cfi_def_cfa_offset 8
 275              	.LVL15:
 276              		@ sp needed	@
 277 00f6 10BD     		pop	{r4, pc}	@
 278              	.LVL16:
 279              	.L9:
 280              		.align	2
 281              	.L8:
 282 00f8 00000000 		.word	TxQueue
 283 00fc 00380140 		.word	1073821696
 284              		.cfi_endproc
 285              	.LFE35:
 286              		.size	Usart1PutChar, .-Usart1PutChar
 287              		.align	1
 288              		.global	USART1PutString
 289              		.thumb
 290              		.thumb_func
 291              		.type	USART1PutString, %function
 292              	USART1PutString:
 293              	.LFB36:
  66:Libraries/Drivers/Usart/usart.c **** void  USART1PutString( const char * const pcString, unsigned long ulStringLength)
  67:Libraries/Drivers/Usart/usart.c **** {
 294              		.loc 1 67 0
 295              		.cfi_startproc
 296              		@ args = 0, pretend = 0, frame = 0
 297              		@ frame_needed = 0, uses_anonymous_args = 0
 298              	.LVL17:
 299 0100 38B5     		push	{r3, r4, r5, lr}	@
 300              	.LCFI5:
 301              		.cfi_def_cfa_offset 16
 302              		.cfi_offset 3, -16
 303              		.cfi_offset 4, -12
 304              		.cfi_offset 5, -8
 305              		.cfi_offset 14, -4
 306 0102 0446     		mov	r4, r0	@ ivtmp.15, pcString
 307 0104 4518     		adds	r5, r0, r1	@ D.6031, ivtmp.15, ulStringLength
 308              	.LVL18:
 309              	.L11:
  68:Libraries/Drivers/Usart/usart.c **** 
ARM GAS  /var/folders/yt/6z6x8bjn5sjf5fbb45bk5m4c0000gn/T//ccS933ay.s 			page 8


  69:Libraries/Drivers/Usart/usart.c **** unsigned long ul;
  70:Libraries/Drivers/Usart/usart.c ****         for( ul = 0; ul < ulStringLength; ul++ )
 310              		.loc 1 70 0 discriminator 1
 311 0106 AC42     		cmp	r4, r5	@ ivtmp.15, D.6031
 312 0108 13D0     		beq	.L17	@,
  71:Libraries/Drivers/Usart/usart.c **** 
  72:Libraries/Drivers/Usart/usart.c ****                 {
  73:Libraries/Drivers/Usart/usart.c ****                         if( xQueueSend( TxQueue, &( pcString[ ul ] ), serPUT_STRING_CHAR_DELAY ) !=
 313              		.loc 1 73 0
 314 010a 0E4B     		ldr	r3, .L18	@ tmp118,
 315 010c 2146     		mov	r1, r4	@, ivtmp.15
 316 010e 1868     		ldr	r0, [r3]	@, TxQueue
 317 0110 0522     		movs	r2, #5	@,
 318 0112 0023     		movs	r3, #0	@,
 319 0114 FFF7FEFF 		bl	xQueueGenericSend	@
 320              	.LVL19:
 321 0118 0128     		cmp	r0, #1	@,
 322 011a 08D0     		beq	.L12	@,
  74:Libraries/Drivers/Usart/usart.c ****                         {
  75:Libraries/Drivers/Usart/usart.c ****                                 /* Cannot fit any more in the queue.  Try turning the Tx on to
  76:Libraries/Drivers/Usart/usart.c ****                                 clear some space. */
  77:Libraries/Drivers/Usart/usart.c ****                                 USART_ITConfig( USART1, USART_IT_TXE, ENABLE );
 323              		.loc 1 77 0
 324 011c 0A48     		ldr	r0, .L18+4	@,
 325 011e 40F22771 		movw	r1, #1831	@,
 326 0122 0122     		movs	r2, #1	@,
 327 0124 FFF7FEFF 		bl	USART_ITConfig	@
 328              	.LVL20:
  78:Libraries/Drivers/Usart/usart.c ****                                 vTaskDelay( serPUT_STRING_CHAR_DELAY );
 329              		.loc 1 78 0
 330 0128 0520     		movs	r0, #5	@,
 331 012a FFF7FEFF 		bl	vTaskDelay	@
 332              	.LVL21:
 333              	.L12:
 334 012e 0134     		adds	r4, r4, #1	@ ivtmp.15, ivtmp.15,
 335              	.LVL22:
 336 0130 E9E7     		b	.L11	@
 337              	.L17:
  79:Libraries/Drivers/Usart/usart.c **** 
  80:Libraries/Drivers/Usart/usart.c ****                                 /* Go back and try again. */
  81:Libraries/Drivers/Usart/usart.c ****                                 continue;
  82:Libraries/Drivers/Usart/usart.c ****                         }
  83:Libraries/Drivers/Usart/usart.c ****                 }
  84:Libraries/Drivers/Usart/usart.c **** 
  85:Libraries/Drivers/Usart/usart.c ****         USART_ITConfig( USART1, USART_IT_TXE, ENABLE );
 338              		.loc 1 85 0
 339 0132 0548     		ldr	r0, .L18+4	@,
 340 0134 40F22771 		movw	r1, #1831	@,
  86:Libraries/Drivers/Usart/usart.c **** }
 341              		.loc 1 86 0
 342 0138 BDE83840 		pop	{r3, r4, r5, lr}	@
 343              	.LCFI6:
 344              		.cfi_restore 14
 345              		.cfi_restore 5
 346              		.cfi_restore 4
 347              		.cfi_restore 3
 348              		.cfi_def_cfa_offset 0
ARM GAS  /var/folders/yt/6z6x8bjn5sjf5fbb45bk5m4c0000gn/T//ccS933ay.s 			page 9


 349              	.LVL23:
  85:Libraries/Drivers/Usart/usart.c **** }
 350              		.loc 1 85 0
 351 013c 0122     		movs	r2, #1	@,
 352 013e FFF7FEBF 		b	USART_ITConfig	@
 353              	.LVL24:
 354              	.L19:
 355 0142 00BF     		.align	2
 356              	.L18:
 357 0144 00000000 		.word	TxQueue
 358 0148 00380140 		.word	1073821696
 359              		.cfi_endproc
 360              	.LFE36:
 361              		.size	USART1PutString, .-USART1PutString
 362              		.align	1
 363              		.global	Usart1GetChar
 364              		.thumb
 365              		.thumb_func
 366              		.type	Usart1GetChar, %function
 367              	Usart1GetChar:
 368              	.LFB37:
  87:Libraries/Drivers/Usart/usart.c **** 
  88:Libraries/Drivers/Usart/usart.c **** 
  89:Libraries/Drivers/Usart/usart.c **** 
  90:Libraries/Drivers/Usart/usart.c **** uint32_t Usart1GetChar(char *ch){
 369              		.loc 1 90 0
 370              		.cfi_startproc
 371              		@ args = 0, pretend = 0, frame = 0
 372              		@ frame_needed = 0, uses_anonymous_args = 0
 373              	.LVL25:
 374 014c 08B5     		push	{r3, lr}	@
 375              	.LCFI7:
 376              		.cfi_def_cfa_offset 8
 377              		.cfi_offset 3, -8
 378              		.cfi_offset 14, -4
  91:Libraries/Drivers/Usart/usart.c ****   if(xQueueReceive( RxQueue, ch, 0 ) == pdPASS)
 379              		.loc 1 91 0
 380 014e 054B     		ldr	r3, .L21	@ tmp116,
 381 0150 0022     		movs	r2, #0	@,
  90:Libraries/Drivers/Usart/usart.c ****   if(xQueueReceive( RxQueue, ch, 0 ) == pdPASS)
 382              		.loc 1 90 0
 383 0152 0146     		mov	r1, r0	@ ch, ch
 384              		.loc 1 91 0
 385 0154 1868     		ldr	r0, [r3]	@, RxQueue
 386              	.LVL26:
 387 0156 1346     		mov	r3, r2	@,
 388 0158 FFF7FEFF 		bl	xQueueGenericReceive	@
 389              	.LVL27:
  92:Libraries/Drivers/Usart/usart.c ****     {
  93:Libraries/Drivers/Usart/usart.c ****       return pdTRUE;
  94:Libraries/Drivers/Usart/usart.c ****     }
  95:Libraries/Drivers/Usart/usart.c ****   return pdFALSE;
  96:Libraries/Drivers/Usart/usart.c **** }
 390              		.loc 1 96 0
 391 015c 431E     		subs	r3, r0, #1	@,,
 392 015e 5842     		rsbs	r0, r3, #0	@,,
 393 0160 5841     		adcs	r0, r0, r3	@,,
ARM GAS  /var/folders/yt/6z6x8bjn5sjf5fbb45bk5m4c0000gn/T//ccS933ay.s 			page 10


 394 0162 08BD     		pop	{r3, pc}	@
 395              	.L22:
 396              		.align	2
 397              	.L21:
 398 0164 00000000 		.word	RxQueue
 399              		.cfi_endproc
 400              	.LFE37:
 401              		.size	Usart1GetChar, .-Usart1GetChar
 402              	.Letext0:
 403              		.file 2 "/usr/local/Cellar/arm-none-eabi-gcc/20150921/arm-none-eabi/include/machine/_default_types
 404              		.file 3 "/usr/local/Cellar/arm-none-eabi-gcc/20150921/arm-none-eabi/include/sys/_stdint.h"
 405              		.file 4 "./Libraries/CMSIS/CM3/DeviceSupport/ST/STM32F10x/STM32f10x.h"
 406              		.file 5 "./Libraries/STM32F10x_StdPeriph_Driver/inc/stm32f10x_gpio.h"
 407              		.file 6 "./Libraries/STM32F10x_StdPeriph_Driver/inc/stm32f10x_usart.h"
 408              		.file 7 "./Libraries/STM32F10x_StdPeriph_Driver/inc/misc.h"
 409              		.file 8 "./FreeRTOS/Source/include/../../Source/portable/GCC/ARM_CM3/portmacro.h"
 410              		.file 9 "./FreeRTOS/Source/include/queue.h"
 411              		.file 10 "./Libraries/CMSIS/CM3/CoreSupport/core_cm3.h"
 412              		.file 11 "./mytasks.h"
 413              		.file 12 "./Libraries/STM32F10x_StdPeriph_Driver/inc/stm32f10x_rcc.h"
 414              		.file 13 "./FreeRTOS/Source/include/task.h"
 415              		.section	.debug_info,"",%progbits
 416              	.Ldebug_info0:
 417 0000 080A0000 		.4byte	0xa08
 418 0004 0200     		.2byte	0x2
 419 0006 00000000 		.4byte	.Ldebug_abbrev0
 420 000a 04       		.byte	0x4
 421 000b 01       		.uleb128 0x1
 422 000c C4060000 		.4byte	.LASF145
 423 0010 01       		.byte	0x1
 424 0011 00000000 		.4byte	.LASF146
 425 0015 02050000 		.4byte	.LASF147
 426 0019 00000000 		.4byte	.Ltext0
 427 001d 68010000 		.4byte	.Letext0
 428 0021 00000000 		.4byte	.Ldebug_line0
 429 0025 02       		.uleb128 0x2
 430 0026 03040000 		.4byte	.LASF148
 431 002a 01       		.byte	0x1
 432 002b 04       		.byte	0x4
 433 002c A7       		.byte	0xa7
 434 002d 64010000 		.4byte	0x164
 435 0031 03       		.uleb128 0x3
 436 0032 8A070000 		.4byte	.LASF0
 437 0036 72       		.sleb128 -14
 438 0037 03       		.uleb128 0x3
 439 0038 C4020000 		.4byte	.LASF1
 440 003c 74       		.sleb128 -12
 441 003d 03       		.uleb128 0x3
 442 003e 28020000 		.4byte	.LASF2
 443 0042 75       		.sleb128 -11
 444 0043 03       		.uleb128 0x3
 445 0044 8A060000 		.4byte	.LASF3
 446 0048 76       		.sleb128 -10
 447 0049 03       		.uleb128 0x3
 448 004a 43040000 		.4byte	.LASF4
 449 004e 7B       		.sleb128 -5
 450 004f 03       		.uleb128 0x3
ARM GAS  /var/folders/yt/6z6x8bjn5sjf5fbb45bk5m4c0000gn/T//ccS933ay.s 			page 11


 451 0050 5C080000 		.4byte	.LASF5
 452 0054 7C       		.sleb128 -4
 453 0055 03       		.uleb128 0x3
 454 0056 50020000 		.4byte	.LASF6
 455 005a 7E       		.sleb128 -2
 456 005b 03       		.uleb128 0x3
 457 005c C6030000 		.4byte	.LASF7
 458 0060 7F       		.sleb128 -1
 459 0061 03       		.uleb128 0x3
 460 0062 13040000 		.4byte	.LASF8
 461 0066 00       		.sleb128 0
 462 0067 03       		.uleb128 0x3
 463 0068 43000000 		.4byte	.LASF9
 464 006c 01       		.sleb128 1
 465 006d 03       		.uleb128 0x3
 466 006e B1070000 		.4byte	.LASF10
 467 0072 02       		.sleb128 2
 468 0073 03       		.uleb128 0x3
 469 0074 8C080000 		.4byte	.LASF11
 470 0078 03       		.sleb128 3
 471 0079 03       		.uleb128 0x3
 472 007a 4F060000 		.4byte	.LASF12
 473 007e 04       		.sleb128 4
 474 007f 03       		.uleb128 0x3
 475 0080 28080000 		.4byte	.LASF13
 476 0084 05       		.sleb128 5
 477 0085 03       		.uleb128 0x3
 478 0086 4E010000 		.4byte	.LASF14
 479 008a 06       		.sleb128 6
 480 008b 03       		.uleb128 0x3
 481 008c B7080000 		.4byte	.LASF15
 482 0090 07       		.sleb128 7
 483 0091 03       		.uleb128 0x3
 484 0092 F6000000 		.4byte	.LASF16
 485 0096 08       		.sleb128 8
 486 0097 03       		.uleb128 0x3
 487 0098 15080000 		.4byte	.LASF17
 488 009c 09       		.sleb128 9
 489 009d 03       		.uleb128 0x3
 490 009e CA050000 		.4byte	.LASF18
 491 00a2 0A       		.sleb128 10
 492 00a3 03       		.uleb128 0x3
 493 00a4 D8040000 		.4byte	.LASF19
 494 00a8 0B       		.sleb128 11
 495 00a9 03       		.uleb128 0x3
 496 00aa 1D040000 		.4byte	.LASF20
 497 00ae 0C       		.sleb128 12
 498 00af 03       		.uleb128 0x3
 499 00b0 0E060000 		.4byte	.LASF21
 500 00b4 0D       		.sleb128 13
 501 00b5 03       		.uleb128 0x3
 502 00b6 5C020000 		.4byte	.LASF22
 503 00ba 0E       		.sleb128 14
 504 00bb 03       		.uleb128 0x3
 505 00bc 36030000 		.4byte	.LASF23
 506 00c0 0F       		.sleb128 15
 507 00c1 03       		.uleb128 0x3
ARM GAS  /var/folders/yt/6z6x8bjn5sjf5fbb45bk5m4c0000gn/T//ccS933ay.s 			page 12


 508 00c2 9E070000 		.4byte	.LASF24
 509 00c6 10       		.sleb128 16
 510 00c7 03       		.uleb128 0x3
 511 00c8 3A080000 		.4byte	.LASF25
 512 00cc 11       		.sleb128 17
 513 00cd 03       		.uleb128 0x3
 514 00ce 12020000 		.4byte	.LASF26
 515 00d2 12       		.sleb128 18
 516 00d3 03       		.uleb128 0x3
 517 00d4 A9050000 		.4byte	.LASF27
 518 00d8 13       		.sleb128 19
 519 00d9 03       		.uleb128 0x3
 520 00da 21060000 		.4byte	.LASF28
 521 00de 14       		.sleb128 20
 522 00df 03       		.uleb128 0x3
 523 00e0 A1000000 		.4byte	.LASF29
 524 00e4 15       		.sleb128 21
 525 00e5 03       		.uleb128 0x3
 526 00e6 9F080000 		.4byte	.LASF30
 527 00ea 16       		.sleb128 22
 528 00eb 03       		.uleb128 0x3
 529 00ec D1010000 		.4byte	.LASF31
 530 00f0 17       		.sleb128 23
 531 00f1 03       		.uleb128 0x3
 532 00f2 48070000 		.4byte	.LASF32
 533 00f6 18       		.sleb128 24
 534 00f7 03       		.uleb128 0x3
 535 00f8 BD070000 		.4byte	.LASF33
 536 00fc 19       		.sleb128 25
 537 00fd 03       		.uleb128 0x3
 538 00fe 4C000000 		.4byte	.LASF34
 539 0102 1A       		.sleb128 26
 540 0103 03       		.uleb128 0x3
 541 0104 D3030000 		.4byte	.LASF35
 542 0108 1B       		.sleb128 27
 543 0109 03       		.uleb128 0x3
 544 010a F4070000 		.4byte	.LASF36
 545 010e 1C       		.sleb128 28
 546 010f 03       		.uleb128 0x3
 547 0110 AD080000 		.4byte	.LASF37
 548 0114 1D       		.sleb128 29
 549 0115 03       		.uleb128 0x3
 550 0116 DE000000 		.4byte	.LASF38
 551 011a 1E       		.sleb128 30
 552 011b 03       		.uleb128 0x3
 553 011c 66000000 		.4byte	.LASF39
 554 0120 1F       		.sleb128 31
 555 0121 03       		.uleb128 0x3
 556 0122 7F080000 		.4byte	.LASF40
 557 0126 20       		.sleb128 32
 558 0127 03       		.uleb128 0x3
 559 0128 77010000 		.4byte	.LASF41
 560 012c 21       		.sleb128 33
 561 012d 03       		.uleb128 0x3
 562 012e D1000000 		.4byte	.LASF42
 563 0132 22       		.sleb128 34
 564 0133 03       		.uleb128 0x3
ARM GAS  /var/folders/yt/6z6x8bjn5sjf5fbb45bk5m4c0000gn/T//ccS933ay.s 			page 13


 565 0134 7C030000 		.4byte	.LASF43
 566 0138 23       		.sleb128 35
 567 0139 03       		.uleb128 0x3
 568 013a 6A040000 		.4byte	.LASF44
 569 013e 24       		.sleb128 36
 570 013f 03       		.uleb128 0x3
 571 0140 09080000 		.4byte	.LASF45
 572 0144 25       		.sleb128 37
 573 0145 03       		.uleb128 0x3
 574 0146 7E060000 		.4byte	.LASF46
 575 014a 26       		.sleb128 38
 576 014b 03       		.uleb128 0x3
 577 014c E8070000 		.4byte	.LASF47
 578 0150 27       		.sleb128 39
 579 0151 03       		.uleb128 0x3
 580 0152 6D030000 		.4byte	.LASF48
 581 0156 28       		.sleb128 40
 582 0157 03       		.uleb128 0x3
 583 0158 61070000 		.4byte	.LASF49
 584 015c 29       		.sleb128 41
 585 015d 03       		.uleb128 0x3
 586 015e CA070000 		.4byte	.LASF50
 587 0162 2A       		.sleb128 42
 588 0163 00       		.byte	0
 589 0164 04       		.uleb128 0x4
 590 0165 01       		.byte	0x1
 591 0166 06       		.byte	0x6
 592 0167 30010000 		.4byte	.LASF51
 593 016b 05       		.uleb128 0x5
 594 016c 73000000 		.4byte	.LASF54
 595 0170 02       		.byte	0x2
 596 0171 1D       		.byte	0x1d
 597 0172 76010000 		.4byte	0x176
 598 0176 04       		.uleb128 0x4
 599 0177 01       		.byte	0x1
 600 0178 08       		.byte	0x8
 601 0179 9B050000 		.4byte	.LASF52
 602 017d 04       		.uleb128 0x4
 603 017e 02       		.byte	0x2
 604 017f 05       		.byte	0x5
 605 0180 F4010000 		.4byte	.LASF53
 606 0184 05       		.uleb128 0x5
 607 0185 56070000 		.4byte	.LASF55
 608 0189 02       		.byte	0x2
 609 018a 2B       		.byte	0x2b
 610 018b 8F010000 		.4byte	0x18f
 611 018f 04       		.uleb128 0x4
 612 0190 02       		.byte	0x2
 613 0191 07       		.byte	0x7
 614 0192 49030000 		.4byte	.LASF56
 615 0196 04       		.uleb128 0x4
 616 0197 04       		.byte	0x4
 617 0198 05       		.byte	0x5
 618 0199 AC010000 		.4byte	.LASF57
 619 019d 05       		.uleb128 0x5
 620 019e 6F020000 		.4byte	.LASF58
 621 01a2 02       		.byte	0x2
ARM GAS  /var/folders/yt/6z6x8bjn5sjf5fbb45bk5m4c0000gn/T//ccS933ay.s 			page 14


 622 01a3 41       		.byte	0x41
 623 01a4 A8010000 		.4byte	0x1a8
 624 01a8 04       		.uleb128 0x4
 625 01a9 04       		.byte	0x4
 626 01aa 07       		.byte	0x7
 627 01ab DA020000 		.4byte	.LASF59
 628 01af 04       		.uleb128 0x4
 629 01b0 08       		.byte	0x8
 630 01b1 05       		.byte	0x5
 631 01b2 22010000 		.4byte	.LASF60
 632 01b6 04       		.uleb128 0x4
 633 01b7 08       		.byte	0x8
 634 01b8 07       		.byte	0x7
 635 01b9 AF000000 		.4byte	.LASF61
 636 01bd 06       		.uleb128 0x6
 637 01be 04       		.byte	0x4
 638 01bf 05       		.byte	0x5
 639 01c0 696E7400 		.ascii	"int\000"
 640 01c4 04       		.uleb128 0x4
 641 01c5 04       		.byte	0x4
 642 01c6 07       		.byte	0x7
 643 01c7 B7020000 		.4byte	.LASF62
 644 01cb 05       		.uleb128 0x5
 645 01cc 20080000 		.4byte	.LASF63
 646 01d0 03       		.byte	0x3
 647 01d1 14       		.byte	0x14
 648 01d2 6B010000 		.4byte	0x16b
 649 01d6 05       		.uleb128 0x5
 650 01d7 FE010000 		.4byte	.LASF64
 651 01db 03       		.byte	0x3
 652 01dc 1A       		.byte	0x1a
 653 01dd 84010000 		.4byte	0x184
 654 01e1 05       		.uleb128 0x5
 655 01e2 5A060000 		.4byte	.LASF65
 656 01e6 03       		.byte	0x3
 657 01e7 20       		.byte	0x20
 658 01e8 9D010000 		.4byte	0x19d
 659 01ec 04       		.uleb128 0x4
 660 01ed 04       		.byte	0x4
 661 01ee 07       		.byte	0x7
 662 01ef 30040000 		.4byte	.LASF66
 663 01f3 07       		.uleb128 0x7
 664 01f4 E1010000 		.4byte	0x1e1
 665 01f8 07       		.uleb128 0x7
 666 01f9 D6010000 		.4byte	0x1d6
 667 01fd 08       		.uleb128 0x8
 668 01fe 01       		.byte	0x1
 669 01ff 04       		.byte	0x4
 670 0200 0902     		.2byte	0x209
 671 0202 13020000 		.4byte	0x213
 672 0206 03       		.uleb128 0x3
 673 0207 99000000 		.4byte	.LASF67
 674 020b 00       		.sleb128 0
 675 020c 03       		.uleb128 0x3
 676 020d B5010000 		.4byte	.LASF68
 677 0211 01       		.sleb128 1
 678 0212 00       		.byte	0
ARM GAS  /var/folders/yt/6z6x8bjn5sjf5fbb45bk5m4c0000gn/T//ccS933ay.s 			page 15


 679 0213 09       		.uleb128 0x9
 680 0214 A6040000 		.4byte	.LASF69
 681 0218 04       		.byte	0x4
 682 0219 0902     		.2byte	0x209
 683 021b FD010000 		.4byte	0x1fd
 684 021f 0A       		.uleb128 0xa
 685 0220 1C       		.byte	0x1c
 686 0221 04       		.byte	0x4
 687 0222 E903     		.2byte	0x3e9
 688 0224 92020000 		.4byte	0x292
 689 0228 0B       		.uleb128 0xb
 690 0229 43524C00 		.ascii	"CRL\000"
 691 022d 04       		.byte	0x4
 692 022e EB03     		.2byte	0x3eb
 693 0230 F3010000 		.4byte	0x1f3
 694 0234 02       		.byte	0x2
 695 0235 23       		.byte	0x23
 696 0236 00       		.uleb128 0
 697 0237 0B       		.uleb128 0xb
 698 0238 43524800 		.ascii	"CRH\000"
 699 023c 04       		.byte	0x4
 700 023d EC03     		.2byte	0x3ec
 701 023f F3010000 		.4byte	0x1f3
 702 0243 02       		.byte	0x2
 703 0244 23       		.byte	0x23
 704 0245 04       		.uleb128 0x4
 705 0246 0B       		.uleb128 0xb
 706 0247 49445200 		.ascii	"IDR\000"
 707 024b 04       		.byte	0x4
 708 024c ED03     		.2byte	0x3ed
 709 024e F3010000 		.4byte	0x1f3
 710 0252 02       		.byte	0x2
 711 0253 23       		.byte	0x23
 712 0254 08       		.uleb128 0x8
 713 0255 0B       		.uleb128 0xb
 714 0256 4F445200 		.ascii	"ODR\000"
 715 025a 04       		.byte	0x4
 716 025b EE03     		.2byte	0x3ee
 717 025d F3010000 		.4byte	0x1f3
 718 0261 02       		.byte	0x2
 719 0262 23       		.byte	0x23
 720 0263 0C       		.uleb128 0xc
 721 0264 0C       		.uleb128 0xc
 722 0265 3C010000 		.4byte	.LASF70
 723 0269 04       		.byte	0x4
 724 026a EF03     		.2byte	0x3ef
 725 026c F3010000 		.4byte	0x1f3
 726 0270 02       		.byte	0x2
 727 0271 23       		.byte	0x23
 728 0272 10       		.uleb128 0x10
 729 0273 0B       		.uleb128 0xb
 730 0274 42525200 		.ascii	"BRR\000"
 731 0278 04       		.byte	0x4
 732 0279 F003     		.2byte	0x3f0
 733 027b F3010000 		.4byte	0x1f3
 734 027f 02       		.byte	0x2
 735 0280 23       		.byte	0x23
ARM GAS  /var/folders/yt/6z6x8bjn5sjf5fbb45bk5m4c0000gn/T//ccS933ay.s 			page 16


 736 0281 14       		.uleb128 0x14
 737 0282 0C       		.uleb128 0xc
 738 0283 F9020000 		.4byte	.LASF71
 739 0287 04       		.byte	0x4
 740 0288 F103     		.2byte	0x3f1
 741 028a F3010000 		.4byte	0x1f3
 742 028e 02       		.byte	0x2
 743 028f 23       		.byte	0x23
 744 0290 18       		.uleb128 0x18
 745 0291 00       		.byte	0
 746 0292 09       		.uleb128 0x9
 747 0293 EC020000 		.4byte	.LASF72
 748 0297 04       		.byte	0x4
 749 0298 F203     		.2byte	0x3f2
 750 029a 1F020000 		.4byte	0x21f
 751 029e 0A       		.uleb128 0xa
 752 029f 1C       		.byte	0x1c
 753 02a0 04       		.byte	0x4
 754 02a1 D204     		.2byte	0x4d2
 755 02a3 78030000 		.4byte	0x378
 756 02a7 0B       		.uleb128 0xb
 757 02a8 535200   		.ascii	"SR\000"
 758 02ab 04       		.byte	0x4
 759 02ac D404     		.2byte	0x4d4
 760 02ae F8010000 		.4byte	0x1f8
 761 02b2 02       		.byte	0x2
 762 02b3 23       		.byte	0x23
 763 02b4 00       		.uleb128 0
 764 02b5 0C       		.uleb128 0xc
 765 02b6 41050000 		.4byte	.LASF73
 766 02ba 04       		.byte	0x4
 767 02bb D504     		.2byte	0x4d5
 768 02bd D6010000 		.4byte	0x1d6
 769 02c1 02       		.byte	0x2
 770 02c2 23       		.byte	0x23
 771 02c3 02       		.uleb128 0x2
 772 02c4 0B       		.uleb128 0xb
 773 02c5 445200   		.ascii	"DR\000"
 774 02c8 04       		.byte	0x4
 775 02c9 D604     		.2byte	0x4d6
 776 02cb F8010000 		.4byte	0x1f8
 777 02cf 02       		.byte	0x2
 778 02d0 23       		.byte	0x23
 779 02d1 04       		.uleb128 0x4
 780 02d2 0C       		.uleb128 0xc
 781 02d3 4B050000 		.4byte	.LASF74
 782 02d7 04       		.byte	0x4
 783 02d8 D704     		.2byte	0x4d7
 784 02da D6010000 		.4byte	0x1d6
 785 02de 02       		.byte	0x2
 786 02df 23       		.byte	0x23
 787 02e0 06       		.uleb128 0x6
 788 02e1 0B       		.uleb128 0xb
 789 02e2 42525200 		.ascii	"BRR\000"
 790 02e6 04       		.byte	0x4
 791 02e7 D804     		.2byte	0x4d8
 792 02e9 F8010000 		.4byte	0x1f8
ARM GAS  /var/folders/yt/6z6x8bjn5sjf5fbb45bk5m4c0000gn/T//ccS933ay.s 			page 17


 793 02ed 02       		.byte	0x2
 794 02ee 23       		.byte	0x23
 795 02ef 08       		.uleb128 0x8
 796 02f0 0C       		.uleb128 0xc
 797 02f1 55050000 		.4byte	.LASF75
 798 02f5 04       		.byte	0x4
 799 02f6 D904     		.2byte	0x4d9
 800 02f8 D6010000 		.4byte	0x1d6
 801 02fc 02       		.byte	0x2
 802 02fd 23       		.byte	0x23
 803 02fe 0A       		.uleb128 0xa
 804 02ff 0B       		.uleb128 0xb
 805 0300 43523100 		.ascii	"CR1\000"
 806 0304 04       		.byte	0x4
 807 0305 DA04     		.2byte	0x4da
 808 0307 F8010000 		.4byte	0x1f8
 809 030b 02       		.byte	0x2
 810 030c 23       		.byte	0x23
 811 030d 0C       		.uleb128 0xc
 812 030e 0C       		.uleb128 0xc
 813 030f 5F050000 		.4byte	.LASF76
 814 0313 04       		.byte	0x4
 815 0314 DB04     		.2byte	0x4db
 816 0316 D6010000 		.4byte	0x1d6
 817 031a 02       		.byte	0x2
 818 031b 23       		.byte	0x23
 819 031c 0E       		.uleb128 0xe
 820 031d 0B       		.uleb128 0xb
 821 031e 43523200 		.ascii	"CR2\000"
 822 0322 04       		.byte	0x4
 823 0323 DC04     		.2byte	0x4dc
 824 0325 F8010000 		.4byte	0x1f8
 825 0329 02       		.byte	0x2
 826 032a 23       		.byte	0x23
 827 032b 10       		.uleb128 0x10
 828 032c 0C       		.uleb128 0xc
 829 032d 69050000 		.4byte	.LASF77
 830 0331 04       		.byte	0x4
 831 0332 DD04     		.2byte	0x4dd
 832 0334 D6010000 		.4byte	0x1d6
 833 0338 02       		.byte	0x2
 834 0339 23       		.byte	0x23
 835 033a 12       		.uleb128 0x12
 836 033b 0B       		.uleb128 0xb
 837 033c 43523300 		.ascii	"CR3\000"
 838 0340 04       		.byte	0x4
 839 0341 DE04     		.2byte	0x4de
 840 0343 F8010000 		.4byte	0x1f8
 841 0347 02       		.byte	0x2
 842 0348 23       		.byte	0x23
 843 0349 14       		.uleb128 0x14
 844 034a 0C       		.uleb128 0xc
 845 034b 73050000 		.4byte	.LASF78
 846 034f 04       		.byte	0x4
 847 0350 DF04     		.2byte	0x4df
 848 0352 D6010000 		.4byte	0x1d6
 849 0356 02       		.byte	0x2
ARM GAS  /var/folders/yt/6z6x8bjn5sjf5fbb45bk5m4c0000gn/T//ccS933ay.s 			page 18


 850 0357 23       		.byte	0x23
 851 0358 16       		.uleb128 0x16
 852 0359 0C       		.uleb128 0xc
 853 035a 59010000 		.4byte	.LASF79
 854 035e 04       		.byte	0x4
 855 035f E004     		.2byte	0x4e0
 856 0361 F8010000 		.4byte	0x1f8
 857 0365 02       		.byte	0x2
 858 0366 23       		.byte	0x23
 859 0367 18       		.uleb128 0x18
 860 0368 0C       		.uleb128 0xc
 861 0369 7D050000 		.4byte	.LASF80
 862 036d 04       		.byte	0x4
 863 036e E104     		.2byte	0x4e1
 864 0370 D6010000 		.4byte	0x1d6
 865 0374 02       		.byte	0x2
 866 0375 23       		.byte	0x23
 867 0376 1A       		.uleb128 0x1a
 868 0377 00       		.byte	0
 869 0378 09       		.uleb128 0x9
 870 0379 86030000 		.4byte	.LASF81
 871 037d 04       		.byte	0x4
 872 037e E204     		.2byte	0x4e2
 873 0380 9E020000 		.4byte	0x29e
 874 0384 0D       		.uleb128 0xd
 875 0385 01       		.byte	0x1
 876 0386 05       		.byte	0x5
 877 0387 3B       		.byte	0x3b
 878 0388 9F030000 		.4byte	0x39f
 879 038c 03       		.uleb128 0x3
 880 038d 7D000000 		.4byte	.LASF82
 881 0391 01       		.sleb128 1
 882 0392 03       		.uleb128 0x3
 883 0393 EE050000 		.4byte	.LASF83
 884 0397 02       		.sleb128 2
 885 0398 03       		.uleb128 0x3
 886 0399 C7040000 		.4byte	.LASF84
 887 039d 03       		.sleb128 3
 888 039e 00       		.byte	0
 889 039f 05       		.uleb128 0x5
 890 03a0 89020000 		.4byte	.LASF85
 891 03a4 05       		.byte	0x5
 892 03a5 3F       		.byte	0x3f
 893 03a6 84030000 		.4byte	0x384
 894 03aa 0D       		.uleb128 0xd
 895 03ab 01       		.byte	0x1
 896 03ac 05       		.byte	0x5
 897 03ad 48       		.byte	0x48
 898 03ae E4030000 		.4byte	0x3e4
 899 03b2 03       		.uleb128 0x3
 900 03b3 36060000 		.4byte	.LASF86
 901 03b7 00       		.sleb128 0
 902 03b8 03       		.uleb128 0x3
 903 03b9 FE020000 		.4byte	.LASF87
 904 03bd 04       		.sleb128 4
 905 03be 03       		.uleb128 0x3
 906 03bf 74040000 		.4byte	.LASF88
ARM GAS  /var/folders/yt/6z6x8bjn5sjf5fbb45bk5m4c0000gn/T//ccS933ay.s 			page 19


 907 03c3 28       		.sleb128 40
 908 03c4 03       		.uleb128 0x3
 909 03c5 8F010000 		.4byte	.LASF89
 910 03c9 C800     		.sleb128 72
 911 03cb 03       		.uleb128 0x3
 912 03cc 5C030000 		.4byte	.LASF90
 913 03d0 14       		.sleb128 20
 914 03d1 03       		.uleb128 0x3
 915 03d2 B6040000 		.4byte	.LASF91
 916 03d6 10       		.sleb128 16
 917 03d7 03       		.uleb128 0x3
 918 03d8 26030000 		.4byte	.LASF92
 919 03dc 1C       		.sleb128 28
 920 03dd 03       		.uleb128 0x3
 921 03de 5A040000 		.4byte	.LASF93
 922 03e2 18       		.sleb128 24
 923 03e3 00       		.byte	0
 924 03e4 05       		.uleb128 0x5
 925 03e5 6E080000 		.4byte	.LASF94
 926 03e9 05       		.byte	0x5
 927 03ea 50       		.byte	0x50
 928 03eb AA030000 		.4byte	0x3aa
 929 03ef 0E       		.uleb128 0xe
 930 03f0 04       		.byte	0x4
 931 03f1 05       		.byte	0x5
 932 03f2 5B       		.byte	0x5b
 933 03f3 22040000 		.4byte	0x422
 934 03f7 0F       		.uleb128 0xf
 935 03f8 9B020000 		.4byte	.LASF95
 936 03fc 05       		.byte	0x5
 937 03fd 5D       		.byte	0x5d
 938 03fe D6010000 		.4byte	0x1d6
 939 0402 02       		.byte	0x2
 940 0403 23       		.byte	0x23
 941 0404 00       		.uleb128 0
 942 0405 0F       		.uleb128 0xf
 943 0406 C6000000 		.4byte	.LASF96
 944 040a 05       		.byte	0x5
 945 040b 60       		.byte	0x60
 946 040c 9F030000 		.4byte	0x39f
 947 0410 02       		.byte	0x2
 948 0411 23       		.byte	0x23
 949 0412 02       		.uleb128 0x2
 950 0413 0F       		.uleb128 0xf
 951 0414 1E020000 		.4byte	.LASF97
 952 0418 05       		.byte	0x5
 953 0419 63       		.byte	0x63
 954 041a E4030000 		.4byte	0x3e4
 955 041e 02       		.byte	0x2
 956 041f 23       		.byte	0x23
 957 0420 03       		.uleb128 0x3
 958 0421 00       		.byte	0
 959 0422 05       		.uleb128 0x5
 960 0423 95040000 		.4byte	.LASF98
 961 0427 05       		.byte	0x5
 962 0428 65       		.byte	0x65
 963 0429 EF030000 		.4byte	0x3ef
ARM GAS  /var/folders/yt/6z6x8bjn5sjf5fbb45bk5m4c0000gn/T//ccS933ay.s 			page 20


 964 042d 0E       		.uleb128 0xe
 965 042e 10       		.byte	0x10
 966 042f 06       		.byte	0x6
 967 0430 32       		.byte	0x32
 968 0431 8A040000 		.4byte	0x48a
 969 0435 0F       		.uleb128 0xf
 970 0436 9D010000 		.4byte	.LASF99
 971 043a 06       		.byte	0x6
 972 043b 34       		.byte	0x34
 973 043c E1010000 		.4byte	0x1e1
 974 0440 02       		.byte	0x2
 975 0441 23       		.byte	0x23
 976 0442 00       		.uleb128 0
 977 0443 0F       		.uleb128 0xf
 978 0444 79070000 		.4byte	.LASF100
 979 0448 06       		.byte	0x6
 980 0449 39       		.byte	0x39
 981 044a D6010000 		.4byte	0x1d6
 982 044e 02       		.byte	0x2
 983 044f 23       		.byte	0x23
 984 0450 04       		.uleb128 0x4
 985 0451 0F       		.uleb128 0xf
 986 0452 7A020000 		.4byte	.LASF101
 987 0456 06       		.byte	0x6
 988 0457 3C       		.byte	0x3c
 989 0458 D6010000 		.4byte	0x1d6
 990 045c 02       		.byte	0x2
 991 045d 23       		.byte	0x23
 992 045e 06       		.uleb128 0x6
 993 045f 0F       		.uleb128 0xf
 994 0460 41010000 		.4byte	.LASF102
 995 0464 06       		.byte	0x6
 996 0465 3F       		.byte	0x3f
 997 0466 D6010000 		.4byte	0x1d6
 998 046a 02       		.byte	0x2
 999 046b 23       		.byte	0x23
 1000 046c 08       		.uleb128 0x8
 1001 046d 0F       		.uleb128 0xf
 1002 046e 84010000 		.4byte	.LASF103
 1003 0472 06       		.byte	0x6
 1004 0473 46       		.byte	0x46
 1005 0474 D6010000 		.4byte	0x1d6
 1006 0478 02       		.byte	0x2
 1007 0479 23       		.byte	0x23
 1008 047a 0A       		.uleb128 0xa
 1009 047b 0F       		.uleb128 0xf
 1010 047c 36020000 		.4byte	.LASF104
 1011 0480 06       		.byte	0x6
 1012 0481 49       		.byte	0x49
 1013 0482 D6010000 		.4byte	0x1d6
 1014 0486 02       		.byte	0x2
 1015 0487 23       		.byte	0x23
 1016 0488 0C       		.uleb128 0xc
 1017 0489 00       		.byte	0
 1018 048a 05       		.uleb128 0x5
 1019 048b E0030000 		.4byte	.LASF105
 1020 048f 06       		.byte	0x6
ARM GAS  /var/folders/yt/6z6x8bjn5sjf5fbb45bk5m4c0000gn/T//ccS933ay.s 			page 21


 1021 0490 4C       		.byte	0x4c
 1022 0491 2D040000 		.4byte	0x42d
 1023 0495 0E       		.uleb128 0xe
 1024 0496 08       		.byte	0x8
 1025 0497 06       		.byte	0x6
 1026 0498 52       		.byte	0x52
 1027 0499 D6040000 		.4byte	0x4d6
 1028 049d 0F       		.uleb128 0xf
 1029 049e 01010000 		.4byte	.LASF106
 1030 04a2 06       		.byte	0x6
 1031 04a3 55       		.byte	0x55
 1032 04a4 D6010000 		.4byte	0x1d6
 1033 04a8 02       		.byte	0x2
 1034 04a9 23       		.byte	0x23
 1035 04aa 00       		.uleb128 0
 1036 04ab 0F       		.uleb128 0xf
 1037 04ac 8E000000 		.4byte	.LASF107
 1038 04b0 06       		.byte	0x6
 1039 04b1 58       		.byte	0x58
 1040 04b2 D6010000 		.4byte	0x1d6
 1041 04b6 02       		.byte	0x2
 1042 04b7 23       		.byte	0x23
 1043 04b8 02       		.uleb128 0x2
 1044 04b9 0F       		.uleb128 0xf
 1045 04ba 44060000 		.4byte	.LASF108
 1046 04be 06       		.byte	0x6
 1047 04bf 5B       		.byte	0x5b
 1048 04c0 D6010000 		.4byte	0x1d6
 1049 04c4 02       		.byte	0x2
 1050 04c5 23       		.byte	0x23
 1051 04c6 04       		.uleb128 0x4
 1052 04c7 0F       		.uleb128 0xf
 1053 04c8 33050000 		.4byte	.LASF109
 1054 04cc 06       		.byte	0x6
 1055 04cd 5E       		.byte	0x5e
 1056 04ce D6010000 		.4byte	0x1d6
 1057 04d2 02       		.byte	0x2
 1058 04d3 23       		.byte	0x23
 1059 04d4 06       		.uleb128 0x6
 1060 04d5 00       		.byte	0
 1061 04d6 05       		.uleb128 0x5
 1062 04d7 EB040000 		.4byte	.LASF110
 1063 04db 06       		.byte	0x6
 1064 04dc 61       		.byte	0x61
 1065 04dd 95040000 		.4byte	0x495
 1066 04e1 0E       		.uleb128 0xe
 1067 04e2 04       		.byte	0x4
 1068 04e3 07       		.byte	0x7
 1069 04e4 32       		.byte	0x32
 1070 04e5 22050000 		.4byte	0x522
 1071 04e9 0F       		.uleb128 0xf
 1072 04ea 94030000 		.4byte	.LASF111
 1073 04ee 07       		.byte	0x7
 1074 04ef 34       		.byte	0x34
 1075 04f0 CB010000 		.4byte	0x1cb
 1076 04f4 02       		.byte	0x2
 1077 04f5 23       		.byte	0x23
ARM GAS  /var/folders/yt/6z6x8bjn5sjf5fbb45bk5m4c0000gn/T//ccS933ay.s 			page 22


 1078 04f6 00       		.uleb128 0
 1079 04f7 0F       		.uleb128 0xf
 1080 04f8 A4030000 		.4byte	.LASF112
 1081 04fc 07       		.byte	0x7
 1082 04fd 39       		.byte	0x39
 1083 04fe CB010000 		.4byte	0x1cb
 1084 0502 02       		.byte	0x2
 1085 0503 23       		.byte	0x23
 1086 0504 01       		.uleb128 0x1
 1087 0505 0F       		.uleb128 0xf
 1088 0506 63060000 		.4byte	.LASF113
 1089 050a 07       		.byte	0x7
 1090 050b 3D       		.byte	0x3d
 1091 050c CB010000 		.4byte	0x1cb
 1092 0510 02       		.byte	0x2
 1093 0511 23       		.byte	0x23
 1094 0512 02       		.uleb128 0x2
 1095 0513 0F       		.uleb128 0xf
 1096 0514 30000000 		.4byte	.LASF114
 1097 0518 07       		.byte	0x7
 1098 0519 41       		.byte	0x41
 1099 051a 13020000 		.4byte	0x213
 1100 051e 02       		.byte	0x2
 1101 051f 23       		.byte	0x23
 1102 0520 03       		.uleb128 0x3
 1103 0521 00       		.byte	0
 1104 0522 05       		.uleb128 0x5
 1105 0523 F2030000 		.4byte	.LASF115
 1106 0527 07       		.byte	0x7
 1107 0528 44       		.byte	0x44
 1108 0529 E1040000 		.4byte	0x4e1
 1109 052d 10       		.uleb128 0x10
 1110 052e 04       		.byte	0x4
 1111 052f 05       		.uleb128 0x5
 1112 0530 07020000 		.4byte	.LASF116
 1113 0534 08       		.byte	0x8
 1114 0535 62       		.byte	0x62
 1115 0536 96010000 		.4byte	0x196
 1116 053a 05       		.uleb128 0x5
 1117 053b 4F040000 		.4byte	.LASF117
 1118 053f 08       		.byte	0x8
 1119 0540 69       		.byte	0x69
 1120 0541 E1010000 		.4byte	0x1e1
 1121 0545 11       		.uleb128 0x11
 1122 0546 4A050000 		.4byte	0x54a
 1123 054a 12       		.uleb128 0x12
 1124 054b 04       		.byte	0x4
 1125 054c 50050000 		.4byte	0x550
 1126 0550 11       		.uleb128 0x11
 1127 0551 55050000 		.4byte	0x555
 1128 0555 04       		.uleb128 0x4
 1129 0556 01       		.byte	0x1
 1130 0557 08       		.byte	0x8
 1131 0558 9A060000 		.4byte	.LASF118
 1132 055c 05       		.uleb128 0x5
 1133 055d E8000000 		.4byte	.LASF119
 1134 0561 09       		.byte	0x9
ARM GAS  /var/folders/yt/6z6x8bjn5sjf5fbb45bk5m4c0000gn/T//ccS933ay.s 			page 23


 1135 0562 58       		.byte	0x58
 1136 0563 2D050000 		.4byte	0x52d
 1137 0567 13       		.uleb128 0x13
 1138 0568 01       		.byte	0x1
 1139 0569 FE070000 		.4byte	.LASF124
 1140 056d 01       		.byte	0x1
 1141 056e 08       		.byte	0x8
 1142 056f 01       		.byte	0x1
 1143 0570 00000000 		.4byte	.LFB34
 1144 0574 C8000000 		.4byte	.LFE34
 1145 0578 00000000 		.4byte	.LLST0
 1146 057c 01       		.byte	0x1
 1147 057d DD060000 		.4byte	0x6dd
 1148 0581 14       		.uleb128 0x14
 1149 0582 82040000 		.4byte	.LASF120
 1150 0586 01       		.byte	0x1
 1151 0587 0A       		.byte	0xa
 1152 0588 22040000 		.4byte	0x422
 1153 058c 02       		.byte	0x2
 1154 058d 91       		.byte	0x91
 1155 058e 50       		.sleb128 -48
 1156 058f 14       		.uleb128 0x14
 1157 0590 87050000 		.4byte	.LASF121
 1158 0594 01       		.byte	0x1
 1159 0595 0B       		.byte	0xb
 1160 0596 8A040000 		.4byte	0x48a
 1161 059a 02       		.byte	0x2
 1162 059b 91       		.byte	0x91
 1163 059c 60       		.sleb128 -32
 1164 059d 14       		.uleb128 0x14
 1165 059e D5050000 		.4byte	.LASF122
 1166 05a2 01       		.byte	0x1
 1167 05a3 0C       		.byte	0xc
 1168 05a4 D6040000 		.4byte	0x4d6
 1169 05a8 02       		.byte	0x2
 1170 05a9 91       		.byte	0x91
 1171 05aa 58       		.sleb128 -40
 1172 05ab 14       		.uleb128 0x14
 1173 05ac A4020000 		.4byte	.LASF123
 1174 05b0 01       		.byte	0x1
 1175 05b1 28       		.byte	0x28
 1176 05b2 22050000 		.4byte	0x522
 1177 05b6 02       		.byte	0x2
 1178 05b7 91       		.byte	0x91
 1179 05b8 54       		.sleb128 -44
 1180 05b9 15       		.uleb128 0x15
 1181 05ba 0E000000 		.4byte	.LVL0
 1182 05be 7E080000 		.4byte	0x87e
 1183 05c2 D3050000 		.4byte	0x5d3
 1184 05c6 16       		.uleb128 0x16
 1185 05c7 01       		.byte	0x1
 1186 05c8 51       		.byte	0x51
 1187 05c9 01       		.byte	0x1
 1188 05ca 31       		.byte	0x31
 1189 05cb 16       		.uleb128 0x16
 1190 05cc 01       		.byte	0x1
 1191 05cd 50       		.byte	0x50
ARM GAS  /var/folders/yt/6z6x8bjn5sjf5fbb45bk5m4c0000gn/T//ccS933ay.s 			page 24


 1192 05ce 03       		.byte	0x3
 1193 05cf 0A       		.byte	0xa
 1194 05d0 0540     		.2byte	0x4005
 1195 05d2 00       		.byte	0
 1196 05d3 15       		.uleb128 0x15
 1197 05d4 2C000000 		.4byte	.LVL1
 1198 05d8 98080000 		.4byte	0x898
 1199 05dc ED050000 		.4byte	0x5ed
 1200 05e0 16       		.uleb128 0x16
 1201 05e1 01       		.byte	0x1
 1202 05e2 51       		.byte	0x51
 1203 05e3 02       		.byte	0x2
 1204 05e4 7D       		.byte	0x7d
 1205 05e5 00       		.sleb128 0
 1206 05e6 16       		.uleb128 0x16
 1207 05e7 01       		.byte	0x1
 1208 05e8 50       		.byte	0x50
 1209 05e9 02       		.byte	0x2
 1210 05ea 74       		.byte	0x74
 1211 05eb 00       		.sleb128 0
 1212 05ec 00       		.byte	0
 1213 05ed 15       		.uleb128 0x15
 1214 05ee 46000000 		.4byte	.LVL2
 1215 05f2 98080000 		.4byte	0x898
 1216 05f6 0A060000 		.4byte	0x60a
 1217 05fa 16       		.uleb128 0x16
 1218 05fb 01       		.byte	0x1
 1219 05fc 51       		.byte	0x51
 1220 05fd 02       		.byte	0x2
 1221 05fe 7D       		.byte	0x7d
 1222 05ff 00       		.sleb128 0
 1223 0600 16       		.uleb128 0x16
 1224 0601 01       		.byte	0x1
 1225 0602 50       		.byte	0x50
 1226 0603 05       		.byte	0x5
 1227 0604 0C       		.byte	0xc
 1228 0605 00080140 		.4byte	0x40010800
 1229 0609 00       		.byte	0
 1230 060a 15       		.uleb128 0x15
 1231 060b 4C000000 		.4byte	.LVL3
 1232 060f BE080000 		.4byte	0x8be
 1233 0613 1E060000 		.4byte	0x61e
 1234 0617 16       		.uleb128 0x16
 1235 0618 01       		.byte	0x1
 1236 0619 50       		.byte	0x50
 1237 061a 02       		.byte	0x2
 1238 061b 91       		.byte	0x91
 1239 061c 58       		.sleb128 -40
 1240 061d 00       		.byte	0
 1241 061e 15       		.uleb128 0x15
 1242 061f 54000000 		.4byte	.LVL4
 1243 0623 D9080000 		.4byte	0x8d9
 1244 0627 38060000 		.4byte	0x638
 1245 062b 16       		.uleb128 0x16
 1246 062c 01       		.byte	0x1
 1247 062d 51       		.byte	0x51
 1248 062e 02       		.byte	0x2
ARM GAS  /var/folders/yt/6z6x8bjn5sjf5fbb45bk5m4c0000gn/T//ccS933ay.s 			page 25


 1249 062f 91       		.byte	0x91
 1250 0630 58       		.sleb128 -40
 1251 0631 16       		.uleb128 0x16
 1252 0632 01       		.byte	0x1
 1253 0633 50       		.byte	0x50
 1254 0634 02       		.byte	0x2
 1255 0635 74       		.byte	0x74
 1256 0636 00       		.sleb128 0
 1257 0637 00       		.byte	0
 1258 0638 15       		.uleb128 0x15
 1259 0639 7A000000 		.4byte	.LVL5
 1260 063d F9080000 		.4byte	0x8f9
 1261 0641 52060000 		.4byte	0x652
 1262 0645 16       		.uleb128 0x16
 1263 0646 01       		.byte	0x1
 1264 0647 51       		.byte	0x51
 1265 0648 02       		.byte	0x2
 1266 0649 91       		.byte	0x91
 1267 064a 60       		.sleb128 -32
 1268 064b 16       		.uleb128 0x16
 1269 064c 01       		.byte	0x1
 1270 064d 50       		.byte	0x50
 1271 064e 02       		.byte	0x2
 1272 064f 74       		.byte	0x74
 1273 0650 00       		.sleb128 0
 1274 0651 00       		.byte	0
 1275 0652 15       		.uleb128 0x15
 1276 0653 82000000 		.4byte	.LVL6
 1277 0657 19090000 		.4byte	0x919
 1278 065b 6B060000 		.4byte	0x66b
 1279 065f 16       		.uleb128 0x16
 1280 0660 01       		.byte	0x1
 1281 0661 51       		.byte	0x51
 1282 0662 01       		.byte	0x1
 1283 0663 31       		.byte	0x31
 1284 0664 16       		.uleb128 0x16
 1285 0665 01       		.byte	0x1
 1286 0666 50       		.byte	0x50
 1287 0667 02       		.byte	0x2
 1288 0668 74       		.byte	0x74
 1289 0669 00       		.sleb128 0
 1290 066a 00       		.byte	0
 1291 066b 15       		.uleb128 0x15
 1292 066c 8C000000 		.4byte	.LVL7
 1293 0670 33090000 		.4byte	0x933
 1294 0674 8A060000 		.4byte	0x68a
 1295 0678 16       		.uleb128 0x16
 1296 0679 01       		.byte	0x1
 1297 067a 52       		.byte	0x52
 1298 067b 01       		.byte	0x1
 1299 067c 31       		.byte	0x31
 1300 067d 16       		.uleb128 0x16
 1301 067e 01       		.byte	0x1
 1302 067f 51       		.byte	0x51
 1303 0680 02       		.byte	0x2
 1304 0681 08       		.byte	0x8
 1305 0682 C0       		.byte	0xc0
ARM GAS  /var/folders/yt/6z6x8bjn5sjf5fbb45bk5m4c0000gn/T//ccS933ay.s 			page 26


 1306 0683 16       		.uleb128 0x16
 1307 0684 01       		.byte	0x1
 1308 0685 50       		.byte	0x50
 1309 0686 02       		.byte	0x2
 1310 0687 74       		.byte	0x74
 1311 0688 00       		.sleb128 0
 1312 0689 00       		.byte	0
 1313 068a 15       		.uleb128 0x15
 1314 068b A8000000 		.4byte	.LVL8
 1315 068f 52090000 		.4byte	0x952
 1316 0693 9E060000 		.4byte	0x69e
 1317 0697 16       		.uleb128 0x16
 1318 0698 01       		.byte	0x1
 1319 0699 50       		.byte	0x50
 1320 069a 02       		.byte	0x2
 1321 069b 91       		.byte	0x91
 1322 069c 54       		.sleb128 -44
 1323 069d 00       		.byte	0
 1324 069e 15       		.uleb128 0x15
 1325 069f B4000000 		.4byte	.LVL9
 1326 06a3 6C090000 		.4byte	0x96c
 1327 06a7 BF060000 		.4byte	0x6bf
 1328 06ab 16       		.uleb128 0x16
 1329 06ac 01       		.byte	0x1
 1330 06ad 52       		.byte	0x52
 1331 06ae 02       		.byte	0x2
 1332 06af 75       		.byte	0x75
 1333 06b0 00       		.sleb128 0
 1334 06b1 16       		.uleb128 0x16
 1335 06b2 01       		.byte	0x1
 1336 06b3 51       		.byte	0x51
 1337 06b4 03       		.byte	0x3
 1338 06b5 0A       		.byte	0xa
 1339 06b6 2707     		.2byte	0x727
 1340 06b8 16       		.uleb128 0x16
 1341 06b9 01       		.byte	0x1
 1342 06ba 50       		.byte	0x50
 1343 06bb 02       		.byte	0x2
 1344 06bc 74       		.byte	0x74
 1345 06bd 00       		.sleb128 0
 1346 06be 00       		.byte	0
 1347 06bf 17       		.uleb128 0x17
 1348 06c0 C0000000 		.4byte	.LVL10
 1349 06c4 6C090000 		.4byte	0x96c
 1350 06c8 16       		.uleb128 0x16
 1351 06c9 01       		.byte	0x1
 1352 06ca 52       		.byte	0x52
 1353 06cb 02       		.byte	0x2
 1354 06cc 76       		.byte	0x76
 1355 06cd 00       		.sleb128 0
 1356 06ce 16       		.uleb128 0x16
 1357 06cf 01       		.byte	0x1
 1358 06d0 51       		.byte	0x51
 1359 06d1 03       		.byte	0x3
 1360 06d2 0A       		.byte	0xa
 1361 06d3 2505     		.2byte	0x525
 1362 06d5 16       		.uleb128 0x16
ARM GAS  /var/folders/yt/6z6x8bjn5sjf5fbb45bk5m4c0000gn/T//ccS933ay.s 			page 27


 1363 06d6 01       		.byte	0x1
 1364 06d7 50       		.byte	0x50
 1365 06d8 02       		.byte	0x2
 1366 06d9 74       		.byte	0x74
 1367 06da 00       		.sleb128 0
 1368 06db 00       		.byte	0
 1369 06dc 00       		.byte	0
 1370 06dd 18       		.uleb128 0x18
 1371 06de 01       		.byte	0x1
 1372 06df 5E010000 		.4byte	.LASF128
 1373 06e3 01       		.byte	0x1
 1374 06e4 38       		.byte	0x38
 1375 06e5 01       		.byte	0x1
 1376 06e6 E1010000 		.4byte	0x1e1
 1377 06ea C8000000 		.4byte	.LFB35
 1378 06ee 00010000 		.4byte	.LFE35
 1379 06f2 38000000 		.4byte	.LLST1
 1380 06f6 01       		.byte	0x1
 1381 06f7 48070000 		.4byte	0x748
 1382 06fb 19       		.uleb128 0x19
 1383 06fc 636800   		.ascii	"ch\000"
 1384 06ff 01       		.byte	0x1
 1385 0700 38       		.byte	0x38
 1386 0701 55050000 		.4byte	0x555
 1387 0705 64000000 		.4byte	.LLST2
 1388 0709 15       		.uleb128 0x15
 1389 070a DC000000 		.4byte	.LVL13
 1390 070e 8B090000 		.4byte	0x98b
 1391 0712 27070000 		.4byte	0x727
 1392 0716 16       		.uleb128 0x16
 1393 0717 01       		.byte	0x1
 1394 0718 53       		.byte	0x53
 1395 0719 01       		.byte	0x1
 1396 071a 30       		.byte	0x30
 1397 071b 16       		.uleb128 0x16
 1398 071c 01       		.byte	0x1
 1399 071d 52       		.byte	0x52
 1400 071e 01       		.byte	0x1
 1401 071f 3A       		.byte	0x3a
 1402 0720 16       		.uleb128 0x16
 1403 0721 01       		.byte	0x1
 1404 0722 51       		.byte	0x51
 1405 0723 02       		.byte	0x2
 1406 0724 91       		.byte	0x91
 1407 0725 77       		.sleb128 -9
 1408 0726 00       		.byte	0
 1409 0727 17       		.uleb128 0x17
 1410 0728 EE000000 		.4byte	.LVL14
 1411 072c 6C090000 		.4byte	0x96c
 1412 0730 16       		.uleb128 0x16
 1413 0731 01       		.byte	0x1
 1414 0732 52       		.byte	0x52
 1415 0733 02       		.byte	0x2
 1416 0734 74       		.byte	0x74
 1417 0735 00       		.sleb128 0
 1418 0736 16       		.uleb128 0x16
 1419 0737 01       		.byte	0x1
ARM GAS  /var/folders/yt/6z6x8bjn5sjf5fbb45bk5m4c0000gn/T//ccS933ay.s 			page 28


 1420 0738 51       		.byte	0x51
 1421 0739 03       		.byte	0x3
 1422 073a 0A       		.byte	0xa
 1423 073b 2707     		.2byte	0x727
 1424 073d 16       		.uleb128 0x16
 1425 073e 01       		.byte	0x1
 1426 073f 50       		.byte	0x50
 1427 0740 05       		.byte	0x5
 1428 0741 0C       		.byte	0xc
 1429 0742 00380140 		.4byte	0x40013800
 1430 0746 00       		.byte	0
 1431 0747 00       		.byte	0
 1432 0748 13       		.uleb128 0x13
 1433 0749 01       		.byte	0x1
 1434 074a 20000000 		.4byte	.LASF125
 1435 074e 01       		.byte	0x1
 1436 074f 42       		.byte	0x42
 1437 0750 01       		.byte	0x1
 1438 0751 00010000 		.4byte	.LFB36
 1439 0755 4C010000 		.4byte	.LFE36
 1440 0759 A7000000 		.4byte	.LLST3
 1441 075d 01       		.byte	0x1
 1442 075e 03080000 		.4byte	0x803
 1443 0762 1A       		.uleb128 0x1a
 1444 0763 31080000 		.4byte	.LASF126
 1445 0767 01       		.byte	0x1
 1446 0768 42       		.byte	0x42
 1447 0769 45050000 		.4byte	0x545
 1448 076d D3000000 		.4byte	.LLST4
 1449 0771 1A       		.uleb128 0x1a
 1450 0772 D9070000 		.4byte	.LASF127
 1451 0776 01       		.byte	0x1
 1452 0777 42       		.byte	0x42
 1453 0778 A8010000 		.4byte	0x1a8
 1454 077c F4000000 		.4byte	.LLST5
 1455 0780 1B       		.uleb128 0x1b
 1456 0781 756C00   		.ascii	"ul\000"
 1457 0784 01       		.byte	0x1
 1458 0785 45       		.byte	0x45
 1459 0786 A8010000 		.4byte	0x1a8
 1460 078a 15010000 		.4byte	.LLST6
 1461 078e 15       		.uleb128 0x15
 1462 078f 18010000 		.4byte	.LVL19
 1463 0793 8B090000 		.4byte	0x98b
 1464 0797 AC070000 		.4byte	0x7ac
 1465 079b 16       		.uleb128 0x16
 1466 079c 01       		.byte	0x1
 1467 079d 53       		.byte	0x53
 1468 079e 01       		.byte	0x1
 1469 079f 30       		.byte	0x30
 1470 07a0 16       		.uleb128 0x16
 1471 07a1 01       		.byte	0x1
 1472 07a2 52       		.byte	0x52
 1473 07a3 01       		.byte	0x1
 1474 07a4 35       		.byte	0x35
 1475 07a5 16       		.uleb128 0x16
 1476 07a6 01       		.byte	0x1
ARM GAS  /var/folders/yt/6z6x8bjn5sjf5fbb45bk5m4c0000gn/T//ccS933ay.s 			page 29


 1477 07a7 51       		.byte	0x51
 1478 07a8 02       		.byte	0x2
 1479 07a9 74       		.byte	0x74
 1480 07aa 00       		.sleb128 0
 1481 07ab 00       		.byte	0
 1482 07ac 15       		.uleb128 0x15
 1483 07ad 28010000 		.4byte	.LVL20
 1484 07b1 6C090000 		.4byte	0x96c
 1485 07b5 CF070000 		.4byte	0x7cf
 1486 07b9 16       		.uleb128 0x16
 1487 07ba 01       		.byte	0x1
 1488 07bb 52       		.byte	0x52
 1489 07bc 01       		.byte	0x1
 1490 07bd 31       		.byte	0x31
 1491 07be 16       		.uleb128 0x16
 1492 07bf 01       		.byte	0x1
 1493 07c0 51       		.byte	0x51
 1494 07c1 03       		.byte	0x3
 1495 07c2 0A       		.byte	0xa
 1496 07c3 2707     		.2byte	0x727
 1497 07c5 16       		.uleb128 0x16
 1498 07c6 01       		.byte	0x1
 1499 07c7 50       		.byte	0x50
 1500 07c8 05       		.byte	0x5
 1501 07c9 0C       		.byte	0xc
 1502 07ca 00380140 		.4byte	0x40013800
 1503 07ce 00       		.byte	0
 1504 07cf 15       		.uleb128 0x15
 1505 07d0 2E010000 		.4byte	.LVL21
 1506 07d4 C4090000 		.4byte	0x9c4
 1507 07d8 E2070000 		.4byte	0x7e2
 1508 07dc 16       		.uleb128 0x16
 1509 07dd 01       		.byte	0x1
 1510 07de 50       		.byte	0x50
 1511 07df 01       		.byte	0x1
 1512 07e0 35       		.byte	0x35
 1513 07e1 00       		.byte	0
 1514 07e2 1C       		.uleb128 0x1c
 1515 07e3 42010000 		.4byte	.LVL24
 1516 07e7 01       		.byte	0x1
 1517 07e8 6C090000 		.4byte	0x96c
 1518 07ec 16       		.uleb128 0x16
 1519 07ed 01       		.byte	0x1
 1520 07ee 52       		.byte	0x52
 1521 07ef 01       		.byte	0x1
 1522 07f0 31       		.byte	0x31
 1523 07f1 16       		.uleb128 0x16
 1524 07f2 01       		.byte	0x1
 1525 07f3 51       		.byte	0x51
 1526 07f4 03       		.byte	0x3
 1527 07f5 0A       		.byte	0xa
 1528 07f6 2707     		.2byte	0x727
 1529 07f8 16       		.uleb128 0x16
 1530 07f9 01       		.byte	0x1
 1531 07fa 50       		.byte	0x50
 1532 07fb 05       		.byte	0x5
 1533 07fc 0C       		.byte	0xc
ARM GAS  /var/folders/yt/6z6x8bjn5sjf5fbb45bk5m4c0000gn/T//ccS933ay.s 			page 30


 1534 07fd 00380140 		.4byte	0x40013800
 1535 0801 00       		.byte	0
 1536 0802 00       		.byte	0
 1537 0803 18       		.uleb128 0x18
 1538 0804 01       		.byte	0x1
 1539 0805 9F060000 		.4byte	.LASF129
 1540 0809 01       		.byte	0x1
 1541 080a 5A       		.byte	0x5a
 1542 080b 01       		.byte	0x1
 1543 080c E1010000 		.4byte	0x1e1
 1544 0810 4C010000 		.4byte	.LFB37
 1545 0814 68010000 		.4byte	.LFE37
 1546 0818 5E010000 		.4byte	.LLST7
 1547 081c 01       		.byte	0x1
 1548 081d 4B080000 		.4byte	0x84b
 1549 0821 19       		.uleb128 0x19
 1550 0822 636800   		.ascii	"ch\000"
 1551 0825 01       		.byte	0x1
 1552 0826 5A       		.byte	0x5a
 1553 0827 4B080000 		.4byte	0x84b
 1554 082b 7E010000 		.4byte	.LLST8
 1555 082f 17       		.uleb128 0x17
 1556 0830 5C010000 		.4byte	.LVL27
 1557 0834 DE090000 		.4byte	0x9de
 1558 0838 16       		.uleb128 0x16
 1559 0839 01       		.byte	0x1
 1560 083a 53       		.byte	0x53
 1561 083b 01       		.byte	0x1
 1562 083c 30       		.byte	0x30
 1563 083d 16       		.uleb128 0x16
 1564 083e 01       		.byte	0x1
 1565 083f 52       		.byte	0x52
 1566 0840 01       		.byte	0x1
 1567 0841 30       		.byte	0x30
 1568 0842 16       		.uleb128 0x16
 1569 0843 01       		.byte	0x1
 1570 0844 51       		.byte	0x51
 1571 0845 03       		.byte	0x3
 1572 0846 F3       		.byte	0xf3
 1573 0847 01       		.uleb128 0x1
 1574 0848 50       		.byte	0x50
 1575 0849 00       		.byte	0
 1576 084a 00       		.byte	0
 1577 084b 12       		.uleb128 0x12
 1578 084c 04       		.byte	0x4
 1579 084d 55050000 		.4byte	0x555
 1580 0851 1D       		.uleb128 0x1d
 1581 0852 BD050000 		.4byte	.LASF130
 1582 0856 0A       		.byte	0xa
 1583 0857 CF06     		.2byte	0x6cf
 1584 0859 5F080000 		.4byte	0x85f
 1585 085d 01       		.byte	0x1
 1586 085e 01       		.byte	0x1
 1587 085f 07       		.uleb128 0x7
 1588 0860 BD010000 		.4byte	0x1bd
 1589 0864 1E       		.uleb128 0x1e
 1590 0865 BC010000 		.4byte	.LASF131
ARM GAS  /var/folders/yt/6z6x8bjn5sjf5fbb45bk5m4c0000gn/T//ccS933ay.s 			page 31


 1591 0869 0B       		.byte	0xb
 1592 086a 16       		.byte	0x16
 1593 086b 5C050000 		.4byte	0x55c
 1594 086f 01       		.byte	0x1
 1595 0870 01       		.byte	0x1
 1596 0871 1E       		.uleb128 0x1e
 1597 0872 5E000000 		.4byte	.LASF132
 1598 0876 0B       		.byte	0xb
 1599 0877 16       		.byte	0x16
 1600 0878 5C050000 		.4byte	0x55c
 1601 087c 01       		.byte	0x1
 1602 087d 01       		.byte	0x1
 1603 087e 1F       		.uleb128 0x1f
 1604 087f 01       		.byte	0x1
 1605 0880 AD060000 		.4byte	.LASF133
 1606 0884 0C       		.byte	0xc
 1607 0885 B502     		.2byte	0x2b5
 1608 0887 01       		.byte	0x1
 1609 0888 01       		.byte	0x1
 1610 0889 98080000 		.4byte	0x898
 1611 088d 20       		.uleb128 0x20
 1612 088e E1010000 		.4byte	0x1e1
 1613 0892 20       		.uleb128 0x20
 1614 0893 13020000 		.4byte	0x213
 1615 0897 00       		.byte	0
 1616 0898 1F       		.uleb128 0x1f
 1617 0899 01       		.byte	0x1
 1618 089a 39040000 		.4byte	.LASF134
 1619 089e 05       		.byte	0x5
 1620 089f 5F01     		.2byte	0x15f
 1621 08a1 01       		.byte	0x1
 1622 08a2 01       		.byte	0x1
 1623 08a3 B2080000 		.4byte	0x8b2
 1624 08a7 20       		.uleb128 0x20
 1625 08a8 B2080000 		.4byte	0x8b2
 1626 08ac 20       		.uleb128 0x20
 1627 08ad B8080000 		.4byte	0x8b8
 1628 08b1 00       		.byte	0
 1629 08b2 12       		.uleb128 0x12
 1630 08b3 04       		.byte	0x4
 1631 08b4 92020000 		.4byte	0x292
 1632 08b8 12       		.uleb128 0x12
 1633 08b9 04       		.byte	0x4
 1634 08ba 22040000 		.4byte	0x422
 1635 08be 1F       		.uleb128 0x1f
 1636 08bf 01       		.byte	0x1
 1637 08c0 DE010000 		.4byte	.LASF135
 1638 08c4 06       		.byte	0x6
 1639 08c5 7101     		.2byte	0x171
 1640 08c7 01       		.byte	0x1
 1641 08c8 01       		.byte	0x1
 1642 08c9 D3080000 		.4byte	0x8d3
 1643 08cd 20       		.uleb128 0x20
 1644 08ce D3080000 		.4byte	0x8d3
 1645 08d2 00       		.byte	0
 1646 08d3 12       		.uleb128 0x12
 1647 08d4 04       		.byte	0x4
ARM GAS  /var/folders/yt/6z6x8bjn5sjf5fbb45bk5m4c0000gn/T//ccS933ay.s 			page 32


 1648 08d5 D6040000 		.4byte	0x4d6
 1649 08d9 1F       		.uleb128 0x1f
 1650 08da 01       		.byte	0x1
 1651 08db FE050000 		.4byte	.LASF136
 1652 08df 06       		.byte	0x6
 1653 08e0 7001     		.2byte	0x170
 1654 08e2 01       		.byte	0x1
 1655 08e3 01       		.byte	0x1
 1656 08e4 F3080000 		.4byte	0x8f3
 1657 08e8 20       		.uleb128 0x20
 1658 08e9 F3080000 		.4byte	0x8f3
 1659 08ed 20       		.uleb128 0x20
 1660 08ee D3080000 		.4byte	0x8d3
 1661 08f2 00       		.byte	0
 1662 08f3 12       		.uleb128 0x12
 1663 08f4 04       		.byte	0x4
 1664 08f5 78030000 		.4byte	0x378
 1665 08f9 1F       		.uleb128 0x1f
 1666 08fa 01       		.byte	0x1
 1667 08fb 08040000 		.4byte	.LASF137
 1668 08ff 06       		.byte	0x6
 1669 0900 6E01     		.2byte	0x16e
 1670 0902 01       		.byte	0x1
 1671 0903 01       		.byte	0x1
 1672 0904 13090000 		.4byte	0x913
 1673 0908 20       		.uleb128 0x20
 1674 0909 F3080000 		.4byte	0x8f3
 1675 090d 20       		.uleb128 0x20
 1676 090e 13090000 		.4byte	0x913
 1677 0912 00       		.byte	0
 1678 0913 12       		.uleb128 0x12
 1679 0914 04       		.byte	0x4
 1680 0915 8A040000 		.4byte	0x48a
 1681 0919 1F       		.uleb128 0x1f
 1682 091a 01       		.byte	0x1
 1683 091b 6F070000 		.4byte	.LASF138
 1684 091f 06       		.byte	0x6
 1685 0920 7201     		.2byte	0x172
 1686 0922 01       		.byte	0x1
 1687 0923 01       		.byte	0x1
 1688 0924 33090000 		.4byte	0x933
 1689 0928 20       		.uleb128 0x20
 1690 0929 F3080000 		.4byte	0x8f3
 1691 092d 20       		.uleb128 0x20
 1692 092e 13020000 		.4byte	0x213
 1693 0932 00       		.byte	0
 1694 0933 1F       		.uleb128 0x1f
 1695 0934 01       		.byte	0x1
 1696 0935 C4010000 		.4byte	.LASF139
 1697 0939 06       		.byte	0x6
 1698 093a 7401     		.2byte	0x174
 1699 093c 01       		.byte	0x1
 1700 093d 01       		.byte	0x1
 1701 093e 52090000 		.4byte	0x952
 1702 0942 20       		.uleb128 0x20
 1703 0943 F3080000 		.4byte	0x8f3
 1704 0947 20       		.uleb128 0x20
ARM GAS  /var/folders/yt/6z6x8bjn5sjf5fbb45bk5m4c0000gn/T//ccS933ay.s 			page 33


 1705 0948 D6010000 		.4byte	0x1d6
 1706 094c 20       		.uleb128 0x20
 1707 094d 13020000 		.4byte	0x213
 1708 0951 00       		.byte	0
 1709 0952 21       		.uleb128 0x21
 1710 0953 01       		.byte	0x1
 1711 0954 95080000 		.4byte	.LASF140
 1712 0958 07       		.byte	0x7
 1713 0959 C5       		.byte	0xc5
 1714 095a 01       		.byte	0x1
 1715 095b 01       		.byte	0x1
 1716 095c 66090000 		.4byte	0x966
 1717 0960 20       		.uleb128 0x20
 1718 0961 66090000 		.4byte	0x966
 1719 0965 00       		.byte	0
 1720 0966 12       		.uleb128 0x12
 1721 0967 04       		.byte	0x4
 1722 0968 22050000 		.4byte	0x522
 1723 096c 1F       		.uleb128 0x1f
 1724 096d 01       		.byte	0x1
 1725 096e 4D080000 		.4byte	.LASF141
 1726 0972 06       		.byte	0x6
 1727 0973 7301     		.2byte	0x173
 1728 0975 01       		.byte	0x1
 1729 0976 01       		.byte	0x1
 1730 0977 8B090000 		.4byte	0x98b
 1731 097b 20       		.uleb128 0x20
 1732 097c F3080000 		.4byte	0x8f3
 1733 0980 20       		.uleb128 0x20
 1734 0981 D6010000 		.4byte	0x1d6
 1735 0985 20       		.uleb128 0x20
 1736 0986 13020000 		.4byte	0x213
 1737 098a 00       		.byte	0
 1738 098b 22       		.uleb128 0x22
 1739 098c 01       		.byte	0x1
 1740 098d 14030000 		.4byte	.LASF143
 1741 0991 09       		.byte	0x9
 1742 0992 B402     		.2byte	0x2b4
 1743 0994 01       		.byte	0x1
 1744 0995 2F050000 		.4byte	0x52f
 1745 0999 01       		.byte	0x1
 1746 099a B3090000 		.4byte	0x9b3
 1747 099e 20       		.uleb128 0x20
 1748 099f 5C050000 		.4byte	0x55c
 1749 09a3 20       		.uleb128 0x20
 1750 09a4 B3090000 		.4byte	0x9b3
 1751 09a8 20       		.uleb128 0x20
 1752 09a9 3A050000 		.4byte	0x53a
 1753 09ad 20       		.uleb128 0x20
 1754 09ae BF090000 		.4byte	0x9bf
 1755 09b2 00       		.byte	0
 1756 09b3 11       		.uleb128 0x11
 1757 09b4 B8090000 		.4byte	0x9b8
 1758 09b8 12       		.uleb128 0x12
 1759 09b9 04       		.byte	0x4
 1760 09ba BE090000 		.4byte	0x9be
 1761 09be 23       		.uleb128 0x23
ARM GAS  /var/folders/yt/6z6x8bjn5sjf5fbb45bk5m4c0000gn/T//ccS933ay.s 			page 34


 1762 09bf 11       		.uleb128 0x11
 1763 09c0 2F050000 		.4byte	0x52f
 1764 09c4 1F       		.uleb128 0x1f
 1765 09c5 01       		.byte	0x1
 1766 09c6 6C010000 		.4byte	.LASF142
 1767 09ca 0D       		.byte	0xd
 1768 09cb B702     		.2byte	0x2b7
 1769 09cd 01       		.byte	0x1
 1770 09ce 01       		.byte	0x1
 1771 09cf D9090000 		.4byte	0x9d9
 1772 09d3 20       		.uleb128 0x20
 1773 09d4 D9090000 		.4byte	0x9d9
 1774 09d8 00       		.byte	0
 1775 09d9 11       		.uleb128 0x11
 1776 09da 3A050000 		.4byte	0x53a
 1777 09de 22       		.uleb128 0x22
 1778 09df 01       		.byte	0x1
 1779 09e0 0D010000 		.4byte	.LASF144
 1780 09e4 09       		.byte	0x9
 1781 09e5 F503     		.2byte	0x3f5
 1782 09e7 01       		.byte	0x1
 1783 09e8 2F050000 		.4byte	0x52f
 1784 09ec 01       		.byte	0x1
 1785 09ed 060A0000 		.4byte	0xa06
 1786 09f1 20       		.uleb128 0x20
 1787 09f2 5C050000 		.4byte	0x55c
 1788 09f6 20       		.uleb128 0x20
 1789 09f7 060A0000 		.4byte	0xa06
 1790 09fb 20       		.uleb128 0x20
 1791 09fc 3A050000 		.4byte	0x53a
 1792 0a00 20       		.uleb128 0x20
 1793 0a01 BF090000 		.4byte	0x9bf
 1794 0a05 00       		.byte	0
 1795 0a06 11       		.uleb128 0x11
 1796 0a07 2D050000 		.4byte	0x52d
 1797 0a0b 00       		.byte	0
 1798              		.section	.debug_abbrev,"",%progbits
 1799              	.Ldebug_abbrev0:
 1800 0000 01       		.uleb128 0x1
 1801 0001 11       		.uleb128 0x11
 1802 0002 01       		.byte	0x1
 1803 0003 25       		.uleb128 0x25
 1804 0004 0E       		.uleb128 0xe
 1805 0005 13       		.uleb128 0x13
 1806 0006 0B       		.uleb128 0xb
 1807 0007 03       		.uleb128 0x3
 1808 0008 0E       		.uleb128 0xe
 1809 0009 1B       		.uleb128 0x1b
 1810 000a 0E       		.uleb128 0xe
 1811 000b 11       		.uleb128 0x11
 1812 000c 01       		.uleb128 0x1
 1813 000d 12       		.uleb128 0x12
 1814 000e 01       		.uleb128 0x1
 1815 000f 10       		.uleb128 0x10
 1816 0010 06       		.uleb128 0x6
 1817 0011 00       		.byte	0
 1818 0012 00       		.byte	0
ARM GAS  /var/folders/yt/6z6x8bjn5sjf5fbb45bk5m4c0000gn/T//ccS933ay.s 			page 35


 1819 0013 02       		.uleb128 0x2
 1820 0014 04       		.uleb128 0x4
 1821 0015 01       		.byte	0x1
 1822 0016 03       		.uleb128 0x3
 1823 0017 0E       		.uleb128 0xe
 1824 0018 0B       		.uleb128 0xb
 1825 0019 0B       		.uleb128 0xb
 1826 001a 3A       		.uleb128 0x3a
 1827 001b 0B       		.uleb128 0xb
 1828 001c 3B       		.uleb128 0x3b
 1829 001d 0B       		.uleb128 0xb
 1830 001e 01       		.uleb128 0x1
 1831 001f 13       		.uleb128 0x13
 1832 0020 00       		.byte	0
 1833 0021 00       		.byte	0
 1834 0022 03       		.uleb128 0x3
 1835 0023 28       		.uleb128 0x28
 1836 0024 00       		.byte	0
 1837 0025 03       		.uleb128 0x3
 1838 0026 0E       		.uleb128 0xe
 1839 0027 1C       		.uleb128 0x1c
 1840 0028 0D       		.uleb128 0xd
 1841 0029 00       		.byte	0
 1842 002a 00       		.byte	0
 1843 002b 04       		.uleb128 0x4
 1844 002c 24       		.uleb128 0x24
 1845 002d 00       		.byte	0
 1846 002e 0B       		.uleb128 0xb
 1847 002f 0B       		.uleb128 0xb
 1848 0030 3E       		.uleb128 0x3e
 1849 0031 0B       		.uleb128 0xb
 1850 0032 03       		.uleb128 0x3
 1851 0033 0E       		.uleb128 0xe
 1852 0034 00       		.byte	0
 1853 0035 00       		.byte	0
 1854 0036 05       		.uleb128 0x5
 1855 0037 16       		.uleb128 0x16
 1856 0038 00       		.byte	0
 1857 0039 03       		.uleb128 0x3
 1858 003a 0E       		.uleb128 0xe
 1859 003b 3A       		.uleb128 0x3a
 1860 003c 0B       		.uleb128 0xb
 1861 003d 3B       		.uleb128 0x3b
 1862 003e 0B       		.uleb128 0xb
 1863 003f 49       		.uleb128 0x49
 1864 0040 13       		.uleb128 0x13
 1865 0041 00       		.byte	0
 1866 0042 00       		.byte	0
 1867 0043 06       		.uleb128 0x6
 1868 0044 24       		.uleb128 0x24
 1869 0045 00       		.byte	0
 1870 0046 0B       		.uleb128 0xb
 1871 0047 0B       		.uleb128 0xb
 1872 0048 3E       		.uleb128 0x3e
 1873 0049 0B       		.uleb128 0xb
 1874 004a 03       		.uleb128 0x3
 1875 004b 08       		.uleb128 0x8
ARM GAS  /var/folders/yt/6z6x8bjn5sjf5fbb45bk5m4c0000gn/T//ccS933ay.s 			page 36


 1876 004c 00       		.byte	0
 1877 004d 00       		.byte	0
 1878 004e 07       		.uleb128 0x7
 1879 004f 35       		.uleb128 0x35
 1880 0050 00       		.byte	0
 1881 0051 49       		.uleb128 0x49
 1882 0052 13       		.uleb128 0x13
 1883 0053 00       		.byte	0
 1884 0054 00       		.byte	0
 1885 0055 08       		.uleb128 0x8
 1886 0056 04       		.uleb128 0x4
 1887 0057 01       		.byte	0x1
 1888 0058 0B       		.uleb128 0xb
 1889 0059 0B       		.uleb128 0xb
 1890 005a 3A       		.uleb128 0x3a
 1891 005b 0B       		.uleb128 0xb
 1892 005c 3B       		.uleb128 0x3b
 1893 005d 05       		.uleb128 0x5
 1894 005e 01       		.uleb128 0x1
 1895 005f 13       		.uleb128 0x13
 1896 0060 00       		.byte	0
 1897 0061 00       		.byte	0
 1898 0062 09       		.uleb128 0x9
 1899 0063 16       		.uleb128 0x16
 1900 0064 00       		.byte	0
 1901 0065 03       		.uleb128 0x3
 1902 0066 0E       		.uleb128 0xe
 1903 0067 3A       		.uleb128 0x3a
 1904 0068 0B       		.uleb128 0xb
 1905 0069 3B       		.uleb128 0x3b
 1906 006a 05       		.uleb128 0x5
 1907 006b 49       		.uleb128 0x49
 1908 006c 13       		.uleb128 0x13
 1909 006d 00       		.byte	0
 1910 006e 00       		.byte	0
 1911 006f 0A       		.uleb128 0xa
 1912 0070 13       		.uleb128 0x13
 1913 0071 01       		.byte	0x1
 1914 0072 0B       		.uleb128 0xb
 1915 0073 0B       		.uleb128 0xb
 1916 0074 3A       		.uleb128 0x3a
 1917 0075 0B       		.uleb128 0xb
 1918 0076 3B       		.uleb128 0x3b
 1919 0077 05       		.uleb128 0x5
 1920 0078 01       		.uleb128 0x1
 1921 0079 13       		.uleb128 0x13
 1922 007a 00       		.byte	0
 1923 007b 00       		.byte	0
 1924 007c 0B       		.uleb128 0xb
 1925 007d 0D       		.uleb128 0xd
 1926 007e 00       		.byte	0
 1927 007f 03       		.uleb128 0x3
 1928 0080 08       		.uleb128 0x8
 1929 0081 3A       		.uleb128 0x3a
 1930 0082 0B       		.uleb128 0xb
 1931 0083 3B       		.uleb128 0x3b
 1932 0084 05       		.uleb128 0x5
ARM GAS  /var/folders/yt/6z6x8bjn5sjf5fbb45bk5m4c0000gn/T//ccS933ay.s 			page 37


 1933 0085 49       		.uleb128 0x49
 1934 0086 13       		.uleb128 0x13
 1935 0087 38       		.uleb128 0x38
 1936 0088 0A       		.uleb128 0xa
 1937 0089 00       		.byte	0
 1938 008a 00       		.byte	0
 1939 008b 0C       		.uleb128 0xc
 1940 008c 0D       		.uleb128 0xd
 1941 008d 00       		.byte	0
 1942 008e 03       		.uleb128 0x3
 1943 008f 0E       		.uleb128 0xe
 1944 0090 3A       		.uleb128 0x3a
 1945 0091 0B       		.uleb128 0xb
 1946 0092 3B       		.uleb128 0x3b
 1947 0093 05       		.uleb128 0x5
 1948 0094 49       		.uleb128 0x49
 1949 0095 13       		.uleb128 0x13
 1950 0096 38       		.uleb128 0x38
 1951 0097 0A       		.uleb128 0xa
 1952 0098 00       		.byte	0
 1953 0099 00       		.byte	0
 1954 009a 0D       		.uleb128 0xd
 1955 009b 04       		.uleb128 0x4
 1956 009c 01       		.byte	0x1
 1957 009d 0B       		.uleb128 0xb
 1958 009e 0B       		.uleb128 0xb
 1959 009f 3A       		.uleb128 0x3a
 1960 00a0 0B       		.uleb128 0xb
 1961 00a1 3B       		.uleb128 0x3b
 1962 00a2 0B       		.uleb128 0xb
 1963 00a3 01       		.uleb128 0x1
 1964 00a4 13       		.uleb128 0x13
 1965 00a5 00       		.byte	0
 1966 00a6 00       		.byte	0
 1967 00a7 0E       		.uleb128 0xe
 1968 00a8 13       		.uleb128 0x13
 1969 00a9 01       		.byte	0x1
 1970 00aa 0B       		.uleb128 0xb
 1971 00ab 0B       		.uleb128 0xb
 1972 00ac 3A       		.uleb128 0x3a
 1973 00ad 0B       		.uleb128 0xb
 1974 00ae 3B       		.uleb128 0x3b
 1975 00af 0B       		.uleb128 0xb
 1976 00b0 01       		.uleb128 0x1
 1977 00b1 13       		.uleb128 0x13
 1978 00b2 00       		.byte	0
 1979 00b3 00       		.byte	0
 1980 00b4 0F       		.uleb128 0xf
 1981 00b5 0D       		.uleb128 0xd
 1982 00b6 00       		.byte	0
 1983 00b7 03       		.uleb128 0x3
 1984 00b8 0E       		.uleb128 0xe
 1985 00b9 3A       		.uleb128 0x3a
 1986 00ba 0B       		.uleb128 0xb
 1987 00bb 3B       		.uleb128 0x3b
 1988 00bc 0B       		.uleb128 0xb
 1989 00bd 49       		.uleb128 0x49
ARM GAS  /var/folders/yt/6z6x8bjn5sjf5fbb45bk5m4c0000gn/T//ccS933ay.s 			page 38


 1990 00be 13       		.uleb128 0x13
 1991 00bf 38       		.uleb128 0x38
 1992 00c0 0A       		.uleb128 0xa
 1993 00c1 00       		.byte	0
 1994 00c2 00       		.byte	0
 1995 00c3 10       		.uleb128 0x10
 1996 00c4 0F       		.uleb128 0xf
 1997 00c5 00       		.byte	0
 1998 00c6 0B       		.uleb128 0xb
 1999 00c7 0B       		.uleb128 0xb
 2000 00c8 00       		.byte	0
 2001 00c9 00       		.byte	0
 2002 00ca 11       		.uleb128 0x11
 2003 00cb 26       		.uleb128 0x26
 2004 00cc 00       		.byte	0
 2005 00cd 49       		.uleb128 0x49
 2006 00ce 13       		.uleb128 0x13
 2007 00cf 00       		.byte	0
 2008 00d0 00       		.byte	0
 2009 00d1 12       		.uleb128 0x12
 2010 00d2 0F       		.uleb128 0xf
 2011 00d3 00       		.byte	0
 2012 00d4 0B       		.uleb128 0xb
 2013 00d5 0B       		.uleb128 0xb
 2014 00d6 49       		.uleb128 0x49
 2015 00d7 13       		.uleb128 0x13
 2016 00d8 00       		.byte	0
 2017 00d9 00       		.byte	0
 2018 00da 13       		.uleb128 0x13
 2019 00db 2E       		.uleb128 0x2e
 2020 00dc 01       		.byte	0x1
 2021 00dd 3F       		.uleb128 0x3f
 2022 00de 0C       		.uleb128 0xc
 2023 00df 03       		.uleb128 0x3
 2024 00e0 0E       		.uleb128 0xe
 2025 00e1 3A       		.uleb128 0x3a
 2026 00e2 0B       		.uleb128 0xb
 2027 00e3 3B       		.uleb128 0x3b
 2028 00e4 0B       		.uleb128 0xb
 2029 00e5 27       		.uleb128 0x27
 2030 00e6 0C       		.uleb128 0xc
 2031 00e7 11       		.uleb128 0x11
 2032 00e8 01       		.uleb128 0x1
 2033 00e9 12       		.uleb128 0x12
 2034 00ea 01       		.uleb128 0x1
 2035 00eb 40       		.uleb128 0x40
 2036 00ec 06       		.uleb128 0x6
 2037 00ed 9742     		.uleb128 0x2117
 2038 00ef 0C       		.uleb128 0xc
 2039 00f0 01       		.uleb128 0x1
 2040 00f1 13       		.uleb128 0x13
 2041 00f2 00       		.byte	0
 2042 00f3 00       		.byte	0
 2043 00f4 14       		.uleb128 0x14
 2044 00f5 34       		.uleb128 0x34
 2045 00f6 00       		.byte	0
 2046 00f7 03       		.uleb128 0x3
ARM GAS  /var/folders/yt/6z6x8bjn5sjf5fbb45bk5m4c0000gn/T//ccS933ay.s 			page 39


 2047 00f8 0E       		.uleb128 0xe
 2048 00f9 3A       		.uleb128 0x3a
 2049 00fa 0B       		.uleb128 0xb
 2050 00fb 3B       		.uleb128 0x3b
 2051 00fc 0B       		.uleb128 0xb
 2052 00fd 49       		.uleb128 0x49
 2053 00fe 13       		.uleb128 0x13
 2054 00ff 02       		.uleb128 0x2
 2055 0100 0A       		.uleb128 0xa
 2056 0101 00       		.byte	0
 2057 0102 00       		.byte	0
 2058 0103 15       		.uleb128 0x15
 2059 0104 898201   		.uleb128 0x4109
 2060 0107 01       		.byte	0x1
 2061 0108 11       		.uleb128 0x11
 2062 0109 01       		.uleb128 0x1
 2063 010a 31       		.uleb128 0x31
 2064 010b 13       		.uleb128 0x13
 2065 010c 01       		.uleb128 0x1
 2066 010d 13       		.uleb128 0x13
 2067 010e 00       		.byte	0
 2068 010f 00       		.byte	0
 2069 0110 16       		.uleb128 0x16
 2070 0111 8A8201   		.uleb128 0x410a
 2071 0114 00       		.byte	0
 2072 0115 02       		.uleb128 0x2
 2073 0116 0A       		.uleb128 0xa
 2074 0117 9142     		.uleb128 0x2111
 2075 0119 0A       		.uleb128 0xa
 2076 011a 00       		.byte	0
 2077 011b 00       		.byte	0
 2078 011c 17       		.uleb128 0x17
 2079 011d 898201   		.uleb128 0x4109
 2080 0120 01       		.byte	0x1
 2081 0121 11       		.uleb128 0x11
 2082 0122 01       		.uleb128 0x1
 2083 0123 31       		.uleb128 0x31
 2084 0124 13       		.uleb128 0x13
 2085 0125 00       		.byte	0
 2086 0126 00       		.byte	0
 2087 0127 18       		.uleb128 0x18
 2088 0128 2E       		.uleb128 0x2e
 2089 0129 01       		.byte	0x1
 2090 012a 3F       		.uleb128 0x3f
 2091 012b 0C       		.uleb128 0xc
 2092 012c 03       		.uleb128 0x3
 2093 012d 0E       		.uleb128 0xe
 2094 012e 3A       		.uleb128 0x3a
 2095 012f 0B       		.uleb128 0xb
 2096 0130 3B       		.uleb128 0x3b
 2097 0131 0B       		.uleb128 0xb
 2098 0132 27       		.uleb128 0x27
 2099 0133 0C       		.uleb128 0xc
 2100 0134 49       		.uleb128 0x49
 2101 0135 13       		.uleb128 0x13
 2102 0136 11       		.uleb128 0x11
 2103 0137 01       		.uleb128 0x1
ARM GAS  /var/folders/yt/6z6x8bjn5sjf5fbb45bk5m4c0000gn/T//ccS933ay.s 			page 40


 2104 0138 12       		.uleb128 0x12
 2105 0139 01       		.uleb128 0x1
 2106 013a 40       		.uleb128 0x40
 2107 013b 06       		.uleb128 0x6
 2108 013c 9742     		.uleb128 0x2117
 2109 013e 0C       		.uleb128 0xc
 2110 013f 01       		.uleb128 0x1
 2111 0140 13       		.uleb128 0x13
 2112 0141 00       		.byte	0
 2113 0142 00       		.byte	0
 2114 0143 19       		.uleb128 0x19
 2115 0144 05       		.uleb128 0x5
 2116 0145 00       		.byte	0
 2117 0146 03       		.uleb128 0x3
 2118 0147 08       		.uleb128 0x8
 2119 0148 3A       		.uleb128 0x3a
 2120 0149 0B       		.uleb128 0xb
 2121 014a 3B       		.uleb128 0x3b
 2122 014b 0B       		.uleb128 0xb
 2123 014c 49       		.uleb128 0x49
 2124 014d 13       		.uleb128 0x13
 2125 014e 02       		.uleb128 0x2
 2126 014f 06       		.uleb128 0x6
 2127 0150 00       		.byte	0
 2128 0151 00       		.byte	0
 2129 0152 1A       		.uleb128 0x1a
 2130 0153 05       		.uleb128 0x5
 2131 0154 00       		.byte	0
 2132 0155 03       		.uleb128 0x3
 2133 0156 0E       		.uleb128 0xe
 2134 0157 3A       		.uleb128 0x3a
 2135 0158 0B       		.uleb128 0xb
 2136 0159 3B       		.uleb128 0x3b
 2137 015a 0B       		.uleb128 0xb
 2138 015b 49       		.uleb128 0x49
 2139 015c 13       		.uleb128 0x13
 2140 015d 02       		.uleb128 0x2
 2141 015e 06       		.uleb128 0x6
 2142 015f 00       		.byte	0
 2143 0160 00       		.byte	0
 2144 0161 1B       		.uleb128 0x1b
 2145 0162 34       		.uleb128 0x34
 2146 0163 00       		.byte	0
 2147 0164 03       		.uleb128 0x3
 2148 0165 08       		.uleb128 0x8
 2149 0166 3A       		.uleb128 0x3a
 2150 0167 0B       		.uleb128 0xb
 2151 0168 3B       		.uleb128 0x3b
 2152 0169 0B       		.uleb128 0xb
 2153 016a 49       		.uleb128 0x49
 2154 016b 13       		.uleb128 0x13
 2155 016c 02       		.uleb128 0x2
 2156 016d 06       		.uleb128 0x6
 2157 016e 00       		.byte	0
 2158 016f 00       		.byte	0
 2159 0170 1C       		.uleb128 0x1c
 2160 0171 898201   		.uleb128 0x4109
ARM GAS  /var/folders/yt/6z6x8bjn5sjf5fbb45bk5m4c0000gn/T//ccS933ay.s 			page 41


 2161 0174 01       		.byte	0x1
 2162 0175 11       		.uleb128 0x11
 2163 0176 01       		.uleb128 0x1
 2164 0177 9542     		.uleb128 0x2115
 2165 0179 0C       		.uleb128 0xc
 2166 017a 31       		.uleb128 0x31
 2167 017b 13       		.uleb128 0x13
 2168 017c 00       		.byte	0
 2169 017d 00       		.byte	0
 2170 017e 1D       		.uleb128 0x1d
 2171 017f 34       		.uleb128 0x34
 2172 0180 00       		.byte	0
 2173 0181 03       		.uleb128 0x3
 2174 0182 0E       		.uleb128 0xe
 2175 0183 3A       		.uleb128 0x3a
 2176 0184 0B       		.uleb128 0xb
 2177 0185 3B       		.uleb128 0x3b
 2178 0186 05       		.uleb128 0x5
 2179 0187 49       		.uleb128 0x49
 2180 0188 13       		.uleb128 0x13
 2181 0189 3F       		.uleb128 0x3f
 2182 018a 0C       		.uleb128 0xc
 2183 018b 3C       		.uleb128 0x3c
 2184 018c 0C       		.uleb128 0xc
 2185 018d 00       		.byte	0
 2186 018e 00       		.byte	0
 2187 018f 1E       		.uleb128 0x1e
 2188 0190 34       		.uleb128 0x34
 2189 0191 00       		.byte	0
 2190 0192 03       		.uleb128 0x3
 2191 0193 0E       		.uleb128 0xe
 2192 0194 3A       		.uleb128 0x3a
 2193 0195 0B       		.uleb128 0xb
 2194 0196 3B       		.uleb128 0x3b
 2195 0197 0B       		.uleb128 0xb
 2196 0198 49       		.uleb128 0x49
 2197 0199 13       		.uleb128 0x13
 2198 019a 3F       		.uleb128 0x3f
 2199 019b 0C       		.uleb128 0xc
 2200 019c 3C       		.uleb128 0x3c
 2201 019d 0C       		.uleb128 0xc
 2202 019e 00       		.byte	0
 2203 019f 00       		.byte	0
 2204 01a0 1F       		.uleb128 0x1f
 2205 01a1 2E       		.uleb128 0x2e
 2206 01a2 01       		.byte	0x1
 2207 01a3 3F       		.uleb128 0x3f
 2208 01a4 0C       		.uleb128 0xc
 2209 01a5 03       		.uleb128 0x3
 2210 01a6 0E       		.uleb128 0xe
 2211 01a7 3A       		.uleb128 0x3a
 2212 01a8 0B       		.uleb128 0xb
 2213 01a9 3B       		.uleb128 0x3b
 2214 01aa 05       		.uleb128 0x5
 2215 01ab 27       		.uleb128 0x27
 2216 01ac 0C       		.uleb128 0xc
 2217 01ad 3C       		.uleb128 0x3c
ARM GAS  /var/folders/yt/6z6x8bjn5sjf5fbb45bk5m4c0000gn/T//ccS933ay.s 			page 42


 2218 01ae 0C       		.uleb128 0xc
 2219 01af 01       		.uleb128 0x1
 2220 01b0 13       		.uleb128 0x13
 2221 01b1 00       		.byte	0
 2222 01b2 00       		.byte	0
 2223 01b3 20       		.uleb128 0x20
 2224 01b4 05       		.uleb128 0x5
 2225 01b5 00       		.byte	0
 2226 01b6 49       		.uleb128 0x49
 2227 01b7 13       		.uleb128 0x13
 2228 01b8 00       		.byte	0
 2229 01b9 00       		.byte	0
 2230 01ba 21       		.uleb128 0x21
 2231 01bb 2E       		.uleb128 0x2e
 2232 01bc 01       		.byte	0x1
 2233 01bd 3F       		.uleb128 0x3f
 2234 01be 0C       		.uleb128 0xc
 2235 01bf 03       		.uleb128 0x3
 2236 01c0 0E       		.uleb128 0xe
 2237 01c1 3A       		.uleb128 0x3a
 2238 01c2 0B       		.uleb128 0xb
 2239 01c3 3B       		.uleb128 0x3b
 2240 01c4 0B       		.uleb128 0xb
 2241 01c5 27       		.uleb128 0x27
 2242 01c6 0C       		.uleb128 0xc
 2243 01c7 3C       		.uleb128 0x3c
 2244 01c8 0C       		.uleb128 0xc
 2245 01c9 01       		.uleb128 0x1
 2246 01ca 13       		.uleb128 0x13
 2247 01cb 00       		.byte	0
 2248 01cc 00       		.byte	0
 2249 01cd 22       		.uleb128 0x22
 2250 01ce 2E       		.uleb128 0x2e
 2251 01cf 01       		.byte	0x1
 2252 01d0 3F       		.uleb128 0x3f
 2253 01d1 0C       		.uleb128 0xc
 2254 01d2 03       		.uleb128 0x3
 2255 01d3 0E       		.uleb128 0xe
 2256 01d4 3A       		.uleb128 0x3a
 2257 01d5 0B       		.uleb128 0xb
 2258 01d6 3B       		.uleb128 0x3b
 2259 01d7 05       		.uleb128 0x5
 2260 01d8 27       		.uleb128 0x27
 2261 01d9 0C       		.uleb128 0xc
 2262 01da 49       		.uleb128 0x49
 2263 01db 13       		.uleb128 0x13
 2264 01dc 3C       		.uleb128 0x3c
 2265 01dd 0C       		.uleb128 0xc
 2266 01de 01       		.uleb128 0x1
 2267 01df 13       		.uleb128 0x13
 2268 01e0 00       		.byte	0
 2269 01e1 00       		.byte	0
 2270 01e2 23       		.uleb128 0x23
 2271 01e3 26       		.uleb128 0x26
 2272 01e4 00       		.byte	0
 2273 01e5 00       		.byte	0
 2274 01e6 00       		.byte	0
ARM GAS  /var/folders/yt/6z6x8bjn5sjf5fbb45bk5m4c0000gn/T//ccS933ay.s 			page 43


 2275 01e7 00       		.byte	0
 2276              		.section	.debug_loc,"",%progbits
 2277              	.Ldebug_loc0:
 2278              	.LLST0:
 2279 0000 00000000 		.4byte	.LFB34-.Ltext0
 2280 0004 02000000 		.4byte	.LCFI0-.Ltext0
 2281 0008 0200     		.2byte	0x2
 2282 000a 7D       		.byte	0x7d
 2283 000b 00       		.sleb128 0
 2284 000c 02000000 		.4byte	.LCFI0-.Ltext0
 2285 0010 08000000 		.4byte	.LCFI1-.Ltext0
 2286 0014 0200     		.2byte	0x2
 2287 0016 7D       		.byte	0x7d
 2288 0017 10       		.sleb128 16
 2289 0018 08000000 		.4byte	.LCFI1-.Ltext0
 2290 001c C2000000 		.4byte	.LCFI2-.Ltext0
 2291 0020 0200     		.2byte	0x2
 2292 0022 7D       		.byte	0x7d
 2293 0023 30       		.sleb128 48
 2294 0024 C2000000 		.4byte	.LCFI2-.Ltext0
 2295 0028 C8000000 		.4byte	.LFE34-.Ltext0
 2296 002c 0200     		.2byte	0x2
 2297 002e 7D       		.byte	0x7d
 2298 002f 10       		.sleb128 16
 2299 0030 00000000 		.4byte	0
 2300 0034 00000000 		.4byte	0
 2301              	.LLST1:
 2302 0038 C8000000 		.4byte	.LFB35-.Ltext0
 2303 003c CA000000 		.4byte	.LCFI3-.Ltext0
 2304 0040 0200     		.2byte	0x2
 2305 0042 7D       		.byte	0x7d
 2306 0043 00       		.sleb128 0
 2307 0044 CA000000 		.4byte	.LCFI3-.Ltext0
 2308 0048 F6000000 		.4byte	.LCFI4-.Ltext0
 2309 004c 0200     		.2byte	0x2
 2310 004e 7D       		.byte	0x7d
 2311 004f 10       		.sleb128 16
 2312 0050 F6000000 		.4byte	.LCFI4-.Ltext0
 2313 0054 00010000 		.4byte	.LFE35-.Ltext0
 2314 0058 0200     		.2byte	0x2
 2315 005a 7D       		.byte	0x7d
 2316 005b 08       		.sleb128 8
 2317 005c 00000000 		.4byte	0
 2318 0060 00000000 		.4byte	0
 2319              	.LLST2:
 2320 0064 C8000000 		.4byte	.LVL11-.Ltext0
 2321 0068 D6000000 		.4byte	.LVL12-.Ltext0
 2322 006c 0100     		.2byte	0x1
 2323 006e 50       		.byte	0x50
 2324 006f D6000000 		.4byte	.LVL12-.Ltext0
 2325 0073 DB000000 		.4byte	.LVL13-1-.Ltext0
 2326 0077 0200     		.2byte	0x2
 2327 0079 71       		.byte	0x71
 2328 007a 00       		.sleb128 0
 2329 007b DB000000 		.4byte	.LVL13-1-.Ltext0
 2330 007f F6000000 		.4byte	.LVL15-.Ltext0
 2331 0083 0200     		.2byte	0x2
ARM GAS  /var/folders/yt/6z6x8bjn5sjf5fbb45bk5m4c0000gn/T//ccS933ay.s 			page 44


 2332 0085 91       		.byte	0x91
 2333 0086 77       		.sleb128 -9
 2334 0087 F6000000 		.4byte	.LVL15-.Ltext0
 2335 008b F8000000 		.4byte	.LVL16-.Ltext0
 2336 008f 0200     		.2byte	0x2
 2337 0091 7D       		.byte	0x7d
 2338 0092 7F       		.sleb128 -1
 2339 0093 F8000000 		.4byte	.LVL16-.Ltext0
 2340 0097 00010000 		.4byte	.LFE35-.Ltext0
 2341 009b 0200     		.2byte	0x2
 2342 009d 7D       		.byte	0x7d
 2343 009e 77       		.sleb128 -9
 2344 009f 00000000 		.4byte	0
 2345 00a3 00000000 		.4byte	0
 2346              	.LLST3:
 2347 00a7 00010000 		.4byte	.LFB36-.Ltext0
 2348 00ab 02010000 		.4byte	.LCFI5-.Ltext0
 2349 00af 0200     		.2byte	0x2
 2350 00b1 7D       		.byte	0x7d
 2351 00b2 00       		.sleb128 0
 2352 00b3 02010000 		.4byte	.LCFI5-.Ltext0
 2353 00b7 3C010000 		.4byte	.LCFI6-.Ltext0
 2354 00bb 0200     		.2byte	0x2
 2355 00bd 7D       		.byte	0x7d
 2356 00be 10       		.sleb128 16
 2357 00bf 3C010000 		.4byte	.LCFI6-.Ltext0
 2358 00c3 4C010000 		.4byte	.LFE36-.Ltext0
 2359 00c7 0200     		.2byte	0x2
 2360 00c9 7D       		.byte	0x7d
 2361 00ca 00       		.sleb128 0
 2362 00cb 00000000 		.4byte	0
 2363 00cf 00000000 		.4byte	0
 2364              	.LLST4:
 2365 00d3 00010000 		.4byte	.LVL17-.Ltext0
 2366 00d7 06010000 		.4byte	.LVL18-.Ltext0
 2367 00db 0100     		.2byte	0x1
 2368 00dd 50       		.byte	0x50
 2369 00de 06010000 		.4byte	.LVL18-.Ltext0
 2370 00e2 4C010000 		.4byte	.LFE36-.Ltext0
 2371 00e6 0400     		.2byte	0x4
 2372 00e8 F3       		.byte	0xf3
 2373 00e9 01       		.uleb128 0x1
 2374 00ea 50       		.byte	0x50
 2375 00eb 9F       		.byte	0x9f
 2376 00ec 00000000 		.4byte	0
 2377 00f0 00000000 		.4byte	0
 2378              	.LLST5:
 2379 00f4 00010000 		.4byte	.LVL17-.Ltext0
 2380 00f8 06010000 		.4byte	.LVL18-.Ltext0
 2381 00fc 0100     		.2byte	0x1
 2382 00fe 51       		.byte	0x51
 2383 00ff 06010000 		.4byte	.LVL18-.Ltext0
 2384 0103 4C010000 		.4byte	.LFE36-.Ltext0
 2385 0107 0400     		.2byte	0x4
 2386 0109 F3       		.byte	0xf3
 2387 010a 01       		.uleb128 0x1
 2388 010b 51       		.byte	0x51
ARM GAS  /var/folders/yt/6z6x8bjn5sjf5fbb45bk5m4c0000gn/T//ccS933ay.s 			page 45


 2389 010c 9F       		.byte	0x9f
 2390 010d 00000000 		.4byte	0
 2391 0111 00000000 		.4byte	0
 2392              	.LLST6:
 2393 0115 00010000 		.4byte	.LVL17-.Ltext0
 2394 0119 06010000 		.4byte	.LVL18-.Ltext0
 2395 011d 0200     		.2byte	0x2
 2396 011f 30       		.byte	0x30
 2397 0120 9F       		.byte	0x9f
 2398 0121 06010000 		.4byte	.LVL18-.Ltext0
 2399 0125 2E010000 		.4byte	.LVL21-.Ltext0
 2400 0129 0700     		.2byte	0x7
 2401 012b 74       		.byte	0x74
 2402 012c 00       		.sleb128 0
 2403 012d F3       		.byte	0xf3
 2404 012e 01       		.uleb128 0x1
 2405 012f 50       		.byte	0x50
 2406 0130 1C       		.byte	0x1c
 2407 0131 9F       		.byte	0x9f
 2408 0132 2E010000 		.4byte	.LVL21-.Ltext0
 2409 0136 30010000 		.4byte	.LVL22-.Ltext0
 2410 013a 0900     		.2byte	0x9
 2411 013c 74       		.byte	0x74
 2412 013d 00       		.sleb128 0
 2413 013e F3       		.byte	0xf3
 2414 013f 01       		.uleb128 0x1
 2415 0140 50       		.byte	0x50
 2416 0141 1C       		.byte	0x1c
 2417 0142 23       		.byte	0x23
 2418 0143 01       		.uleb128 0x1
 2419 0144 9F       		.byte	0x9f
 2420 0145 30010000 		.4byte	.LVL22-.Ltext0
 2421 0149 3C010000 		.4byte	.LVL23-.Ltext0
 2422 014d 0700     		.2byte	0x7
 2423 014f 74       		.byte	0x74
 2424 0150 00       		.sleb128 0
 2425 0151 F3       		.byte	0xf3
 2426 0152 01       		.uleb128 0x1
 2427 0153 50       		.byte	0x50
 2428 0154 1C       		.byte	0x1c
 2429 0155 9F       		.byte	0x9f
 2430 0156 00000000 		.4byte	0
 2431 015a 00000000 		.4byte	0
 2432              	.LLST7:
 2433 015e 4C010000 		.4byte	.LFB37-.Ltext0
 2434 0162 4E010000 		.4byte	.LCFI7-.Ltext0
 2435 0166 0200     		.2byte	0x2
 2436 0168 7D       		.byte	0x7d
 2437 0169 00       		.sleb128 0
 2438 016a 4E010000 		.4byte	.LCFI7-.Ltext0
 2439 016e 68010000 		.4byte	.LFE37-.Ltext0
 2440 0172 0200     		.2byte	0x2
 2441 0174 7D       		.byte	0x7d
 2442 0175 08       		.sleb128 8
 2443 0176 00000000 		.4byte	0
 2444 017a 00000000 		.4byte	0
 2445              	.LLST8:
ARM GAS  /var/folders/yt/6z6x8bjn5sjf5fbb45bk5m4c0000gn/T//ccS933ay.s 			page 46


 2446 017e 4C010000 		.4byte	.LVL25-.Ltext0
 2447 0182 56010000 		.4byte	.LVL26-.Ltext0
 2448 0186 0100     		.2byte	0x1
 2449 0188 50       		.byte	0x50
 2450 0189 56010000 		.4byte	.LVL26-.Ltext0
 2451 018d 5B010000 		.4byte	.LVL27-1-.Ltext0
 2452 0191 0100     		.2byte	0x1
 2453 0193 51       		.byte	0x51
 2454 0194 5B010000 		.4byte	.LVL27-1-.Ltext0
 2455 0198 68010000 		.4byte	.LFE37-.Ltext0
 2456 019c 0400     		.2byte	0x4
 2457 019e F3       		.byte	0xf3
 2458 019f 01       		.uleb128 0x1
 2459 01a0 50       		.byte	0x50
 2460 01a1 9F       		.byte	0x9f
 2461 01a2 00000000 		.4byte	0
 2462 01a6 00000000 		.4byte	0
 2463              		.section	.debug_aranges,"",%progbits
 2464 0000 1C000000 		.4byte	0x1c
 2465 0004 0200     		.2byte	0x2
 2466 0006 00000000 		.4byte	.Ldebug_info0
 2467 000a 04       		.byte	0x4
 2468 000b 00       		.byte	0
 2469 000c 0000     		.2byte	0
 2470 000e 0000     		.2byte	0
 2471 0010 00000000 		.4byte	.Ltext0
 2472 0014 68010000 		.4byte	.Letext0-.Ltext0
 2473 0018 00000000 		.4byte	0
 2474 001c 00000000 		.4byte	0
 2475              		.section	.debug_line,"",%progbits
 2476              	.Ldebug_line0:
 2477 0000 AF020000 		.section	.debug_str,"MS",%progbits,1
 2477      02005302 
 2477      00000201 
 2477      FB0E0D00 
 2477      01010101 
 2478              	.LASF146:
 2479 0000 4C696272 		.ascii	"Libraries/Drivers/Usart/usart.c\000"
 2479      61726965 
 2479      732F4472 
 2479      69766572 
 2479      732F5573 
 2480              	.LASF125:
 2481 0020 55534152 		.ascii	"USART1PutString\000"
 2481      54315075 
 2481      74537472 
 2481      696E6700 
 2482              	.LASF114:
 2483 0030 4E564943 		.ascii	"NVIC_IRQChannelCmd\000"
 2483      5F495251 
 2483      4368616E 
 2483      6E656C43 
 2483      6D6400
 2484              	.LASF9:
 2485 0043 5056445F 		.ascii	"PVD_IRQn\000"
 2485      4952516E 
 2485      00
ARM GAS  /var/folders/yt/6z6x8bjn5sjf5fbb45bk5m4c0000gn/T//ccS933ay.s 			page 47


 2486              	.LASF34:
 2487 004c 54494D31 		.ascii	"TIM1_TRG_COM_IRQn\000"
 2487      5F545247 
 2487      5F434F4D 
 2487      5F495251 
 2487      6E00
 2488              	.LASF132:
 2489 005e 54785175 		.ascii	"TxQueue\000"
 2489      65756500 
 2490              	.LASF39:
 2491 0066 49324331 		.ascii	"I2C1_EV_IRQn\000"
 2491      5F45565F 
 2491      4952516E 
 2491      00
 2492              	.LASF54:
 2493 0073 5F5F7569 		.ascii	"__uint8_t\000"
 2493      6E74385F 
 2493      7400
 2494              	.LASF82:
 2495 007d 4750494F 		.ascii	"GPIO_Speed_10MHz\000"
 2495      5F537065 
 2495      65645F31 
 2495      304D487A 
 2495      00
 2496              	.LASF107:
 2497 008e 55534152 		.ascii	"USART_CPOL\000"
 2497      545F4350 
 2497      4F4C00
 2498              	.LASF67:
 2499 0099 44495341 		.ascii	"DISABLE\000"
 2499      424C4500 
 2500              	.LASF29:
 2501 00a1 43414E31 		.ascii	"CAN1_RX1_IRQn\000"
 2501      5F525831 
 2501      5F495251 
 2501      6E00
 2502              	.LASF61:
 2503 00af 6C6F6E67 		.ascii	"long long unsigned int\000"
 2503      206C6F6E 
 2503      6720756E 
 2503      7369676E 
 2503      65642069 
 2504              	.LASF96:
 2505 00c6 4750494F 		.ascii	"GPIO_Speed\000"
 2505      5F537065 
 2505      656400
 2506              	.LASF42:
 2507 00d1 49324332 		.ascii	"I2C2_ER_IRQn\000"
 2507      5F45525F 
 2507      4952516E 
 2507      00
 2508              	.LASF38:
 2509 00de 54494D34 		.ascii	"TIM4_IRQn\000"
 2509      5F495251 
 2509      6E00
 2510              	.LASF119:
 2511 00e8 51756575 		.ascii	"QueueHandle_t\000"
ARM GAS  /var/folders/yt/6z6x8bjn5sjf5fbb45bk5m4c0000gn/T//ccS933ay.s 			page 48


 2511      6548616E 
 2511      646C655F 
 2511      7400
 2512              	.LASF16:
 2513 00f6 45585449 		.ascii	"EXTI2_IRQn\000"
 2513      325F4952 
 2513      516E00
 2514              	.LASF106:
 2515 0101 55534152 		.ascii	"USART_Clock\000"
 2515      545F436C 
 2515      6F636B00 
 2516              	.LASF144:
 2517 010d 78517565 		.ascii	"xQueueGenericReceive\000"
 2517      75654765 
 2517      6E657269 
 2517      63526563 
 2517      65697665 
 2518              	.LASF60:
 2519 0122 6C6F6E67 		.ascii	"long long int\000"
 2519      206C6F6E 
 2519      6720696E 
 2519      7400
 2520              	.LASF51:
 2521 0130 7369676E 		.ascii	"signed char\000"
 2521      65642063 
 2521      68617200 
 2522              	.LASF70:
 2523 013c 42535252 		.ascii	"BSRR\000"
 2523      00
 2524              	.LASF102:
 2525 0141 55534152 		.ascii	"USART_Parity\000"
 2525      545F5061 
 2525      72697479 
 2525      00
 2526              	.LASF14:
 2527 014e 45585449 		.ascii	"EXTI0_IRQn\000"
 2527      305F4952 
 2527      516E00
 2528              	.LASF79:
 2529 0159 47545052 		.ascii	"GTPR\000"
 2529      00
 2530              	.LASF128:
 2531 015e 55736172 		.ascii	"Usart1PutChar\000"
 2531      74315075 
 2531      74436861 
 2531      7200
 2532              	.LASF142:
 2533 016c 76546173 		.ascii	"vTaskDelay\000"
 2533      6B44656C 
 2533      617900
 2534              	.LASF41:
 2535 0177 49324332 		.ascii	"I2C2_EV_IRQn\000"
 2535      5F45565F 
 2535      4952516E 
 2535      00
 2536              	.LASF103:
 2537 0184 55534152 		.ascii	"USART_Mode\000"
ARM GAS  /var/folders/yt/6z6x8bjn5sjf5fbb45bk5m4c0000gn/T//ccS933ay.s 			page 49


 2537      545F4D6F 
 2537      646500
 2538              	.LASF89:
 2539 018f 4750494F 		.ascii	"GPIO_Mode_IPU\000"
 2539      5F4D6F64 
 2539      655F4950 
 2539      5500
 2540              	.LASF99:
 2541 019d 55534152 		.ascii	"USART_BaudRate\000"
 2541      545F4261 
 2541      75645261 
 2541      746500
 2542              	.LASF57:
 2543 01ac 6C6F6E67 		.ascii	"long int\000"
 2543      20696E74 
 2543      00
 2544              	.LASF68:
 2545 01b5 454E4142 		.ascii	"ENABLE\000"
 2545      4C4500
 2546              	.LASF131:
 2547 01bc 52785175 		.ascii	"RxQueue\000"
 2547      65756500 
 2548              	.LASF139:
 2549 01c4 55534152 		.ascii	"USART_DMACmd\000"
 2549      545F444D 
 2549      41436D64 
 2549      00
 2550              	.LASF31:
 2551 01d1 45585449 		.ascii	"EXTI9_5_IRQn\000"
 2551      395F355F 
 2551      4952516E 
 2551      00
 2552              	.LASF135:
 2553 01de 55534152 		.ascii	"USART_ClockStructInit\000"
 2553      545F436C 
 2553      6F636B53 
 2553      74727563 
 2553      74496E69 
 2554              	.LASF53:
 2555 01f4 73686F72 		.ascii	"short int\000"
 2555      7420696E 
 2555      7400
 2556              	.LASF64:
 2557 01fe 75696E74 		.ascii	"uint16_t\000"
 2557      31365F74 
 2557      00
 2558              	.LASF116:
 2559 0207 42617365 		.ascii	"BaseType_t\000"
 2559      54797065 
 2559      5F7400
 2560              	.LASF26:
 2561 0212 41444331 		.ascii	"ADC1_2_IRQn\000"
 2561      5F325F49 
 2561      52516E00 
 2562              	.LASF97:
 2563 021e 4750494F 		.ascii	"GPIO_Mode\000"
 2563      5F4D6F64 
ARM GAS  /var/folders/yt/6z6x8bjn5sjf5fbb45bk5m4c0000gn/T//ccS933ay.s 			page 50


 2563      6500
 2564              	.LASF2:
 2565 0228 42757346 		.ascii	"BusFault_IRQn\000"
 2565      61756C74 
 2565      5F495251 
 2565      6E00
 2566              	.LASF104:
 2567 0236 55534152 		.ascii	"USART_HardwareFlowControl\000"
 2567      545F4861 
 2567      72647761 
 2567      7265466C 
 2567      6F77436F 
 2568              	.LASF6:
 2569 0250 50656E64 		.ascii	"PendSV_IRQn\000"
 2569      53565F49 
 2569      52516E00 
 2570              	.LASF22:
 2571 025c 444D4131 		.ascii	"DMA1_Channel4_IRQn\000"
 2571      5F436861 
 2571      6E6E656C 
 2571      345F4952 
 2571      516E00
 2572              	.LASF58:
 2573 026f 5F5F7569 		.ascii	"__uint32_t\000"
 2573      6E743332 
 2573      5F7400
 2574              	.LASF101:
 2575 027a 55534152 		.ascii	"USART_StopBits\000"
 2575      545F5374 
 2575      6F704269 
 2575      747300
 2576              	.LASF85:
 2577 0289 4750494F 		.ascii	"GPIOSpeed_TypeDef\000"
 2577      53706565 
 2577      645F5479 
 2577      70654465 
 2577      6600
 2578              	.LASF95:
 2579 029b 4750494F 		.ascii	"GPIO_Pin\000"
 2579      5F50696E 
 2579      00
 2580              	.LASF123:
 2581 02a4 4E564943 		.ascii	"NVIC_InitStructure\000"
 2581      5F496E69 
 2581      74537472 
 2581      75637475 
 2581      726500
 2582              	.LASF62:
 2583 02b7 756E7369 		.ascii	"unsigned int\000"
 2583      676E6564 
 2583      20696E74 
 2583      00
 2584              	.LASF1:
 2585 02c4 4D656D6F 		.ascii	"MemoryManagement_IRQn\000"
 2585      72794D61 
 2585      6E616765 
 2585      6D656E74 
ARM GAS  /var/folders/yt/6z6x8bjn5sjf5fbb45bk5m4c0000gn/T//ccS933ay.s 			page 51


 2585      5F495251 
 2586              	.LASF59:
 2587 02da 6C6F6E67 		.ascii	"long unsigned int\000"
 2587      20756E73 
 2587      69676E65 
 2587      6420696E 
 2587      7400
 2588              	.LASF72:
 2589 02ec 4750494F 		.ascii	"GPIO_TypeDef\000"
 2589      5F547970 
 2589      65446566 
 2589      00
 2590              	.LASF71:
 2591 02f9 4C434B52 		.ascii	"LCKR\000"
 2591      00
 2592              	.LASF87:
 2593 02fe 4750494F 		.ascii	"GPIO_Mode_IN_FLOATING\000"
 2593      5F4D6F64 
 2593      655F494E 
 2593      5F464C4F 
 2593      4154494E 
 2594              	.LASF143:
 2595 0314 78517565 		.ascii	"xQueueGenericSend\000"
 2595      75654765 
 2595      6E657269 
 2595      6353656E 
 2595      6400
 2596              	.LASF92:
 2597 0326 4750494F 		.ascii	"GPIO_Mode_AF_OD\000"
 2597      5F4D6F64 
 2597      655F4146 
 2597      5F4F4400 
 2598              	.LASF23:
 2599 0336 444D4131 		.ascii	"DMA1_Channel5_IRQn\000"
 2599      5F436861 
 2599      6E6E656C 
 2599      355F4952 
 2599      516E00
 2600              	.LASF56:
 2601 0349 73686F72 		.ascii	"short unsigned int\000"
 2601      7420756E 
 2601      7369676E 
 2601      65642069 
 2601      6E7400
 2602              	.LASF90:
 2603 035c 4750494F 		.ascii	"GPIO_Mode_Out_OD\000"
 2603      5F4D6F64 
 2603      655F4F75 
 2603      745F4F44 
 2603      00
 2604              	.LASF48:
 2605 036d 45585449 		.ascii	"EXTI15_10_IRQn\000"
 2605      31355F31 
 2605      305F4952 
 2605      516E00
 2606              	.LASF43:
 2607 037c 53504931 		.ascii	"SPI1_IRQn\000"
ARM GAS  /var/folders/yt/6z6x8bjn5sjf5fbb45bk5m4c0000gn/T//ccS933ay.s 			page 52


 2607      5F495251 
 2607      6E00
 2608              	.LASF81:
 2609 0386 55534152 		.ascii	"USART_TypeDef\000"
 2609      545F5479 
 2609      70654465 
 2609      6600
 2610              	.LASF111:
 2611 0394 4E564943 		.ascii	"NVIC_IRQChannel\000"
 2611      5F495251 
 2611      4368616E 
 2611      6E656C00 
 2612              	.LASF112:
 2613 03a4 4E564943 		.ascii	"NVIC_IRQChannelPreemptionPriority\000"
 2613      5F495251 
 2613      4368616E 
 2613      6E656C50 
 2613      7265656D 
 2614              	.LASF7:
 2615 03c6 53797354 		.ascii	"SysTick_IRQn\000"
 2615      69636B5F 
 2615      4952516E 
 2615      00
 2616              	.LASF35:
 2617 03d3 54494D31 		.ascii	"TIM1_CC_IRQn\000"
 2617      5F43435F 
 2617      4952516E 
 2617      00
 2618              	.LASF105:
 2619 03e0 55534152 		.ascii	"USART_InitTypeDef\000"
 2619      545F496E 
 2619      69745479 
 2619      70654465 
 2619      6600
 2620              	.LASF115:
 2621 03f2 4E564943 		.ascii	"NVIC_InitTypeDef\000"
 2621      5F496E69 
 2621      74547970 
 2621      65446566 
 2621      00
 2622              	.LASF148:
 2623 0403 4952516E 		.ascii	"IRQn\000"
 2623      00
 2624              	.LASF137:
 2625 0408 55534152 		.ascii	"USART_Init\000"
 2625      545F496E 
 2625      697400
 2626              	.LASF8:
 2627 0413 57574447 		.ascii	"WWDG_IRQn\000"
 2627      5F495251 
 2627      6E00
 2628              	.LASF20:
 2629 041d 444D4131 		.ascii	"DMA1_Channel2_IRQn\000"
 2629      5F436861 
 2629      6E6E656C 
 2629      325F4952 
 2629      516E00
ARM GAS  /var/folders/yt/6z6x8bjn5sjf5fbb45bk5m4c0000gn/T//ccS933ay.s 			page 53


 2630              	.LASF66:
 2631 0430 73697A65 		.ascii	"sizetype\000"
 2631      74797065 
 2631      00
 2632              	.LASF134:
 2633 0439 4750494F 		.ascii	"GPIO_Init\000"
 2633      5F496E69 
 2633      7400
 2634              	.LASF4:
 2635 0443 53564361 		.ascii	"SVCall_IRQn\000"
 2635      6C6C5F49 
 2635      52516E00 
 2636              	.LASF117:
 2637 044f 5469636B 		.ascii	"TickType_t\000"
 2637      54797065 
 2637      5F7400
 2638              	.LASF93:
 2639 045a 4750494F 		.ascii	"GPIO_Mode_AF_PP\000"
 2639      5F4D6F64 
 2639      655F4146 
 2639      5F505000 
 2640              	.LASF44:
 2641 046a 53504932 		.ascii	"SPI2_IRQn\000"
 2641      5F495251 
 2641      6E00
 2642              	.LASF88:
 2643 0474 4750494F 		.ascii	"GPIO_Mode_IPD\000"
 2643      5F4D6F64 
 2643      655F4950 
 2643      4400
 2644              	.LASF120:
 2645 0482 4750494F 		.ascii	"GPIO_InitStructure\000"
 2645      5F496E69 
 2645      74537472 
 2645      75637475 
 2645      726500
 2646              	.LASF98:
 2647 0495 4750494F 		.ascii	"GPIO_InitTypeDef\000"
 2647      5F496E69 
 2647      74547970 
 2647      65446566 
 2647      00
 2648              	.LASF69:
 2649 04a6 46756E63 		.ascii	"FunctionalState\000"
 2649      74696F6E 
 2649      616C5374 
 2649      61746500 
 2650              	.LASF91:
 2651 04b6 4750494F 		.ascii	"GPIO_Mode_Out_PP\000"
 2651      5F4D6F64 
 2651      655F4F75 
 2651      745F5050 
 2651      00
 2652              	.LASF84:
 2653 04c7 4750494F 		.ascii	"GPIO_Speed_50MHz\000"
 2653      5F537065 
 2653      65645F35 
ARM GAS  /var/folders/yt/6z6x8bjn5sjf5fbb45bk5m4c0000gn/T//ccS933ay.s 			page 54


 2653      304D487A 
 2653      00
 2654              	.LASF19:
 2655 04d8 444D4131 		.ascii	"DMA1_Channel1_IRQn\000"
 2655      5F436861 
 2655      6E6E656C 
 2655      315F4952 
 2655      516E00
 2656              	.LASF110:
 2657 04eb 55534152 		.ascii	"USART_ClockInitTypeDef\000"
 2657      545F436C 
 2657      6F636B49 
 2657      6E697454 
 2657      79706544 
 2658              	.LASF147:
 2659 0502 2F557365 		.ascii	"/Users/ingamedeo/Downloads/STM32F103RBT6FreeRTOS\000"
 2659      72732F69 
 2659      6E67616D 
 2659      6564656F 
 2659      2F446F77 
 2660              	.LASF109:
 2661 0533 55534152 		.ascii	"USART_LastBit\000"
 2661      545F4C61 
 2661      73744269 
 2661      7400
 2662              	.LASF73:
 2663 0541 52455345 		.ascii	"RESERVED0\000"
 2663      52564544 
 2663      3000
 2664              	.LASF74:
 2665 054b 52455345 		.ascii	"RESERVED1\000"
 2665      52564544 
 2665      3100
 2666              	.LASF75:
 2667 0555 52455345 		.ascii	"RESERVED2\000"
 2667      52564544 
 2667      3200
 2668              	.LASF76:
 2669 055f 52455345 		.ascii	"RESERVED3\000"
 2669      52564544 
 2669      3300
 2670              	.LASF77:
 2671 0569 52455345 		.ascii	"RESERVED4\000"
 2671      52564544 
 2671      3400
 2672              	.LASF78:
 2673 0573 52455345 		.ascii	"RESERVED5\000"
 2673      52564544 
 2673      3500
 2674              	.LASF80:
 2675 057d 52455345 		.ascii	"RESERVED6\000"
 2675      52564544 
 2675      3600
 2676              	.LASF121:
 2677 0587 55534152 		.ascii	"USART_InitStructure\000"
 2677      545F496E 
 2677      69745374 
ARM GAS  /var/folders/yt/6z6x8bjn5sjf5fbb45bk5m4c0000gn/T//ccS933ay.s 			page 55


 2677      72756374 
 2677      75726500 
 2678              	.LASF52:
 2679 059b 756E7369 		.ascii	"unsigned char\000"
 2679      676E6564 
 2679      20636861 
 2679      7200
 2680              	.LASF27:
 2681 05a9 5553425F 		.ascii	"USB_HP_CAN1_TX_IRQn\000"
 2681      48505F43 
 2681      414E315F 
 2681      54585F49 
 2681      52516E00 
 2682              	.LASF130:
 2683 05bd 49544D5F 		.ascii	"ITM_RxBuffer\000"
 2683      52784275 
 2683      66666572 
 2683      00
 2684              	.LASF18:
 2685 05ca 45585449 		.ascii	"EXTI4_IRQn\000"
 2685      345F4952 
 2685      516E00
 2686              	.LASF122:
 2687 05d5 55534152 		.ascii	"USART_ClockInitStructure\000"
 2687      545F436C 
 2687      6F636B49 
 2687      6E697453 
 2687      74727563 
 2688              	.LASF83:
 2689 05ee 4750494F 		.ascii	"GPIO_Speed_2MHz\000"
 2689      5F537065 
 2689      65645F32 
 2689      4D487A00 
 2690              	.LASF136:
 2691 05fe 55534152 		.ascii	"USART_ClockInit\000"
 2691      545F436C 
 2691      6F636B49 
 2691      6E697400 
 2692              	.LASF21:
 2693 060e 444D4131 		.ascii	"DMA1_Channel3_IRQn\000"
 2693      5F436861 
 2693      6E6E656C 
 2693      335F4952 
 2693      516E00
 2694              	.LASF28:
 2695 0621 5553425F 		.ascii	"USB_LP_CAN1_RX0_IRQn\000"
 2695      4C505F43 
 2695      414E315F 
 2695      5258305F 
 2695      4952516E 
 2696              	.LASF86:
 2697 0636 4750494F 		.ascii	"GPIO_Mode_AIN\000"
 2697      5F4D6F64 
 2697      655F4149 
 2697      4E00
 2698              	.LASF108:
 2699 0644 55534152 		.ascii	"USART_CPHA\000"
ARM GAS  /var/folders/yt/6z6x8bjn5sjf5fbb45bk5m4c0000gn/T//ccS933ay.s 			page 56


 2699      545F4350 
 2699      484100
 2700              	.LASF12:
 2701 064f 464C4153 		.ascii	"FLASH_IRQn\000"
 2701      485F4952 
 2701      516E00
 2702              	.LASF65:
 2703 065a 75696E74 		.ascii	"uint32_t\000"
 2703      33325F74 
 2703      00
 2704              	.LASF113:
 2705 0663 4E564943 		.ascii	"NVIC_IRQChannelSubPriority\000"
 2705      5F495251 
 2705      4368616E 
 2705      6E656C53 
 2705      75625072 
 2706              	.LASF46:
 2707 067e 55534152 		.ascii	"USART2_IRQn\000"
 2707      54325F49 
 2707      52516E00 
 2708              	.LASF3:
 2709 068a 55736167 		.ascii	"UsageFault_IRQn\000"
 2709      65466175 
 2709      6C745F49 
 2709      52516E00 
 2710              	.LASF118:
 2711 069a 63686172 		.ascii	"char\000"
 2711      00
 2712              	.LASF129:
 2713 069f 55736172 		.ascii	"Usart1GetChar\000"
 2713      74314765 
 2713      74436861 
 2713      7200
 2714              	.LASF133:
 2715 06ad 5243435F 		.ascii	"RCC_APB2PeriphClockCmd\000"
 2715      41504232 
 2715      50657269 
 2715      7068436C 
 2715      6F636B43 
 2716              	.LASF145:
 2717 06c4 474E5520 		.ascii	"GNU C 4.9.3 20150529 (release) [ARM/embedded-4_9-br"
 2717      4320342E 
 2717      392E3320 
 2717      32303135 
 2717      30353239 
 2718 06f7 616E6368 		.ascii	"anch revision 227977] -mcpu=cortex-m3 -mthumb -gdwa"
 2718      20726576 
 2718      6973696F 
 2718      6E203232 
 2718      37393737 
 2719 072a 72662D32 		.ascii	"rf-2 -Os -fomit-frame-pointer\000"
 2719      202D4F73 
 2719      202D666F 
 2719      6D69742D 
 2719      6672616D 
 2720              	.LASF32:
 2721 0748 54494D31 		.ascii	"TIM1_BRK_IRQn\000"
ARM GAS  /var/folders/yt/6z6x8bjn5sjf5fbb45bk5m4c0000gn/T//ccS933ay.s 			page 57


 2721      5F42524B 
 2721      5F495251 
 2721      6E00
 2722              	.LASF55:
 2723 0756 5F5F7569 		.ascii	"__uint16_t\000"
 2723      6E743136 
 2723      5F7400
 2724              	.LASF49:
 2725 0761 52544341 		.ascii	"RTCAlarm_IRQn\000"
 2725      6C61726D 
 2725      5F495251 
 2725      6E00
 2726              	.LASF138:
 2727 076f 55534152 		.ascii	"USART_Cmd\000"
 2727      545F436D 
 2727      6400
 2728              	.LASF100:
 2729 0779 55534152 		.ascii	"USART_WordLength\000"
 2729      545F576F 
 2729      72644C65 
 2729      6E677468 
 2729      00
 2730              	.LASF0:
 2731 078a 4E6F6E4D 		.ascii	"NonMaskableInt_IRQn\000"
 2731      61736B61 
 2731      626C6549 
 2731      6E745F49 
 2731      52516E00 
 2732              	.LASF24:
 2733 079e 444D4131 		.ascii	"DMA1_Channel6_IRQn\000"
 2733      5F436861 
 2733      6E6E656C 
 2733      365F4952 
 2733      516E00
 2734              	.LASF10:
 2735 07b1 54414D50 		.ascii	"TAMPER_IRQn\000"
 2735      45525F49 
 2735      52516E00 
 2736              	.LASF33:
 2737 07bd 54494D31 		.ascii	"TIM1_UP_IRQn\000"
 2737      5F55505F 
 2737      4952516E 
 2737      00
 2738              	.LASF50:
 2739 07ca 55534257 		.ascii	"USBWakeUp_IRQn\000"
 2739      616B6555 
 2739      705F4952 
 2739      516E00
 2740              	.LASF127:
 2741 07d9 756C5374 		.ascii	"ulStringLength\000"
 2741      72696E67 
 2741      4C656E67 
 2741      746800
 2742              	.LASF47:
 2743 07e8 55534152 		.ascii	"USART3_IRQn\000"
 2743      54335F49 
 2743      52516E00 
ARM GAS  /var/folders/yt/6z6x8bjn5sjf5fbb45bk5m4c0000gn/T//ccS933ay.s 			page 58


 2744              	.LASF36:
 2745 07f4 54494D32 		.ascii	"TIM2_IRQn\000"
 2745      5F495251 
 2745      6E00
 2746              	.LASF124:
 2747 07fe 55736172 		.ascii	"Usart1Init\000"
 2747      7431496E 
 2747      697400
 2748              	.LASF45:
 2749 0809 55534152 		.ascii	"USART1_IRQn\000"
 2749      54315F49 
 2749      52516E00 
 2750              	.LASF17:
 2751 0815 45585449 		.ascii	"EXTI3_IRQn\000"
 2751      335F4952 
 2751      516E00
 2752              	.LASF63:
 2753 0820 75696E74 		.ascii	"uint8_t\000"
 2753      385F7400 
 2754              	.LASF13:
 2755 0828 5243435F 		.ascii	"RCC_IRQn\000"
 2755      4952516E 
 2755      00
 2756              	.LASF126:
 2757 0831 70635374 		.ascii	"pcString\000"
 2757      72696E67 
 2757      00
 2758              	.LASF25:
 2759 083a 444D4131 		.ascii	"DMA1_Channel7_IRQn\000"
 2759      5F436861 
 2759      6E6E656C 
 2759      375F4952 
 2759      516E00
 2760              	.LASF141:
 2761 084d 55534152 		.ascii	"USART_ITConfig\000"
 2761      545F4954 
 2761      436F6E66 
 2761      696700
 2762              	.LASF5:
 2763 085c 44656275 		.ascii	"DebugMonitor_IRQn\000"
 2763      674D6F6E 
 2763      69746F72 
 2763      5F495251 
 2763      6E00
 2764              	.LASF94:
 2765 086e 4750494F 		.ascii	"GPIOMode_TypeDef\000"
 2765      4D6F6465 
 2765      5F547970 
 2765      65446566 
 2765      00
 2766              	.LASF40:
 2767 087f 49324331 		.ascii	"I2C1_ER_IRQn\000"
 2767      5F45525F 
 2767      4952516E 
 2767      00
 2768              	.LASF11:
 2769 088c 5254435F 		.ascii	"RTC_IRQn\000"
ARM GAS  /var/folders/yt/6z6x8bjn5sjf5fbb45bk5m4c0000gn/T//ccS933ay.s 			page 59


 2769      4952516E 
 2769      00
 2770              	.LASF140:
 2771 0895 4E564943 		.ascii	"NVIC_Init\000"
 2771      5F496E69 
 2771      7400
 2772              	.LASF30:
 2773 089f 43414E31 		.ascii	"CAN1_SCE_IRQn\000"
 2773      5F534345 
 2773      5F495251 
 2773      6E00
 2774              	.LASF37:
 2775 08ad 54494D33 		.ascii	"TIM3_IRQn\000"
 2775      5F495251 
 2775      6E00
 2776              	.LASF15:
 2777 08b7 45585449 		.ascii	"EXTI1_IRQn\000"
 2777      315F4952 
 2777      516E00
 2778              		.ident	"GCC: (GNU Tools for ARM Embedded Processors) 4.9.3 20150529 (release) [ARM/embedded-4_9-br
ARM GAS  /var/folders/yt/6z6x8bjn5sjf5fbb45bk5m4c0000gn/T//ccS933ay.s 			page 60


DEFINED SYMBOLS
                            *ABS*:0000000000000000 usart.c
/var/folders/yt/6z6x8bjn5sjf5fbb45bk5m4c0000gn/T//ccS933ay.s:73     .text:0000000000000000 $t
/var/folders/yt/6z6x8bjn5sjf5fbb45bk5m4c0000gn/T//ccS933ay.s:78     .text:0000000000000000 Usart1Init
/var/folders/yt/6z6x8bjn5sjf5fbb45bk5m4c0000gn/T//ccS933ay.s:222    .text:00000000000000c4 $d
/var/folders/yt/6z6x8bjn5sjf5fbb45bk5m4c0000gn/T//ccS933ay.s:226    .text:00000000000000c8 $t
/var/folders/yt/6z6x8bjn5sjf5fbb45bk5m4c0000gn/T//ccS933ay.s:231    .text:00000000000000c8 Usart1PutChar
/var/folders/yt/6z6x8bjn5sjf5fbb45bk5m4c0000gn/T//ccS933ay.s:282    .text:00000000000000f8 $d
/var/folders/yt/6z6x8bjn5sjf5fbb45bk5m4c0000gn/T//ccS933ay.s:287    .text:0000000000000100 $t
/var/folders/yt/6z6x8bjn5sjf5fbb45bk5m4c0000gn/T//ccS933ay.s:292    .text:0000000000000100 USART1PutString
/var/folders/yt/6z6x8bjn5sjf5fbb45bk5m4c0000gn/T//ccS933ay.s:357    .text:0000000000000144 $d
/var/folders/yt/6z6x8bjn5sjf5fbb45bk5m4c0000gn/T//ccS933ay.s:362    .text:000000000000014c $t
/var/folders/yt/6z6x8bjn5sjf5fbb45bk5m4c0000gn/T//ccS933ay.s:367    .text:000000000000014c Usart1GetChar
/var/folders/yt/6z6x8bjn5sjf5fbb45bk5m4c0000gn/T//ccS933ay.s:398    .text:0000000000000164 $d
                     .debug_frame:0000000000000010 $d

UNDEFINED SYMBOLS
RCC_APB2PeriphClockCmd
GPIO_Init
USART_ClockStructInit
USART_ClockInit
USART_Init
USART_Cmd
USART_DMACmd
NVIC_Init
USART_ITConfig
xQueueGenericSend
TxQueue
vTaskDelay
xQueueGenericReceive
RxQueue
