ARM GAS  /var/folders/yt/6z6x8bjn5sjf5fbb45bk5m4c0000gn/T//ccS933ay.s 			page 1


   1              		.syntax unified
   2              		.cpu cortex-m3
   3              		.fpu softvfp
   4              		.eabi_attribute 20, 1	@ Tag_ABI_FP_denormal
   5              		.eabi_attribute 21, 1	@ Tag_ABI_FP_exceptions
   6              		.eabi_attribute 23, 3	@ Tag_ABI_FP_number_model
   7              		.eabi_attribute 24, 1	@ Tag_ABI_align8_needed
   8              		.eabi_attribute 25, 1	@ Tag_ABI_align8_preserved
   9              		.eabi_attribute 26, 1	@ Tag_ABI_enum_size
  10              		.eabi_attribute 30, 4	@ Tag_ABI_optimization_goals
  11              		.eabi_attribute 34, 1	@ Tag_CPU_unaligned_access
  12              		.eabi_attribute 18, 4	@ Tag_ABI_PCS_wchar_t
  13              		.file	"usart.c"
  14              	@ GNU C (GNU Tools for ARM Embedded Processors) version 4.9.3 20150529 (release) [ARM/embedded-4_9-
  15              	@	compiled by GNU C version 4.2.1 (Based on Apple Inc. build 5658) (LLVM build 2336.9.00), GMP vers
  16              	@ GGC heuristics: --param ggc-min-expand=100 --param ggc-min-heapsize=131072
  17              	@ options passed:  -I . -I ./Libraries/CMSIS/CM3/CoreSupport
  18              	@ -I ./Libraries/CMSIS/CM3/DeviceSupport/ST/STM32F10x
  19              	@ -I ./Libraries/STM32F10x_StdPeriph_Driver/inc -I ./Libraries/Drivers/Leds
  20              	@ -I ./Libraries/Drivers/Buttons -I ./Libraries/Drivers/Usart
  21              	@ -I ./Libraries/Drivers/i2c -I ./Libraries/Drivers/BH1750
  22              	@ -I ./Libraries/Drivers/Utilities -I ./FreeRTOS/Source/include
  23              	@ -I ./FreeRTOS/Source/portable/GCC/ARM_CM3 -imultilib armv7-m
  24              	@ -iprefix /usr/local/Cellar/arm-none-eabi-gcc/20150921/bin/../lib/gcc/arm-none-eabi/4.9.3/
  25              	@ -isysroot /usr/local/Cellar/arm-none-eabi-gcc/20150921/bin/../arm-none-eabi
  26              	@ -MD Libraries/Drivers/Usart/usart.d -MF .dep/usart.o.d -MP
  27              	@ -MQ Libraries/Drivers/Usart/usart.o -D__USES_INITFINI__ -D STM32F10X_MD
  28              	@ -D USE_STDPERIPH_DRIVER -D GCC_ARMCM3 -D RUN_FROM_FLASH=1
  29              	@ Libraries/Drivers/Usart/usart.c -mcpu=cortex-m3 -mthumb
  30              	@ -auxbase-strip Libraries/Drivers/Usart/usart.o -gdwarf-2 -Os -Wall
  31              	@ -Wstrict-prototypes -fomit-frame-pointer -fverbose-asm
  32              	@ options enabled:  -faggressive-loop-optimizations -fauto-inc-dec
  33              	@ -fbranch-count-reg -fcaller-saves -fcombine-stack-adjustments -fcommon
  34              	@ -fcompare-elim -fcprop-registers -fcrossjumping -fcse-follow-jumps
  35              	@ -fdefer-pop -fdelete-null-pointer-checks -fdevirtualize
  36              	@ -fdevirtualize-speculatively -fdwarf2-cfi-asm -fearly-inlining
  37              	@ -feliminate-unused-debug-types -fexpensive-optimizations
  38              	@ -fforward-propagate -ffunction-cse -fgcse -fgcse-lm -fgnu-runtime
  39              	@ -fgnu-unique -fguess-branch-probability -fhoist-adjacent-loads -fident
  40              	@ -fif-conversion -fif-conversion2 -findirect-inlining -finline
  41              	@ -finline-atomics -finline-functions -finline-functions-called-once
  42              	@ -finline-small-functions -fipa-cp -fipa-profile -fipa-pure-const
  43              	@ -fipa-reference -fipa-sra -fira-hoist-pressure -fira-share-save-slots
  44              	@ -fira-share-spill-slots -fisolate-erroneous-paths-dereference -fivopts
  45              	@ -fkeep-static-consts -fleading-underscore -flifetime-dse -fmath-errno
  46              	@ -fmerge-constants -fmerge-debug-strings -fomit-frame-pointer
  47              	@ -foptimize-sibling-calls -fpartial-inlining -fpeephole -fpeephole2
  48              	@ -fprefetch-loop-arrays -freg-struct-return -freorder-blocks
  49              	@ -freorder-functions -frerun-cse-after-loop
  50              	@ -fsched-critical-path-heuristic -fsched-dep-count-heuristic
  51              	@ -fsched-group-heuristic -fsched-interblock -fsched-last-insn-heuristic
  52              	@ -fsched-pressure -fsched-rank-heuristic -fsched-spec
  53              	@ -fsched-spec-insn-heuristic -fsched-stalled-insns-dep -fschedule-insns2
  54              	@ -fsection-anchors -fshow-column -fsigned-zeros -fsplit-ivs-in-unroller
  55              	@ -fsplit-wide-types -fstrict-aliasing -fstrict-overflow
  56              	@ -fstrict-volatile-bitfields -fsync-libcalls -fthread-jumps
  57              	@ -ftoplevel-reorder -ftrapping-math -ftree-bit-ccp -ftree-builtin-call-dce
ARM GAS  /var/folders/yt/6z6x8bjn5sjf5fbb45bk5m4c0000gn/T//ccS933ay.s 			page 2


  58              	@ -ftree-ccp -ftree-ch -ftree-coalesce-vars -ftree-copy-prop
  59              	@ -ftree-copyrename -ftree-cselim -ftree-dce -ftree-dominator-opts
  60              	@ -ftree-dse -ftree-forwprop -ftree-fre -ftree-loop-if-convert
  61              	@ -ftree-loop-im -ftree-loop-ivcanon -ftree-loop-optimize
  62              	@ -ftree-parallelize-loops= -ftree-phiprop -ftree-pre -ftree-pta
  63              	@ -ftree-reassoc -ftree-scev-cprop -ftree-sink -ftree-slsr -ftree-sra
  64              	@ -ftree-switch-conversion -ftree-tail-merge -ftree-ter -ftree-vrp
  65              	@ -funit-at-a-time -fvar-tracking -fvar-tracking-assignments -fverbose-asm
  66              	@ -fzero-initialized-in-bss -mfix-cortex-m3-ldrd -mlittle-endian -mlra
  67              	@ -mpic-data-is-text-relative -msched-prolog -mthumb -munaligned-access
  68              	@ -mvectorize-with-neon-quad
  69              	
  70              		.text
  71              	.Ltext0:
  72              		.cfi_sections	.debug_frame
  73              		.align	1
  74              		.global	Usart1Init
  75              		.thumb
  76              		.thumb_func
  77              		.type	Usart1Init, %function
  78              	Usart1Init:
  79              	.LFB34:
  80              		.file 1 "Libraries/Drivers/Usart/usart.c"
   1:Libraries/Drivers/Usart/usart.c **** /*
   2:Libraries/Drivers/Usart/usart.c ****  * usart.c
   3:Libraries/Drivers/Usart/usart.c ****  */
   4:Libraries/Drivers/Usart/usart.c **** #include "usart.h"
   5:Libraries/Drivers/Usart/usart.c **** #include "mytasks.h"
   6:Libraries/Drivers/Usart/usart.c **** #define serPUT_STRING_CHAR_DELAY                ( 5 / portTICK_RATE_MS )
   7:Libraries/Drivers/Usart/usart.c **** 
   8:Libraries/Drivers/Usart/usart.c **** void Usart1Init(void)
   9:Libraries/Drivers/Usart/usart.c **** {
  81              		.loc 1 9 0
  82              		.cfi_startproc
  83              		@ args = 0, pretend = 0, frame = 32
  84              		@ frame_needed = 0, uses_anonymous_args = 0
  85 0000 70B5     		push	{r4, r5, r6, lr}	@
  86              	.LCFI0:
  87              		.cfi_def_cfa_offset 16
  88              		.cfi_offset 4, -16
  89              		.cfi_offset 5, -12
  90              		.cfi_offset 6, -8
  91              		.cfi_offset 14, -4
  10:Libraries/Drivers/Usart/usart.c **** 	GPIO_InitTypeDef GPIO_InitStructure;
  11:Libraries/Drivers/Usart/usart.c **** 	USART_InitTypeDef USART_InitStructure;
  12:Libraries/Drivers/Usart/usart.c **** 	USART_ClockInitTypeDef  USART_ClockInitStructure;
  13:Libraries/Drivers/Usart/usart.c **** 	//enable bus clocks
  14:Libraries/Drivers/Usart/usart.c **** 	RCC_APB2PeriphClockCmd(RCC_APB2Periph_USART1 | RCC_APB2Periph_GPIOA | RCC_APB2Periph_AFIO, ENABLE)
  92              		.loc 1 14 0
  93 0002 44F20500 		movw	r0, #16389	@,
   9:Libraries/Drivers/Usart/usart.c **** 	GPIO_InitTypeDef GPIO_InitStructure;
  94              		.loc 1 9 0
  95 0006 88B0     		sub	sp, sp, #32	@,,
  96              	.LCFI1:
  97              		.cfi_def_cfa_offset 48
  98              		.loc 1 14 0
  99 0008 0121     		movs	r1, #1	@,
ARM GAS  /var/folders/yt/6z6x8bjn5sjf5fbb45bk5m4c0000gn/T//ccS933ay.s 			page 3


 100 000a FFF7FEFF 		bl	RCC_APB2PeriphClockCmd	@
 101              	.LVL0:
  15:Libraries/Drivers/Usart/usart.c **** 	//Set USART1 Tx (PA.09) as AF push-pull
  16:Libraries/Drivers/Usart/usart.c **** 	GPIO_InitStructure.GPIO_Pin = GPIO_Pin_9;
  17:Libraries/Drivers/Usart/usart.c **** 	GPIO_InitStructure.GPIO_Mode = GPIO_Mode_AF_PP;
  18:Libraries/Drivers/Usart/usart.c **** 	GPIO_InitStructure.GPIO_Speed = GPIO_Speed_50MHz;
  19:Libraries/Drivers/Usart/usart.c **** 	GPIO_Init(GPIOA, &GPIO_InitStructure);
 102              		.loc 1 19 0
 103 000e 2D4C     		ldr	r4, .L2	@ tmp116,
  16:Libraries/Drivers/Usart/usart.c **** 	GPIO_InitStructure.GPIO_Mode = GPIO_Mode_AF_PP;
 104              		.loc 1 16 0
 105 0010 4FF40073 		mov	r3, #512	@ tmp111,
 106 0014 ADF80030 		strh	r3, [sp]	@ movhi	@ tmp111, GPIO_InitStructure.GPIO_Pin
  17:Libraries/Drivers/Usart/usart.c **** 	GPIO_InitStructure.GPIO_Speed = GPIO_Speed_50MHz;
 107              		.loc 1 17 0
 108 0018 1823     		movs	r3, #24	@ tmp112,
 109 001a 8DF80330 		strb	r3, [sp, #3]	@ tmp112, GPIO_InitStructure.GPIO_Mode
 110              		.loc 1 19 0
 111 001e 2046     		mov	r0, r4	@, tmp116
  18:Libraries/Drivers/Usart/usart.c **** 	GPIO_Init(GPIOA, &GPIO_InitStructure);
 112              		.loc 1 18 0
 113 0020 0323     		movs	r3, #3	@ tmp114,
 114              		.loc 1 19 0
 115 0022 6946     		mov	r1, sp	@,
  18:Libraries/Drivers/Usart/usart.c **** 	GPIO_Init(GPIOA, &GPIO_InitStructure);
 116              		.loc 1 18 0
 117 0024 8DF80230 		strb	r3, [sp, #2]	@ tmp114, GPIO_InitStructure.GPIO_Speed
 118              		.loc 1 19 0
 119 0028 FFF7FEFF 		bl	GPIO_Init	@
 120              	.LVL1:
  20:Libraries/Drivers/Usart/usart.c **** 	//Set USART1 Rx (PA.10) as input floating
  21:Libraries/Drivers/Usart/usart.c **** 	GPIO_InitStructure.GPIO_Pin = GPIO_Pin_10;
 121              		.loc 1 21 0
 122 002c 4FF48063 		mov	r3, #1024	@ tmp119,
  22:Libraries/Drivers/Usart/usart.c **** 	GPIO_InitStructure.GPIO_Mode = GPIO_Mode_IN_FLOATING;
  23:Libraries/Drivers/Usart/usart.c **** 	GPIO_Init(GPIOA, &GPIO_InitStructure);
 123              		.loc 1 23 0
 124 0030 6946     		mov	r1, sp	@,
  21:Libraries/Drivers/Usart/usart.c **** 	GPIO_InitStructure.GPIO_Mode = GPIO_Mode_IN_FLOATING;
 125              		.loc 1 21 0
 126 0032 ADF80030 		strh	r3, [sp]	@ movhi	@ tmp119, GPIO_InitStructure.GPIO_Pin
 127              		.loc 1 23 0
 128 0036 2046     		mov	r0, r4	@, tmp116
  22:Libraries/Drivers/Usart/usart.c **** 	GPIO_InitStructure.GPIO_Mode = GPIO_Mode_IN_FLOATING;
 129              		.loc 1 22 0
 130 0038 0423     		movs	r3, #4	@ tmp120,
  24:Libraries/Drivers/Usart/usart.c **** 	USART_ClockStructInit(&USART_ClockInitStructure);
  25:Libraries/Drivers/Usart/usart.c **** 	USART_ClockInit(USART1, &USART_ClockInitStructure);
 131              		.loc 1 25 0
 132 003a 04F54054 		add	r4, r4, #12288	@ tmp125, tmp125,
  22:Libraries/Drivers/Usart/usart.c **** 	GPIO_Init(GPIOA, &GPIO_InitStructure);
 133              		.loc 1 22 0
 134 003e 8DF80330 		strb	r3, [sp, #3]	@ tmp120, GPIO_InitStructure.GPIO_Mode
  23:Libraries/Drivers/Usart/usart.c **** 	USART_ClockStructInit(&USART_ClockInitStructure);
 135              		.loc 1 23 0
 136 0042 FFF7FEFF 		bl	GPIO_Init	@
 137              	.LVL2:
ARM GAS  /var/folders/yt/6z6x8bjn5sjf5fbb45bk5m4c0000gn/T//ccS933ay.s 			page 4


  24:Libraries/Drivers/Usart/usart.c **** 	USART_ClockStructInit(&USART_ClockInitStructure);
 138              		.loc 1 24 0
 139 0046 02A8     		add	r0, sp, #8	@ tmp153,,
 140 0048 FFF7FEFF 		bl	USART_ClockStructInit	@
 141              	.LVL3:
 142              		.loc 1 25 0
 143 004c 2046     		mov	r0, r4	@, tmp125
 144 004e 02A9     		add	r1, sp, #8	@ tmp154,,
 145 0050 FFF7FEFF 		bl	USART_ClockInit	@
 146              	.LVL4:
  26:Libraries/Drivers/Usart/usart.c **** 
  27:Libraries/Drivers/Usart/usart.c **** 	USART_InitStructure.USART_BaudRate = 9600;
 147              		.loc 1 27 0
 148 0054 4FF41653 		mov	r3, #9600	@ tmp127,
  28:Libraries/Drivers/Usart/usart.c **** 	USART_InitStructure.USART_WordLength = USART_WordLength_8b;
 149              		.loc 1 28 0
 150 0058 0025     		movs	r5, #0	@ tmp129,
  27:Libraries/Drivers/Usart/usart.c **** 	USART_InitStructure.USART_WordLength = USART_WordLength_8b;
 151              		.loc 1 27 0
 152 005a 0493     		str	r3, [sp, #16]	@ tmp127, USART_InitStructure.USART_BaudRate
  29:Libraries/Drivers/Usart/usart.c **** 	USART_InitStructure.USART_StopBits = USART_StopBits_1;
  30:Libraries/Drivers/Usart/usart.c **** 	USART_InitStructure.USART_Parity = USART_Parity_No ;
  31:Libraries/Drivers/Usart/usart.c **** 	USART_InitStructure.USART_Mode = USART_Mode_Rx | USART_Mode_Tx;
  32:Libraries/Drivers/Usart/usart.c **** 	USART_InitStructure.USART_HardwareFlowControl = USART_HardwareFlowControl_None;
  33:Libraries/Drivers/Usart/usart.c **** 	//Write USART1 parameters
  34:Libraries/Drivers/Usart/usart.c **** 	USART_Init(USART1, &USART_InitStructure);
 153              		.loc 1 34 0
 154 005c 2046     		mov	r0, r4	@, tmp125
  31:Libraries/Drivers/Usart/usart.c **** 	USART_InitStructure.USART_HardwareFlowControl = USART_HardwareFlowControl_None;
 155              		.loc 1 31 0
 156 005e 0C23     		movs	r3, #12	@ tmp135,
 157              		.loc 1 34 0
 158 0060 04A9     		add	r1, sp, #16	@,,
  31:Libraries/Drivers/Usart/usart.c **** 	USART_InitStructure.USART_HardwareFlowControl = USART_HardwareFlowControl_None;
 159              		.loc 1 31 0
 160 0062 ADF81A30 		strh	r3, [sp, #26]	@ movhi	@ tmp135, USART_InitStructure.USART_Mode
  28:Libraries/Drivers/Usart/usart.c **** 	USART_InitStructure.USART_StopBits = USART_StopBits_1;
 161              		.loc 1 28 0
 162 0066 ADF81450 		strh	r5, [sp, #20]	@ movhi	@ tmp129, USART_InitStructure.USART_WordLength
  29:Libraries/Drivers/Usart/usart.c **** 	USART_InitStructure.USART_StopBits = USART_StopBits_1;
 163              		.loc 1 29 0
 164 006a ADF81650 		strh	r5, [sp, #22]	@ movhi	@ tmp129, USART_InitStructure.USART_StopBits
  30:Libraries/Drivers/Usart/usart.c **** 	USART_InitStructure.USART_Mode = USART_Mode_Rx | USART_Mode_Tx;
 165              		.loc 1 30 0
 166 006e ADF81850 		strh	r5, [sp, #24]	@ movhi	@ tmp129, USART_InitStructure.USART_Parity
  32:Libraries/Drivers/Usart/usart.c **** 	//Write USART1 parameters
 167              		.loc 1 32 0
 168 0072 ADF81C50 		strh	r5, [sp, #28]	@ movhi	@ tmp129, USART_InitStructure.USART_HardwareFlowControl
 169              		.loc 1 34 0
 170 0076 FFF7FEFF 		bl	USART_Init	@
 171              	.LVL5:
  35:Libraries/Drivers/Usart/usart.c **** 	//Enable USART1
  36:Libraries/Drivers/Usart/usart.c **** 	USART_Cmd(USART1, ENABLE);
 172              		.loc 1 36 0
 173 007a 2046     		mov	r0, r4	@, tmp125
 174 007c 0121     		movs	r1, #1	@,
 175 007e FFF7FEFF 		bl	USART_Cmd	@
ARM GAS  /var/folders/yt/6z6x8bjn5sjf5fbb45bk5m4c0000gn/T//ccS933ay.s 			page 5


 176              	.LVL6:
  37:Libraries/Drivers/Usart/usart.c **** 	USART_DMACmd( USART1, ( USART_DMAReq_Tx | USART_DMAReq_Rx ), ENABLE );
 177              		.loc 1 37 0
 178 0082 2046     		mov	r0, r4	@, tmp125
 179 0084 C021     		movs	r1, #192	@,
 180 0086 0122     		movs	r2, #1	@,
 181 0088 FFF7FEFF 		bl	USART_DMACmd	@
 182              	.LVL7:
  38:Libraries/Drivers/Usart/usart.c **** 
  39:Libraries/Drivers/Usart/usart.c **** 	//configure NVIC
  40:Libraries/Drivers/Usart/usart.c **** 	NVIC_InitTypeDef NVIC_InitStructure;
  41:Libraries/Drivers/Usart/usart.c **** 	//select NVIC channel to configure
  42:Libraries/Drivers/Usart/usart.c **** 	NVIC_InitStructure.NVIC_IRQChannel = USART1_IRQn;
 183              		.loc 1 42 0
 184 008c 2523     		movs	r3, #37	@ tmp142,
 185 008e 8DF80430 		strb	r3, [sp, #4]	@ tmp142, NVIC_InitStructure.NVIC_IRQChannel
  43:Libraries/Drivers/Usart/usart.c **** 	//set priority to lowest
  44:Libraries/Drivers/Usart/usart.c **** 	NVIC_InitStructure.NVIC_IRQChannelPreemptionPriority = 0x0F;
  45:Libraries/Drivers/Usart/usart.c **** 	//set subpriority to lowest
  46:Libraries/Drivers/Usart/usart.c **** 	NVIC_InitStructure.NVIC_IRQChannelSubPriority = 0x0F;
  47:Libraries/Drivers/Usart/usart.c **** 	//enable IRQ channel
  48:Libraries/Drivers/Usart/usart.c **** 	NVIC_InitStructure.NVIC_IRQChannelCmd = ENABLE;
 186              		.loc 1 48 0
 187 0092 0126     		movs	r6, #1	@ tmp148,
  44:Libraries/Drivers/Usart/usart.c **** 	//set subpriority to lowest
 188              		.loc 1 44 0
 189 0094 0F23     		movs	r3, #15	@ tmp144,
  49:Libraries/Drivers/Usart/usart.c **** 	//update NVIC registers
  50:Libraries/Drivers/Usart/usart.c **** 	NVIC_Init(&NVIC_InitStructure);
 190              		.loc 1 50 0
 191 0096 01A8     		add	r0, sp, #4	@,,
  44:Libraries/Drivers/Usart/usart.c **** 	//set subpriority to lowest
 192              		.loc 1 44 0
 193 0098 8DF80530 		strb	r3, [sp, #5]	@ tmp144, NVIC_InitStructure.NVIC_IRQChannelPreemptionPriority
  46:Libraries/Drivers/Usart/usart.c **** 	//enable IRQ channel
 194              		.loc 1 46 0
 195 009c 8DF80630 		strb	r3, [sp, #6]	@ tmp144, NVIC_InitStructure.NVIC_IRQChannelSubPriority
  48:Libraries/Drivers/Usart/usart.c **** 	//update NVIC registers
 196              		.loc 1 48 0
 197 00a0 8DF80760 		strb	r6, [sp, #7]	@ tmp148, NVIC_InitStructure.NVIC_IRQChannelCmd
 198              		.loc 1 50 0
 199 00a4 FFF7FEFF 		bl	NVIC_Init	@
 200              	.LVL8:
  51:Libraries/Drivers/Usart/usart.c **** 	//disable Transmit Data Register empty interrupt
  52:Libraries/Drivers/Usart/usart.c **** 	USART_ITConfig(USART1, USART_IT_TXE, DISABLE);
 201              		.loc 1 52 0
 202 00a8 2046     		mov	r0, r4	@, tmp125
 203 00aa 2A46     		mov	r2, r5	@, tmp129
 204 00ac 40F22771 		movw	r1, #1831	@,
 205 00b0 FFF7FEFF 		bl	USART_ITConfig	@
 206              	.LVL9:
  53:Libraries/Drivers/Usart/usart.c **** 	//enable Receive Data register not empty interrupt
  54:Libraries/Drivers/Usart/usart.c **** 	USART_ITConfig(USART1, USART_IT_RXNE, ENABLE);
 207              		.loc 1 54 0
 208 00b4 2046     		mov	r0, r4	@, tmp125
 209 00b6 40F22551 		movw	r1, #1317	@,
 210 00ba 3246     		mov	r2, r6	@, tmp148
ARM GAS  /var/folders/yt/6z6x8bjn5sjf5fbb45bk5m4c0000gn/T//ccS933ay.s 			page 6


 211 00bc FFF7FEFF 		bl	USART_ITConfig	@
 212              	.LVL10:
  55:Libraries/Drivers/Usart/usart.c **** }
 213              		.loc 1 55 0
 214 00c0 08B0     		add	sp, sp, #32	@,,
 215              	.LCFI2:
 216              		.cfi_def_cfa_offset 16
 217              		@ sp needed	@
 218 00c2 70BD     		pop	{r4, r5, r6, pc}	@
 219              	.L3:
 220              		.align	2
 221              	.L2:
 222 00c4 00080140 		.word	1073809408
 223              		.cfi_endproc
 224              	.LFE34:
 225              		.size	Usart1Init, .-Usart1Init
 226              		.align	1
 227              		.global	Usart1PutChar
 228              		.thumb
 229              		.thumb_func
 230              		.type	Usart1PutChar, %function
 231              	Usart1PutChar:
 232              	.LFB35:
  56:Libraries/Drivers/Usart/usart.c **** uint32_t Usart1PutChar(char ch)
  57:Libraries/Drivers/Usart/usart.c **** {
 233              		.loc 1 57 0
 234              		.cfi_startproc
 235              		@ args = 0, pretend = 0, frame = 8
 236              		@ frame_needed = 0, uses_anonymous_args = 0
 237              	.LVL11:
 238 00c8 13B5     		push	{r0, r1, r4, lr}	@
 239              	.LCFI3:
 240              		.cfi_def_cfa_offset 16
 241              		.cfi_offset 4, -8
 242              		.cfi_offset 14, -4
  58:Libraries/Drivers/Usart/usart.c ****   if( xQueueSend( TxQueue, &ch, 10 ) == pdPASS )
 243              		.loc 1 58 0
 244 00ca 0B4B     		ldr	r3, .L8	@ tmp116,
  57:Libraries/Drivers/Usart/usart.c ****   if( xQueueSend( TxQueue, &ch, 10 ) == pdPASS )
 245              		.loc 1 57 0
 246 00cc 02A9     		add	r1, sp, #8	@ tmp117,,
 247 00ce 01F8010D 		strb	r0, [r1, #-1]!	@ ch, ch
 248              		.loc 1 58 0
 249 00d2 0A22     		movs	r2, #10	@,
 250 00d4 1868     		ldr	r0, [r3]	@, TxQueue
 251              	.LVL12:
 252 00d6 0023     		movs	r3, #0	@,
 253 00d8 FFF7FEFF 		bl	xQueueGenericSend	@
 254              	.LVL13:
 255 00dc 0128     		cmp	r0, #1	@ D.6020,
 256 00de 0446     		mov	r4, r0	@ D.6020,
 257 00e0 07D1     		bne	.L6	@,
  59:Libraries/Drivers/Usart/usart.c ****     {
  60:Libraries/Drivers/Usart/usart.c ****       USART_ITConfig(USART1, USART_IT_TXE, ENABLE);
 258              		.loc 1 60 0
 259 00e2 0648     		ldr	r0, .L8+4	@,
 260 00e4 40F22771 		movw	r1, #1831	@,
ARM GAS  /var/folders/yt/6z6x8bjn5sjf5fbb45bk5m4c0000gn/T//ccS933ay.s 			page 7


 261 00e8 2246     		mov	r2, r4	@, D.6020
 262 00ea FFF7FEFF 		bl	USART_ITConfig	@
 263              	.LVL14:
  61:Libraries/Drivers/Usart/usart.c ****       return pdTRUE;
 264              		.loc 1 61 0
 265 00ee 2046     		mov	r0, r4	@ D.6018, D.6020
 266 00f0 00E0     		b	.L5	@
 267              	.L6:
  62:Libraries/Drivers/Usart/usart.c ****     }else{
  63:Libraries/Drivers/Usart/usart.c ****      return pdFAIL;
 268              		.loc 1 63 0
 269 00f2 0020     		movs	r0, #0	@ D.6018,
 270              	.L5:
  64:Libraries/Drivers/Usart/usart.c ****     }
  65:Libraries/Drivers/Usart/usart.c **** }
 271              		.loc 1 65 0
 272 00f4 02B0     		add	sp, sp, #8	@,,
 273              	.LCFI4:
 274              		.cfi_def_cfa_offset 8
 275              	.LVL15:
 276              		@ sp needed	@
 277 00f6 10BD     		pop	{r4, pc}	@
 278              	.LVL16:
 279              	.L9:
 280              		.align	2
 281              	.L8:
 282 00f8 00000000 		.word	TxQueue
 283 00fc 00380140 		.word	1073821696
 284              		.cfi_endproc
 285              	.LFE35:
 286              		.size	Usart1PutChar, .-Usart1PutChar
 287              		.align	1
 288              		.global	USART1PutString
 289              		.thumb
 290              		.thumb_func
 291              		.type	USART1PutString, %function
 292              	USART1PutString:
 293              	.LFB36:
  66:Libraries/Drivers/Usart/usart.c **** void  USART1PutString( const char * const pcString, unsigned long ulStringLength)
  67:Libraries/Drivers/Usart/usart.c **** {
 294              		.loc 1 67 0
 295              		.cfi_startproc
 296              		@ args = 0, pretend = 0, frame = 0
 297              		@ frame_needed = 0, uses_anonymous_args = 0
 298              	.LVL17:
 299 0100 38B5     		push	{r3, r4, r5, lr}	@
 300              	.LCFI5:
 301              		.cfi_def_cfa_offset 16
 302              		.cfi_offset 3, -16
 303              		.cfi_offset 4, -12
 304              		.cfi_offset 5, -8
 305              		.cfi_offset 14, -4
 306 0102 0446     		mov	r4, r0	@ ivtmp.15, pcString
 307 0104 4518     		adds	r5, r0, r1	@ D.6031, ivtmp.15, ulStringLength
 308              	.LVL18:
 309              	.L11:
  68:Libraries/Drivers/Usart/usart.c **** 
ARM GAS  /var/folders/yt/6z6x8bjn5sjf5fbb45bk5m4c0000gn/T//ccS933ay.s 			page 8


  69:Libraries/Drivers/Usart/usart.c **** unsigned long ul;
  70:Libraries/Drivers/Usart/usart.c ****         for( ul = 0; ul < ulStringLength; ul++ )
 310              		.loc 1 70 0 discriminator 1
 311 0106 AC42     		cmp	r4, r5	@ ivtmp.15, D.6031
 312 0108 13D0     		beq	.L17	@,
  71:Libraries/Drivers/Usart/usart.c **** 
  72:Libraries/Drivers/Usart/usart.c ****                 {
  73:Libraries/Drivers/Usart/usart.c ****                         if( xQueueSend( TxQueue, &( pcString[ ul ] ), serPUT_STRING_CHAR_DELAY ) !=
 313              		.loc 1 73 0
 314 010a 0E4B     		ldr	r3, .L18	@ tmp118,
 315 010c 2146     		mov	r1, r4	@, ivtmp.15
 316 010e 1868     		ldr	r0, [r3]	@, TxQueue
 317 0110 0522     		movs	r2, #5	@,
 318 0112 0023     		movs	r3, #0	@,
 319 0114 FFF7FEFF 		bl	xQueueGenericSend	@
 320              	.LVL19:
 321 0118 0128     		cmp	r0, #1	@,
 322 011a 08D0     		beq	.L12	@,
  74:Libraries/Drivers/Usart/usart.c ****                         {
  75:Libraries/Drivers/Usart/usart.c ****                                 /* Cannot fit any more in the queue.  Try turning the Tx on to
  76:Libraries/Drivers/Usart/usart.c ****                                 clear some space. */
  77:Libraries/Drivers/Usart/usart.c ****                                 USART_ITConfig( USART1, USART_IT_TXE, ENABLE );
 323              		.loc 1 77 0
 324 011c 0A48     		ldr	r0, .L18+4	@,
 325 011e 40F22771 		movw	r1, #1831	@,
 326 0122 0122     		movs	r2, #1	@,
 327 0124 FFF7FEFF 		bl	USART_ITConfig	@
 328              	.LVL20:
  78:Libraries/Drivers/Usart/usart.c ****                                 vTaskDelay( serPUT_STRING_CHAR_DELAY );
 329              		.loc 1 78 0
 330 0128 0520     		movs	r0, #5	@,
 331 012a FFF7FEFF 		bl	vTaskDelay	@
 332              	.LVL21:
 333              	.L12:
 334 012e 0134     		adds	r4, r4, #1	@ ivtmp.15, ivtmp.15,
 335              	.LVL22:
 336 0130 E9E7     		b	.L11	@
 337              	.L17:
  79:Libraries/Drivers/Usart/usart.c **** 
  80:Libraries/Drivers/Usart/usart.c ****                                 /* Go back and try again. */
  81:Libraries/Drivers/Usart/usart.c ****                                 continue;
  82:Libraries/Drivers/Usart/usart.c ****                         }
  83:Libraries/Drivers/Usart/usart.c ****                 }
  84:Libraries/Drivers/Usart/usart.c **** 
  85:Libraries/Drivers/Usart/usart.c ****         USART_ITConfig( USART1, USART_IT_TXE, ENABLE );
 338              		.loc 1 85 0
 339 0132 0548     		ldr	r0, .L18+4	@,
 340 0134 40F22771 		movw	r1, #1831	@,
  86:Libraries/Drivers/Usart/usart.c **** }
 341              		.loc 1 86 0
 342 0138 BDE83840 		pop	{r3, r4, r5, lr}	@
 343              	.LCFI6:
 344              		.cfi_restore 14
 345              		.cfi_restore 5
 346              		.cfi_restore 4
 347              		.cfi_restore 3
 348              		.cfi_def_cfa_offset 0
ARM GAS  /var/folders/yt/6z6x8bjn5sjf5fbb45bk5m4c0000gn/T//ccS933ay.s 			page 9


 349              	.LVL23:
  85:Libraries/Drivers/Usart/usart.c **** }
 350              		.loc 1 85 0
 351 013c 0122     		movs	r2, #1	@,
 352 013e FFF7FEBF 		b	USART_ITConfig	@
 353              	.LVL24:
 354              	.L19:
 355 0142 00BF     		.align	2
 356              	.L18:
 357 0144 00000000 		.word	TxQueue
 358 0148 00380140 		.word	1073821696
 359              		.cfi_endproc
 360              	.LFE36:
 361              		.size	USART1PutString, .-USART1PutString
 362              		.align	1
 363              		.global	Usart1GetChar
 364              		.thumb
 365              		.thumb_func
 366              		.type	Usart1GetChar, %function
 367              	Usart1GetChar:
 368              	.LFB37:
  87:Libraries/Drivers/Usart/usart.c **** 
  88:Libraries/Drivers/Usart/usart.c **** 
  89:Libraries/Drivers/Usart/usart.c **** 
  90:Libraries/Drivers/Usart/usart.c **** uint32_t Usart1GetChar(char *ch){
 369              		.loc 1 90 0
 370              		.cfi_startproc
 371              		@ args = 0, pretend = 0, frame = 0
 372              		@ frame_needed = 0, uses_anonymous_args = 0
 373              	.LVL25:
 374 014c 08B5     		push	{r3, lr}	@
 375              	.LCFI7:
 376              		.cfi_def_cfa_offset 8
 377              		.cfi_offset 3, -8
 378              		.cfi_offset 14, -4
  91:Libraries/Drivers/Usart/usart.c ****   if(xQueueReceive( RxQueue, ch, 0 ) == pdPASS)
 379              		.loc 1 91 0
 380 014e 054B     		ldr	r3, .L21	@ tmp116,
 381 0150 0022     		movs	r2, #0	@,
  90:Libraries/Drivers/Usart/usart.c ****   if(xQueueReceive( RxQueue, ch, 0 ) == pdPASS)
 382              		.loc 1 90 0
 383 0152 0146     		mov	r1, r0	@ ch, ch
 384              		.loc 1 91 0
 385 0154 1868     		ldr	r0, [r3]	@, RxQueue
 386              	.LVL26:
 387 0156 1346     		mov	r3, r2	@,
 388 0158 FFF7FEFF 		bl	xQueueGenericReceive	@
 389              	.LVL27:
  92:Libraries/Drivers/Usart/usart.c ****     {
  93:Libraries/Drivers/Usart/usart.c ****       return pdTRUE;
  94:Libraries/Drivers/Usart/usart.c ****     }
  95:Libraries/Drivers/Usart/usart.c ****   return pdFALSE;
  96:Libraries/Drivers/Usart/usart.c **** }
 390              		.loc 1 96 0
 391 015c 431E     		subs	r3, r0, #1	@,,
 392 015e 5842     		rsbs	r0, r3, #0	@,,
 393 0160 5841     		adcs	r0, r0, r3	@,,
ARM GAS  /var/folders/yt/6z6x8bjn5sjf5fbb45bk5m4c0000gn/T//ccS933ay.s 			page 10


 394 0162 08BD     		pop	{r3, pc}	@
 395              	.L22:
 396              		.align	2
 397              	.L21:
 398 0164 00000000 		.word	RxQueue
 399              		.cfi_endproc
 400              	.LFE37:
 401              		.size	Usart1GetChar, .-Usart1GetChar
 402              	.Letext0:
 403              		.file 2 "/usr/local/Cellar/arm-none-eabi-gcc/20150921/arm-none-eabi/include/machine/_default_types
 404              		.file 3 "/usr/local/Cellar/arm-none-eabi-gcc/20150921/arm-none-eabi/include/sys/_stdint.h"
 405              		.file 4 "./Libraries/CMSIS/CM3/DeviceSupport/ST/STM32F10x/STM32f10x.h"
 406              		.file 5 "./Libraries/STM32F10x_StdPeriph_Driver/inc/stm32f10x_gpio.h"
 407              		.file 6 "./Libraries/STM32F10x_StdPeriph_Driver/inc/stm32f10x_usart.h"
 408              		.file 7 "./Libraries/STM32F10x_StdPeriph_Driver/inc/misc.h"
 409              		.file 8 "./FreeRTOS/Source/include/../../Source/portable/GCC/ARM_CM3/portmacro.h"
 410              		.file 9 "./FreeRTOS/Source/include/queue.h"
 411              		.file 10 "./Libraries/CMSIS/CM3/CoreSupport/core_cm3.h"
 412              		.file 11 "./mytasks.h"
 413              		.file 12 "./Libraries/STM32F10x_StdPeriph_Driver/inc/stm32f10x_rcc.h"
 414              		.file 13 "./FreeRTOS/Source/include/task.h"