ARM GAS  /var/folders/yt/6z6x8bjn5sjf5fbb45bk5m4c0000gn/T//ccJcOfAn.s 			page 1


   1              		.syntax unified
   2              		.cpu cortex-m3
   3              		.fpu softvfp
   4              		.eabi_attribute 20, 1	@ Tag_ABI_FP_denormal
   5              		.eabi_attribute 21, 1	@ Tag_ABI_FP_exceptions
   6              		.eabi_attribute 23, 3	@ Tag_ABI_FP_number_model
   7              		.eabi_attribute 24, 1	@ Tag_ABI_align8_needed
   8              		.eabi_attribute 25, 1	@ Tag_ABI_align8_preserved
   9              		.eabi_attribute 26, 1	@ Tag_ABI_enum_size
  10              		.eabi_attribute 30, 4	@ Tag_ABI_optimization_goals
  11              		.eabi_attribute 34, 1	@ Tag_CPU_unaligned_access
  12              		.eabi_attribute 18, 4	@ Tag_ABI_PCS_wchar_t
  13              		.file	"main.c"
  14              	@ GNU C (GNU Tools for ARM Embedded Processors) version 4.9.3 20150529 (release) [ARM/embedded-4_9-
  15              	@	compiled by GNU C version 4.2.1 (Based on Apple Inc. build 5658) (LLVM build 2336.9.00), GMP vers
  16              	@ GGC heuristics: --param ggc-min-expand=100 --param ggc-min-heapsize=131072
  17              	@ options passed:  -I . -I ./Libraries/CMSIS/CM3/CoreSupport
  18              	@ -I ./Libraries/CMSIS/CM3/DeviceSupport/ST/STM32F10x
  19              	@ -I ./Libraries/STM32F10x_StdPeriph_Driver/inc -I ./Libraries/Drivers/Leds
  20              	@ -I ./Libraries/Drivers/Buttons -I ./Libraries/Drivers/Usart
  21              	@ -I ./Libraries/Drivers/i2c -I ./Libraries/Drivers/BH1750
  22              	@ -I ./Libraries/Drivers/Utilities -I ./FreeRTOS/Source/include
  23              	@ -I ./FreeRTOS/Source/portable/GCC/ARM_CM3 -imultilib armv7-m
  24              	@ -iprefix /usr/local/Cellar/arm-none-eabi-gcc/20150921/bin/../lib/gcc/arm-none-eabi/4.9.3/
  25              	@ -isysroot /usr/local/Cellar/arm-none-eabi-gcc/20150921/bin/../arm-none-eabi
  26              	@ -MD main.d -MF .dep/main.o.d -MP -MQ main.o -D__USES_INITFINI__
  27              	@ -D STM32F10X_MD -D USE_STDPERIPH_DRIVER -D GCC_ARMCM3 -D RUN_FROM_FLASH=1
  28              	@ main.c -mcpu=cortex-m3 -mthumb -auxbase-strip main.o -gdwarf-2 -Os -Wall
  29              	@ -Wstrict-prototypes -fomit-frame-pointer -fverbose-asm
  30              	@ options enabled:  -faggressive-loop-optimizations -fauto-inc-dec
  31              	@ -fbranch-count-reg -fcaller-saves -fcombine-stack-adjustments -fcommon
  32              	@ -fcompare-elim -fcprop-registers -fcrossjumping -fcse-follow-jumps
  33              	@ -fdefer-pop -fdelete-null-pointer-checks -fdevirtualize
  34              	@ -fdevirtualize-speculatively -fdwarf2-cfi-asm -fearly-inlining
  35              	@ -feliminate-unused-debug-types -fexpensive-optimizations
  36              	@ -fforward-propagate -ffunction-cse -fgcse -fgcse-lm -fgnu-runtime
  37              	@ -fgnu-unique -fguess-branch-probability -fhoist-adjacent-loads -fident
  38              	@ -fif-conversion -fif-conversion2 -findirect-inlining -finline
  39              	@ -finline-atomics -finline-functions -finline-functions-called-once
  40              	@ -finline-small-functions -fipa-cp -fipa-profile -fipa-pure-const
  41              	@ -fipa-reference -fipa-sra -fira-hoist-pressure -fira-share-save-slots
  42              	@ -fira-share-spill-slots -fisolate-erroneous-paths-dereference -fivopts
  43              	@ -fkeep-static-consts -fleading-underscore -flifetime-dse -fmath-errno
  44              	@ -fmerge-constants -fmerge-debug-strings -fomit-frame-pointer
  45              	@ -foptimize-sibling-calls -fpartial-inlining -fpeephole -fpeephole2
  46              	@ -fprefetch-loop-arrays -freg-struct-return -freorder-blocks
  47              	@ -freorder-functions -frerun-cse-after-loop
  48              	@ -fsched-critical-path-heuristic -fsched-dep-count-heuristic
  49              	@ -fsched-group-heuristic -fsched-interblock -fsched-last-insn-heuristic
  50              	@ -fsched-pressure -fsched-rank-heuristic -fsched-spec
  51              	@ -fsched-spec-insn-heuristic -fsched-stalled-insns-dep -fschedule-insns2
  52              	@ -fsection-anchors -fshow-column -fsigned-zeros -fsplit-ivs-in-unroller
  53              	@ -fsplit-wide-types -fstrict-aliasing -fstrict-overflow
  54              	@ -fstrict-volatile-bitfields -fsync-libcalls -fthread-jumps
  55              	@ -ftoplevel-reorder -ftrapping-math -ftree-bit-ccp -ftree-builtin-call-dce
  56              	@ -ftree-ccp -ftree-ch -ftree-coalesce-vars -ftree-copy-prop
  57              	@ -ftree-copyrename -ftree-cselim -ftree-dce -ftree-dominator-opts
ARM GAS  /var/folders/yt/6z6x8bjn5sjf5fbb45bk5m4c0000gn/T//ccJcOfAn.s 			page 2


  58              	@ -ftree-dse -ftree-forwprop -ftree-fre -ftree-loop-if-convert
  59              	@ -ftree-loop-im -ftree-loop-ivcanon -ftree-loop-optimize
  60              	@ -ftree-parallelize-loops= -ftree-phiprop -ftree-pre -ftree-pta
  61              	@ -ftree-reassoc -ftree-scev-cprop -ftree-sink -ftree-slsr -ftree-sra
  62              	@ -ftree-switch-conversion -ftree-tail-merge -ftree-ter -ftree-vrp
  63              	@ -funit-at-a-time -fvar-tracking -fvar-tracking-assignments -fverbose-asm
  64              	@ -fzero-initialized-in-bss -mfix-cortex-m3-ldrd -mlittle-endian -mlra
  65              	@ -mpic-data-is-text-relative -msched-prolog -mthumb -munaligned-access
  66              	@ -mvectorize-with-neon-quad
  67              	
  68              		.text
  69              	.Ltext0:
  70              		.cfi_sections	.debug_frame
  71              		.align	1
  72              		.global	DelayAAA
  73              		.thumb
  74              		.thumb_func
  75              		.type	DelayAAA, %function
  76              	DelayAAA:
  77              	.LFB34:
  78              		.file 1 "main.c"
   1:main.c        **** //STM32F103ZET6 FreeRTOS Test
   2:main.c        **** #include "stm32f10x.h"
   3:main.c        **** //#include "stm32f10x_it.h"
   4:main.c        **** #include "mytasks.h"
   5:main.c        **** 
   6:main.c        **** //#include "ssd1306.h"
   7:main.c        **** 
   8:main.c        **** //task priorities
   9:main.c        **** #define mainLED_TASK_PRIORITY			( tskIDLE_PRIORITY )
  10:main.c        **** #define mainButton_TASK_PRIORITY                   ( tskIDLE_PRIORITY )
  11:main.c        **** #define mainButtonLEDs_TASK_PRIORITY                   ( tskIDLE_PRIORITY + 1 )
  12:main.c        **** #define mainUSART_TASK_PRIORITY                   ( tskIDLE_PRIORITY )
  13:main.c        **** #define mainUSART_TASK_STACK_SIZE configMINIMAL_STACK_SIZE+100
  14:main.c        **** 
  15:main.c        **** void DelayAAA(__IO uint32_t nCount)
  16:main.c        **** {
  79              		.loc 1 16 0
  80              		.cfi_startproc
  81              		@ args = 0, pretend = 0, frame = 8
  82              		@ frame_needed = 0, uses_anonymous_args = 0
  83              		@ link register save eliminated.
  84              	.LVL0:
  85 0000 82B0     		sub	sp, sp, #8	@,,
  86              	.LCFI0:
  87              		.cfi_def_cfa_offset 8
  88 0002 0190     		str	r0, [sp, #4]	@ nCount, nCount
  89              	.L2:
  17:main.c        ****   for(; nCount > 0; nCount--);
  90              		.loc 1 17 0 discriminator 1
  91 0004 019B     		ldr	r3, [sp, #4]	@ D.6011, nCount
  92 0006 1BB1     		cbz	r3, .L5	@ D.6011,
  93              		.loc 1 17 0 is_stmt 0 discriminator 2
  94 0008 019B     		ldr	r3, [sp, #4]	@ D.6011, nCount
  95 000a 013B     		subs	r3, r3, #1	@ D.6011, D.6011,
  96 000c 0193     		str	r3, [sp, #4]	@ D.6011, nCount
  97 000e F9E7     		b	.L2	@
ARM GAS  /var/folders/yt/6z6x8bjn5sjf5fbb45bk5m4c0000gn/T//ccJcOfAn.s 			page 3


  98              	.L5:
  18:main.c        **** }
  99              		.loc 1 18 0 is_stmt 1
 100 0010 02B0     		add	sp, sp, #8	@,,
 101              	.LCFI1:
 102              		.cfi_def_cfa_offset 0
 103              		@ sp needed	@
 104 0012 7047     		bx	lr	@
 105              		.cfi_endproc
 106              	.LFE34:
 107              		.size	DelayAAA, .-DelayAAA
 108              		.section	.text.startup,"ax",%progbits
 109              		.align	1
 110              		.global	main
 111              		.thumb
 112              		.thumb_func
 113              		.type	main, %function
 114              	main:
 115              	.LFB35:
  19:main.c        **** 
  20:main.c        **** int main(void)
  21:main.c        **** {
 116              		.loc 1 21 0
 117              		.cfi_startproc
 118              		@ Volatile: function does not return.
 119              		@ args = 0, pretend = 0, frame = 0
 120              		@ frame_needed = 0, uses_anonymous_args = 0
 121 0000 07B5     		push	{r0, r1, r2, lr}	@
 122              	.LCFI2:
 123              		.cfi_def_cfa_offset 16
 124              		.cfi_offset 14, -4
  22:main.c        ****   //init hardware
  23:main.c        ****   LEDsInit();
  24:main.c        ****   Usart1Init();    
  25:main.c        ****   ButtonsInitEXTI();
  26:main.c        ****   BH1750Init(BH1750_CONTINUOUS_HIGH_RES_MODE);
  27:main.c        ****   
  28:main.c        ****   xTaskCreate( vLEDFlashTask, ( const char * ) "LED", configMINIMAL_STACK_SIZE, NULL, mainLED_TASK_
 125              		.loc 1 28 0
 126 0002 0024     		movs	r4, #0	@ tmp113,
  23:main.c        ****   Usart1Init();    
 127              		.loc 1 23 0
 128 0004 FFF7FEFF 		bl	LEDsInit	@
 129              	.LVL1:
  24:main.c        ****   ButtonsInitEXTI();
 130              		.loc 1 24 0
 131 0008 FFF7FEFF 		bl	Usart1Init	@
 132              	.LVL2:
  25:main.c        ****   BH1750Init(BH1750_CONTINUOUS_HIGH_RES_MODE);
 133              		.loc 1 25 0
 134 000c FFF7FEFF 		bl	ButtonsInitEXTI	@
 135              	.LVL3:
  26:main.c        ****   
 136              		.loc 1 26 0
 137 0010 1020     		movs	r0, #16	@,
 138 0012 FFF7FEFF 		bl	BH1750Init	@
 139              	.LVL4:
ARM GAS  /var/folders/yt/6z6x8bjn5sjf5fbb45bk5m4c0000gn/T//ccJcOfAn.s 			page 4


 140              		.loc 1 28 0
 141 0016 0949     		ldr	r1, .L8	@,
 142 0018 7822     		movs	r2, #120	@,
 143 001a 2346     		mov	r3, r4	@, tmp113
 144 001c 0094     		str	r4, [sp]	@ tmp113,
 145 001e 0194     		str	r4, [sp, #4]	@ tmp113,
 146 0020 0748     		ldr	r0, .L8+4	@,
 147 0022 FFF7FEFF 		bl	xTaskCreate	@
 148              	.LVL5:
  29:main.c        ****   //xTaskCreate( vButtonCheckTask, ( const char * ) "Button", configMINIMAL_STACK_SIZE, NULL, mainB
  30:main.c        ****   //xTaskCreate( vButtonLEDsTask, ( const char * ) "ButtonLED", configMINIMAL_STACK_SIZE, NULL, mai
  31:main.c        ****   //xTaskCreate( vLCDTask, ( signed char * ) "LCD", mainLCD_TASK_STACK_SIZE, NULL, mainLCD_TASK_PRI
  32:main.c        ****   xTaskCreate( vUSARTTask, ( const char * ) "USART", mainUSART_TASK_STACK_SIZE, NULL, mainUSART_TAS
 149              		.loc 1 32 0
 150 0026 0749     		ldr	r1, .L8+8	@,
 151 0028 DC22     		movs	r2, #220	@,
 152 002a 2346     		mov	r3, r4	@, tmp113
 153 002c 0094     		str	r4, [sp]	@ tmp113,
 154 002e 0194     		str	r4, [sp, #4]	@ tmp113,
 155 0030 0548     		ldr	r0, .L8+12	@,
 156 0032 FFF7FEFF 		bl	xTaskCreate	@
 157              	.LVL6:
  33:main.c        ****   //start scheduler
  34:main.c        ****   vTaskStartScheduler();
 158              		.loc 1 34 0
 159 0036 FFF7FEFF 		bl	vTaskStartScheduler	@
 160              	.LVL7:
 161              	.L7:
  35:main.c        ****   //you should never get here
  36:main.c        ****   while(1)
  37:main.c        **** 	{
  38:main.c        **** 	}
 162              		.loc 1 38 0 discriminator 1
 163 003a FEE7     		b	.L7	@
 164              	.L9:
 165              		.align	2
 166              	.L8:
 167 003c 00000000 		.word	.LC0
 168 0040 00000000 		.word	vLEDFlashTask
 169 0044 04000000 		.word	.LC1
 170 0048 00000000 		.word	vUSARTTask
 171              		.cfi_endproc
 172              	.LFE35:
 173              		.size	main, .-main
 174              		.text
 175              		.align	1
 176              		.global	vApplicationStackOverflowHook
 177              		.thumb
 178              		.thumb_func
 179              		.type	vApplicationStackOverflowHook, %function
 180              	vApplicationStackOverflowHook:
 181              	.LFB36:
  39:main.c        **** }
  40:main.c        **** void vApplicationStackOverflowHook( TaskHandle_t *pxTask, signed portCHAR *pcTaskName )
  41:main.c        **** {
 182              		.loc 1 41 0
 183              		.cfi_startproc
ARM GAS  /var/folders/yt/6z6x8bjn5sjf5fbb45bk5m4c0000gn/T//ccJcOfAn.s 			page 5


 184              		@ Volatile: function does not return.
 185              		@ args = 0, pretend = 0, frame = 0
 186              		@ frame_needed = 0, uses_anonymous_args = 0
 187              	.LVL8:
  42:main.c        ****   //indicate stack overflow
  43:main.c        ****   LEDOn(1);
 188              		.loc 1 43 0
 189 0014 0120     		movs	r0, #1	@,
 190              	.LVL9:
  41:main.c        ****   //indicate stack overflow
 191              		.loc 1 41 0
 192 0016 08B5     		push	{r3, lr}	@
 193              	.LCFI3:
 194              		.cfi_def_cfa_offset 8
 195              		.cfi_offset 3, -8
 196              		.cfi_offset 14, -4
 197              		.loc 1 43 0
 198 0018 FFF7FEFF 		bl	LEDOn	@
 199              	.LVL10:
  44:main.c        ****   LEDOn(2);
 200              		.loc 1 44 0
 201 001c 0220     		movs	r0, #2	@,
 202 001e FFF7FEFF 		bl	LEDOn	@
 203              	.LVL11:
 204              	.L11:
  45:main.c        ****   for( ;; );
 205              		.loc 1 45 0 discriminator 1
 206 0022 FEE7     		b	.L11	@
 207              		.cfi_endproc
 208              	.LFE36:
 209              		.size	vApplicationStackOverflowHook, .-vApplicationStackOverflowHook
 210              		.align	1
 211              		.global	EXTI0_IRQHandler
 212              		.thumb
 213              		.thumb_func
 214              		.type	EXTI0_IRQHandler, %function
 215              	EXTI0_IRQHandler:
 216              	.LFB37:
  46:main.c        **** }
  47:main.c        **** 
  48:main.c        **** //Interrupts
  49:main.c        **** void EXTI0_IRQHandler(void)
  50:main.c        **** {
 217              		.loc 1 50 0
 218              		.cfi_startproc
 219              		@ args = 0, pretend = 0, frame = 0
 220              		@ frame_needed = 0, uses_anonymous_args = 0
 221 0024 08B5     		push	{r3, lr}	@
 222              	.LCFI4:
 223              		.cfi_def_cfa_offset 8
 224              		.cfi_offset 3, -8
 225              		.cfi_offset 14, -4
  51:main.c        ****  
  52:main.c        ****     //Check if EXTI_Line0 is asserted
  53:main.c        ****     if(EXTI_GetITStatus(EXTI_Line0) != RESET)
 226              		.loc 1 53 0
 227 0026 0120     		movs	r0, #1	@,
ARM GAS  /var/folders/yt/6z6x8bjn5sjf5fbb45bk5m4c0000gn/T//ccJcOfAn.s 			page 6


 228 0028 FFF7FEFF 		bl	EXTI_GetITStatus	@
 229              	.LVL12:
 230 002c 10B1     		cbz	r0, .L13	@,
  54:main.c        ****     {
  55:main.c        ****         LEDOn(1);
 231              		.loc 1 55 0
 232 002e 0120     		movs	r0, #1	@,
 233 0030 FFF7FEFF 		bl	LEDOn	@
 234              	.LVL13:
 235              	.L13:
  56:main.c        ****     }
  57:main.c        ****     //we need to clear line pending bit manually
  58:main.c        ****     EXTI_ClearITPendingBit(EXTI_Line0);
  59:main.c        **** }
 236              		.loc 1 59 0
 237 0034 BDE80840 		pop	{r3, lr}	@
 238              	.LCFI5:
 239              		.cfi_restore 14
 240              		.cfi_restore 3
 241              		.cfi_def_cfa_offset 0
  58:main.c        **** }
 242              		.loc 1 58 0
 243 0038 0120     		movs	r0, #1	@,
 244 003a FFF7FEBF 		b	EXTI_ClearITPendingBit	@
 245              	.LVL14:
 246              		.cfi_endproc
 247              	.LFE37:
 248              		.size	EXTI0_IRQHandler, .-EXTI0_IRQHandler
 249              		.align	1
 250              		.global	EXTI1_IRQHandler
 251              		.thumb
 252              		.thumb_func
 253              		.type	EXTI1_IRQHandler, %function
 254              	EXTI1_IRQHandler:
 255              	.LFB38:
  60:main.c        **** 
  61:main.c        **** void EXTI1_IRQHandler(void)
  62:main.c        **** {
 256              		.loc 1 62 0
 257              		.cfi_startproc
 258              		@ args = 0, pretend = 0, frame = 0
 259              		@ frame_needed = 0, uses_anonymous_args = 0
 260 003e 08B5     		push	{r3, lr}	@
 261              	.LCFI6:
 262              		.cfi_def_cfa_offset 8
 263              		.cfi_offset 3, -8
 264              		.cfi_offset 14, -4
  63:main.c        ****  
  64:main.c        ****     //Check if EXTI_Line0 is asserted
  65:main.c        ****     if(EXTI_GetITStatus(EXTI_Line1) != RESET)
 265              		.loc 1 65 0
 266 0040 0220     		movs	r0, #2	@,
 267 0042 FFF7FEFF 		bl	EXTI_GetITStatus	@
 268              	.LVL15:
 269 0046 10B1     		cbz	r0, .L18	@,
  66:main.c        ****     {
  67:main.c        ****         LEDOff(1);
ARM GAS  /var/folders/yt/6z6x8bjn5sjf5fbb45bk5m4c0000gn/T//ccJcOfAn.s 			page 7


 270              		.loc 1 67 0
 271 0048 0120     		movs	r0, #1	@,
 272 004a FFF7FEFF 		bl	LEDOff	@
 273              	.LVL16:
 274              	.L18:
  68:main.c        ****     }
  69:main.c        ****     //we need to clear line pending bit manually
  70:main.c        ****     EXTI_ClearITPendingBit(EXTI_Line1);
  71:main.c        **** }...
 275              		.loc 1 71 0
 276 004e BDE80840 		pop	{r3, lr}	@
 277              	.LCFI7:
 278              		.cfi_restore 14
 279              		.cfi_restore 3
 280              		.cfi_def_cfa_offset 0
  70:main.c        ****     EXTI_ClearITPendingBit(EXTI_Line1);
 281              		.loc 1 70 0
 282 0052 0220     		movs	r0, #2	@,
 283 0054 FFF7FEBF 		b	EXTI_ClearITPendingBit	@
 284              	.LVL17:
 285              		.cfi_endproc
 286              	.LFE38:
 287              		.size	EXTI1_IRQHandler, .-EXTI1_IRQHandler
 288              		.section	.rodata.str1.1,"aMS",%progbits,1
 289              	.LC0:
 290 0000 4C454400 		.ascii	"LED\000"
 291              	.LC1:
 292 0004 55534152 		.ascii	"USART\000"
 292      5400
 293              		.text
 294              	.Letext0:
 295              		.file 2 "/usr/local/Cellar/arm-none-eabi-gcc/20150921/arm-none-eabi/include/machine/_default_types
 296              		.file 3 "/usr/local/Cellar/arm-none-eabi-gcc/20150921/arm-none-eabi/include/sys/_stdint.h"
 297              		.file 4 "./Libraries/CMSIS/CM3/DeviceSupport/ST/STM32F10x/stm32f10x.h"
 298              		.file 5 "./FreeRTOS/Source/include/projdefs.h"
 299              		.file 6 "./FreeRTOS/Source/include/../../Source/portable/GCC/ARM_CM3/portmacro.h"
 300              		.file 7 "./FreeRTOS/Source/include/task.h"
 301              		.file 8 "./Libraries/Drivers/Leds/leds.h"
 302              		.file 9 "./Libraries/Drivers/Usart/usart.h"
 303              		.file 10 "./Libraries/Drivers/Buttons/buttons.h"
 304              		.file 11 "./Libraries/Drivers/BH1750/bh1750.h"
 305              		.file 12 "./Libraries/STM32F10x_StdPeriph_Driver/inc/stm32f10x_exti.h"
 306              		.file 13 "./Libraries/CMSIS/CM3/CoreSupport/core_cm3.h"