ARM GAS  /var/folders/yt/6z6x8bjn5sjf5fbb45bk5m4c0000gn/T//cc9aixzg.s 			page 1


   1              		.syntax unified
   2              		.cpu cortex-m3
   3              		.fpu softvfp
   4              		.eabi_attribute 20, 1	@ Tag_ABI_FP_denormal
   5              		.eabi_attribute 21, 1	@ Tag_ABI_FP_exceptions
   6              		.eabi_attribute 23, 3	@ Tag_ABI_FP_number_model
   7              		.eabi_attribute 24, 1	@ Tag_ABI_align8_needed
   8              		.eabi_attribute 25, 1	@ Tag_ABI_align8_preserved
   9              		.eabi_attribute 26, 1	@ Tag_ABI_enum_size
  10              		.eabi_attribute 30, 4	@ Tag_ABI_optimization_goals
  11              		.eabi_attribute 34, 1	@ Tag_CPU_unaligned_access
  12              		.eabi_attribute 18, 4	@ Tag_ABI_PCS_wchar_t
  13              		.file	"mytasks.c"
  14              	@ GNU C (GNU Tools for ARM Embedded Processors) version 4.9.3 20150529 (release) [ARM/embedded-4_9-
  15              	@	compiled by GNU C version 4.2.1 (Based on Apple Inc. build 5658) (LLVM build 2336.9.00), GMP vers
  16              	@ GGC heuristics: --param ggc-min-expand=100 --param ggc-min-heapsize=131072
  17              	@ options passed:  -I . -I ./Libraries/CMSIS/CM3/CoreSupport
  18              	@ -I ./Libraries/CMSIS/CM3/DeviceSupport/ST/STM32F10x
  19              	@ -I ./Libraries/STM32F10x_StdPeriph_Driver/inc -I ./Libraries/Drivers/Leds
  20              	@ -I ./Libraries/Drivers/Buttons -I ./Libraries/Drivers/Usart
  21              	@ -I ./Libraries/Drivers/i2c -I ./Libraries/Drivers/BH1750
  22              	@ -I ./Libraries/Drivers/Utilities -I ./FreeRTOS/Source/include
  23              	@ -I ./FreeRTOS/Source/portable/GCC/ARM_CM3 -imultilib armv7-m
  24              	@ -iprefix /usr/local/Cellar/arm-none-eabi-gcc/20150921/bin/../lib/gcc/arm-none-eabi/4.9.3/
  25              	@ -isysroot /usr/local/Cellar/arm-none-eabi-gcc/20150921/bin/../arm-none-eabi
  26              	@ -MD mytasks.d -MF .dep/mytasks.o.d -MP -MQ mytasks.o -D__USES_INITFINI__
  27              	@ -D STM32F10X_MD -D USE_STDPERIPH_DRIVER -D GCC_ARMCM3 -D RUN_FROM_FLASH=1
  28              	@ mytasks.c -mcpu=cortex-m3 -mthumb -auxbase-strip mytasks.o -gdwarf-2 -Os
  29              	@ -Wall -Wstrict-prototypes -fomit-frame-pointer -fverbose-asm
  30              	@ options enabled:  -faggressive-loop-optimizations -fauto-inc-dec
  31              	@ -fbranch-count-reg -fcaller-saves -fcombine-stack-adjustments -fcommon
  32              	@ -fcompare-elim -fcprop-registers -fcrossjumping -fcse-follow-jumps
  33              	@ -fdefer-pop -fdelete-null-pointer-checks -fdevirtualize
  34              	@ -fdevirtualize-speculatively -fdwarf2-cfi-asm -fearly-inlining
  35              	@ -feliminate-unused-debug-types -fexpensive-optimizations
  36              	@ -fforward-propagate -ffunction-cse -fgcse -fgcse-lm -fgnu-runtime
  37              	@ -fgnu-unique -fguess-branch-probability -fhoist-adjacent-loads -fident
  38              	@ -fif-conversion -fif-conversion2 -findirect-inlining -finline
  39              	@ -finline-atomics -finline-functions -finline-functions-called-once
  40              	@ -finline-small-functions -fipa-cp -fipa-profile -fipa-pure-const
  41              	@ -fipa-reference -fipa-sra -fira-hoist-pressure -fira-share-save-slots
  42              	@ -fira-share-spill-slots -fisolate-erroneous-paths-dereference -fivopts
  43              	@ -fkeep-static-consts -fleading-underscore -flifetime-dse -fmath-errno
  44              	@ -fmerge-constants -fmerge-debug-strings -fomit-frame-pointer
  45              	@ -foptimize-sibling-calls -fpartial-inlining -fpeephole -fpeephole2
  46              	@ -fprefetch-loop-arrays -freg-struct-return -freorder-blocks
  47              	@ -freorder-functions -frerun-cse-after-loop
  48              	@ -fsched-critical-path-heuristic -fsched-dep-count-heuristic
  49              	@ -fsched-group-heuristic -fsched-interblock -fsched-last-insn-heuristic
  50              	@ -fsched-pressure -fsched-rank-heuristic -fsched-spec
  51              	@ -fsched-spec-insn-heuristic -fsched-stalled-insns-dep -fschedule-insns2
  52              	@ -fsection-anchors -fshow-column -fsigned-zeros -fsplit-ivs-in-unroller
  53              	@ -fsplit-wide-types -fstrict-aliasing -fstrict-overflow
  54              	@ -fstrict-volatile-bitfields -fsync-libcalls -fthread-jumps
  55              	@ -ftoplevel-reorder -ftrapping-math -ftree-bit-ccp -ftree-builtin-call-dce
  56              	@ -ftree-ccp -ftree-ch -ftree-coalesce-vars -ftree-copy-prop
  57              	@ -ftree-copyrename -ftree-cselim -ftree-dce -ftree-dominator-opts
ARM GAS  /var/folders/yt/6z6x8bjn5sjf5fbb45bk5m4c0000gn/T//cc9aixzg.s 			page 2


  58              	@ -ftree-dse -ftree-forwprop -ftree-fre -ftree-loop-if-convert
  59              	@ -ftree-loop-im -ftree-loop-ivcanon -ftree-loop-optimize
  60              	@ -ftree-parallelize-loops= -ftree-phiprop -ftree-pre -ftree-pta
  61              	@ -ftree-reassoc -ftree-scev-cprop -ftree-sink -ftree-slsr -ftree-sra
  62              	@ -ftree-switch-conversion -ftree-tail-merge -ftree-ter -ftree-vrp
  63              	@ -funit-at-a-time -fvar-tracking -fvar-tracking-assignments -fverbose-asm
  64              	@ -fzero-initialized-in-bss -mfix-cortex-m3-ldrd -mlittle-endian -mlra
  65              	@ -mpic-data-is-text-relative -msched-prolog -mthumb -munaligned-access
  66              	@ -mvectorize-with-neon-quad
  67              	
  68              		.text
  69              	.Ltext0:
  70              		.cfi_sections	.debug_frame
  71              		.align	1
  72              		.global	vLEDFlashTask
  73              		.thumb
  74              		.thumb_func
  75              		.type	vLEDFlashTask, %function
  76              	vLEDFlashTask:
  77              	.LFB34:
  78              		.file 1 "mytasks.c"
   1:mytasks.c     **** /*
   2:mytasks.c     ****  * mytasks.c
   3:mytasks.c     ****  */
   4:mytasks.c     **** #include "mytasks.h"
   5:mytasks.c     **** #include <math.h>
   6:mytasks.c     **** #include <stdlib.h>
   7:mytasks.c     **** #include <string.h>
   8:mytasks.c     **** #include <stdio.h>
   9:mytasks.c     **** 
  10:mytasks.c     **** //const char * const pcUsartTaskStartMsg = "Hello STM32F103RBT6!\r\n";
  11:mytasks.c     **** //const char * const pcLCDTaskStartMsg = "   LCD task started.";
  12:mytasks.c     **** 
  13:mytasks.c     **** static SemaphoreHandle_t xButtonUser1Semaphore = NULL;
  14:mytasks.c     **** static SemaphoreHandle_t xButtonUser2Semaphore = NULL;
  15:mytasks.c     **** QueueHandle_t RxQueue, TxQueue;
  16:mytasks.c     **** char stringbuffer[50];
  17:mytasks.c     **** 
  18:mytasks.c     **** // 1 * 200ms on, 4 * 200ms off
  19:mytasks.c     **** void vLEDFlashTask( void *pvParameters ) {
  79              		.loc 1 19 0
  80              		.cfi_startproc
  81              		@ args = 0, pretend = 0, frame = 8
  82              		@ frame_needed = 0, uses_anonymous_args = 0
  83              	.LVL0:
  84 0000 37B5     		push	{r0, r1, r2, r4, r5, lr}	@
  85              	.LCFI0:
  86              		.cfi_def_cfa_offset 24
  87              		.cfi_offset 4, -12
  88              		.cfi_offset 5, -8
  89              		.cfi_offset 14, -4
  20:mytasks.c     ****   TickType_t xLastWakeTime;
  21:mytasks.c     ****   xLastWakeTime=xTaskGetTickCount();
  90              		.loc 1 21 0
  91 0002 FFF7FEFF 		bl	xTaskGetTickCount	@
  92              	.LVL1:
  22:mytasks.c     ****   int count = 0;
ARM GAS  /var/folders/yt/6z6x8bjn5sjf5fbb45bk5m4c0000gn/T//cc9aixzg.s 			page 3


  93              		.loc 1 22 0
  94 0006 0024     		movs	r4, #0	@ count,
  21:mytasks.c     ****   int count = 0;
  95              		.loc 1 21 0
  96 0008 0190     		str	r0, [sp, #4]	@, xLastWakeTime
  97              	.LVL2:
  98              	.L5:
  23:mytasks.c     ****     for( ;; ) {
  24:mytasks.c     **** 		
  25:mytasks.c     **** 	  if (isLEDOn(2)) {
  99              		.loc 1 25 0
 100 000a 0220     		movs	r0, #2	@,
 101 000c FFF7FEFF 		bl	isLEDOn	@
 102              	.LVL3:
 103 0010 0546     		mov	r5, r0	@ tmp114,
 104 0012 18B1     		cbz	r0, .L2	@ tmp114,
  26:mytasks.c     **** 		  LEDOff(2);
 105              		.loc 1 26 0
 106 0014 0220     		movs	r0, #2	@,
 107 0016 FFF7FEFF 		bl	LEDOff	@
 108              	.LVL4:
 109 001a 07E0     		b	.L3	@
 110              	.L2:
  27:mytasks.c     **** 	  } else {
  28:mytasks.c     **** 		  if (count>4) {
 111              		.loc 1 28 0
 112 001c 042C     		cmp	r4, #4	@ count,
 113 001e 04DD     		ble	.L4	@,
  29:mytasks.c     **** 		  	LEDOn(2);
 114              		.loc 1 29 0
 115 0020 0220     		movs	r0, #2	@,
 116 0022 FFF7FEFF 		bl	LEDOn	@
 117              	.LVL5:
  30:mytasks.c     **** 			count = 0;
 118              		.loc 1 30 0
 119 0026 2C46     		mov	r4, r5	@ count, tmp114
 120 0028 00E0     		b	.L3	@
 121              	.LVL6:
 122              	.L4:
  31:mytasks.c     **** 		  } else {
  32:mytasks.c     **** 			  count++;
 123              		.loc 1 32 0
 124 002a 0134     		adds	r4, r4, #1	@ count, count,
 125              	.LVL7:
 126              	.L3:
  33:mytasks.c     **** 		  }
  34:mytasks.c     **** 	  }
  35:mytasks.c     **** 	   
  36:mytasks.c     **** 	  vTaskDelayUntil(&xLastWakeTime, pdMS_TO_TICKS(50));
 127              		.loc 1 36 0
 128 002c 01A8     		add	r0, sp, #4	@,,
 129 002e 0521     		movs	r1, #5	@,
 130 0030 FFF7FEFF 		bl	vTaskDelayUntil	@
 131              	.LVL8:
  37:mytasks.c     **** 	  }
 132              		.loc 1 37 0
 133 0034 E9E7     		b	.L5	@
ARM GAS  /var/folders/yt/6z6x8bjn5sjf5fbb45bk5m4c0000gn/T//cc9aixzg.s 			page 4


 134              		.cfi_endproc
 135              	.LFE34:
 136              		.size	vLEDFlashTask, .-vLEDFlashTask
 137              		.align	1
 138              		.global	vButtonCheckTask
 139              		.thumb
 140              		.thumb_func
 141              		.type	vButtonCheckTask, %function
 142              	vButtonCheckTask:
 143              	.LFB35:
  38:mytasks.c     **** }
  39:mytasks.c     **** 
  40:mytasks.c     **** void vButtonCheckTask( void *pvParameters )
  41:mytasks.c     **** {
 144              		.loc 1 41 0
 145              		.cfi_startproc
 146              		@ args = 0, pretend = 0, frame = 8
 147              		@ frame_needed = 0, uses_anonymous_args = 0
 148              	.LVL9:
 149 0036 37B5     		push	{r0, r1, r2, r4, r5, lr}	@
 150              	.LCFI1:
 151              		.cfi_def_cfa_offset 24
 152              		.cfi_offset 4, -12
 153              		.cfi_offset 5, -8
 154              		.cfi_offset 14, -4
  42:mytasks.c     ****   //for debounce
  43:mytasks.c     ****   static uint8_t count;
  44:mytasks.c     ****   TickType_t xLastWakeTime;
  45:mytasks.c     ****   const TickType_t xFrequency = 20;
  46:mytasks.c     ****   xLastWakeTime=xTaskGetTickCount();
 155              		.loc 1 46 0
 156 0038 FFF7FEFF 		bl	xTaskGetTickCount	@
 157              	.LVL10:
  47:mytasks.c     ****   //create semaphores for each button
  48:mytasks.c     ****   vSemaphoreCreateBinary(xButtonUser1Semaphore);
 158              		.loc 1 48 0
 159 003c 0021     		movs	r1, #0	@,
  46:mytasks.c     ****   //create semaphores for each button
 160              		.loc 1 46 0
 161 003e 0190     		str	r0, [sp, #4]	@, xLastWakeTime
 162              		.loc 1 48 0
 163 0040 0322     		movs	r2, #3	@,
 164 0042 0120     		movs	r0, #1	@,
 165 0044 FFF7FEFF 		bl	xQueueGenericCreate	@
 166              	.LVL11:
 167 0048 294C     		ldr	r4, .L30	@ tmp125,
 168 004a 2060     		str	r0, [r4]	@ D.8136, xButtonUser1Semaphore
 169 004c 20B1     		cbz	r0, .L8	@ D.8136,
 170              		.loc 1 48 0 is_stmt 0 discriminator 1
 171 004e 0021     		movs	r1, #0	@,
 172 0050 0A46     		mov	r2, r1	@,
 173 0052 0B46     		mov	r3, r1	@,
 174 0054 FFF7FEFF 		bl	xQueueGenericSend	@
 175              	.LVL12:
 176              	.L8:
  49:mytasks.c     ****   vSemaphoreCreateBinary(xButtonUser2Semaphore);
 177              		.loc 1 49 0 is_stmt 1
ARM GAS  /var/folders/yt/6z6x8bjn5sjf5fbb45bk5m4c0000gn/T//cc9aixzg.s 			page 5


 178 0058 0120     		movs	r0, #1	@,
 179 005a 0021     		movs	r1, #0	@,
 180 005c 0322     		movs	r2, #3	@,
 181 005e FFF7FEFF 		bl	xQueueGenericCreate	@
 182              	.LVL13:
 183 0062 6060     		str	r0, [r4, #4]	@ D.8136, xButtonUser2Semaphore
 184 0064 20B1     		cbz	r0, .L9	@ D.8136,
 185              		.loc 1 49 0 is_stmt 0 discriminator 1
 186 0066 0021     		movs	r1, #0	@,
 187 0068 0A46     		mov	r2, r1	@,
 188 006a 0B46     		mov	r3, r1	@,
 189 006c FFF7FEFF 		bl	xQueueGenericSend	@
 190              	.LVL14:
 191              	.L9:
  50:mytasks.c     **** //check if semaphores were created successfully
  51:mytasks.c     ****   if((xButtonUser1Semaphore!=NULL)&&(xButtonUser2Semaphore!=NULL)) {
 192              		.loc 1 51 0 is_stmt 1
 193 0070 2068     		ldr	r0, [r4]	@ D.8136, xButtonUser1Semaphore
 194 0072 1F4D     		ldr	r5, .L30	@ tmp127,
 195 0074 60B1     		cbz	r0, .L17	@ D.8136,
 196              		.loc 1 51 0 is_stmt 0 discriminator 1
 197 0076 6B68     		ldr	r3, [r5, #4]	@ xButtonUser2Semaphore, xButtonUser2Semaphore
 198 0078 53B1     		cbz	r3, .L17	@ xButtonUser2Semaphore,
  52:mytasks.c     ****     //successfully created
  53:mytasks.c     ****     //resets initial semaphores to 0
  54:mytasks.c     ****     xSemaphoreTake(xButtonUser1Semaphore, (portTickType)0);
 199              		.loc 1 54 0 is_stmt 1
 200 007a 0021     		movs	r1, #0	@,
 201 007c 0A46     		mov	r2, r1	@,
 202 007e 0B46     		mov	r3, r1	@,
 203 0080 FFF7FEFF 		bl	xQueueGenericReceive	@
 204              	.LVL15:
  55:mytasks.c     ****     xSemaphoreTake(xButtonUser2Semaphore, (portTickType)0);
 205              		.loc 1 55 0
 206 0084 0021     		movs	r1, #0	@,
 207 0086 6868     		ldr	r0, [r5, #4]	@, xButtonUser2Semaphore
 208 0088 0A46     		mov	r2, r1	@,
 209 008a 0B46     		mov	r3, r1	@,
 210 008c FFF7FEFF 		bl	xQueueGenericReceive	@
 211              	.LVL16:
 212              	.L17:
  56:mytasks.c     ****   }  else {
  57:mytasks.c     **** 	  //send error of failure
  58:mytasks.c     ****   }
  59:mytasks.c     **** 
  60:mytasks.c     ****   for (;;)
  61:mytasks.c     ****     {
  62:mytasks.c     ****       if (ButtonRead(BPORT, BS2)==pdTRUE)
 213              		.loc 1 62 0
 214 0090 1848     		ldr	r0, .L30+4	@,
 215 0092 0121     		movs	r1, #1	@,
 216 0094 FFF7FEFF 		bl	ButtonRead	@
 217              	.LVL17:
 218 0098 0128     		cmp	r0, #1	@,
 219 009a 0ED1     		bne	.L12	@,
  63:mytasks.c     ****         {
  64:mytasks.c     ****           count++;
ARM GAS  /var/folders/yt/6z6x8bjn5sjf5fbb45bk5m4c0000gn/T//cc9aixzg.s 			page 6


 220              		.loc 1 64 0
 221 009c 237A     		ldrb	r3, [r4, #8]	@ zero_extendqisi2	@ count, count
 222 009e 144D     		ldr	r5, .L30	@ tmp132,
 223 00a0 0133     		adds	r3, r3, #1	@ tmp135, count,
 224 00a2 DBB2     		uxtb	r3, r3	@ D.8137, tmp135
  65:mytasks.c     ****           if(count==DEBOUNCECOUNTS)
 225              		.loc 1 65 0
 226 00a4 0A2B     		cmp	r3, #10	@ D.8137,
  64:mytasks.c     ****           if(count==DEBOUNCECOUNTS)
 227              		.loc 1 64 0
 228 00a6 2372     		strb	r3, [r4, #8]	@ D.8137, count
 229              		.loc 1 65 0
 230 00a8 07D1     		bne	.L12	@,
  66:mytasks.c     ****             {
  67:mytasks.c     ****               xSemaphoreGive(xButtonUser1Semaphore);
 231              		.loc 1 67 0
 232 00aa 0021     		movs	r1, #0	@,
 233 00ac 0B46     		mov	r3, r1	@,
 234 00ae 2868     		ldr	r0, [r5]	@, xButtonUser1Semaphore
 235 00b0 0A46     		mov	r2, r1	@,
 236 00b2 FFF7FEFF 		bl	xQueueGenericSend	@
 237              	.LVL18:
  68:mytasks.c     ****               count = 0;
 238              		.loc 1 68 0
 239 00b6 0023     		movs	r3, #0	@ tmp140,
 240 00b8 2B72     		strb	r3, [r5, #8]	@ tmp140, count
 241              	.L12:
  69:mytasks.c     ****             }
  70:mytasks.c     ****         }
  71:mytasks.c     ****       if (ButtonRead(BPORT, BS3)==pdTRUE)
 242              		.loc 1 71 0
 243 00ba 0E48     		ldr	r0, .L30+4	@,
 244 00bc 0221     		movs	r1, #2	@,
 245 00be FFF7FEFF 		bl	ButtonRead	@
 246              	.LVL19:
 247 00c2 0128     		cmp	r0, #1	@,
 248 00c4 0ED1     		bne	.L15	@,
  72:mytasks.c     ****         {
  73:mytasks.c     ****           count++;
 249              		.loc 1 73 0
 250 00c6 237A     		ldrb	r3, [r4, #8]	@ zero_extendqisi2	@ count, count
 251 00c8 094D     		ldr	r5, .L30	@ tmp143,
 252 00ca 0133     		adds	r3, r3, #1	@ tmp146, count,
 253 00cc DBB2     		uxtb	r3, r3	@ D.8137, tmp146
  74:mytasks.c     ****           if(count==DEBOUNCECOUNTS)
 254              		.loc 1 74 0
 255 00ce 0A2B     		cmp	r3, #10	@ D.8137,
  73:mytasks.c     ****           if(count==DEBOUNCECOUNTS)
 256              		.loc 1 73 0
 257 00d0 2372     		strb	r3, [r4, #8]	@ D.8137, count
 258              		.loc 1 74 0
 259 00d2 07D1     		bne	.L15	@,
  75:mytasks.c     ****             {
  76:mytasks.c     ****               xSemaphoreGive(xButtonUser2Semaphore);
 260              		.loc 1 76 0
 261 00d4 0021     		movs	r1, #0	@,
 262 00d6 0B46     		mov	r3, r1	@,
ARM GAS  /var/folders/yt/6z6x8bjn5sjf5fbb45bk5m4c0000gn/T//cc9aixzg.s 			page 7


 263 00d8 6868     		ldr	r0, [r5, #4]	@, xButtonUser2Semaphore
 264 00da 0A46     		mov	r2, r1	@,
 265 00dc FFF7FEFF 		bl	xQueueGenericSend	@
 266              	.LVL20:
  77:mytasks.c     ****               count = 0;
 267              		.loc 1 77 0
 268 00e0 0023     		movs	r3, #0	@ tmp151,
 269 00e2 2B72     		strb	r3, [r5, #8]	@ tmp151, count
 270              	.L15:
  78:mytasks.c     ****             }
  79:mytasks.c     ****         }
  80:mytasks.c     ****       vTaskDelayUntil(&xLastWakeTime,xFrequency);
 271              		.loc 1 80 0
 272 00e4 01A8     		add	r0, sp, #4	@,,
 273 00e6 1421     		movs	r1, #20	@,
 274 00e8 FFF7FEFF 		bl	vTaskDelayUntil	@
 275              	.LVL21:
  81:mytasks.c     ****     }
 276              		.loc 1 81 0
 277 00ec D0E7     		b	.L17	@
 278              	.L31:
 279 00ee 00BF     		.align	2
 280              	.L30:
 281 00f0 00000000 		.word	.LANCHOR0
 282 00f4 00100140 		.word	1073811456
 283              		.cfi_endproc
 284              	.LFE35:
 285              		.size	vButtonCheckTask, .-vButtonCheckTask
 286              		.align	1
 287              		.global	vButtonLEDsTask
 288              		.thumb
 289              		.thumb_func
 290              		.type	vButtonLEDsTask, %function
 291              	vButtonLEDsTask:
 292              	.LFB36:
  82:mytasks.c     **** }
  83:mytasks.c     **** 
  84:mytasks.c     **** void vButtonLEDsTask( void *pvParameters )
  85:mytasks.c     **** {
 293              		.loc 1 85 0
 294              		.cfi_startproc
 295              		@ args = 0, pretend = 0, frame = 8
 296              		@ frame_needed = 0, uses_anonymous_args = 0
 297              	.LVL22:
 298 00f8 13B5     		push	{r0, r1, r4, lr}	@
 299              	.LCFI2:
 300              		.cfi_def_cfa_offset 16
 301              		.cfi_offset 4, -8
 302              		.cfi_offset 14, -4
  86:mytasks.c     ****   TickType_t xLastWakeTime;
  87:mytasks.c     ****   const TickType_t xFrequency = 100;
  88:mytasks.c     ****   xLastWakeTime=xTaskGetTickCount();
 303              		.loc 1 88 0
 304 00fa FFF7FEFF 		bl	xTaskGetTickCount	@
 305              	.LVL23:
 306 00fe 0190     		str	r0, [sp, #4]	@, xLastWakeTime
 307              	.L37:
ARM GAS  /var/folders/yt/6z6x8bjn5sjf5fbb45bk5m4c0000gn/T//cc9aixzg.s 			page 8


  89:mytasks.c     **** 
  90:mytasks.c     ****   for( ;; )
  91:mytasks.c     ****   {
  92:mytasks.c     ****       if((xButtonUser1Semaphore!=NULL)&&(xButtonUser2Semaphore!=NULL))
 308              		.loc 1 92 0
 309 0100 144C     		ldr	r4, .L41	@ tmp119,
 310 0102 2068     		ldr	r0, [r4]	@ D.8141, xButtonUser1Semaphore
 311 0104 08B3     		cbz	r0, .L34	@ D.8141,
 312              		.loc 1 92 0 is_stmt 0 discriminator 1
 313 0106 6368     		ldr	r3, [r4, #4]	@ xButtonUser2Semaphore, xButtonUser2Semaphore
 314 0108 FBB1     		cbz	r3, .L34	@ xButtonUser2Semaphore,
  93:mytasks.c     ****       {
  94:mytasks.c     ****          if (xSemaphoreTake(xButtonUser1Semaphore, (portTickType)10)==pdTRUE) {
 315              		.loc 1 94 0 is_stmt 1
 316 010a 0021     		movs	r1, #0	@,
 317 010c 0A22     		movs	r2, #10	@,
 318 010e 0B46     		mov	r3, r1	@,
 319 0110 FFF7FEFF 		bl	xQueueGenericReceive	@
 320              	.LVL24:
 321 0114 0128     		cmp	r0, #1	@,
 322 0116 07D1     		bne	.L36	@,
  95:mytasks.c     ****                LEDOn(1);
 323              		.loc 1 95 0
 324 0118 FFF7FEFF 		bl	LEDOn	@
 325              	.LVL25:
  96:mytasks.c     ****                xSemaphoreGive(xButtonUser1Semaphore);
 326              		.loc 1 96 0
 327 011c 0021     		movs	r1, #0	@,
 328 011e 2068     		ldr	r0, [r4]	@, xButtonUser1Semaphore
 329 0120 0A46     		mov	r2, r1	@,
 330 0122 0B46     		mov	r3, r1	@,
 331 0124 FFF7FEFF 		bl	xQueueGenericSend	@
 332              	.LVL26:
 333              	.L36:
  97:mytasks.c     ****          }
  98:mytasks.c     ****          if (xSemaphoreTake(xButtonUser2Semaphore, (portTickType)10)==pdTRUE)
 334              		.loc 1 98 0
 335 0128 0021     		movs	r1, #0	@,
 336 012a 6068     		ldr	r0, [r4, #4]	@, xButtonUser2Semaphore
 337 012c 0A22     		movs	r2, #10	@,
 338 012e 0B46     		mov	r3, r1	@,
 339 0130 FFF7FEFF 		bl	xQueueGenericReceive	@
 340              	.LVL27:
 341 0134 0128     		cmp	r0, #1	@,
 342 0136 08D1     		bne	.L34	@,
  99:mytasks.c     ****              {
 100:mytasks.c     ****                LEDOff(1);
 343              		.loc 1 100 0
 344 0138 FFF7FEFF 		bl	LEDOff	@
 345              	.LVL28:
 101:mytasks.c     ****                xSemaphoreGive(xButtonUser2Semaphore);
 346              		.loc 1 101 0
 347 013c 054B     		ldr	r3, .L41	@ tmp123,
 348 013e 0021     		movs	r1, #0	@,
 349 0140 5868     		ldr	r0, [r3, #4]	@, xButtonUser2Semaphore
 350 0142 0A46     		mov	r2, r1	@,
 351 0144 0B46     		mov	r3, r1	@,
ARM GAS  /var/folders/yt/6z6x8bjn5sjf5fbb45bk5m4c0000gn/T//cc9aixzg.s 			page 9


 352 0146 FFF7FEFF 		bl	xQueueGenericSend	@
 353              	.LVL29:
 354              	.L34:
 102:mytasks.c     ****              }
 103:mytasks.c     ****       }
 104:mytasks.c     **** 
 105:mytasks.c     ****     vTaskDelayUntil(&xLastWakeTime,xFrequency);
 355              		.loc 1 105 0
 356 014a 01A8     		add	r0, sp, #4	@,,
 357 014c 6421     		movs	r1, #100	@,
 358 014e FFF7FEFF 		bl	vTaskDelayUntil	@
 359              	.LVL30:
 106:mytasks.c     ****   }
 360              		.loc 1 106 0
 361 0152 D5E7     		b	.L37	@
 362              	.L42:
 363              		.align	2
 364              	.L41:
 365 0154 00000000 		.word	.LANCHOR0
 366              		.cfi_endproc
 367              	.LFE36:
 368              		.size	vButtonLEDsTask, .-vButtonLEDsTask
 369              		.align	1
 370              		.global	count_digits
 371              		.thumb
 372              		.thumb_func
 373              		.type	count_digits, %function
 374              	count_digits:
 375              	.LFB37:
 107:mytasks.c     **** }
 108:mytasks.c     **** // void vLCDTask( void *pvParameters )
 109:mytasks.c     **** // {
 110:mytasks.c     **** //   extern uint8_t Image_Table[];
 111:mytasks.c     **** //   portTickType xLastWakeTime;
 112:mytasks.c     **** //   const portTickType xFrequency = 100;
 113:mytasks.c     **** //   xLastWakeTime=xTaskGetTickCount();
 114:mytasks.c     **** //   LCD_SetDisplayWindow(00, 00, 239, 319);
 115:mytasks.c     **** //   LCD_Clear(Black);
 116:mytasks.c     **** //   LCD_DisplayStringLine(Line4,  (char*)pcLCDTaskStartMsg, White, Black);
 117:mytasks.c     **** //   for(;;)
 118:mytasks.c     **** //     {
 119:mytasks.c     **** //       if((xButtonWakeupSemaphore!=NULL)&&(xButtonTamperSemaphore!=NULL)
 120:mytasks.c     **** //        &&(xButtonUser1Semaphore!=NULL)&&(xButtonUser2Semaphore!=NULL))
 121:mytasks.c     **** //       {
 122:mytasks.c     **** //          if (xSemaphoreTake(xButtonWakeupSemaphore, (portTickType)10)==pdTRUE)
 123:mytasks.c     **** //              {
 124:mytasks.c     **** //              LCD_Clear(Blue);
 125:mytasks.c     **** //              LCD_WriteBMP_Dim(30, 30, 210, 210, Image_Table);
 126:mytasks.c     **** //              }
 127:mytasks.c     **** //          if (xSemaphoreTake(xButtonTamperSemaphore, (portTickType)10)==pdTRUE)
 128:mytasks.c     **** //              {
 129:mytasks.c     **** //              unsigned BaseType_t uxTasks;
 130:mytasks.c     **** //              uxTasks=uxTaskGetNumberOfTasks();
 131:mytasks.c     **** //              sprintf(stringbuffer, "   Tasks: %ld", uxTasks);
 132:mytasks.c     **** //              LCD_Clear(Black);
 133:mytasks.c     **** //              LCD_DisplayStringLine(Line0, "   Hello   ",White, Black);
 134:mytasks.c     **** //              LCD_DisplayStringLine(Line1, "   This is LCD DEMO  ", Black,Blue);
ARM GAS  /var/folders/yt/6z6x8bjn5sjf5fbb45bk5m4c0000gn/T//cc9aixzg.s 			page 10


 135:mytasks.c     **** //              LCD_DisplayStringLine(Line2, "   Click any button  ", Black,Green);
 136:mytasks.c     **** //              LCD_DisplayStringLine(Line6, stringbuffer, Black,White);
 137:mytasks.c     **** //              }
 138:mytasks.c     **** //          if (xSemaphoreTake(xButtonUser1Semaphore, (portTickType)10)==pdTRUE)
 139:mytasks.c     **** //              {
 140:mytasks.c     **** //              LCD_Clear(White);
 141:mytasks.c     **** //              LCD_SetTextColor(Black);
 142:mytasks.c     **** //              LCD_DrawCircle(60, 60, 50);
 143:mytasks.c     **** //              LCD_SetTextColor(Green);
 144:mytasks.c     **** //              LCD_DrawCircle(100, 160, 53);
 145:mytasks.c     **** //              LCD_DrawRect(10, 300, 50, 50);
 146:mytasks.c     **** //              uint16_t i=0;
 147:mytasks.c     **** //              for(;i<320;i++)
 148:mytasks.c     **** //              {
 149:mytasks.c     **** //                      LCD_SetTextColor(i+Red);
 150:mytasks.c     **** //                      LCD_DrawLine(200, i, 30, Vertical);
 151:mytasks.c     **** //              }
 152:mytasks.c     **** //              }
 153:mytasks.c     **** //          if (xSemaphoreTake(xButtonUser2Semaphore, (portTickType)10)==pdTRUE)
 154:mytasks.c     **** //              {
 155:mytasks.c     **** //              LCD_Clear(White);
 156:mytasks.c     **** //              //LCDDrawLine(10, 10, 120, 200, Magenta);
 157:mytasks.c     **** //              //LCDDrawLine(10, 2, 220, 100, Black);
 158:mytasks.c     **** //
 159:mytasks.c     **** //              uint16_t xmax=239;
 160:mytasks.c     **** //              uint16_t ymax=319;
 161:mytasks.c     **** //
 162:mytasks.c     **** //              uint16_t x, y;
 163:mytasks.c     **** //              uint8_t prx=0;
 164:mytasks.c     **** //              uint8_t pry=0;
 165:mytasks.c     **** //              LCD_SetTextColor(Green);
 166:mytasks.c     **** //              LCD_DrawLine(0, ymax>>1, xmax, Vertical);
 167:mytasks.c     **** //              LCD_DrawLine(xmax>>1, 0, ymax, Horizontal);
 168:mytasks.c     **** //              LCD_SetTextColor(Blue);
 169:mytasks.c     **** //              for (x=0;x<xmax;x++)
 170:mytasks.c     **** //              {
 171:mytasks.c     **** //              y=(uint16_t)((ymax>>2)*sin(x*M_PI/40)+(ymax>>1));
 172:mytasks.c     **** //              if (x==0)
 173:mytasks.c     **** //                      LCD_SetPoint(x, y, Black);
 174:mytasks.c     **** //              else
 175:mytasks.c     **** //                      {
 176:mytasks.c     **** //                      LCDDrawLine(prx, pry, x, y, Black);
 177:mytasks.c     **** //                      }
 178:mytasks.c     **** //              prx=x;
 179:mytasks.c     **** //              pry=y;
 180:mytasks.c     **** //              }
 181:mytasks.c     **** //              }
 182:mytasks.c     **** //       }
 183:mytasks.c     **** //     vTaskDelayUntil(&xLastWakeTime,xFrequency);
 184:mytasks.c     **** //     }
 185:mytasks.c     **** // }
 186:mytasks.c     **** 
 187:mytasks.c     **** size_t count_digits(uint16_t val) {
 376              		.loc 1 187 0
 377              		.cfi_startproc
 378              		@ args = 0, pretend = 0, frame = 0
 379              		@ frame_needed = 0, uses_anonymous_args = 0
ARM GAS  /var/folders/yt/6z6x8bjn5sjf5fbb45bk5m4c0000gn/T//cc9aixzg.s 			page 11


 380              		@ link register save eliminated.
 381              	.LVL31:
 188:mytasks.c     **** 	size_t count = 0;
 189:mytasks.c     **** 	
 190:mytasks.c     **** 	//If already 0 the method below won't work. we already know 0 is 1 digit long
 191:mytasks.c     **** 	if (val==0) {
 382              		.loc 1 191 0
 383 0158 40B1     		cbz	r0, .L46	@ val,
 384 015a 0023     		movs	r3, #0	@ count,
 385              	.LVL32:
 386              	.L45:
 192:mytasks.c     **** 		return 1;
 193:mytasks.c     **** 	}
 194:mytasks.c     **** 	
 195:mytasks.c     ****     while(val != 0) { //Until we get to 0 (rounded since uint!)
 196:mytasks.c     ****            val /= 10;
 387              		.loc 1 196 0
 388 015c 0A22     		movs	r2, #10	@ tmp116,
 389 015e B0FBF2F0 		udiv	r0, r0, r2	@ val, val, tmp116
 390              	.LVL33:
 197:mytasks.c     ****            ++count;
 391              		.loc 1 197 0
 392 0162 0133     		adds	r3, r3, #1	@ count, count,
 393              	.LVL34:
 195:mytasks.c     ****            val /= 10;
 394              		.loc 1 195 0
 395 0164 0028     		cmp	r0, #0	@ val
 396 0166 F9D1     		bne	.L45	@
 198:mytasks.c     ****        }
 199:mytasks.c     **** 	   return count;
 397              		.loc 1 199 0
 398 0168 1846     		mov	r0, r3	@ D.8148, count
 399              	.LVL35:
 400 016a 7047     		bx	lr	@
 401              	.LVL36:
 402              	.L46:
 192:mytasks.c     **** 	}
 403              		.loc 1 192 0
 404 016c 0120     		movs	r0, #1	@ D.8148,
 405              	.LVL37:
 200:mytasks.c     **** }
 406              		.loc 1 200 0
 407 016e 7047     		bx	lr	@
 408              		.cfi_endproc
 409              	.LFE37:
 410              		.size	count_digits, .-count_digits
 411              		.align	1
 412              		.global	from_uint16_t_to_chars
 413              		.thumb
 414              		.thumb_func
 415              		.type	from_uint16_t_to_chars, %function
 416              	from_uint16_t_to_chars:
 417              	.LFB38:
 201:mytasks.c     **** 
 202:mytasks.c     **** void from_uint16_t_to_chars(char* str, size_t len, uint32_t val) {
 418              		.loc 1 202 0
 419              		.cfi_startproc
ARM GAS  /var/folders/yt/6z6x8bjn5sjf5fbb45bk5m4c0000gn/T//cc9aixzg.s 			page 12


 420              		@ args = 0, pretend = 0, frame = 0
 421              		@ frame_needed = 0, uses_anonymous_args = 0
 422              	.LVL38:
 423 0170 70B5     		push	{r4, r5, r6, lr}	@
 424              	.LCFI3:
 425              		.cfi_def_cfa_offset 16
 426              		.cfi_offset 4, -16
 427              		.cfi_offset 5, -12
 428              		.cfi_offset 6, -8
 429              		.cfi_offset 14, -4
 430              		.loc 1 202 0
 431 0172 0D46     		mov	r5, r1	@ len, len
 432 0174 1446     		mov	r4, r2	@ val, val
 203:mytasks.c     ****   uint8_t i;
 204:mytasks.c     ****   
 205:mytasks.c     ****   memset(str, 0, sizeof(str));
 433              		.loc 1 205 0
 434 0176 0021     		movs	r1, #0	@,
 435              	.LVL39:
 436 0178 0422     		movs	r2, #4	@,
 437              	.LVL40:
 202:mytasks.c     ****   uint8_t i;
 438              		.loc 1 202 0
 439 017a 0646     		mov	r6, r0	@ str, str
 440              		.loc 1 205 0
 441 017c FFF7FEFF 		bl	memset	@
 442              	.LVL41:
 206:mytasks.c     **** 
 207:mytasks.c     ****   for(i=1; i<=len; i++) {
 443              		.loc 1 207 0
 444 0180 0123     		movs	r3, #1	@ i,
 445              	.LVL42:
 446              	.L49:
 447              		.loc 1 207 0 is_stmt 0 discriminator 1
 448 0182 AB42     		cmp	r3, r5	@ i, len
 449 0184 0BD8     		bhi	.L51	@,
 208:mytasks.c     **** 	  
 209:mytasks.c     **** 	  /*
 210:mytasks.c     **** 	  	Example: if len=4, start from address 3 back to 0
 211:mytasks.c     **** 	  */
 212:mytasks.c     **** 	  
 213:mytasks.c     **** 	// add '0' to convert to char
 214:mytasks.c     ****     str[len-i] = (uint8_t) ((val % 10) + '0'); //Start from last digit (right to left)
 450              		.loc 1 214 0 is_stmt 1 discriminator 3
 451 0186 0A22     		movs	r2, #10	@ tmp132,
 452 0188 B4FBF2F1 		udiv	r1, r4, r2	@ tmp131, val, tmp132
 453 018c 02FB1142 		mls	r2, r2, r1, r4	@ D.8161, tmp132, tmp131, val
 454 0190 E81A     		subs	r0, r5, r3	@ D.8159, len, i
 455 0192 3032     		adds	r2, r2, #48	@ tmp137, D.8161,
 207:mytasks.c     **** 	  
 456              		.loc 1 207 0 discriminator 3
 457 0194 0133     		adds	r3, r3, #1	@ tmp142, i,
 458              	.LVL43:
 459              		.loc 1 214 0 discriminator 3
 460 0196 3254     		strb	r2, [r6, r0]	@ tmp137, *_11
 215:mytasks.c     ****     val/=10; //Next digit
 461              		.loc 1 215 0 discriminator 3
ARM GAS  /var/folders/yt/6z6x8bjn5sjf5fbb45bk5m4c0000gn/T//cc9aixzg.s 			page 13


 462 0198 0C46     		mov	r4, r1	@ val, tmp131
 463              	.LVL44:
 207:mytasks.c     **** 	  
 464              		.loc 1 207 0 discriminator 3
 465 019a DBB2     		uxtb	r3, r3	@ i, tmp142
 466              	.LVL45:
 467 019c F1E7     		b	.L49	@
 468              	.LVL46:
 469              	.L51:
 216:mytasks.c     ****   }
 217:mytasks.c     **** 
 218:mytasks.c     ****   //str[i-1] = '\0'; //String termination
 219:mytasks.c     **** }
 470              		.loc 1 219 0
 471 019e 70BD     		pop	{r4, r5, r6, pc}	@
 472              		.cfi_endproc
 473              	.LFE38:
 474              		.size	from_uint16_t_to_chars, .-from_uint16_t_to_chars
 475              		.align	1
 476              		.global	vUSARTTask
 477              		.thumb
 478              		.thumb_func
 479              		.type	vUSARTTask, %function
 480              	vUSARTTask:
 481              	.LFB39:
 220:mytasks.c     **** 
 221:mytasks.c     **** void vUSARTTask( void *pvParameters ) {
 482              		.loc 1 221 0
 483              		.cfi_startproc
 484              		@ args = 0, pretend = 0, frame = 8
 485              		@ frame_needed = 0, uses_anonymous_args = 0
 486              	.LVL47:
 487 01a0 13B5     		push	{r0, r1, r4, lr}	@
 488              	.LCFI4:
 489              		.cfi_def_cfa_offset 16
 490              		.cfi_offset 4, -8
 491              		.cfi_offset 14, -4
 222:mytasks.c     **** 
 223:mytasks.c     ****   TickType_t xLastWakeTime;
 224:mytasks.c     ****   const TickType_t xFrequency = 500;
 225:mytasks.c     ****   xLastWakeTime=xTaskGetTickCount();
 492              		.loc 1 225 0
 493 01a2 FFF7FEFF 		bl	xTaskGetTickCount	@
 494              	.LVL48:
 226:mytasks.c     ****   //char ch;
 227:mytasks.c     ****   // Create a queue capable of containing 128 characters.
 228:mytasks.c     ****   RxQueue = xQueueCreate( configCOM0_RX_BUFFER_LENGTH, sizeof( portCHAR ) );
 495              		.loc 1 228 0
 496 01a6 0121     		movs	r1, #1	@,
 225:mytasks.c     ****   //char ch;
 497              		.loc 1 225 0
 498 01a8 0190     		str	r0, [sp, #4]	@, xLastWakeTime
 499              		.loc 1 228 0
 500 01aa 0022     		movs	r2, #0	@,
 501 01ac 8020     		movs	r0, #128	@,
 502 01ae FFF7FEFF 		bl	xQueueGenericCreate	@
 503              	.LVL49:
ARM GAS  /var/folders/yt/6z6x8bjn5sjf5fbb45bk5m4c0000gn/T//cc9aixzg.s 			page 14


 504 01b2 0D4C     		ldr	r4, .L59	@ tmp115,
 229:mytasks.c     ****   TxQueue = xQueueCreate( configCOM0_TX_BUFFER_LENGTH, sizeof( portCHAR ) );
 505              		.loc 1 229 0
 506 01b4 0121     		movs	r1, #1	@,
 228:mytasks.c     ****   TxQueue = xQueueCreate( configCOM0_TX_BUFFER_LENGTH, sizeof( portCHAR ) );
 507              		.loc 1 228 0
 508 01b6 2060     		str	r0, [r4]	@, RxQueue
 509              		.loc 1 229 0
 510 01b8 0022     		movs	r2, #0	@,
 511 01ba 8020     		movs	r0, #128	@,
 512 01bc FFF7FEFF 		bl	xQueueGenericCreate	@
 513              	.LVL50:
 514 01c0 0A4B     		ldr	r3, .L59+4	@ tmp116,
 515 01c2 1860     		str	r0, [r3]	@ D.8169, TxQueue
 230:mytasks.c     ****   if(( TxQueue == 0 )||( RxQueue == 0 ))
 516              		.loc 1 230 0
 517 01c4 08B1     		cbz	r0, .L53	@ D.8169,
 518              		.loc 1 230 0 is_stmt 0 discriminator 1
 519 01c6 2368     		ldr	r3, [r4]	@ RxQueue, RxQueue
 520 01c8 2BB9     		cbnz	r3, .L55	@ RxQueue,
 521              	.L53:
 231:mytasks.c     ****   {
 232:mytasks.c     ****       // Failed to create the queue.
 233:mytasks.c     ****       LEDOn(1);
 522              		.loc 1 233 0 is_stmt 1
 523 01ca 0120     		movs	r0, #1	@,
 524 01cc FFF7FEFF 		bl	LEDOn	@
 525              	.LVL51:
 234:mytasks.c     ****       LEDOn(2);
 526              		.loc 1 234 0
 527 01d0 0220     		movs	r0, #2	@,
 528 01d2 FFF7FEFF 		bl	LEDOn	@
 529              	.LVL52:
 530              	.L55:
 531              	.LBB2:
 235:mytasks.c     ****   }
 236:mytasks.c     **** 
 237:mytasks.c     ****   for( ;; ) {
 238:mytasks.c     **** 	  
 239:mytasks.c     **** 	  uint16_t light = BH1750readLightLevel();
 532              		.loc 1 239 0 discriminator 1
 533 01d6 FFF7FEFF 		bl	BH1750readLightLevel	@
 534              	.LVL53:
 240:mytasks.c     **** 	  
 241:mytasks.c     **** 	  //USART1PutString(stringbuffer,strlen( stringbuffer ));
 242:mytasks.c     **** 	  //sprintf(stringbuffer, "Light: %d lux\r\n", light);
 243:mytasks.c     **** 	  
 244:mytasks.c     **** 	  //char* start = "Light: ";
 245:mytasks.c     **** 	  //strcpy( stringbuffer, start );
 246:mytasks.c     **** 	  
 247:mytasks.c     **** 	  //char lightstr[20];
 248:mytasks.c     **** 	  //from_uint16_t_to_chars(lightstr, count_digits(light), light);
 249:mytasks.c     **** 	  
 250:mytasks.c     **** 	  //strcat(stringbuffer, lightstr);
 251:mytasks.c     **** 	  //strcat(stringbuffer, " lux \r\n\0");
 252:mytasks.c     **** 	  
 253:mytasks.c     **** 	  //USART1PutString(stringbuffer,strlen( stringbuffer ));
ARM GAS  /var/folders/yt/6z6x8bjn5sjf5fbb45bk5m4c0000gn/T//cc9aixzg.s 			page 15


 254:mytasks.c     **** 	  
 255:mytasks.c     ****       //Echo back
 256:mytasks.c     ****       //if (Usart1GetChar(&ch))
 257:mytasks.c     ****       //  {
 258:mytasks.c     ****       //    Usart1PutChar(ch);
 259:mytasks.c     ****       //  }
 260:mytasks.c     ****       vTaskDelayUntil(&xLastWakeTime,xFrequency);
 535              		.loc 1 260 0 discriminator 1
 536 01da 01A8     		add	r0, sp, #4	@,,
 537 01dc 4FF4FA71 		mov	r1, #500	@,
 538 01e0 FFF7FEFF 		bl	vTaskDelayUntil	@
 539              	.LVL54:
 540              	.LBE2:
 261:mytasks.c     ****   }
 541              		.loc 1 261 0 discriminator 1
 542 01e4 F7E7     		b	.L55	@
 543              	.L60:
 544 01e6 00BF     		.align	2
 545              	.L59:
 546 01e8 00000000 		.word	RxQueue
 547 01ec 00000000 		.word	TxQueue
 548              		.cfi_endproc
 549              	.LFE39:
 550              		.size	vUSARTTask, .-vUSARTTask
 551              		.comm	stringbuffer,50,1
 552              		.comm	TxQueue,4,4
 553              		.comm	RxQueue,4,4
 554              		.bss
 555              		.align	2
 556              		.set	.LANCHOR0,. + 0
 557              		.type	xButtonUser1Semaphore, %object
 558              		.size	xButtonUser1Semaphore, 4
 559              	xButtonUser1Semaphore:
 560 0000 00000000 		.space	4
 561              		.type	xButtonUser2Semaphore, %object
 562              		.size	xButtonUser2Semaphore, 4
 563              	xButtonUser2Semaphore:
 564 0004 00000000 		.space	4
 565              		.type	count.8012, %object
 566              		.size	count.8012, 1
 567              	count.8012:
 568 0008 00       		.space	1
 569              		.text
 570              	.Letext0:
 571              		.file 2 "/usr/local/Cellar/arm-none-eabi-gcc/20150921/arm-none-eabi/include/machine/_default_types
 572              		.file 3 "/usr/local/Cellar/arm-none-eabi-gcc/20150921/arm-none-eabi/include/sys/_stdint.h"
 573              		.file 4 "./Libraries/CMSIS/CM3/DeviceSupport/ST/STM32F10x/STM32f10x.h"
 574              		.file 5 "/usr/local/Cellar/arm-none-eabi-gcc/20150921/lib/gcc/arm-none-eabi/4.9.3/include/stddef.h
 575              		.file 6 "./FreeRTOS/Source/include/../../Source/portable/GCC/ARM_CM3/portmacro.h"
 576              		.file 7 "./FreeRTOS/Source/include/queue.h"
 577              		.file 8 "./FreeRTOS/Source/include/semphr.h"
 578              		.file 9 "./Libraries/Drivers/Leds/leds.h"
 579              		.file 10 "./Libraries/CMSIS/CM3/CoreSupport/core_cm3.h"
 580              		.file 11 "./FreeRTOS/Source/include/task.h"
 581              		.file 12 "./Libraries/Drivers/Buttons/buttons.h"
 582              		.file 13 "./Libraries/Drivers/BH1750/bh1750.h"