ARM GAS  /var/folders/yt/6z6x8bjn5sjf5fbb45bk5m4c0000gn/T//ccEYHw5O.s 			page 1


   1              		.syntax unified
   2              		.cpu cortex-m3
   3              		.fpu softvfp
   4              		.eabi_attribute 20, 1	@ Tag_ABI_FP_denormal
   5              		.eabi_attribute 21, 1	@ Tag_ABI_FP_exceptions
   6              		.eabi_attribute 23, 3	@ Tag_ABI_FP_number_model
   7              		.eabi_attribute 24, 1	@ Tag_ABI_align8_needed
   8              		.eabi_attribute 25, 1	@ Tag_ABI_align8_preserved
   9              		.eabi_attribute 26, 1	@ Tag_ABI_enum_size
  10              		.eabi_attribute 30, 4	@ Tag_ABI_optimization_goals
  11              		.eabi_attribute 34, 1	@ Tag_CPU_unaligned_access
  12              		.eabi_attribute 18, 4	@ Tag_ABI_PCS_wchar_t
  13              		.file	"stm32f10x_it.c"
  14              	@ GNU C (GNU Tools for ARM Embedded Processors) version 4.9.3 20150529 (release) [ARM/embedded-4_9-
  15              	@	compiled by GNU C version 4.2.1 (Based on Apple Inc. build 5658) (LLVM build 2336.9.00), GMP vers
  16              	@ GGC heuristics: --param ggc-min-expand=100 --param ggc-min-heapsize=131072
  17              	@ options passed:  -I . -I ./Libraries/CMSIS/CM3/CoreSupport
  18              	@ -I ./Libraries/CMSIS/CM3/DeviceSupport/ST/STM32F10x
  19              	@ -I ./Libraries/STM32F10x_StdPeriph_Driver/inc -I ./Libraries/Drivers/Leds
  20              	@ -I ./Libraries/Drivers/Buttons -I ./Libraries/Drivers/Usart
  21              	@ -I ./Libraries/Drivers/i2c -I ./Libraries/Drivers/BH1750
  22              	@ -I ./Libraries/Drivers/Utilities -I ./FreeRTOS/Source/include
  23              	@ -I ./FreeRTOS/Source/portable/GCC/ARM_CM3 -imultilib armv7-m
  24              	@ -iprefix /usr/local/Cellar/arm-none-eabi-gcc/20150921/bin/../lib/gcc/arm-none-eabi/4.9.3/
  25              	@ -isysroot /usr/local/Cellar/arm-none-eabi-gcc/20150921/bin/../arm-none-eabi
  26              	@ -MD stm32f10x_it.d -MF .dep/stm32f10x_it.o.d -MP -MQ stm32f10x_it.o
  27              	@ -D__USES_INITFINI__ -D STM32F10X_MD -D USE_STDPERIPH_DRIVER -D GCC_ARMCM3
  28              	@ -D RUN_FROM_FLASH=1 stm32f10x_it.c -mcpu=cortex-m3 -mthumb
  29              	@ -auxbase-strip stm32f10x_it.o -gdwarf-2 -Os -Wall -Wstrict-prototypes
  30              	@ -fomit-frame-pointer -fverbose-asm
  31              	@ options enabled:  -faggressive-loop-optimizations -fauto-inc-dec
  32              	@ -fbranch-count-reg -fcaller-saves -fcombine-stack-adjustments -fcommon
  33              	@ -fcompare-elim -fcprop-registers -fcrossjumping -fcse-follow-jumps
  34              	@ -fdefer-pop -fdelete-null-pointer-checks -fdevirtualize
  35              	@ -fdevirtualize-speculatively -fdwarf2-cfi-asm -fearly-inlining
  36              	@ -feliminate-unused-debug-types -fexpensive-optimizations
  37              	@ -fforward-propagate -ffunction-cse -fgcse -fgcse-lm -fgnu-runtime
  38              	@ -fgnu-unique -fguess-branch-probability -fhoist-adjacent-loads -fident
  39              	@ -fif-conversion -fif-conversion2 -findirect-inlining -finline
  40              	@ -finline-atomics -finline-functions -finline-functions-called-once
  41              	@ -finline-small-functions -fipa-cp -fipa-profile -fipa-pure-const
  42              	@ -fipa-reference -fipa-sra -fira-hoist-pressure -fira-share-save-slots
  43              	@ -fira-share-spill-slots -fisolate-erroneous-paths-dereference -fivopts
  44              	@ -fkeep-static-consts -fleading-underscore -flifetime-dse -fmath-errno
  45              	@ -fmerge-constants -fmerge-debug-strings -fomit-frame-pointer
  46              	@ -foptimize-sibling-calls -fpartial-inlining -fpeephole -fpeephole2
  47              	@ -fprefetch-loop-arrays -freg-struct-return -freorder-blocks
  48              	@ -freorder-functions -frerun-cse-after-loop
  49              	@ -fsched-critical-path-heuristic -fsched-dep-count-heuristic
  50              	@ -fsched-group-heuristic -fsched-interblock -fsched-last-insn-heuristic
  51              	@ -fsched-pressure -fsched-rank-heuristic -fsched-spec
  52              	@ -fsched-spec-insn-heuristic -fsched-stalled-insns-dep -fschedule-insns2
  53              	@ -fsection-anchors -fshow-column -fsigned-zeros -fsplit-ivs-in-unroller
  54              	@ -fsplit-wide-types -fstrict-aliasing -fstrict-overflow
  55              	@ -fstrict-volatile-bitfields -fsync-libcalls -fthread-jumps
  56              	@ -ftoplevel-reorder -ftrapping-math -ftree-bit-ccp -ftree-builtin-call-dce
  57              	@ -ftree-ccp -ftree-ch -ftree-coalesce-vars -ftree-copy-prop
ARM GAS  /var/folders/yt/6z6x8bjn5sjf5fbb45bk5m4c0000gn/T//ccEYHw5O.s 			page 2


  58              	@ -ftree-copyrename -ftree-cselim -ftree-dce -ftree-dominator-opts
  59              	@ -ftree-dse -ftree-forwprop -ftree-fre -ftree-loop-if-convert
  60              	@ -ftree-loop-im -ftree-loop-ivcanon -ftree-loop-optimize
  61              	@ -ftree-parallelize-loops= -ftree-phiprop -ftree-pre -ftree-pta
  62              	@ -ftree-reassoc -ftree-scev-cprop -ftree-sink -ftree-slsr -ftree-sra
  63              	@ -ftree-switch-conversion -ftree-tail-merge -ftree-ter -ftree-vrp
  64              	@ -funit-at-a-time -fvar-tracking -fvar-tracking-assignments -fverbose-asm
  65              	@ -fzero-initialized-in-bss -mfix-cortex-m3-ldrd -mlittle-endian -mlra
  66              	@ -mpic-data-is-text-relative -msched-prolog -mthumb -munaligned-access
  67              	@ -mvectorize-with-neon-quad
  68              	
  69              		.text
  70              	.Ltext0:
  71              		.cfi_sections	.debug_frame
  72              		.align	1
  73              		.global	NMI_Handler
  74              		.thumb
  75              		.thumb_func
  76              		.type	NMI_Handler, %function
  77              	NMI_Handler:
  78              	.LFB34:
  79              		.file 1 "stm32f10x_it.c"
   1:stm32f10x_it.c **** /**
   2:stm32f10x_it.c ****   ******************************************************************************
   3:stm32f10x_it.c ****   * @file    stm32f10x_it.c
   4:stm32f10x_it.c ****   * @author  MCD Application Team
   5:stm32f10x_it.c ****   * @version V1.0.0
   6:stm32f10x_it.c ****   * @date    09/13/2010
   7:stm32f10x_it.c ****   * @brief   Main Interrupt Service Routines.
   8:stm32f10x_it.c ****   *          This file provides template for all exceptions handler and peripherals
   9:stm32f10x_it.c ****   *          interrupt service routine.
  10:stm32f10x_it.c ****   ******************************************************************************
  11:stm32f10x_it.c ****   * @copy
  12:stm32f10x_it.c ****   *
  13:stm32f10x_it.c ****   * THE PRESENT FIRMWARE WHICH IS FOR GUIDANCE ONLY AIMS AT PROVIDING CUSTOMERS
  14:stm32f10x_it.c ****   * WITH CODING INFORMATION REGARDING THEIR PRODUCTS IN ORDER FOR THEM TO SAVE
  15:stm32f10x_it.c ****   * TIME. AS A RESULT, STMICROELECTRONICS SHALL NOT BE HELD LIABLE FOR ANY
  16:stm32f10x_it.c ****   * DIRECT, INDIRECT OR CONSEQUENTIAL DAMAGES WITH RESPECT TO ANY CLAIMS ARISING
  17:stm32f10x_it.c ****   * FROM THE CONTENT OF SUCH FIRMWARE AND/OR THE USE MADE BY CUSTOMERS OF THE
  18:stm32f10x_it.c ****   * CODING INFORMATION CONTAINED HEREIN IN CONNECTION WITH THEIR PRODUCTS.
  19:stm32f10x_it.c ****   *
  20:stm32f10x_it.c ****   * <h2><center>&copy; COPYRIGHT 2010 STMicroelectronics</center></h2>
  21:stm32f10x_it.c ****   */
  22:stm32f10x_it.c **** 
  23:stm32f10x_it.c **** /* Includes ------------------------------------------------------------------*/
  24:stm32f10x_it.c **** #include "stm32f10x_it.h"
  25:stm32f10x_it.c **** #include "usart.h"
  26:stm32f10x_it.c **** #include "mytasks.h"
  27:stm32f10x_it.c **** /** @addtogroup Examples
  28:stm32f10x_it.c ****   * @{
  29:stm32f10x_it.c ****   */
  30:stm32f10x_it.c **** 
  31:stm32f10x_it.c **** /* Private typedef -----------------------------------------------------------*/
  32:stm32f10x_it.c **** /* Private define ------------------------------------------------------------*/
  33:stm32f10x_it.c **** /* Private macro -------------------------------------------------------------*/
  34:stm32f10x_it.c **** /* Private variables ---------------------------------------------------------*/
  35:stm32f10x_it.c **** /* Private function prototypes -----------------------------------------------*/
ARM GAS  /var/folders/yt/6z6x8bjn5sjf5fbb45bk5m4c0000gn/T//ccEYHw5O.s 			page 3


  36:stm32f10x_it.c **** /* Private functions ---------------------------------------------------------*/
  37:stm32f10x_it.c **** 
  38:stm32f10x_it.c **** /******************************************************************************/
  39:stm32f10x_it.c **** /*            Cortex-M3 Processor Exceptions Handlers                         */
  40:stm32f10x_it.c **** /******************************************************************************/
  41:stm32f10x_it.c **** 
  42:stm32f10x_it.c **** /**
  43:stm32f10x_it.c ****   * @brief  This function handles NMI exception.
  44:stm32f10x_it.c ****   * @param  None
  45:stm32f10x_it.c ****   * @retval None
  46:stm32f10x_it.c ****   */
  47:stm32f10x_it.c **** void NMI_Handler(void)
  48:stm32f10x_it.c **** {
  80              		.loc 1 48 0
  81              		.cfi_startproc
  82              		@ args = 0, pretend = 0, frame = 0
  83              		@ frame_needed = 0, uses_anonymous_args = 0
  84              		@ link register save eliminated.
  85 0000 7047     		bx	lr	@
  86              		.cfi_endproc
  87              	.LFE34:
  88              		.size	NMI_Handler, .-NMI_Handler
  89              		.align	1
  90              		.global	HardFault_Handler
  91              		.thumb
  92              		.thumb_func
  93              		.type	HardFault_Handler, %function
  94              	HardFault_Handler:
  95              	.LFB35:
  49:stm32f10x_it.c **** }
  50:stm32f10x_it.c **** 
  51:stm32f10x_it.c **** /**
  52:stm32f10x_it.c ****   * @brief  This function handles Hard Fault exception.
  53:stm32f10x_it.c ****   * @param  None
  54:stm32f10x_it.c ****   * @retval None
  55:stm32f10x_it.c ****   */
  56:stm32f10x_it.c **** void HardFault_Handler(void)
  57:stm32f10x_it.c **** {
  96              		.loc 1 57 0
  97              		.cfi_startproc
  98              		@ Volatile: function does not return.
  99              		@ args = 0, pretend = 0, frame = 0
 100              		@ frame_needed = 0, uses_anonymous_args = 0
 101              		@ link register save eliminated.
 102              	.L3:
  58:stm32f10x_it.c ****   /* Go to infinite loop when Hard Fault exception occurs */
  59:stm32f10x_it.c ****   while (1)
  60:stm32f10x_it.c ****   {
  61:stm32f10x_it.c ****   }
 103              		.loc 1 61 0 discriminator 1
 104 0002 FEE7     		b	.L3	@
 105              		.cfi_endproc
 106              	.LFE35:
 107              		.size	HardFault_Handler, .-HardFault_Handler
 108              		.align	1
 109              		.global	MemManage_Handler
 110              		.thumb
ARM GAS  /var/folders/yt/6z6x8bjn5sjf5fbb45bk5m4c0000gn/T//ccEYHw5O.s 			page 4


 111              		.thumb_func
 112              		.type	MemManage_Handler, %function
 113              	MemManage_Handler:
 114              	.LFB36:
  62:stm32f10x_it.c **** }
  63:stm32f10x_it.c **** 
  64:stm32f10x_it.c **** /**
  65:stm32f10x_it.c ****   * @brief  This function handles Memory Manage exception.
  66:stm32f10x_it.c ****   * @param  None
  67:stm32f10x_it.c ****   * @retval None
  68:stm32f10x_it.c ****   */
  69:stm32f10x_it.c **** void MemManage_Handler(void)
  70:stm32f10x_it.c **** {
 115              		.loc 1 70 0
 116              		.cfi_startproc
 117              		@ Volatile: function does not return.
 118              		@ args = 0, pretend = 0, frame = 0
 119              		@ frame_needed = 0, uses_anonymous_args = 0
 120              		@ link register save eliminated.
 121              	.L5:
  71:stm32f10x_it.c ****   /* Go to infinite loop when Memory Manage exception occurs */
  72:stm32f10x_it.c ****   while (1)
  73:stm32f10x_it.c ****   {
  74:stm32f10x_it.c ****   }
 122              		.loc 1 74 0 discriminator 1
 123 0004 FEE7     		b	.L5	@
 124              		.cfi_endproc
 125              	.LFE36:
 126              		.size	MemManage_Handler, .-MemManage_Handler
 127              		.align	1
 128              		.global	BusFault_Handler
 129              		.thumb
 130              		.thumb_func
 131              		.type	BusFault_Handler, %function
 132              	BusFault_Handler:
 133              	.LFB37:
  75:stm32f10x_it.c **** }
  76:stm32f10x_it.c **** 
  77:stm32f10x_it.c **** /**
  78:stm32f10x_it.c ****   * @brief  This function handles Bus Fault exception.
  79:stm32f10x_it.c ****   * @param  None
  80:stm32f10x_it.c ****   * @retval None
  81:stm32f10x_it.c ****   */
  82:stm32f10x_it.c **** void BusFault_Handler(void)
  83:stm32f10x_it.c **** {
 134              		.loc 1 83 0
 135              		.cfi_startproc
 136              		@ Volatile: function does not return.
 137              		@ args = 0, pretend = 0, frame = 0
 138              		@ frame_needed = 0, uses_anonymous_args = 0
 139              		@ link register save eliminated.
 140              	.L7:
  84:stm32f10x_it.c ****   /* Go to infinite loop when Bus Fault exception occurs */
  85:stm32f10x_it.c ****   while (1)
  86:stm32f10x_it.c ****   {
  87:stm32f10x_it.c ****   }
 141              		.loc 1 87 0 discriminator 1
ARM GAS  /var/folders/yt/6z6x8bjn5sjf5fbb45bk5m4c0000gn/T//ccEYHw5O.s 			page 5


 142 0006 FEE7     		b	.L7	@
 143              		.cfi_endproc
 144              	.LFE37:
 145              		.size	BusFault_Handler, .-BusFault_Handler
 146              		.align	1
 147              		.global	UsageFault_Handler
 148              		.thumb
 149              		.thumb_func
 150              		.type	UsageFault_Handler, %function
 151              	UsageFault_Handler:
 152              	.LFB38:
  88:stm32f10x_it.c **** }
  89:stm32f10x_it.c **** 
  90:stm32f10x_it.c **** /**
  91:stm32f10x_it.c ****   * @brief  This function handles Usage Fault exception.
  92:stm32f10x_it.c ****   * @param  None
  93:stm32f10x_it.c ****   * @retval None
  94:stm32f10x_it.c ****   */
  95:stm32f10x_it.c **** void UsageFault_Handler(void)
  96:stm32f10x_it.c **** {
 153              		.loc 1 96 0
 154              		.cfi_startproc
 155              		@ Volatile: function does not return.
 156              		@ args = 0, pretend = 0, frame = 0
 157              		@ frame_needed = 0, uses_anonymous_args = 0
 158              		@ link register save eliminated.
 159              	.L9:
  97:stm32f10x_it.c ****   /* Go to infinite loop when Usage Fault exception occurs */
  98:stm32f10x_it.c ****   while (1)
  99:stm32f10x_it.c ****   {
 100:stm32f10x_it.c ****   }
 160              		.loc 1 100 0 discriminator 1
 161 0008 FEE7     		b	.L9	@
 162              		.cfi_endproc
 163              	.LFE38:
 164              		.size	UsageFault_Handler, .-UsageFault_Handler
 165              		.align	1
 166              		.global	DebugMon_Handler
 167              		.thumb
 168              		.thumb_func
 169              		.type	DebugMon_Handler, %function
 170              	DebugMon_Handler:
 171              	.LFB39:
 101:stm32f10x_it.c **** }
 102:stm32f10x_it.c **** 
 103:stm32f10x_it.c **** /**
 104:stm32f10x_it.c ****   * @brief  This function handles SVCall exception.
 105:stm32f10x_it.c ****   * @param  None
 106:stm32f10x_it.c ****   * @retval None
 107:stm32f10x_it.c ****   */
 108:stm32f10x_it.c **** /*void SVC_Handler(void)
 109:stm32f10x_it.c **** {
 110:stm32f10x_it.c **** }*/
 111:stm32f10x_it.c **** 
 112:stm32f10x_it.c **** /**
 113:stm32f10x_it.c ****   * @brief  This function handles Debug Monitor exception.
 114:stm32f10x_it.c ****   * @param  None
ARM GAS  /var/folders/yt/6z6x8bjn5sjf5fbb45bk5m4c0000gn/T//ccEYHw5O.s 			page 6


 115:stm32f10x_it.c ****   * @retval None
 116:stm32f10x_it.c ****   */
 117:stm32f10x_it.c **** void DebugMon_Handler(void)
 118:stm32f10x_it.c **** {
 172              		.loc 1 118 0
 173              		.cfi_startproc
 174              		@ args = 0, pretend = 0, frame = 0
 175              		@ frame_needed = 0, uses_anonymous_args = 0
 176              		@ link register save eliminated.
 177 000a 7047     		bx	lr	@
 178              		.cfi_endproc
 179              	.LFE39:
 180              		.size	DebugMon_Handler, .-DebugMon_Handler
 181              		.align	1
 182              		.global	EXTI3_IRQHandler
 183              		.thumb
 184              		.thumb_func
 185              		.type	EXTI3_IRQHandler, %function
 186              	EXTI3_IRQHandler:
 187              	.LFB40:
 119:stm32f10x_it.c **** }
 120:stm32f10x_it.c **** 
 121:stm32f10x_it.c **** /**
 122:stm32f10x_it.c ****   * @brief  This function handles PendSV_Handler exception.
 123:stm32f10x_it.c ****   * @param  None
 124:stm32f10x_it.c ****   * @retval None
 125:stm32f10x_it.c ****   */
 126:stm32f10x_it.c **** /*void PendSV_Handler(void)
 127:stm32f10x_it.c **** {
 128:stm32f10x_it.c **** }*/
 129:stm32f10x_it.c **** 
 130:stm32f10x_it.c **** /**
 131:stm32f10x_it.c ****   * @brief  This function handles SysTick Handler.
 132:stm32f10x_it.c ****   * @param  None
 133:stm32f10x_it.c ****   * @retval None
 134:stm32f10x_it.c ****   */
 135:stm32f10x_it.c **** /*void SysTick_Handler(void)
 136:stm32f10x_it.c **** {
 137:stm32f10x_it.c **** 	LEDToggle(5);
 138:stm32f10x_it.c **** //Decrement the TimingDelay variable
 139:stm32f10x_it.c **** 	Decrement_TimingDelay();
 140:stm32f10x_it.c **** }*/
 141:stm32f10x_it.c **** 
 142:stm32f10x_it.c **** /******************************************************************************/
 143:stm32f10x_it.c **** /*                 STM32F10x Peripherals Interrupt Handlers                   */
 144:stm32f10x_it.c **** /*  Add here the Interrupt Handler for the used peripheral(s) (PPP), for the  */
 145:stm32f10x_it.c **** /*  available peripheral interrupt handler's name please refer to the startup */
 146:stm32f10x_it.c **** /*  file (startup_stm32f10x_xx.s).                                            */
 147:stm32f10x_it.c **** /******************************************************************************/
 148:stm32f10x_it.c **** 
 149:stm32f10x_it.c **** /**
 150:stm32f10x_it.c ****   * @brief  This function handles PPP interrupt request.
 151:stm32f10x_it.c ****   * @param  None
 152:stm32f10x_it.c ****   * @retval None
 153:stm32f10x_it.c ****   */
 154:stm32f10x_it.c **** //void EXTI0_IRQHandler(void)
 155:stm32f10x_it.c **** //{
ARM GAS  /var/folders/yt/6z6x8bjn5sjf5fbb45bk5m4c0000gn/T//ccEYHw5O.s 			page 7


 156:stm32f10x_it.c **** //
 157:stm32f10x_it.c **** //}
 158:stm32f10x_it.c **** void EXTI3_IRQHandler(void)
 159:stm32f10x_it.c **** {
 188              		.loc 1 159 0
 189              		.cfi_startproc
 190              		@ args = 0, pretend = 0, frame = 0
 191              		@ frame_needed = 0, uses_anonymous_args = 0
 192              		@ link register save eliminated.
 193 000c 7047     		bx	lr	@
 194              		.cfi_endproc
 195              	.LFE40:
 196              		.size	EXTI3_IRQHandler, .-EXTI3_IRQHandler
 197              		.align	1
 198              		.global	EXTI9_5_IRQHandler
 199              		.thumb
 200              		.thumb_func
 201              		.type	EXTI9_5_IRQHandler, %function
 202              	EXTI9_5_IRQHandler:
 203              	.LFB41:
 160:stm32f10x_it.c **** 
 161:stm32f10x_it.c **** }
 162:stm32f10x_it.c **** void EXTI9_5_IRQHandler(void)
 163:stm32f10x_it.c **** {
 204              		.loc 1 163 0
 205              		.cfi_startproc
 206              		@ args = 0, pretend = 0, frame = 0
 207              		@ frame_needed = 0, uses_anonymous_args = 0
 208              		@ link register save eliminated.
 209 000e 7047     		bx	lr	@
 210              		.cfi_endproc
 211              	.LFE41:
 212              		.size	EXTI9_5_IRQHandler, .-EXTI9_5_IRQHandler
 213              		.align	1
 214              		.global	EXTI15_10_IRQHandler
 215              		.thumb
 216              		.thumb_func
 217              		.type	EXTI15_10_IRQHandler, %function
 218              	EXTI15_10_IRQHandler:
 219              	.LFB42:
 164:stm32f10x_it.c **** 
 165:stm32f10x_it.c **** }
 166:stm32f10x_it.c **** void EXTI15_10_IRQHandler(void)
 167:stm32f10x_it.c **** {
 220              		.loc 1 167 0
 221              		.cfi_startproc
 222              		@ args = 0, pretend = 0, frame = 0
 223              		@ frame_needed = 0, uses_anonymous_args = 0
 224              		@ link register save eliminated.
 225 0010 7047     		bx	lr	@
 226              		.cfi_endproc
 227              	.LFE42:
 228              		.size	EXTI15_10_IRQHandler, .-EXTI15_10_IRQHandler
 229              		.align	1
 230              		.global	USART1_IRQHandler
 231              		.thumb
 232              		.thumb_func
ARM GAS  /var/folders/yt/6z6x8bjn5sjf5fbb45bk5m4c0000gn/T//ccEYHw5O.s 			page 8


 233              		.type	USART1_IRQHandler, %function
 234              	USART1_IRQHandler:
 235              	.LFB43:
 168:stm32f10x_it.c **** 
 169:stm32f10x_it.c **** }
 170:stm32f10x_it.c **** void USART1_IRQHandler(void)
 171:stm32f10x_it.c **** {
 236              		.loc 1 171 0
 237              		.cfi_startproc
 238              		@ args = 0, pretend = 0, frame = 8
 239              		@ frame_needed = 0, uses_anonymous_args = 0
 240              		.loc 1 171 0
 241 0012 13B5     		push	{r0, r1, r4, lr}	@
 242              	.LCFI0:
 243              		.cfi_def_cfa_offset 16
 244              		.cfi_offset 4, -8
 245              		.cfi_offset 14, -4
 172:stm32f10x_it.c ****   long xHigherPriorityTaskWoken = pdFALSE;
 246              		.loc 1 172 0
 247 0014 0024     		movs	r4, #0	@ tmp120,
 173:stm32f10x_it.c ****   uint8_t ch;
 174:stm32f10x_it.c ****   //if Receive interrupt
 175:stm32f10x_it.c ****   if (USART_GetITStatus(USART1, USART_IT_RXNE) != RESET)
 248              		.loc 1 175 0
 249 0016 1C48     		ldr	r0, .L29	@,
 250 0018 40F22551 		movw	r1, #1317	@,
 172:stm32f10x_it.c ****   long xHigherPriorityTaskWoken = pdFALSE;
 251              		.loc 1 172 0
 252 001c 0194     		str	r4, [sp, #4]	@ tmp120, xHigherPriorityTaskWoken
 253              		.loc 1 175 0
 254 001e FFF7FEFF 		bl	USART_GetITStatus	@
 255              	.LVL0:
 256 0022 58B1     		cbz	r0, .L15	@,
 176:stm32f10x_it.c ****     {
 177:stm32f10x_it.c ****       ch=(uint8_t)USART_ReceiveData(USART1);
 257              		.loc 1 177 0
 258 0024 1848     		ldr	r0, .L29	@,
 259 0026 FFF7FEFF 		bl	USART_ReceiveData	@
 260              	.LVL1:
 178:stm32f10x_it.c ****       xQueueSendToBackFromISR( RxQueue, &ch, &xHigherPriorityTaskWoken );
 261              		.loc 1 178 0
 262 002a 184B     		ldr	r3, .L29+4	@ tmp126,
 177:stm32f10x_it.c ****       xQueueSendToBackFromISR( RxQueue, &ch, &xHigherPriorityTaskWoken );
 263              		.loc 1 177 0
 264 002c 02A9     		add	r1, sp, #8	@ tmp127,,
 265 002e 01F8050D 		strb	r0, [r1, #-5]!	@, ch
 266              		.loc 1 178 0
 267 0032 01AA     		add	r2, sp, #4	@,,
 268 0034 1868     		ldr	r0, [r3]	@, RxQueue
 269 0036 2346     		mov	r3, r4	@, tmp120
 270 0038 FFF7FEFF 		bl	xQueueGenericSendFromISR	@
 271              	.LVL2:
 272              	.L15:
 179:stm32f10x_it.c ****     }
 180:stm32f10x_it.c **** 
 181:stm32f10x_it.c ****   if (USART_GetITStatus(USART1, USART_IT_TXE) != RESET)
 273              		.loc 1 181 0
ARM GAS  /var/folders/yt/6z6x8bjn5sjf5fbb45bk5m4c0000gn/T//ccEYHw5O.s 			page 9


 274 003c 1248     		ldr	r0, .L29	@,
 275 003e 40F22771 		movw	r1, #1831	@,
 276 0042 FFF7FEFF 		bl	USART_GetITStatus	@
 277              	.LVL3:
 278 0046 90B1     		cbz	r0, .L16	@,
 182:stm32f10x_it.c ****         {
 183:stm32f10x_it.c ****       if( xQueueReceiveFromISR( TxQueue, &ch, &xHigherPriorityTaskWoken ) )
 279              		.loc 1 183 0
 280 0048 114B     		ldr	r3, .L29+8	@ tmp131,
 281 004a 01AA     		add	r2, sp, #4	@,,
 282 004c 1868     		ldr	r0, [r3]	@, TxQueue
 283 004e 0DF10301 		add	r1, sp, #3	@,,
 284 0052 FFF7FEFF 		bl	xQueueReceiveFromISR	@
 285              	.LVL4:
 286 0056 0246     		mov	r2, r0	@ D.6097,
 184:stm32f10x_it.c ****         {
 185:stm32f10x_it.c ****           USART_SendData(USART1, ch);
 287              		.loc 1 185 0
 288 0058 0B48     		ldr	r0, .L29	@,
 183:stm32f10x_it.c ****         {
 289              		.loc 1 183 0
 290 005a 22B1     		cbz	r2, .L17	@ D.6097,
 291              		.loc 1 185 0
 292 005c 9DF80310 		ldrb	r1, [sp, #3]	@ zero_extendqisi2	@, ch
 293 0060 FFF7FEFF 		bl	USART_SendData	@
 294              	.LVL5:
 295 0064 03E0     		b	.L16	@
 296              	.L17:
 186:stm32f10x_it.c ****         }else{
 187:stm32f10x_it.c ****            //disable Transmit Data Register empty interrupt
 188:stm32f10x_it.c ****            USART_ITConfig(USART1, USART_IT_TXE, DISABLE);
 297              		.loc 1 188 0
 298 0066 40F22771 		movw	r1, #1831	@,
 299 006a FFF7FEFF 		bl	USART_ITConfig	@
 300              	.LVL6:
 301              	.L16:
 189:stm32f10x_it.c ****              }
 190:stm32f10x_it.c ****         }
 191:stm32f10x_it.c ****   portEND_SWITCHING_ISR( xHigherPriorityTaskWoken );
 302              		.loc 1 191 0
 303 006e 019B     		ldr	r3, [sp, #4]	@ xHigherPriorityTaskWoken, xHigherPriorityTaskWoken
 304 0070 3BB1     		cbz	r3, .L14	@ xHigherPriorityTaskWoken,
 305              		.loc 1 191 0 is_stmt 0 discriminator 1
 306 0072 084B     		ldr	r3, .L29+12	@ tmp140,
 307 0074 4FF08052 		mov	r2, #268435456	@ tmp141,
 308 0078 1A60     		str	r2, [r3]	@ tmp141, MEM[(volatile uint32_t *)3758157060B]
 309              	@ 191 "stm32f10x_it.c" 1
 310 007a BFF34F8F 		dsb
 311              	@ 0 "" 2
 312              	@ 191 "stm32f10x_it.c" 1
 313 007e BFF36F8F 		isb
 314              	@ 0 "" 2
 315              		.thumb
 316              	.L14:
 192:stm32f10x_it.c **** }
 317              		.loc 1 192 0 is_stmt 1
 318 0082 02B0     		add	sp, sp, #8	@,,
ARM GAS  /var/folders/yt/6z6x8bjn5sjf5fbb45bk5m4c0000gn/T//ccEYHw5O.s 			page 10


 319              	.LCFI1:
 320              		.cfi_def_cfa_offset 8
 321              		@ sp needed	@
 322 0084 10BD     		pop	{r4, pc}	@
 323              	.L30:
 324 0086 00BF     		.align	2
 325              	.L29:
 326 0088 00380140 		.word	1073821696
 327 008c 00000000 		.word	RxQueue
 328 0090 00000000 		.word	TxQueue
 329 0094 04ED00E0 		.word	-536810236
 330              		.cfi_endproc
 331              	.LFE43:
 332              		.size	USART1_IRQHandler, .-USART1_IRQHandler
 333              	.Letext0:
 334              		.file 2 "/usr/local/Cellar/arm-none-eabi-gcc/20150921/arm-none-eabi/include/machine/_default_types
 335              		.file 3 "/usr/local/Cellar/arm-none-eabi-gcc/20150921/arm-none-eabi/include/sys/_stdint.h"
 336              		.file 4 "./Libraries/CMSIS/CM3/DeviceSupport/ST/STM32F10x/stm32f10x.h"
 337              		.file 5 "./FreeRTOS/Source/include/../../Source/portable/GCC/ARM_CM3/portmacro.h"
 338              		.file 6 "./FreeRTOS/Source/include/queue.h"
 339              		.file 7 "./Libraries/CMSIS/CM3/CoreSupport/core_cm3.h"
 340              		.file 8 "mytasks.h"
 341              		.file 9 "./Libraries/STM32F10x_StdPeriph_Driver/inc/stm32f10x_usart.h"
 342              		.section	.debug_info,"",%progbits
 343              	.Ldebug_info0:
 344 0000 B2040000 		.4byte	0x4b2
 345 0004 0200     		.2byte	0x2
 346 0006 00000000 		.4byte	.Ldebug_abbrev0
 347 000a 04       		.byte	0x4
 348 000b 01       		.uleb128 0x1
 349 000c 51000000 		.4byte	.LASF50
 350 0010 01       		.byte	0x1
 351 0011 B0020000 		.4byte	.LASF51
 352 0015 00030000 		.4byte	.LASF52
 353 0019 00000000 		.4byte	.Ltext0
 354 001d 98000000 		.4byte	.Letext0
 355 0021 00000000 		.4byte	.Ldebug_line0
 356 0025 02       		.uleb128 0x2
 357 0026 01       		.byte	0x1
 358 0027 06       		.byte	0x6
 359 0028 13010000 		.4byte	.LASF0
 360 002c 03       		.uleb128 0x3
 361 002d 51010000 		.4byte	.LASF3
 362 0031 02       		.byte	0x2
 363 0032 1D       		.byte	0x1d
 364 0033 37000000 		.4byte	0x37
 365 0037 02       		.uleb128 0x2
 366 0038 01       		.byte	0x1
 367 0039 08       		.byte	0x8
 368 003a 69010000 		.4byte	.LASF1
 369 003e 02       		.uleb128 0x2
 370 003f 02       		.byte	0x2
 371 0040 05       		.byte	0x5
 372 0041 D5000000 		.4byte	.LASF2
 373 0045 03       		.uleb128 0x3
 374 0046 38000000 		.4byte	.LASF4
 375 004a 02       		.byte	0x2
ARM GAS  /var/folders/yt/6z6x8bjn5sjf5fbb45bk5m4c0000gn/T//ccEYHw5O.s 			page 11


 376 004b 2B       		.byte	0x2b
 377 004c 50000000 		.4byte	0x50
 378 0050 02       		.uleb128 0x2
 379 0051 02       		.byte	0x2
 380 0052 07       		.byte	0x7
 381 0053 27020000 		.4byte	.LASF5
 382 0057 02       		.uleb128 0x2
 383 0058 04       		.byte	0x4
 384 0059 05       		.byte	0x5
 385 005a 48010000 		.4byte	.LASF6
 386 005e 03       		.uleb128 0x3
 387 005f 2D000000 		.4byte	.LASF7
 388 0063 02       		.byte	0x2
 389 0064 41       		.byte	0x41
 390 0065 69000000 		.4byte	0x69
 391 0069 02       		.uleb128 0x2
 392 006a 04       		.byte	0x4
 393 006b 07       		.byte	0x7
 394 006c 06020000 		.4byte	.LASF8
 395 0070 02       		.uleb128 0x2
 396 0071 08       		.byte	0x8
 397 0072 05       		.byte	0x5
 398 0073 1F010000 		.4byte	.LASF9
 399 0077 02       		.uleb128 0x2
 400 0078 08       		.byte	0x8
 401 0079 07       		.byte	0x7
 402 007a AC010000 		.4byte	.LASF10
 403 007e 04       		.uleb128 0x4
 404 007f 04       		.byte	0x4
 405 0080 05       		.byte	0x5
 406 0081 696E7400 		.ascii	"int\000"
 407 0085 02       		.uleb128 0x2
 408 0086 04       		.byte	0x4
 409 0087 07       		.byte	0x7
 410 0088 E5010000 		.4byte	.LASF11
 411 008c 03       		.uleb128 0x3
 412 008d EE000000 		.4byte	.LASF12
 413 0091 03       		.byte	0x3
 414 0092 14       		.byte	0x14
 415 0093 2C000000 		.4byte	0x2c
 416 0097 03       		.uleb128 0x3
 417 0098 F2010000 		.4byte	.LASF13
 418 009c 03       		.byte	0x3
 419 009d 1A       		.byte	0x1a
 420 009e 45000000 		.4byte	0x45
 421 00a2 03       		.uleb128 0x3
 422 00a3 DC010000 		.4byte	.LASF14
 423 00a7 03       		.byte	0x3
 424 00a8 20       		.byte	0x20
 425 00a9 5E000000 		.4byte	0x5e
 426 00ad 02       		.uleb128 0x2
 427 00ae 04       		.byte	0x4
 428 00af 07       		.byte	0x7
 429 00b0 18000000 		.4byte	.LASF15
 430 00b4 05       		.uleb128 0x5
 431 00b5 97000000 		.4byte	0x97
 432 00b9 06       		.uleb128 0x6
ARM GAS  /var/folders/yt/6z6x8bjn5sjf5fbb45bk5m4c0000gn/T//ccEYHw5O.s 			page 12


 433 00ba 01       		.byte	0x1
 434 00bb 04       		.byte	0x4
 435 00bc 0702     		.2byte	0x207
 436 00be CF000000 		.4byte	0xcf
 437 00c2 07       		.uleb128 0x7
 438 00c3 E1020000 		.4byte	.LASF16
 439 00c7 00       		.sleb128 0
 440 00c8 08       		.uleb128 0x8
 441 00c9 53455400 		.ascii	"SET\000"
 442 00cd 01       		.sleb128 1
 443 00ce 00       		.byte	0
 444 00cf 09       		.uleb128 0x9
 445 00d0 3F010000 		.4byte	.LASF17
 446 00d4 04       		.byte	0x4
 447 00d5 0702     		.2byte	0x207
 448 00d7 B9000000 		.4byte	0xb9
 449 00db 06       		.uleb128 0x6
 450 00dc 01       		.byte	0x1
 451 00dd 04       		.byte	0x4
 452 00de 0902     		.2byte	0x209
 453 00e0 F1000000 		.4byte	0xf1
 454 00e4 07       		.uleb128 0x7
 455 00e5 0B010000 		.4byte	.LASF18
 456 00e9 00       		.sleb128 0
 457 00ea 07       		.uleb128 0x7
 458 00eb 7E030000 		.4byte	.LASF19
 459 00ef 01       		.sleb128 1
 460 00f0 00       		.byte	0
 461 00f1 09       		.uleb128 0x9
 462 00f2 BF020000 		.4byte	.LASF20
 463 00f6 04       		.byte	0x4
 464 00f7 0902     		.2byte	0x209
 465 00f9 DB000000 		.4byte	0xdb
 466 00fd 0A       		.uleb128 0xa
 467 00fe 1C       		.byte	0x1c
 468 00ff 04       		.byte	0x4
 469 0100 D204     		.2byte	0x4d2
 470 0102 D7010000 		.4byte	0x1d7
 471 0106 0B       		.uleb128 0xb
 472 0107 535200   		.ascii	"SR\000"
 473 010a 04       		.byte	0x4
 474 010b D404     		.2byte	0x4d4
 475 010d B4000000 		.4byte	0xb4
 476 0111 02       		.byte	0x2
 477 0112 23       		.byte	0x23
 478 0113 00       		.uleb128 0
 479 0114 0C       		.uleb128 0xc
 480 0115 6A020000 		.4byte	.LASF21
 481 0119 04       		.byte	0x4
 482 011a D504     		.2byte	0x4d5
 483 011c 97000000 		.4byte	0x97
 484 0120 02       		.byte	0x2
 485 0121 23       		.byte	0x23
 486 0122 02       		.uleb128 0x2
 487 0123 0B       		.uleb128 0xb
 488 0124 445200   		.ascii	"DR\000"
 489 0127 04       		.byte	0x4
ARM GAS  /var/folders/yt/6z6x8bjn5sjf5fbb45bk5m4c0000gn/T//ccEYHw5O.s 			page 13


 490 0128 D604     		.2byte	0x4d6
 491 012a B4000000 		.4byte	0xb4
 492 012e 02       		.byte	0x2
 493 012f 23       		.byte	0x23
 494 0130 04       		.uleb128 0x4
 495 0131 0C       		.uleb128 0xc
 496 0132 74020000 		.4byte	.LASF22
 497 0136 04       		.byte	0x4
 498 0137 D704     		.2byte	0x4d7
 499 0139 97000000 		.4byte	0x97
 500 013d 02       		.byte	0x2
 501 013e 23       		.byte	0x23
 502 013f 06       		.uleb128 0x6
 503 0140 0B       		.uleb128 0xb
 504 0141 42525200 		.ascii	"BRR\000"
 505 0145 04       		.byte	0x4
 506 0146 D804     		.2byte	0x4d8
 507 0148 B4000000 		.4byte	0xb4
 508 014c 02       		.byte	0x2
 509 014d 23       		.byte	0x23
 510 014e 08       		.uleb128 0x8
 511 014f 0C       		.uleb128 0xc
 512 0150 7E020000 		.4byte	.LASF23
 513 0154 04       		.byte	0x4
 514 0155 D904     		.2byte	0x4d9
 515 0157 97000000 		.4byte	0x97
 516 015b 02       		.byte	0x2
 517 015c 23       		.byte	0x23
 518 015d 0A       		.uleb128 0xa
 519 015e 0B       		.uleb128 0xb
 520 015f 43523100 		.ascii	"CR1\000"
 521 0163 04       		.byte	0x4
 522 0164 DA04     		.2byte	0x4da
 523 0166 B4000000 		.4byte	0xb4
 524 016a 02       		.byte	0x2
 525 016b 23       		.byte	0x23
 526 016c 0C       		.uleb128 0xc
 527 016d 0C       		.uleb128 0xc
 528 016e 88020000 		.4byte	.LASF24
 529 0172 04       		.byte	0x4
 530 0173 DB04     		.2byte	0x4db
 531 0175 97000000 		.4byte	0x97
 532 0179 02       		.byte	0x2
 533 017a 23       		.byte	0x23
 534 017b 0E       		.uleb128 0xe
 535 017c 0B       		.uleb128 0xb
 536 017d 43523200 		.ascii	"CR2\000"
 537 0181 04       		.byte	0x4
 538 0182 DC04     		.2byte	0x4dc
 539 0184 B4000000 		.4byte	0xb4
 540 0188 02       		.byte	0x2
 541 0189 23       		.byte	0x23
 542 018a 10       		.uleb128 0x10
 543 018b 0C       		.uleb128 0xc
 544 018c 92020000 		.4byte	.LASF25
 545 0190 04       		.byte	0x4
 546 0191 DD04     		.2byte	0x4dd
ARM GAS  /var/folders/yt/6z6x8bjn5sjf5fbb45bk5m4c0000gn/T//ccEYHw5O.s 			page 14


 547 0193 97000000 		.4byte	0x97
 548 0197 02       		.byte	0x2
 549 0198 23       		.byte	0x23
 550 0199 12       		.uleb128 0x12
 551 019a 0B       		.uleb128 0xb
 552 019b 43523300 		.ascii	"CR3\000"
 553 019f 04       		.byte	0x4
 554 01a0 DE04     		.2byte	0x4de
 555 01a2 B4000000 		.4byte	0xb4
 556 01a6 02       		.byte	0x2
 557 01a7 23       		.byte	0x23
 558 01a8 14       		.uleb128 0x14
 559 01a9 0C       		.uleb128 0xc
 560 01aa 9C020000 		.4byte	.LASF26
 561 01ae 04       		.byte	0x4
 562 01af DF04     		.2byte	0x4df
 563 01b1 97000000 		.4byte	0x97
 564 01b5 02       		.byte	0x2
 565 01b6 23       		.byte	0x23
 566 01b7 16       		.uleb128 0x16
 567 01b8 0C       		.uleb128 0xc
 568 01b9 00000000 		.4byte	.LASF27
 569 01bd 04       		.byte	0x4
 570 01be E004     		.2byte	0x4e0
 571 01c0 B4000000 		.4byte	0xb4
 572 01c4 02       		.byte	0x2
 573 01c5 23       		.byte	0x23
 574 01c6 18       		.uleb128 0x18
 575 01c7 0C       		.uleb128 0xc
 576 01c8 A6020000 		.4byte	.LASF28
 577 01cc 04       		.byte	0x4
 578 01cd E104     		.2byte	0x4e1
 579 01cf 97000000 		.4byte	0x97
 580 01d3 02       		.byte	0x2
 581 01d4 23       		.byte	0x23
 582 01d5 1A       		.uleb128 0x1a
 583 01d6 00       		.byte	0
 584 01d7 09       		.uleb128 0x9
 585 01d8 43000000 		.4byte	.LASF29
 586 01dc 04       		.byte	0x4
 587 01dd E204     		.2byte	0x4e2
 588 01df FD000000 		.4byte	0xfd
 589 01e3 0D       		.uleb128 0xd
 590 01e4 04       		.byte	0x4
 591 01e5 03       		.uleb128 0x3
 592 01e6 FB010000 		.4byte	.LASF30
 593 01ea 05       		.byte	0x5
 594 01eb 62       		.byte	0x62
 595 01ec 57000000 		.4byte	0x57
 596 01f0 02       		.uleb128 0x2
 597 01f1 01       		.byte	0x1
 598 01f2 08       		.byte	0x8
 599 01f3 53020000 		.4byte	.LASF31
 600 01f7 03       		.uleb128 0x3
 601 01f8 5B010000 		.4byte	.LASF32
 602 01fc 06       		.byte	0x6
 603 01fd 58       		.byte	0x58
ARM GAS  /var/folders/yt/6z6x8bjn5sjf5fbb45bk5m4c0000gn/T//ccEYHw5O.s 			page 15


 604 01fe E3010000 		.4byte	0x1e3
 605 0202 0E       		.uleb128 0xe
 606 0203 01       		.byte	0x1
 607 0204 21000000 		.4byte	.LASF33
 608 0208 01       		.byte	0x1
 609 0209 2F       		.byte	0x2f
 610 020a 01       		.byte	0x1
 611 020b 00000000 		.4byte	.LFB34
 612 020f 02000000 		.4byte	.LFE34
 613 0213 02       		.byte	0x2
 614 0214 7D       		.byte	0x7d
 615 0215 00       		.sleb128 0
 616 0216 01       		.byte	0x1
 617 0217 0E       		.uleb128 0xe
 618 0218 01       		.byte	0x1
 619 0219 2D010000 		.4byte	.LASF34
 620 021d 01       		.byte	0x1
 621 021e 38       		.byte	0x38
 622 021f 01       		.byte	0x1
 623 0220 02000000 		.4byte	.LFB35
 624 0224 04000000 		.4byte	.LFE35
 625 0228 02       		.byte	0x2
 626 0229 7D       		.byte	0x7d
 627 022a 00       		.sleb128 0
 628 022b 01       		.byte	0x1
 629 022c 0E       		.uleb128 0xe
 630 022d 01       		.byte	0x1
 631 022e 42030000 		.4byte	.LASF35
 632 0232 01       		.byte	0x1
 633 0233 45       		.byte	0x45
 634 0234 01       		.byte	0x1
 635 0235 04000000 		.4byte	.LFB36
 636 0239 06000000 		.4byte	.LFE36
 637 023d 02       		.byte	0x2
 638 023e 7D       		.byte	0x7d
 639 023f 00       		.sleb128 0
 640 0240 01       		.byte	0x1
 641 0241 0E       		.uleb128 0xe
 642 0242 01       		.byte	0x1
 643 0243 E7020000 		.4byte	.LASF36
 644 0247 01       		.byte	0x1
 645 0248 52       		.byte	0x52
 646 0249 01       		.byte	0x1
 647 024a 06000000 		.4byte	.LFB37
 648 024e 08000000 		.4byte	.LFE37
 649 0252 02       		.byte	0x2
 650 0253 7D       		.byte	0x7d
 651 0254 00       		.sleb128 0
 652 0255 01       		.byte	0x1
 653 0256 0E       		.uleb128 0xe
 654 0257 01       		.byte	0x1
 655 0258 05000000 		.4byte	.LASF37
 656 025c 01       		.byte	0x1
 657 025d 5F       		.byte	0x5f
 658 025e 01       		.byte	0x1
 659 025f 08000000 		.4byte	.LFB38
 660 0263 0A000000 		.4byte	.LFE38
ARM GAS  /var/folders/yt/6z6x8bjn5sjf5fbb45bk5m4c0000gn/T//ccEYHw5O.s 			page 16


 661 0267 02       		.byte	0x2
 662 0268 7D       		.byte	0x7d
 663 0269 00       		.sleb128 0
 664 026a 01       		.byte	0x1
 665 026b 0E       		.uleb128 0xe
 666 026c 01       		.byte	0x1
 667 026d 77010000 		.4byte	.LASF38
 668 0271 01       		.byte	0x1
 669 0272 75       		.byte	0x75
 670 0273 01       		.byte	0x1
 671 0274 0A000000 		.4byte	.LFB39
 672 0278 0C000000 		.4byte	.LFE39
 673 027c 02       		.byte	0x2
 674 027d 7D       		.byte	0x7d
 675 027e 00       		.sleb128 0
 676 027f 01       		.byte	0x1
 677 0280 0E       		.uleb128 0xe
 678 0281 01       		.byte	0x1
 679 0282 88010000 		.4byte	.LASF39
 680 0286 01       		.byte	0x1
 681 0287 9E       		.byte	0x9e
 682 0288 01       		.byte	0x1
 683 0289 0C000000 		.4byte	.LFB40
 684 028d 0E000000 		.4byte	.LFE40
 685 0291 02       		.byte	0x2
 686 0292 7D       		.byte	0x7d
 687 0293 00       		.sleb128 0
 688 0294 01       		.byte	0x1
 689 0295 0E       		.uleb128 0xe
 690 0296 01       		.byte	0x1
 691 0297 99010000 		.4byte	.LASF40
 692 029b 01       		.byte	0x1
 693 029c A2       		.byte	0xa2
 694 029d 01       		.byte	0x1
 695 029e 0E000000 		.4byte	.LFB41
 696 02a2 10000000 		.4byte	.LFE41
 697 02a6 02       		.byte	0x2
 698 02a7 7D       		.byte	0x7d
 699 02a8 00       		.sleb128 0
 700 02a9 01       		.byte	0x1
 701 02aa 0E       		.uleb128 0xe
 702 02ab 01       		.byte	0x1
 703 02ac 54030000 		.4byte	.LASF41
 704 02b0 01       		.byte	0x1
 705 02b1 A6       		.byte	0xa6
 706 02b2 01       		.byte	0x1
 707 02b3 10000000 		.4byte	.LFB42
 708 02b7 12000000 		.4byte	.LFE42
 709 02bb 02       		.byte	0x2
 710 02bc 7D       		.byte	0x7d
 711 02bd 00       		.sleb128 0
 712 02be 01       		.byte	0x1
 713 02bf 0F       		.uleb128 0xf
 714 02c0 01       		.byte	0x1
 715 02c1 CF020000 		.4byte	.LASF53
 716 02c5 01       		.byte	0x1
 717 02c6 AA       		.byte	0xaa
ARM GAS  /var/folders/yt/6z6x8bjn5sjf5fbb45bk5m4c0000gn/T//ccEYHw5O.s 			page 17


 718 02c7 01       		.byte	0x1
 719 02c8 12000000 		.4byte	.LFB43
 720 02cc 98000000 		.4byte	.LFE43
 721 02d0 00000000 		.4byte	.LLST0
 722 02d4 01       		.byte	0x1
 723 02d5 AA030000 		.4byte	0x3aa
 724 02d9 10       		.uleb128 0x10
 725 02da C3010000 		.4byte	.LASF42
 726 02de 01       		.byte	0x1
 727 02df AC       		.byte	0xac
 728 02e0 57000000 		.4byte	0x57
 729 02e4 02       		.byte	0x2
 730 02e5 91       		.byte	0x91
 731 02e6 74       		.sleb128 -12
 732 02e7 11       		.uleb128 0x11
 733 02e8 636800   		.ascii	"ch\000"
 734 02eb 01       		.byte	0x1
 735 02ec AD       		.byte	0xad
 736 02ed 8C000000 		.4byte	0x8c
 737 02f1 02       		.byte	0x2
 738 02f2 91       		.byte	0x91
 739 02f3 73       		.sleb128 -13
 740 02f4 12       		.uleb128 0x12
 741 02f5 22000000 		.4byte	.LVL0
 742 02f9 D7030000 		.4byte	0x3d7
 743 02fd 12030000 		.4byte	0x312
 744 0301 13       		.uleb128 0x13
 745 0302 01       		.byte	0x1
 746 0303 51       		.byte	0x51
 747 0304 03       		.byte	0x3
 748 0305 0A       		.byte	0xa
 749 0306 2505     		.2byte	0x525
 750 0308 13       		.uleb128 0x13
 751 0309 01       		.byte	0x1
 752 030a 50       		.byte	0x50
 753 030b 05       		.byte	0x5
 754 030c 0C       		.byte	0xc
 755 030d 00380140 		.4byte	0x40013800
 756 0311 00       		.byte	0
 757 0312 12       		.uleb128 0x12
 758 0313 2A000000 		.4byte	.LVL1
 759 0317 FB030000 		.4byte	0x3fb
 760 031b 29030000 		.4byte	0x329
 761 031f 13       		.uleb128 0x13
 762 0320 01       		.byte	0x1
 763 0321 50       		.byte	0x50
 764 0322 05       		.byte	0x5
 765 0323 0C       		.byte	0xc
 766 0324 00380140 		.4byte	0x40013800
 767 0328 00       		.byte	0
 768 0329 12       		.uleb128 0x12
 769 032a 3C000000 		.4byte	.LVL2
 770 032e 14040000 		.4byte	0x414
 771 0332 49030000 		.4byte	0x349
 772 0336 13       		.uleb128 0x13
 773 0337 01       		.byte	0x1
 774 0338 53       		.byte	0x53
ARM GAS  /var/folders/yt/6z6x8bjn5sjf5fbb45bk5m4c0000gn/T//ccEYHw5O.s 			page 18


 775 0339 02       		.byte	0x2
 776 033a 74       		.byte	0x74
 777 033b 00       		.sleb128 0
 778 033c 13       		.uleb128 0x13
 779 033d 01       		.byte	0x1
 780 033e 52       		.byte	0x52
 781 033f 02       		.byte	0x2
 782 0340 91       		.byte	0x91
 783 0341 74       		.sleb128 -12
 784 0342 13       		.uleb128 0x13
 785 0343 01       		.byte	0x1
 786 0344 51       		.byte	0x51
 787 0345 02       		.byte	0x2
 788 0346 91       		.byte	0x91
 789 0347 73       		.sleb128 -13
 790 0348 00       		.byte	0
 791 0349 12       		.uleb128 0x12
 792 034a 46000000 		.4byte	.LVL3
 793 034e D7030000 		.4byte	0x3d7
 794 0352 67030000 		.4byte	0x367
 795 0356 13       		.uleb128 0x13
 796 0357 01       		.byte	0x1
 797 0358 51       		.byte	0x51
 798 0359 03       		.byte	0x3
 799 035a 0A       		.byte	0xa
 800 035b 2707     		.2byte	0x727
 801 035d 13       		.uleb128 0x13
 802 035e 01       		.byte	0x1
 803 035f 50       		.byte	0x50
 804 0360 05       		.byte	0x5
 805 0361 0C       		.byte	0xc
 806 0362 00380140 		.4byte	0x40013800
 807 0366 00       		.byte	0
 808 0367 12       		.uleb128 0x12
 809 0368 56000000 		.4byte	.LVL4
 810 036c 58040000 		.4byte	0x458
 811 0370 81030000 		.4byte	0x381
 812 0374 13       		.uleb128 0x13
 813 0375 01       		.byte	0x1
 814 0376 52       		.byte	0x52
 815 0377 02       		.byte	0x2
 816 0378 91       		.byte	0x91
 817 0379 74       		.sleb128 -12
 818 037a 13       		.uleb128 0x13
 819 037b 01       		.byte	0x1
 820 037c 51       		.byte	0x51
 821 037d 02       		.byte	0x2
 822 037e 91       		.byte	0x91
 823 037f 73       		.sleb128 -13
 824 0380 00       		.byte	0
 825 0381 12       		.uleb128 0x12
 826 0382 64000000 		.4byte	.LVL5
 827 0386 80040000 		.4byte	0x480
 828 038a 98030000 		.4byte	0x398
 829 038e 13       		.uleb128 0x13
 830 038f 01       		.byte	0x1
 831 0390 50       		.byte	0x50
ARM GAS  /var/folders/yt/6z6x8bjn5sjf5fbb45bk5m4c0000gn/T//ccEYHw5O.s 			page 19


 832 0391 05       		.byte	0x5
 833 0392 0C       		.byte	0xc
 834 0393 00380140 		.4byte	0x40013800
 835 0397 00       		.byte	0
 836 0398 14       		.uleb128 0x14
 837 0399 6E000000 		.4byte	.LVL6
 838 039d 9A040000 		.4byte	0x49a
 839 03a1 13       		.uleb128 0x13
 840 03a2 01       		.byte	0x1
 841 03a3 51       		.byte	0x51
 842 03a4 03       		.byte	0x3
 843 03a5 0A       		.byte	0xa
 844 03a6 2707     		.2byte	0x727
 845 03a8 00       		.byte	0
 846 03a9 00       		.byte	0
 847 03aa 15       		.uleb128 0x15
 848 03ab 69030000 		.4byte	.LASF43
 849 03af 07       		.byte	0x7
 850 03b0 CF06     		.2byte	0x6cf
 851 03b2 B8030000 		.4byte	0x3b8
 852 03b6 01       		.byte	0x1
 853 03b7 01       		.byte	0x1
 854 03b8 05       		.uleb128 0x5
 855 03b9 7E000000 		.4byte	0x7e
 856 03bd 16       		.uleb128 0x16
 857 03be F8020000 		.4byte	.LASF44
 858 03c2 08       		.byte	0x8
 859 03c3 16       		.byte	0x16
 860 03c4 F7010000 		.4byte	0x1f7
 861 03c8 01       		.byte	0x1
 862 03c9 01       		.byte	0x1
 863 03ca 16       		.uleb128 0x16
 864 03cb 76030000 		.4byte	.LASF45
 865 03cf 08       		.byte	0x8
 866 03d0 16       		.byte	0x16
 867 03d1 F7010000 		.4byte	0x1f7
 868 03d5 01       		.byte	0x1
 869 03d6 01       		.byte	0x1
 870 03d7 17       		.uleb128 0x17
 871 03d8 01       		.byte	0x1
 872 03d9 58020000 		.4byte	.LASF46
 873 03dd 09       		.byte	0x9
 874 03de 8801     		.2byte	0x188
 875 03e0 01       		.byte	0x1
 876 03e1 CF000000 		.4byte	0xcf
 877 03e5 01       		.byte	0x1
 878 03e6 F5030000 		.4byte	0x3f5
 879 03ea 18       		.uleb128 0x18
 880 03eb F5030000 		.4byte	0x3f5
 881 03ef 18       		.uleb128 0x18
 882 03f0 97000000 		.4byte	0x97
 883 03f4 00       		.byte	0
 884 03f5 19       		.uleb128 0x19
 885 03f6 04       		.byte	0x4
 886 03f7 D7010000 		.4byte	0x1d7
 887 03fb 17       		.uleb128 0x17
 888 03fc 01       		.byte	0x1
ARM GAS  /var/folders/yt/6z6x8bjn5sjf5fbb45bk5m4c0000gn/T//ccEYHw5O.s 			page 20


 889 03fd 30030000 		.4byte	.LASF47
 890 0401 09       		.byte	0x9
 891 0402 7B01     		.2byte	0x17b
 892 0404 01       		.byte	0x1
 893 0405 97000000 		.4byte	0x97
 894 0409 01       		.byte	0x1
 895 040a 14040000 		.4byte	0x414
 896 040e 18       		.uleb128 0x18
 897 040f F5030000 		.4byte	0x3f5
 898 0413 00       		.byte	0
 899 0414 17       		.uleb128 0x17
 900 0415 01       		.byte	0x1
 901 0416 3A020000 		.4byte	.LASF48
 902 041a 06       		.byte	0x6
 903 041b A005     		.2byte	0x5a0
 904 041d 01       		.byte	0x1
 905 041e E5010000 		.4byte	0x1e5
 906 0422 01       		.byte	0x1
 907 0423 3C040000 		.4byte	0x43c
 908 0427 18       		.uleb128 0x18
 909 0428 F7010000 		.4byte	0x1f7
 910 042c 18       		.uleb128 0x18
 911 042d 3C040000 		.4byte	0x43c
 912 0431 18       		.uleb128 0x18
 913 0432 48040000 		.4byte	0x448
 914 0436 18       		.uleb128 0x18
 915 0437 53040000 		.4byte	0x453
 916 043b 00       		.byte	0
 917 043c 1A       		.uleb128 0x1a
 918 043d 41040000 		.4byte	0x441
 919 0441 19       		.uleb128 0x19
 920 0442 04       		.byte	0x4
 921 0443 47040000 		.4byte	0x447
 922 0447 1B       		.uleb128 0x1b
 923 0448 1A       		.uleb128 0x1a
 924 0449 4D040000 		.4byte	0x44d
 925 044d 19       		.uleb128 0x19
 926 044e 04       		.byte	0x4
 927 044f E5010000 		.4byte	0x1e5
 928 0453 1A       		.uleb128 0x1a
 929 0454 E5010000 		.4byte	0x1e5
 930 0458 17       		.uleb128 0x17
 931 0459 01       		.byte	0x1
 932 045a F6000000 		.4byte	.LASF49
 933 045e 06       		.byte	0x6
 934 045f FA05     		.2byte	0x5fa
 935 0461 01       		.byte	0x1
 936 0462 E5010000 		.4byte	0x1e5
 937 0466 01       		.byte	0x1
 938 0467 7B040000 		.4byte	0x47b
 939 046b 18       		.uleb128 0x18
 940 046c F7010000 		.4byte	0x1f7
 941 0470 18       		.uleb128 0x18
 942 0471 7B040000 		.4byte	0x47b
 943 0475 18       		.uleb128 0x18
 944 0476 48040000 		.4byte	0x448
 945 047a 00       		.byte	0
ARM GAS  /var/folders/yt/6z6x8bjn5sjf5fbb45bk5m4c0000gn/T//ccEYHw5O.s 			page 21


 946 047b 1A       		.uleb128 0x1a
 947 047c E3010000 		.4byte	0x1e3
 948 0480 1C       		.uleb128 0x1c
 949 0481 01       		.byte	0x1
 950 0482 DF000000 		.4byte	.LASF54
 951 0486 09       		.byte	0x9
 952 0487 7A01     		.2byte	0x17a
 953 0489 01       		.byte	0x1
 954 048a 01       		.byte	0x1
 955 048b 9A040000 		.4byte	0x49a
 956 048f 18       		.uleb128 0x18
 957 0490 F5030000 		.4byte	0x3f5
 958 0494 18       		.uleb128 0x18
 959 0495 97000000 		.4byte	0x97
 960 0499 00       		.byte	0
 961 049a 1D       		.uleb128 0x1d
 962 049b 01       		.byte	0x1
 963 049c 18020000 		.4byte	.LASF55
 964 04a0 09       		.byte	0x9
 965 04a1 7301     		.2byte	0x173
 966 04a3 01       		.byte	0x1
 967 04a4 01       		.byte	0x1
 968 04a5 18       		.uleb128 0x18
 969 04a6 F5030000 		.4byte	0x3f5
 970 04aa 18       		.uleb128 0x18
 971 04ab 97000000 		.4byte	0x97
 972 04af 18       		.uleb128 0x18
 973 04b0 F1000000 		.4byte	0xf1
 974 04b4 00       		.byte	0
 975 04b5 00       		.byte	0
 976              		.section	.debug_abbrev,"",%progbits
 977              	.Ldebug_abbrev0:
 978 0000 01       		.uleb128 0x1
 979 0001 11       		.uleb128 0x11
 980 0002 01       		.byte	0x1
 981 0003 25       		.uleb128 0x25
 982 0004 0E       		.uleb128 0xe
 983 0005 13       		.uleb128 0x13
 984 0006 0B       		.uleb128 0xb
 985 0007 03       		.uleb128 0x3
 986 0008 0E       		.uleb128 0xe
 987 0009 1B       		.uleb128 0x1b
 988 000a 0E       		.uleb128 0xe
 989 000b 11       		.uleb128 0x11
 990 000c 01       		.uleb128 0x1
 991 000d 12       		.uleb128 0x12
 992 000e 01       		.uleb128 0x1
 993 000f 10       		.uleb128 0x10
 994 0010 06       		.uleb128 0x6
 995 0011 00       		.byte	0
 996 0012 00       		.byte	0
 997 0013 02       		.uleb128 0x2
 998 0014 24       		.uleb128 0x24
 999 0015 00       		.byte	0
 1000 0016 0B       		.uleb128 0xb
 1001 0017 0B       		.uleb128 0xb
 1002 0018 3E       		.uleb128 0x3e
ARM GAS  /var/folders/yt/6z6x8bjn5sjf5fbb45bk5m4c0000gn/T//ccEYHw5O.s 			page 22


 1003 0019 0B       		.uleb128 0xb
 1004 001a 03       		.uleb128 0x3
 1005 001b 0E       		.uleb128 0xe
 1006 001c 00       		.byte	0
 1007 001d 00       		.byte	0
 1008 001e 03       		.uleb128 0x3
 1009 001f 16       		.uleb128 0x16
 1010 0020 00       		.byte	0
 1011 0021 03       		.uleb128 0x3
 1012 0022 0E       		.uleb128 0xe
 1013 0023 3A       		.uleb128 0x3a
 1014 0024 0B       		.uleb128 0xb
 1015 0025 3B       		.uleb128 0x3b
 1016 0026 0B       		.uleb128 0xb
 1017 0027 49       		.uleb128 0x49
 1018 0028 13       		.uleb128 0x13
 1019 0029 00       		.byte	0
 1020 002a 00       		.byte	0
 1021 002b 04       		.uleb128 0x4
 1022 002c 24       		.uleb128 0x24
 1023 002d 00       		.byte	0
 1024 002e 0B       		.uleb128 0xb
 1025 002f 0B       		.uleb128 0xb
 1026 0030 3E       		.uleb128 0x3e
 1027 0031 0B       		.uleb128 0xb
 1028 0032 03       		.uleb128 0x3
 1029 0033 08       		.uleb128 0x8
 1030 0034 00       		.byte	0
 1031 0035 00       		.byte	0
 1032 0036 05       		.uleb128 0x5
 1033 0037 35       		.uleb128 0x35
 1034 0038 00       		.byte	0
 1035 0039 49       		.uleb128 0x49
 1036 003a 13       		.uleb128 0x13
 1037 003b 00       		.byte	0
 1038 003c 00       		.byte	0
 1039 003d 06       		.uleb128 0x6
 1040 003e 04       		.uleb128 0x4
 1041 003f 01       		.byte	0x1
 1042 0040 0B       		.uleb128 0xb
 1043 0041 0B       		.uleb128 0xb
 1044 0042 3A       		.uleb128 0x3a
 1045 0043 0B       		.uleb128 0xb
 1046 0044 3B       		.uleb128 0x3b
 1047 0045 05       		.uleb128 0x5
 1048 0046 01       		.uleb128 0x1
 1049 0047 13       		.uleb128 0x13
 1050 0048 00       		.byte	0
 1051 0049 00       		.byte	0
 1052 004a 07       		.uleb128 0x7
 1053 004b 28       		.uleb128 0x28
 1054 004c 00       		.byte	0
 1055 004d 03       		.uleb128 0x3
 1056 004e 0E       		.uleb128 0xe
 1057 004f 1C       		.uleb128 0x1c
 1058 0050 0D       		.uleb128 0xd
 1059 0051 00       		.byte	0
ARM GAS  /var/folders/yt/6z6x8bjn5sjf5fbb45bk5m4c0000gn/T//ccEYHw5O.s 			page 23


 1060 0052 00       		.byte	0
 1061 0053 08       		.uleb128 0x8
 1062 0054 28       		.uleb128 0x28
 1063 0055 00       		.byte	0
 1064 0056 03       		.uleb128 0x3
 1065 0057 08       		.uleb128 0x8
 1066 0058 1C       		.uleb128 0x1c
 1067 0059 0D       		.uleb128 0xd
 1068 005a 00       		.byte	0
 1069 005b 00       		.byte	0
 1070 005c 09       		.uleb128 0x9
 1071 005d 16       		.uleb128 0x16
 1072 005e 00       		.byte	0
 1073 005f 03       		.uleb128 0x3
 1074 0060 0E       		.uleb128 0xe
 1075 0061 3A       		.uleb128 0x3a
 1076 0062 0B       		.uleb128 0xb
 1077 0063 3B       		.uleb128 0x3b
 1078 0064 05       		.uleb128 0x5
 1079 0065 49       		.uleb128 0x49
 1080 0066 13       		.uleb128 0x13
 1081 0067 00       		.byte	0
 1082 0068 00       		.byte	0
 1083 0069 0A       		.uleb128 0xa
 1084 006a 13       		.uleb128 0x13
 1085 006b 01       		.byte	0x1
 1086 006c 0B       		.uleb128 0xb
 1087 006d 0B       		.uleb128 0xb
 1088 006e 3A       		.uleb128 0x3a
 1089 006f 0B       		.uleb128 0xb
 1090 0070 3B       		.uleb128 0x3b
 1091 0071 05       		.uleb128 0x5
 1092 0072 01       		.uleb128 0x1
 1093 0073 13       		.uleb128 0x13
 1094 0074 00       		.byte	0
 1095 0075 00       		.byte	0
 1096 0076 0B       		.uleb128 0xb
 1097 0077 0D       		.uleb128 0xd
 1098 0078 00       		.byte	0
 1099 0079 03       		.uleb128 0x3
 1100 007a 08       		.uleb128 0x8
 1101 007b 3A       		.uleb128 0x3a
 1102 007c 0B       		.uleb128 0xb
 1103 007d 3B       		.uleb128 0x3b
 1104 007e 05       		.uleb128 0x5
 1105 007f 49       		.uleb128 0x49
 1106 0080 13       		.uleb128 0x13
 1107 0081 38       		.uleb128 0x38
 1108 0082 0A       		.uleb128 0xa
 1109 0083 00       		.byte	0
 1110 0084 00       		.byte	0
 1111 0085 0C       		.uleb128 0xc
 1112 0086 0D       		.uleb128 0xd
 1113 0087 00       		.byte	0
 1114 0088 03       		.uleb128 0x3
 1115 0089 0E       		.uleb128 0xe
 1116 008a 3A       		.uleb128 0x3a
ARM GAS  /var/folders/yt/6z6x8bjn5sjf5fbb45bk5m4c0000gn/T//ccEYHw5O.s 			page 24


 1117 008b 0B       		.uleb128 0xb
 1118 008c 3B       		.uleb128 0x3b
 1119 008d 05       		.uleb128 0x5
 1120 008e 49       		.uleb128 0x49
 1121 008f 13       		.uleb128 0x13
 1122 0090 38       		.uleb128 0x38
 1123 0091 0A       		.uleb128 0xa
 1124 0092 00       		.byte	0
 1125 0093 00       		.byte	0
 1126 0094 0D       		.uleb128 0xd
 1127 0095 0F       		.uleb128 0xf
 1128 0096 00       		.byte	0
 1129 0097 0B       		.uleb128 0xb
 1130 0098 0B       		.uleb128 0xb
 1131 0099 00       		.byte	0
 1132 009a 00       		.byte	0
 1133 009b 0E       		.uleb128 0xe
 1134 009c 2E       		.uleb128 0x2e
 1135 009d 00       		.byte	0
 1136 009e 3F       		.uleb128 0x3f
 1137 009f 0C       		.uleb128 0xc
 1138 00a0 03       		.uleb128 0x3
 1139 00a1 0E       		.uleb128 0xe
 1140 00a2 3A       		.uleb128 0x3a
 1141 00a3 0B       		.uleb128 0xb
 1142 00a4 3B       		.uleb128 0x3b
 1143 00a5 0B       		.uleb128 0xb
 1144 00a6 27       		.uleb128 0x27
 1145 00a7 0C       		.uleb128 0xc
 1146 00a8 11       		.uleb128 0x11
 1147 00a9 01       		.uleb128 0x1
 1148 00aa 12       		.uleb128 0x12
 1149 00ab 01       		.uleb128 0x1
 1150 00ac 40       		.uleb128 0x40
 1151 00ad 0A       		.uleb128 0xa
 1152 00ae 9742     		.uleb128 0x2117
 1153 00b0 0C       		.uleb128 0xc
 1154 00b1 00       		.byte	0
 1155 00b2 00       		.byte	0
 1156 00b3 0F       		.uleb128 0xf
 1157 00b4 2E       		.uleb128 0x2e
 1158 00b5 01       		.byte	0x1
 1159 00b6 3F       		.uleb128 0x3f
 1160 00b7 0C       		.uleb128 0xc
 1161 00b8 03       		.uleb128 0x3
 1162 00b9 0E       		.uleb128 0xe
 1163 00ba 3A       		.uleb128 0x3a
 1164 00bb 0B       		.uleb128 0xb
 1165 00bc 3B       		.uleb128 0x3b
 1166 00bd 0B       		.uleb128 0xb
 1167 00be 27       		.uleb128 0x27
 1168 00bf 0C       		.uleb128 0xc
 1169 00c0 11       		.uleb128 0x11
 1170 00c1 01       		.uleb128 0x1
 1171 00c2 12       		.uleb128 0x12
 1172 00c3 01       		.uleb128 0x1
 1173 00c4 40       		.uleb128 0x40
ARM GAS  /var/folders/yt/6z6x8bjn5sjf5fbb45bk5m4c0000gn/T//ccEYHw5O.s 			page 25


 1174 00c5 06       		.uleb128 0x6
 1175 00c6 9742     		.uleb128 0x2117
 1176 00c8 0C       		.uleb128 0xc
 1177 00c9 01       		.uleb128 0x1
 1178 00ca 13       		.uleb128 0x13
 1179 00cb 00       		.byte	0
 1180 00cc 00       		.byte	0
 1181 00cd 10       		.uleb128 0x10
 1182 00ce 34       		.uleb128 0x34
 1183 00cf 00       		.byte	0
 1184 00d0 03       		.uleb128 0x3
 1185 00d1 0E       		.uleb128 0xe
 1186 00d2 3A       		.uleb128 0x3a
 1187 00d3 0B       		.uleb128 0xb
 1188 00d4 3B       		.uleb128 0x3b
 1189 00d5 0B       		.uleb128 0xb
 1190 00d6 49       		.uleb128 0x49
 1191 00d7 13       		.uleb128 0x13
 1192 00d8 02       		.uleb128 0x2
 1193 00d9 0A       		.uleb128 0xa
 1194 00da 00       		.byte	0
 1195 00db 00       		.byte	0
 1196 00dc 11       		.uleb128 0x11
 1197 00dd 34       		.uleb128 0x34
 1198 00de 00       		.byte	0
 1199 00df 03       		.uleb128 0x3
 1200 00e0 08       		.uleb128 0x8
 1201 00e1 3A       		.uleb128 0x3a
 1202 00e2 0B       		.uleb128 0xb
 1203 00e3 3B       		.uleb128 0x3b
 1204 00e4 0B       		.uleb128 0xb
 1205 00e5 49       		.uleb128 0x49
 1206 00e6 13       		.uleb128 0x13
 1207 00e7 02       		.uleb128 0x2
 1208 00e8 0A       		.uleb128 0xa
 1209 00e9 00       		.byte	0
 1210 00ea 00       		.byte	0
 1211 00eb 12       		.uleb128 0x12
 1212 00ec 898201   		.uleb128 0x4109
 1213 00ef 01       		.byte	0x1
 1214 00f0 11       		.uleb128 0x11
 1215 00f1 01       		.uleb128 0x1
 1216 00f2 31       		.uleb128 0x31
 1217 00f3 13       		.uleb128 0x13
 1218 00f4 01       		.uleb128 0x1
 1219 00f5 13       		.uleb128 0x13
 1220 00f6 00       		.byte	0
 1221 00f7 00       		.byte	0
 1222 00f8 13       		.uleb128 0x13
 1223 00f9 8A8201   		.uleb128 0x410a
 1224 00fc 00       		.byte	0
 1225 00fd 02       		.uleb128 0x2
 1226 00fe 0A       		.uleb128 0xa
 1227 00ff 9142     		.uleb128 0x2111
 1228 0101 0A       		.uleb128 0xa
 1229 0102 00       		.byte	0
 1230 0103 00       		.byte	0
ARM GAS  /var/folders/yt/6z6x8bjn5sjf5fbb45bk5m4c0000gn/T//ccEYHw5O.s 			page 26


 1231 0104 14       		.uleb128 0x14
 1232 0105 898201   		.uleb128 0x4109
 1233 0108 01       		.byte	0x1
 1234 0109 11       		.uleb128 0x11
 1235 010a 01       		.uleb128 0x1
 1236 010b 31       		.uleb128 0x31
 1237 010c 13       		.uleb128 0x13
 1238 010d 00       		.byte	0
 1239 010e 00       		.byte	0
 1240 010f 15       		.uleb128 0x15
 1241 0110 34       		.uleb128 0x34
 1242 0111 00       		.byte	0
 1243 0112 03       		.uleb128 0x3
 1244 0113 0E       		.uleb128 0xe
 1245 0114 3A       		.uleb128 0x3a
 1246 0115 0B       		.uleb128 0xb
 1247 0116 3B       		.uleb128 0x3b
 1248 0117 05       		.uleb128 0x5
 1249 0118 49       		.uleb128 0x49
 1250 0119 13       		.uleb128 0x13
 1251 011a 3F       		.uleb128 0x3f
 1252 011b 0C       		.uleb128 0xc
 1253 011c 3C       		.uleb128 0x3c
 1254 011d 0C       		.uleb128 0xc
 1255 011e 00       		.byte	0
 1256 011f 00       		.byte	0
 1257 0120 16       		.uleb128 0x16
 1258 0121 34       		.uleb128 0x34
 1259 0122 00       		.byte	0
 1260 0123 03       		.uleb128 0x3
 1261 0124 0E       		.uleb128 0xe
 1262 0125 3A       		.uleb128 0x3a
 1263 0126 0B       		.uleb128 0xb
 1264 0127 3B       		.uleb128 0x3b
 1265 0128 0B       		.uleb128 0xb
 1266 0129 49       		.uleb128 0x49
 1267 012a 13       		.uleb128 0x13
 1268 012b 3F       		.uleb128 0x3f
 1269 012c 0C       		.uleb128 0xc
 1270 012d 3C       		.uleb128 0x3c
 1271 012e 0C       		.uleb128 0xc
 1272 012f 00       		.byte	0
 1273 0130 00       		.byte	0
 1274 0131 17       		.uleb128 0x17
 1275 0132 2E       		.uleb128 0x2e
 1276 0133 01       		.byte	0x1
 1277 0134 3F       		.uleb128 0x3f
 1278 0135 0C       		.uleb128 0xc
 1279 0136 03       		.uleb128 0x3
 1280 0137 0E       		.uleb128 0xe
 1281 0138 3A       		.uleb128 0x3a
 1282 0139 0B       		.uleb128 0xb
 1283 013a 3B       		.uleb128 0x3b
 1284 013b 05       		.uleb128 0x5
 1285 013c 27       		.uleb128 0x27
 1286 013d 0C       		.uleb128 0xc
 1287 013e 49       		.uleb128 0x49
ARM GAS  /var/folders/yt/6z6x8bjn5sjf5fbb45bk5m4c0000gn/T//ccEYHw5O.s 			page 27


 1288 013f 13       		.uleb128 0x13
 1289 0140 3C       		.uleb128 0x3c
 1290 0141 0C       		.uleb128 0xc
 1291 0142 01       		.uleb128 0x1
 1292 0143 13       		.uleb128 0x13
 1293 0144 00       		.byte	0
 1294 0145 00       		.byte	0
 1295 0146 18       		.uleb128 0x18
 1296 0147 05       		.uleb128 0x5
 1297 0148 00       		.byte	0
 1298 0149 49       		.uleb128 0x49
 1299 014a 13       		.uleb128 0x13
 1300 014b 00       		.byte	0
 1301 014c 00       		.byte	0
 1302 014d 19       		.uleb128 0x19
 1303 014e 0F       		.uleb128 0xf
 1304 014f 00       		.byte	0
 1305 0150 0B       		.uleb128 0xb
 1306 0151 0B       		.uleb128 0xb
 1307 0152 49       		.uleb128 0x49
 1308 0153 13       		.uleb128 0x13
 1309 0154 00       		.byte	0
 1310 0155 00       		.byte	0
 1311 0156 1A       		.uleb128 0x1a
 1312 0157 26       		.uleb128 0x26
 1313 0158 00       		.byte	0
 1314 0159 49       		.uleb128 0x49
 1315 015a 13       		.uleb128 0x13
 1316 015b 00       		.byte	0
 1317 015c 00       		.byte	0
 1318 015d 1B       		.uleb128 0x1b
 1319 015e 26       		.uleb128 0x26
 1320 015f 00       		.byte	0
 1321 0160 00       		.byte	0
 1322 0161 00       		.byte	0
 1323 0162 1C       		.uleb128 0x1c
 1324 0163 2E       		.uleb128 0x2e
 1325 0164 01       		.byte	0x1
 1326 0165 3F       		.uleb128 0x3f
 1327 0166 0C       		.uleb128 0xc
 1328 0167 03       		.uleb128 0x3
 1329 0168 0E       		.uleb128 0xe
 1330 0169 3A       		.uleb128 0x3a
 1331 016a 0B       		.uleb128 0xb
 1332 016b 3B       		.uleb128 0x3b
 1333 016c 05       		.uleb128 0x5
 1334 016d 27       		.uleb128 0x27
 1335 016e 0C       		.uleb128 0xc
 1336 016f 3C       		.uleb128 0x3c
 1337 0170 0C       		.uleb128 0xc
 1338 0171 01       		.uleb128 0x1
 1339 0172 13       		.uleb128 0x13
 1340 0173 00       		.byte	0
 1341 0174 00       		.byte	0
 1342 0175 1D       		.uleb128 0x1d
 1343 0176 2E       		.uleb128 0x2e
 1344 0177 01       		.byte	0x1
ARM GAS  /var/folders/yt/6z6x8bjn5sjf5fbb45bk5m4c0000gn/T//ccEYHw5O.s 			page 28


 1345 0178 3F       		.uleb128 0x3f
 1346 0179 0C       		.uleb128 0xc
 1347 017a 03       		.uleb128 0x3
 1348 017b 0E       		.uleb128 0xe
 1349 017c 3A       		.uleb128 0x3a
 1350 017d 0B       		.uleb128 0xb
 1351 017e 3B       		.uleb128 0x3b
 1352 017f 05       		.uleb128 0x5
 1353 0180 27       		.uleb128 0x27
 1354 0181 0C       		.uleb128 0xc
 1355 0182 3C       		.uleb128 0x3c
 1356 0183 0C       		.uleb128 0xc
 1357 0184 00       		.byte	0
 1358 0185 00       		.byte	0
 1359 0186 00       		.byte	0
 1360              		.section	.debug_loc,"",%progbits
 1361              	.Ldebug_loc0:
 1362              	.LLST0:
 1363 0000 12000000 		.4byte	.LFB43-.Ltext0
 1364 0004 14000000 		.4byte	.LCFI0-.Ltext0
 1365 0008 0200     		.2byte	0x2
 1366 000a 7D       		.byte	0x7d
 1367 000b 00       		.sleb128 0
 1368 000c 14000000 		.4byte	.LCFI0-.Ltext0
 1369 0010 84000000 		.4byte	.LCFI1-.Ltext0
 1370 0014 0200     		.2byte	0x2
 1371 0016 7D       		.byte	0x7d
 1372 0017 10       		.sleb128 16
 1373 0018 84000000 		.4byte	.LCFI1-.Ltext0
 1374 001c 98000000 		.4byte	.LFE43-.Ltext0
 1375 0020 0200     		.2byte	0x2
 1376 0022 7D       		.byte	0x7d
 1377 0023 08       		.sleb128 8
 1378 0024 00000000 		.4byte	0
 1379 0028 00000000 		.4byte	0
 1380              		.section	.debug_aranges,"",%progbits
 1381 0000 1C000000 		.4byte	0x1c
 1382 0004 0200     		.2byte	0x2
 1383 0006 00000000 		.4byte	.Ldebug_info0
 1384 000a 04       		.byte	0x4
 1385 000b 00       		.byte	0
 1386 000c 0000     		.2byte	0
 1387 000e 0000     		.2byte	0
 1388 0010 00000000 		.4byte	.Ltext0
 1389 0014 98000000 		.4byte	.Letext0-.Ltext0
 1390 0018 00000000 		.4byte	0
 1391 001c 00000000 		.4byte	0
 1392              		.section	.debug_line,"",%progbits
 1393              	.Ldebug_line0:
 1394 0000 5B020000 		.section	.debug_str,"MS",%progbits,1
 1394      02000502 
 1394      00000201 
 1394      FB0E0D00 
 1394      01010101 
 1395              	.LASF27:
 1396 0000 47545052 		.ascii	"GTPR\000"
 1396      00
ARM GAS  /var/folders/yt/6z6x8bjn5sjf5fbb45bk5m4c0000gn/T//ccEYHw5O.s 			page 29


 1397              	.LASF37:
 1398 0005 55736167 		.ascii	"UsageFault_Handler\000"
 1398      65466175 
 1398      6C745F48 
 1398      616E646C 
 1398      657200
 1399              	.LASF15:
 1400 0018 73697A65 		.ascii	"sizetype\000"
 1400      74797065 
 1400      00
 1401              	.LASF33:
 1402 0021 4E4D495F 		.ascii	"NMI_Handler\000"
 1402      48616E64 
 1402      6C657200 
 1403              	.LASF7:
 1404 002d 5F5F7569 		.ascii	"__uint32_t\000"
 1404      6E743332 
 1404      5F7400
 1405              	.LASF4:
 1406 0038 5F5F7569 		.ascii	"__uint16_t\000"
 1406      6E743136 
 1406      5F7400
 1407              	.LASF29:
 1408 0043 55534152 		.ascii	"USART_TypeDef\000"
 1408      545F5479 
 1408      70654465 
 1408      6600
 1409              	.LASF50:
 1410 0051 474E5520 		.ascii	"GNU C 4.9.3 20150529 (release) [ARM/embedded-4_9-br"
 1410      4320342E 
 1410      392E3320 
 1410      32303135 
 1410      30353239 
 1411 0084 616E6368 		.ascii	"anch revision 227977] -mcpu=cortex-m3 -mthumb -gdwa"
 1411      20726576 
 1411      6973696F 
 1411      6E203232 
 1411      37393737 
 1412 00b7 72662D32 		.ascii	"rf-2 -Os -fomit-frame-pointer\000"
 1412      202D4F73 
 1412      202D666F 
 1412      6D69742D 
 1412      6672616D 
 1413              	.LASF2:
 1414 00d5 73686F72 		.ascii	"short int\000"
 1414      7420696E 
 1414      7400
 1415              	.LASF54:
 1416 00df 55534152 		.ascii	"USART_SendData\000"
 1416      545F5365 
 1416      6E644461 
 1416      746100
 1417              	.LASF12:
 1418 00ee 75696E74 		.ascii	"uint8_t\000"
 1418      385F7400 
 1419              	.LASF49:
 1420 00f6 78517565 		.ascii	"xQueueReceiveFromISR\000"
ARM GAS  /var/folders/yt/6z6x8bjn5sjf5fbb45bk5m4c0000gn/T//ccEYHw5O.s 			page 30


 1420      75655265 
 1420      63656976 
 1420      6546726F 
 1420      6D495352 
 1421              	.LASF18:
 1422 010b 44495341 		.ascii	"DISABLE\000"
 1422      424C4500 
 1423              	.LASF0:
 1424 0113 7369676E 		.ascii	"signed char\000"
 1424      65642063 
 1424      68617200 
 1425              	.LASF9:
 1426 011f 6C6F6E67 		.ascii	"long long int\000"
 1426      206C6F6E 
 1426      6720696E 
 1426      7400
 1427              	.LASF34:
 1428 012d 48617264 		.ascii	"HardFault_Handler\000"
 1428      4661756C 
 1428      745F4861 
 1428      6E646C65 
 1428      7200
 1429              	.LASF17:
 1430 013f 49545374 		.ascii	"ITStatus\000"
 1430      61747573 
 1430      00
 1431              	.LASF6:
 1432 0148 6C6F6E67 		.ascii	"long int\000"
 1432      20696E74 
 1432      00
 1433              	.LASF3:
 1434 0151 5F5F7569 		.ascii	"__uint8_t\000"
 1434      6E74385F 
 1434      7400
 1435              	.LASF32:
 1436 015b 51756575 		.ascii	"QueueHandle_t\000"
 1436      6548616E 
 1436      646C655F 
 1436      7400
 1437              	.LASF1:
 1438 0169 756E7369 		.ascii	"unsigned char\000"
 1438      676E6564 
 1438      20636861 
 1438      7200
 1439              	.LASF38:
 1440 0177 44656275 		.ascii	"DebugMon_Handler\000"
 1440      674D6F6E 
 1440      5F48616E 
 1440      646C6572 
 1440      00
 1441              	.LASF39:
 1442 0188 45585449 		.ascii	"EXTI3_IRQHandler\000"
 1442      335F4952 
 1442      5148616E 
 1442      646C6572 
 1442      00
 1443              	.LASF40:
ARM GAS  /var/folders/yt/6z6x8bjn5sjf5fbb45bk5m4c0000gn/T//ccEYHw5O.s 			page 31


 1444 0199 45585449 		.ascii	"EXTI9_5_IRQHandler\000"
 1444      395F355F 
 1444      49525148 
 1444      616E646C 
 1444      657200
 1445              	.LASF10:
 1446 01ac 6C6F6E67 		.ascii	"long long unsigned int\000"
 1446      206C6F6E 
 1446      6720756E 
 1446      7369676E 
 1446      65642069 
 1447              	.LASF42:
 1448 01c3 78486967 		.ascii	"xHigherPriorityTaskWoken\000"
 1448      68657250 
 1448      72696F72 
 1448      69747954 
 1448      61736B57 
 1449              	.LASF14:
 1450 01dc 75696E74 		.ascii	"uint32_t\000"
 1450      33325F74 
 1450      00
 1451              	.LASF11:
 1452 01e5 756E7369 		.ascii	"unsigned int\000"
 1452      676E6564 
 1452      20696E74 
 1452      00
 1453              	.LASF13:
 1454 01f2 75696E74 		.ascii	"uint16_t\000"
 1454      31365F74 
 1454      00
 1455              	.LASF30:
 1456 01fb 42617365 		.ascii	"BaseType_t\000"
 1456      54797065 
 1456      5F7400
 1457              	.LASF8:
 1458 0206 6C6F6E67 		.ascii	"long unsigned int\000"
 1458      20756E73 
 1458      69676E65 
 1458      6420696E 
 1458      7400
 1459              	.LASF55:
 1460 0218 55534152 		.ascii	"USART_ITConfig\000"
 1460      545F4954 
 1460      436F6E66 
 1460      696700
 1461              	.LASF5:
 1462 0227 73686F72 		.ascii	"short unsigned int\000"
 1462      7420756E 
 1462      7369676E 
 1462      65642069 
 1462      6E7400
 1463              	.LASF48:
 1464 023a 78517565 		.ascii	"xQueueGenericSendFromISR\000"
 1464      75654765 
 1464      6E657269 
 1464      6353656E 
 1464      6446726F 
ARM GAS  /var/folders/yt/6z6x8bjn5sjf5fbb45bk5m4c0000gn/T//ccEYHw5O.s 			page 32


 1465              	.LASF31:
 1466 0253 63686172 		.ascii	"char\000"
 1466      00
 1467              	.LASF46:
 1468 0258 55534152 		.ascii	"USART_GetITStatus\000"
 1468      545F4765 
 1468      74495453 
 1468      74617475 
 1468      7300
 1469              	.LASF21:
 1470 026a 52455345 		.ascii	"RESERVED0\000"
 1470      52564544 
 1470      3000
 1471              	.LASF22:
 1472 0274 52455345 		.ascii	"RESERVED1\000"
 1472      52564544 
 1472      3100
 1473              	.LASF23:
 1474 027e 52455345 		.ascii	"RESERVED2\000"
 1474      52564544 
 1474      3200
 1475              	.LASF24:
 1476 0288 52455345 		.ascii	"RESERVED3\000"
 1476      52564544 
 1476      3300
 1477              	.LASF25:
 1478 0292 52455345 		.ascii	"RESERVED4\000"
 1478      52564544 
 1478      3400
 1479              	.LASF26:
 1480 029c 52455345 		.ascii	"RESERVED5\000"
 1480      52564544 
 1480      3500
 1481              	.LASF28:
 1482 02a6 52455345 		.ascii	"RESERVED6\000"
 1482      52564544 
 1482      3600
 1483              	.LASF51:
 1484 02b0 73746D33 		.ascii	"stm32f10x_it.c\000"
 1484      32663130 
 1484      785F6974 
 1484      2E6300
 1485              	.LASF20:
 1486 02bf 46756E63 		.ascii	"FunctionalState\000"
 1486      74696F6E 
 1486      616C5374 
 1486      61746500 
 1487              	.LASF53:
 1488 02cf 55534152 		.ascii	"USART1_IRQHandler\000"
 1488      54315F49 
 1488      52514861 
 1488      6E646C65 
 1488      7200
 1489              	.LASF16:
 1490 02e1 52455345 		.ascii	"RESET\000"
 1490      5400
 1491              	.LASF36:
ARM GAS  /var/folders/yt/6z6x8bjn5sjf5fbb45bk5m4c0000gn/T//ccEYHw5O.s 			page 33


 1492 02e7 42757346 		.ascii	"BusFault_Handler\000"
 1492      61756C74 
 1492      5F48616E 
 1492      646C6572 
 1492      00
 1493              	.LASF44:
 1494 02f8 52785175 		.ascii	"RxQueue\000"
 1494      65756500 
 1495              	.LASF52:
 1496 0300 2F557365 		.ascii	"/Users/ingamedeo/ownCloud/STM32F103RBT6FreeRTOS\000"
 1496      72732F69 
 1496      6E67616D 
 1496      6564656F 
 1496      2F6F776E 
 1497              	.LASF47:
 1498 0330 55534152 		.ascii	"USART_ReceiveData\000"
 1498      545F5265 
 1498      63656976 
 1498      65446174 
 1498      6100
 1499              	.LASF35:
 1500 0342 4D656D4D 		.ascii	"MemManage_Handler\000"
 1500      616E6167 
 1500      655F4861 
 1500      6E646C65 
 1500      7200
 1501              	.LASF41:
 1502 0354 45585449 		.ascii	"EXTI15_10_IRQHandler\000"
 1502      31355F31 
 1502      305F4952 
 1502      5148616E 
 1502      646C6572 
 1503              	.LASF43:
 1504 0369 49544D5F 		.ascii	"ITM_RxBuffer\000"
 1504      52784275 
 1504      66666572 
 1504      00
 1505              	.LASF45:
 1506 0376 54785175 		.ascii	"TxQueue\000"
 1506      65756500 
 1507              	.LASF19:
 1508 037e 454E4142 		.ascii	"ENABLE\000"
 1508      4C4500
 1509              		.ident	"GCC: (GNU Tools for ARM Embedded Processors) 4.9.3 20150529 (release) [ARM/embedded-4_9-br
ARM GAS  /var/folders/yt/6z6x8bjn5sjf5fbb45bk5m4c0000gn/T//ccEYHw5O.s 			page 34


DEFINED SYMBOLS
                            *ABS*:0000000000000000 stm32f10x_it.c
/var/folders/yt/6z6x8bjn5sjf5fbb45bk5m4c0000gn/T//ccEYHw5O.s:72     .text:0000000000000000 $t
/var/folders/yt/6z6x8bjn5sjf5fbb45bk5m4c0000gn/T//ccEYHw5O.s:77     .text:0000000000000000 NMI_Handler
/var/folders/yt/6z6x8bjn5sjf5fbb45bk5m4c0000gn/T//ccEYHw5O.s:94     .text:0000000000000002 HardFault_Handler
/var/folders/yt/6z6x8bjn5sjf5fbb45bk5m4c0000gn/T//ccEYHw5O.s:113    .text:0000000000000004 MemManage_Handler
/var/folders/yt/6z6x8bjn5sjf5fbb45bk5m4c0000gn/T//ccEYHw5O.s:132    .text:0000000000000006 BusFault_Handler
/var/folders/yt/6z6x8bjn5sjf5fbb45bk5m4c0000gn/T//ccEYHw5O.s:151    .text:0000000000000008 UsageFault_Handler
/var/folders/yt/6z6x8bjn5sjf5fbb45bk5m4c0000gn/T//ccEYHw5O.s:170    .text:000000000000000a DebugMon_Handler
/var/folders/yt/6z6x8bjn5sjf5fbb45bk5m4c0000gn/T//ccEYHw5O.s:186    .text:000000000000000c EXTI3_IRQHandler
/var/folders/yt/6z6x8bjn5sjf5fbb45bk5m4c0000gn/T//ccEYHw5O.s:202    .text:000000000000000e EXTI9_5_IRQHandler
/var/folders/yt/6z6x8bjn5sjf5fbb45bk5m4c0000gn/T//ccEYHw5O.s:218    .text:0000000000000010 EXTI15_10_IRQHandler
/var/folders/yt/6z6x8bjn5sjf5fbb45bk5m4c0000gn/T//ccEYHw5O.s:234    .text:0000000000000012 USART1_IRQHandler
/var/folders/yt/6z6x8bjn5sjf5fbb45bk5m4c0000gn/T//ccEYHw5O.s:326    .text:0000000000000088 $d
                     .debug_frame:0000000000000010 $d

UNDEFINED SYMBOLS
USART_GetITStatus
USART_ReceiveData
xQueueGenericSendFromISR
xQueueReceiveFromISR
USART_SendData
USART_ITConfig
RxQueue
TxQueue
