ARM GAS  /var/folders/yt/6z6x8bjn5sjf5fbb45bk5m4c0000gn/T//ccEYHw5O.s 			page 1


   1              		.syntax unified
   2              		.cpu cortex-m3
   3              		.fpu softvfp
   4              		.eabi_attribute 20, 1	@ Tag_ABI_FP_denormal
   5              		.eabi_attribute 21, 1	@ Tag_ABI_FP_exceptions
   6              		.eabi_attribute 23, 3	@ Tag_ABI_FP_number_model
   7              		.eabi_attribute 24, 1	@ Tag_ABI_align8_needed
   8              		.eabi_attribute 25, 1	@ Tag_ABI_align8_preserved
   9              		.eabi_attribute 26, 1	@ Tag_ABI_enum_size
  10              		.eabi_attribute 30, 4	@ Tag_ABI_optimization_goals
  11              		.eabi_attribute 34, 1	@ Tag_CPU_unaligned_access
  12              		.eabi_attribute 18, 4	@ Tag_ABI_PCS_wchar_t
  13              		.file	"stm32f10x_it.c"
  14              	@ GNU C (GNU Tools for ARM Embedded Processors) version 4.9.3 20150529 (release) [ARM/embedded-4_9-
  15              	@	compiled by GNU C version 4.2.1 (Based on Apple Inc. build 5658) (LLVM build 2336.9.00), GMP vers
  16              	@ GGC heuristics: --param ggc-min-expand=100 --param ggc-min-heapsize=131072
  17              	@ options passed:  -I . -I ./Libraries/CMSIS/CM3/CoreSupport
  18              	@ -I ./Libraries/CMSIS/CM3/DeviceSupport/ST/STM32F10x
  19              	@ -I ./Libraries/STM32F10x_StdPeriph_Driver/inc -I ./Libraries/Drivers/Leds
  20              	@ -I ./Libraries/Drivers/Buttons -I ./Libraries/Drivers/Usart
  21              	@ -I ./Libraries/Drivers/i2c -I ./Libraries/Drivers/BH1750
  22              	@ -I ./Libraries/Drivers/Utilities -I ./FreeRTOS/Source/include
  23              	@ -I ./FreeRTOS/Source/portable/GCC/ARM_CM3 -imultilib armv7-m
  24              	@ -iprefix /usr/local/Cellar/arm-none-eabi-gcc/20150921/bin/../lib/gcc/arm-none-eabi/4.9.3/
  25              	@ -isysroot /usr/local/Cellar/arm-none-eabi-gcc/20150921/bin/../arm-none-eabi
  26              	@ -MD stm32f10x_it.d -MF .dep/stm32f10x_it.o.d -MP -MQ stm32f10x_it.o
  27              	@ -D__USES_INITFINI__ -D STM32F10X_MD -D USE_STDPERIPH_DRIVER -D GCC_ARMCM3
  28              	@ -D RUN_FROM_FLASH=1 stm32f10x_it.c -mcpu=cortex-m3 -mthumb
  29              	@ -auxbase-strip stm32f10x_it.o -gdwarf-2 -Os -Wall -Wstrict-prototypes
  30              	@ -fomit-frame-pointer -fverbose-asm
  31              	@ options enabled:  -faggressive-loop-optimizations -fauto-inc-dec
  32              	@ -fbranch-count-reg -fcaller-saves -fcombine-stack-adjustments -fcommon
  33              	@ -fcompare-elim -fcprop-registers -fcrossjumping -fcse-follow-jumps
  34              	@ -fdefer-pop -fdelete-null-pointer-checks -fdevirtualize
  35              	@ -fdevirtualize-speculatively -fdwarf2-cfi-asm -fearly-inlining
  36              	@ -feliminate-unused-debug-types -fexpensive-optimizations
  37              	@ -fforward-propagate -ffunction-cse -fgcse -fgcse-lm -fgnu-runtime
  38              	@ -fgnu-unique -fguess-branch-probability -fhoist-adjacent-loads -fident
  39              	@ -fif-conversion -fif-conversion2 -findirect-inlining -finline
  40              	@ -finline-atomics -finline-functions -finline-functions-called-once
  41              	@ -finline-small-functions -fipa-cp -fipa-profile -fipa-pure-const
  42              	@ -fipa-reference -fipa-sra -fira-hoist-pressure -fira-share-save-slots
  43              	@ -fira-share-spill-slots -fisolate-erroneous-paths-dereference -fivopts
  44              	@ -fkeep-static-consts -fleading-underscore -flifetime-dse -fmath-errno
  45              	@ -fmerge-constants -fmerge-debug-strings -fomit-frame-pointer
  46              	@ -foptimize-sibling-calls -fpartial-inlining -fpeephole -fpeephole2
  47              	@ -fprefetch-loop-arrays -freg-struct-return -freorder-blocks
  48              	@ -freorder-functions -frerun-cse-after-loop
  49              	@ -fsched-critical-path-heuristic -fsched-dep-count-heuristic
  50              	@ -fsched-group-heuristic -fsched-interblock -fsched-last-insn-heuristic
  51              	@ -fsched-pressure -fsched-rank-heuristic -fsched-spec
  52              	@ -fsched-spec-insn-heuristic -fsched-stalled-insns-dep -fschedule-insns2
  53              	@ -fsection-anchors -fshow-column -fsigned-zeros -fsplit-ivs-in-unroller
  54              	@ -fsplit-wide-types -fstrict-aliasing -fstrict-overflow
  55              	@ -fstrict-volatile-bitfields -fsync-libcalls -fthread-jumps
  56              	@ -ftoplevel-reorder -ftrapping-math -ftree-bit-ccp -ftree-builtin-call-dce
  57              	@ -ftree-ccp -ftree-ch -ftree-coalesce-vars -ftree-copy-prop
ARM GAS  /var/folders/yt/6z6x8bjn5sjf5fbb45bk5m4c0000gn/T//ccEYHw5O.s 			page 2


  58              	@ -ftree-copyrename -ftree-cselim -ftree-dce -ftree-dominator-opts
  59              	@ -ftree-dse -ftree-forwprop -ftree-fre -ftree-loop-if-convert
  60              	@ -ftree-loop-im -ftree-loop-ivcanon -ftree-loop-optimize
  61              	@ -ftree-parallelize-loops= -ftree-phiprop -ftree-pre -ftree-pta
  62              	@ -ftree-reassoc -ftree-scev-cprop -ftree-sink -ftree-slsr -ftree-sra
  63              	@ -ftree-switch-conversion -ftree-tail-merge -ftree-ter -ftree-vrp
  64              	@ -funit-at-a-time -fvar-tracking -fvar-tracking-assignments -fverbose-asm
  65              	@ -fzero-initialized-in-bss -mfix-cortex-m3-ldrd -mlittle-endian -mlra
  66              	@ -mpic-data-is-text-relative -msched-prolog -mthumb -munaligned-access
  67              	@ -mvectorize-with-neon-quad
  68              	
  69              		.text
  70              	.Ltext0:
  71              		.cfi_sections	.debug_frame
  72              		.align	1
  73              		.global	NMI_Handler
  74              		.thumb
  75              		.thumb_func
  76              		.type	NMI_Handler, %function
  77              	NMI_Handler:
  78              	.LFB34:
  79              		.file 1 "stm32f10x_it.c"
   1:stm32f10x_it.c **** /**
   2:stm32f10x_it.c ****   ******************************************************************************
   3:stm32f10x_it.c ****   * @file    stm32f10x_it.c
   4:stm32f10x_it.c ****   * @author  MCD Application Team
   5:stm32f10x_it.c ****   * @version V1.0.0
   6:stm32f10x_it.c ****   * @date    09/13/2010
   7:stm32f10x_it.c ****   * @brief   Main Interrupt Service Routines.
   8:stm32f10x_it.c ****   *          This file provides template for all exceptions handler and peripherals
   9:stm32f10x_it.c ****   *          interrupt service routine.
  10:stm32f10x_it.c ****   ******************************************************************************
  11:stm32f10x_it.c ****   * @copy
  12:stm32f10x_it.c ****   *
  13:stm32f10x_it.c ****   * THE PRESENT FIRMWARE WHICH IS FOR GUIDANCE ONLY AIMS AT PROVIDING CUSTOMERS
  14:stm32f10x_it.c ****   * WITH CODING INFORMATION REGARDING THEIR PRODUCTS IN ORDER FOR THEM TO SAVE
  15:stm32f10x_it.c ****   * TIME. AS A RESULT, STMICROELECTRONICS SHALL NOT BE HELD LIABLE FOR ANY
  16:stm32f10x_it.c ****   * DIRECT, INDIRECT OR CONSEQUENTIAL DAMAGES WITH RESPECT TO ANY CLAIMS ARISING
  17:stm32f10x_it.c ****   * FROM THE CONTENT OF SUCH FIRMWARE AND/OR THE USE MADE BY CUSTOMERS OF THE
  18:stm32f10x_it.c ****   * CODING INFORMATION CONTAINED HEREIN IN CONNECTION WITH THEIR PRODUCTS.
  19:stm32f10x_it.c ****   *
  20:stm32f10x_it.c ****   * <h2><center>&copy; COPYRIGHT 2010 STMicroelectronics</center></h2>
  21:stm32f10x_it.c ****   */
  22:stm32f10x_it.c **** 
  23:stm32f10x_it.c **** /* Includes ------------------------------------------------------------------*/
  24:stm32f10x_it.c **** #include "stm32f10x_it.h"
  25:stm32f10x_it.c **** #include "usart.h"
  26:stm32f10x_it.c **** #include "mytasks.h"
  27:stm32f10x_it.c **** /** @addtogroup Examples
  28:stm32f10x_it.c ****   * @{
  29:stm32f10x_it.c ****   */
  30:stm32f10x_it.c **** 
  31:stm32f10x_it.c **** /* Private typedef -----------------------------------------------------------*/
  32:stm32f10x_it.c **** /* Private define ------------------------------------------------------------*/
  33:stm32f10x_it.c **** /* Private macro -------------------------------------------------------------*/
  34:stm32f10x_it.c **** /* Private variables ---------------------------------------------------------*/
  35:stm32f10x_it.c **** /* Private function prototypes -----------------------------------------------*/
ARM GAS  /var/folders/yt/6z6x8bjn5sjf5fbb45bk5m4c0000gn/T//ccEYHw5O.s 			page 3


  36:stm32f10x_it.c **** /* Private functions ---------------------------------------------------------*/
  37:stm32f10x_it.c **** 
  38:stm32f10x_it.c **** /******************************************************************************/
  39:stm32f10x_it.c **** /*            Cortex-M3 Processor Exceptions Handlers                         */
  40:stm32f10x_it.c **** /******************************************************************************/
  41:stm32f10x_it.c **** 
  42:stm32f10x_it.c **** /**
  43:stm32f10x_it.c ****   * @brief  This function handles NMI exception.
  44:stm32f10x_it.c ****   * @param  None
  45:stm32f10x_it.c ****   * @retval None
  46:stm32f10x_it.c ****   */
  47:stm32f10x_it.c **** void NMI_Handler(void)
  48:stm32f10x_it.c **** {
  80              		.loc 1 48 0
  81              		.cfi_startproc
  82              		@ args = 0, pretend = 0, frame = 0
  83              		@ frame_needed = 0, uses_anonymous_args = 0
  84              		@ link register save eliminated.
  85 0000 7047     		bx	lr	@
  86              		.cfi_endproc
  87              	.LFE34:
  88              		.size	NMI_Handler, .-NMI_Handler
  89              		.align	1
  90              		.global	HardFault_Handler
  91              		.thumb
  92              		.thumb_func
  93              		.type	HardFault_Handler, %function
  94              	HardFault_Handler:
  95              	.LFB35:
  49:stm32f10x_it.c **** }
  50:stm32f10x_it.c **** 
  51:stm32f10x_it.c **** /**
  52:stm32f10x_it.c ****   * @brief  This function handles Hard Fault exception.
  53:stm32f10x_it.c ****   * @param  None
  54:stm32f10x_it.c ****   * @retval None
  55:stm32f10x_it.c ****   */
  56:stm32f10x_it.c **** void HardFault_Handler(void)
  57:stm32f10x_it.c **** {
  96              		.loc 1 57 0
  97              		.cfi_startproc
  98              		@ Volatile: function does not return.
  99              		@ args = 0, pretend = 0, frame = 0
 100              		@ frame_needed = 0, uses_anonymous_args = 0
 101              		@ link register save eliminated.
 102              	.L3:
  58:stm32f10x_it.c ****   /* Go to infinite loop when Hard Fault exception occurs */
  59:stm32f10x_it.c ****   while (1)
  60:stm32f10x_it.c ****   {
  61:stm32f10x_it.c ****   }
 103              		.loc 1 61 0 discriminator 1
 104 0002 FEE7     		b	.L3	@
 105              		.cfi_endproc
 106              	.LFE35:
 107              		.size	HardFault_Handler, .-HardFault_Handler
 108              		.align	1
 109              		.global	MemManage_Handler
 110              		.thumb
ARM GAS  /var/folders/yt/6z6x8bjn5sjf5fbb45bk5m4c0000gn/T//ccEYHw5O.s 			page 4


 111              		.thumb_func
 112              		.type	MemManage_Handler, %function
 113              	MemManage_Handler:
 114              	.LFB36:
  62:stm32f10x_it.c **** }
  63:stm32f10x_it.c **** 
  64:stm32f10x_it.c **** /**
  65:stm32f10x_it.c ****   * @brief  This function handles Memory Manage exception.
  66:stm32f10x_it.c ****   * @param  None
  67:stm32f10x_it.c ****   * @retval None
  68:stm32f10x_it.c ****   */
  69:stm32f10x_it.c **** void MemManage_Handler(void)
  70:stm32f10x_it.c **** {
 115              		.loc 1 70 0
 116              		.cfi_startproc
 117              		@ Volatile: function does not return.
 118              		@ args = 0, pretend = 0, frame = 0
 119              		@ frame_needed = 0, uses_anonymous_args = 0
 120              		@ link register save eliminated.
 121              	.L5:
  71:stm32f10x_it.c ****   /* Go to infinite loop when Memory Manage exception occurs */
  72:stm32f10x_it.c ****   while (1)
  73:stm32f10x_it.c ****   {
  74:stm32f10x_it.c ****   }
 122              		.loc 1 74 0 discriminator 1
 123 0004 FEE7     		b	.L5	@
 124              		.cfi_endproc
 125              	.LFE36:
 126              		.size	MemManage_Handler, .-MemManage_Handler
 127              		.align	1
 128              		.global	BusFault_Handler
 129              		.thumb
 130              		.thumb_func
 131              		.type	BusFault_Handler, %function
 132              	BusFault_Handler:
 133              	.LFB37:
  75:stm32f10x_it.c **** }
  76:stm32f10x_it.c **** 
  77:stm32f10x_it.c **** /**
  78:stm32f10x_it.c ****   * @brief  This function handles Bus Fault exception.
  79:stm32f10x_it.c ****   * @param  None
  80:stm32f10x_it.c ****   * @retval None
  81:stm32f10x_it.c ****   */
  82:stm32f10x_it.c **** void BusFault_Handler(void)
  83:stm32f10x_it.c **** {
 134              		.loc 1 83 0
 135              		.cfi_startproc
 136              		@ Volatile: function does not return.
 137              		@ args = 0, pretend = 0, frame = 0
 138              		@ frame_needed = 0, uses_anonymous_args = 0
 139              		@ link register save eliminated.
 140              	.L7:
  84:stm32f10x_it.c ****   /* Go to infinite loop when Bus Fault exception occurs */
  85:stm32f10x_it.c ****   while (1)
  86:stm32f10x_it.c ****   {
  87:stm32f10x_it.c ****   }
 141              		.loc 1 87 0 discriminator 1
ARM GAS  /var/folders/yt/6z6x8bjn5sjf5fbb45bk5m4c0000gn/T//ccEYHw5O.s 			page 5


 142 0006 FEE7     		b	.L7	@
 143              		.cfi_endproc
 144              	.LFE37:
 145              		.size	BusFault_Handler, .-BusFault_Handler
 146              		.align	1
 147              		.global	UsageFault_Handler
 148              		.thumb
 149              		.thumb_func
 150              		.type	UsageFault_Handler, %function
 151              	UsageFault_Handler:
 152              	.LFB38:
  88:stm32f10x_it.c **** }
  89:stm32f10x_it.c **** 
  90:stm32f10x_it.c **** /**
  91:stm32f10x_it.c ****   * @brief  This function handles Usage Fault exception.
  92:stm32f10x_it.c ****   * @param  None
  93:stm32f10x_it.c ****   * @retval None
  94:stm32f10x_it.c ****   */
  95:stm32f10x_it.c **** void UsageFault_Handler(void)
  96:stm32f10x_it.c **** {
 153              		.loc 1 96 0
 154              		.cfi_startproc
 155              		@ Volatile: function does not return.
 156              		@ args = 0, pretend = 0, frame = 0
 157              		@ frame_needed = 0, uses_anonymous_args = 0
 158              		@ link register save eliminated.
 159              	.L9:
  97:stm32f10x_it.c ****   /* Go to infinite loop when Usage Fault exception occurs */
  98:stm32f10x_it.c ****   while (1)
  99:stm32f10x_it.c ****   {
 100:stm32f10x_it.c ****   }
 160              		.loc 1 100 0 discriminator 1
 161 0008 FEE7     		b	.L9	@
 162              		.cfi_endproc
 163              	.LFE38:
 164              		.size	UsageFault_Handler, .-UsageFault_Handler
 165              		.align	1
 166              		.global	DebugMon_Handler
 167              		.thumb
 168              		.thumb_func
 169              		.type	DebugMon_Handler, %function
 170              	DebugMon_Handler:
 171              	.LFB39:
 101:stm32f10x_it.c **** }
 102:stm32f10x_it.c **** 
 103:stm32f10x_it.c **** /**
 104:stm32f10x_it.c ****   * @brief  This function handles SVCall exception.
 105:stm32f10x_it.c ****   * @param  None
 106:stm32f10x_it.c ****   * @retval None
 107:stm32f10x_it.c ****   */
 108:stm32f10x_it.c **** /*void SVC_Handler(void)
 109:stm32f10x_it.c **** {
 110:stm32f10x_it.c **** }*/
 111:stm32f10x_it.c **** 
 112:stm32f10x_it.c **** /**
 113:stm32f10x_it.c ****   * @brief  This function handles Debug Monitor exception.
 114:stm32f10x_it.c ****   * @param  None
ARM GAS  /var/folders/yt/6z6x8bjn5sjf5fbb45bk5m4c0000gn/T//ccEYHw5O.s 			page 6


 115:stm32f10x_it.c ****   * @retval None
 116:stm32f10x_it.c ****   */
 117:stm32f10x_it.c **** void DebugMon_Handler(void)
 118:stm32f10x_it.c **** {
 172              		.loc 1 118 0
 173              		.cfi_startproc
 174              		@ args = 0, pretend = 0, frame = 0
 175              		@ frame_needed = 0, uses_anonymous_args = 0
 176              		@ link register save eliminated.
 177 000a 7047     		bx	lr	@
 178              		.cfi_endproc
 179              	.LFE39:
 180              		.size	DebugMon_Handler, .-DebugMon_Handler
 181              		.align	1
 182              		.global	EXTI3_IRQHandler
 183              		.thumb
 184              		.thumb_func
 185              		.type	EXTI3_IRQHandler, %function
 186              	EXTI3_IRQHandler:
 187              	.LFB40:
 119:stm32f10x_it.c **** }
 120:stm32f10x_it.c **** 
 121:stm32f10x_it.c **** /**
 122:stm32f10x_it.c ****   * @brief  This function handles PendSV_Handler exception.
 123:stm32f10x_it.c ****   * @param  None
 124:stm32f10x_it.c ****   * @retval None
 125:stm32f10x_it.c ****   */
 126:stm32f10x_it.c **** /*void PendSV_Handler(void)
 127:stm32f10x_it.c **** {
 128:stm32f10x_it.c **** }*/
 129:stm32f10x_it.c **** 
 130:stm32f10x_it.c **** /**
 131:stm32f10x_it.c ****   * @brief  This function handles SysTick Handler.
 132:stm32f10x_it.c ****   * @param  None
 133:stm32f10x_it.c ****   * @retval None
 134:stm32f10x_it.c ****   */
 135:stm32f10x_it.c **** /*void SysTick_Handler(void)
 136:stm32f10x_it.c **** {
 137:stm32f10x_it.c **** 	LEDToggle(5);
 138:stm32f10x_it.c **** //Decrement the TimingDelay variable
 139:stm32f10x_it.c **** 	Decrement_TimingDelay();
 140:stm32f10x_it.c **** }*/
 141:stm32f10x_it.c **** 
 142:stm32f10x_it.c **** /******************************************************************************/
 143:stm32f10x_it.c **** /*                 STM32F10x Peripherals Interrupt Handlers                   */
 144:stm32f10x_it.c **** /*  Add here the Interrupt Handler for the used peripheral(s) (PPP), for the  */
 145:stm32f10x_it.c **** /*  available peripheral interrupt handler's name please refer to the startup */
 146:stm32f10x_it.c **** /*  file (startup_stm32f10x_xx.s).                                            */
 147:stm32f10x_it.c **** /******************************************************************************/
 148:stm32f10x_it.c **** 
 149:stm32f10x_it.c **** /**
 150:stm32f10x_it.c ****   * @brief  This function handles PPP interrupt request.
 151:stm32f10x_it.c ****   * @param  None
 152:stm32f10x_it.c ****   * @retval None
 153:stm32f10x_it.c ****   */
 154:stm32f10x_it.c **** //void EXTI0_IRQHandler(void)
 155:stm32f10x_it.c **** //{
ARM GAS  /var/folders/yt/6z6x8bjn5sjf5fbb45bk5m4c0000gn/T//ccEYHw5O.s 			page 7


 156:stm32f10x_it.c **** //
 157:stm32f10x_it.c **** //}
 158:stm32f10x_it.c **** void EXTI3_IRQHandler(void)
 159:stm32f10x_it.c **** {
 188              		.loc 1 159 0
 189              		.cfi_startproc
 190              		@ args = 0, pretend = 0, frame = 0
 191              		@ frame_needed = 0, uses_anonymous_args = 0
 192              		@ link register save eliminated.
 193 000c 7047     		bx	lr	@
 194              		.cfi_endproc
 195              	.LFE40:
 196              		.size	EXTI3_IRQHandler, .-EXTI3_IRQHandler
 197              		.align	1
 198              		.global	EXTI9_5_IRQHandler
 199              		.thumb
 200              		.thumb_func
 201              		.type	EXTI9_5_IRQHandler, %function
 202              	EXTI9_5_IRQHandler:
 203              	.LFB41:
 160:stm32f10x_it.c **** 
 161:stm32f10x_it.c **** }
 162:stm32f10x_it.c **** void EXTI9_5_IRQHandler(void)
 163:stm32f10x_it.c **** {
 204              		.loc 1 163 0
 205              		.cfi_startproc
 206              		@ args = 0, pretend = 0, frame = 0
 207              		@ frame_needed = 0, uses_anonymous_args = 0
 208              		@ link register save eliminated.
 209 000e 7047     		bx	lr	@
 210              		.cfi_endproc
 211              	.LFE41:
 212              		.size	EXTI9_5_IRQHandler, .-EXTI9_5_IRQHandler
 213              		.align	1
 214              		.global	EXTI15_10_IRQHandler
 215              		.thumb
 216              		.thumb_func
 217              		.type	EXTI15_10_IRQHandler, %function
 218              	EXTI15_10_IRQHandler:
 219              	.LFB42:
 164:stm32f10x_it.c **** 
 165:stm32f10x_it.c **** }
 166:stm32f10x_it.c **** void EXTI15_10_IRQHandler(void)
 167:stm32f10x_it.c **** {
 220              		.loc 1 167 0
 221              		.cfi_startproc
 222              		@ args = 0, pretend = 0, frame = 0
 223              		@ frame_needed = 0, uses_anonymous_args = 0
 224              		@ link register save eliminated.
 225 0010 7047     		bx	lr	@
 226              		.cfi_endproc
 227              	.LFE42:
 228              		.size	EXTI15_10_IRQHandler, .-EXTI15_10_IRQHandler
 229              		.align	1
 230              		.global	USART1_IRQHandler
 231              		.thumb
 232              		.thumb_func
ARM GAS  /var/folders/yt/6z6x8bjn5sjf5fbb45bk5m4c0000gn/T//ccEYHw5O.s 			page 8


 233              		.type	USART1_IRQHandler, %function
 234              	USART1_IRQHandler:
 235              	.LFB43:
 168:stm32f10x_it.c **** 
 169:stm32f10x_it.c **** }
 170:stm32f10x_it.c **** void USART1_IRQHandler(void)
 171:stm32f10x_it.c **** {
 236              		.loc 1 171 0
 237              		.cfi_startproc
 238              		@ args = 0, pretend = 0, frame = 8
 239              		@ frame_needed = 0, uses_anonymous_args = 0
 240              		.loc 1 171 0
 241 0012 13B5     		push	{r0, r1, r4, lr}	@
 242              	.LCFI0:
 243              		.cfi_def_cfa_offset 16
 244              		.cfi_offset 4, -8
 245              		.cfi_offset 14, -4
 172:stm32f10x_it.c ****   long xHigherPriorityTaskWoken = pdFALSE;
 246              		.loc 1 172 0
 247 0014 0024     		movs	r4, #0	@ tmp120,
 173:stm32f10x_it.c ****   uint8_t ch;
 174:stm32f10x_it.c ****   //if Receive interrupt
 175:stm32f10x_it.c ****   if (USART_GetITStatus(USART1, USART_IT_RXNE) != RESET)
 248              		.loc 1 175 0
 249 0016 1C48     		ldr	r0, .L29	@,
 250 0018 40F22551 		movw	r1, #1317	@,
 172:stm32f10x_it.c ****   long xHigherPriorityTaskWoken = pdFALSE;
 251              		.loc 1 172 0
 252 001c 0194     		str	r4, [sp, #4]	@ tmp120, xHigherPriorityTaskWoken
 253              		.loc 1 175 0
 254 001e FFF7FEFF 		bl	USART_GetITStatus	@
 255              	.LVL0:
 256 0022 58B1     		cbz	r0, .L15	@,
 176:stm32f10x_it.c ****     {
 177:stm32f10x_it.c ****       ch=(uint8_t)USART_ReceiveData(USART1);
 257              		.loc 1 177 0
 258 0024 1848     		ldr	r0, .L29	@,
 259 0026 FFF7FEFF 		bl	USART_ReceiveData	@
 260              	.LVL1:
 178:stm32f10x_it.c ****       xQueueSendToBackFromISR( RxQueue, &ch, &xHigherPriorityTaskWoken );
 261              		.loc 1 178 0
 262 002a 184B     		ldr	r3, .L29+4	@ tmp126,
 177:stm32f10x_it.c ****       xQueueSendToBackFromISR( RxQueue, &ch, &xHigherPriorityTaskWoken );
 263              		.loc 1 177 0
 264 002c 02A9     		add	r1, sp, #8	@ tmp127,,
 265 002e 01F8050D 		strb	r0, [r1, #-5]!	@, ch
 266              		.loc 1 178 0
 267 0032 01AA     		add	r2, sp, #4	@,,
 268 0034 1868     		ldr	r0, [r3]	@, RxQueue
 269 0036 2346     		mov	r3, r4	@, tmp120
 270 0038 FFF7FEFF 		bl	xQueueGenericSendFromISR	@
 271              	.LVL2:
 272              	.L15:
 179:stm32f10x_it.c ****     }
 180:stm32f10x_it.c **** 
 181:stm32f10x_it.c ****   if (USART_GetITStatus(USART1, USART_IT_TXE) != RESET)
 273              		.loc 1 181 0
ARM GAS  /var/folders/yt/6z6x8bjn5sjf5fbb45bk5m4c0000gn/T//ccEYHw5O.s 			page 9


 274 003c 1248     		ldr	r0, .L29	@,
 275 003e 40F22771 		movw	r1, #1831	@,
 276 0042 FFF7FEFF 		bl	USART_GetITStatus	@
 277              	.LVL3:
 278 0046 90B1     		cbz	r0, .L16	@,
 182:stm32f10x_it.c ****         {
 183:stm32f10x_it.c ****       if( xQueueReceiveFromISR( TxQueue, &ch, &xHigherPriorityTaskWoken ) )
 279              		.loc 1 183 0
 280 0048 114B     		ldr	r3, .L29+8	@ tmp131,
 281 004a 01AA     		add	r2, sp, #4	@,,
 282 004c 1868     		ldr	r0, [r3]	@, TxQueue
 283 004e 0DF10301 		add	r1, sp, #3	@,,
 284 0052 FFF7FEFF 		bl	xQueueReceiveFromISR	@
 285              	.LVL4:
 286 0056 0246     		mov	r2, r0	@ D.6097,
 184:stm32f10x_it.c ****         {
 185:stm32f10x_it.c ****           USART_SendData(USART1, ch);
 287              		.loc 1 185 0
 288 0058 0B48     		ldr	r0, .L29	@,
 183:stm32f10x_it.c ****         {
 289              		.loc 1 183 0
 290 005a 22B1     		cbz	r2, .L17	@ D.6097,
 291              		.loc 1 185 0
 292 005c 9DF80310 		ldrb	r1, [sp, #3]	@ zero_extendqisi2	@, ch
 293 0060 FFF7FEFF 		bl	USART_SendData	@
 294              	.LVL5:
 295 0064 03E0     		b	.L16	@
 296              	.L17:
 186:stm32f10x_it.c ****         }else{
 187:stm32f10x_it.c ****            //disable Transmit Data Register empty interrupt
 188:stm32f10x_it.c ****            USART_ITConfig(USART1, USART_IT_TXE, DISABLE);
 297              		.loc 1 188 0
 298 0066 40F22771 		movw	r1, #1831	@,
 299 006a FFF7FEFF 		bl	USART_ITConfig	@
 300              	.LVL6:
 301              	.L16:
 189:stm32f10x_it.c ****              }
 190:stm32f10x_it.c ****         }
 191:stm32f10x_it.c ****   portEND_SWITCHING_ISR( xHigherPriorityTaskWoken );
 302              		.loc 1 191 0
 303 006e 019B     		ldr	r3, [sp, #4]	@ xHigherPriorityTaskWoken, xHigherPriorityTaskWoken
 304 0070 3BB1     		cbz	r3, .L14	@ xHigherPriorityTaskWoken,
 305              		.loc 1 191 0 is_stmt 0 discriminator 1
 306 0072 084B     		ldr	r3, .L29+12	@ tmp140,
 307 0074 4FF08052 		mov	r2, #268435456	@ tmp141,
 308 0078 1A60     		str	r2, [r3]	@ tmp141, MEM[(volatile uint32_t *)3758157060B]
 309              	@ 191 "stm32f10x_it.c" 1
 310 007a BFF34F8F 		dsb
 311              	@ 0 "" 2
 312              	@ 191 "stm32f10x_it.c" 1
 313 007e BFF36F8F 		isb
 314              	@ 0 "" 2
 315              		.thumb
 316              	.L14:
 192:stm32f10x_it.c **** }
 317              		.loc 1 192 0 is_stmt 1
 318 0082 02B0     		add	sp, sp, #8	@,,
ARM GAS  /var/folders/yt/6z6x8bjn5sjf5fbb45bk5m4c0000gn/T//ccEYHw5O.s 			page 10


 319              	.LCFI1:
 320              		.cfi_def_cfa_offset 8
 321              		@ sp needed	@
 322 0084 10BD     		pop	{r4, pc}	@
 323              	.L30:
 324 0086 00BF     		.align	2
 325              	.L29:
 326 0088 00380140 		.word	1073821696
 327 008c 00000000 		.word	RxQueue
 328 0090 00000000 		.word	TxQueue
 329 0094 04ED00E0 		.word	-536810236
 330              		.cfi_endproc
 331              	.LFE43:
 332              		.size	USART1_IRQHandler, .-USART1_IRQHandler
 333              	.Letext0:
 334              		.file 2 "/usr/local/Cellar/arm-none-eabi-gcc/20150921/arm-none-eabi/include/machine/_default_types
 335              		.file 3 "/usr/local/Cellar/arm-none-eabi-gcc/20150921/arm-none-eabi/include/sys/_stdint.h"
 336              		.file 4 "./Libraries/CMSIS/CM3/DeviceSupport/ST/STM32F10x/stm32f10x.h"
 337              		.file 5 "./FreeRTOS/Source/include/../../Source/portable/GCC/ARM_CM3/portmacro.h"
 338              		.file 6 "./FreeRTOS/Source/include/queue.h"
 339              		.file 7 "./Libraries/CMSIS/CM3/CoreSupport/core_cm3.h"
 340              		.file 8 "mytasks.h"
 341              		.file 9 "./Libraries/STM32F10x_StdPeriph_Driver/inc/stm32f10x_usart.h"