ARM GAS  /var/folders/yt/6z6x8bjn5sjf5fbb45bk5m4c0000gn/T//ccgpnMsb.s 			page 1


   1              		.syntax unified
   2              		.cpu cortex-m3
   3              		.fpu softvfp
   4              		.eabi_attribute 20, 1	@ Tag_ABI_FP_denormal
   5              		.eabi_attribute 21, 1	@ Tag_ABI_FP_exceptions
   6              		.eabi_attribute 23, 3	@ Tag_ABI_FP_number_model
   7              		.eabi_attribute 24, 1	@ Tag_ABI_align8_needed
   8              		.eabi_attribute 25, 1	@ Tag_ABI_align8_preserved
   9              		.eabi_attribute 26, 1	@ Tag_ABI_enum_size
  10              		.eabi_attribute 30, 4	@ Tag_ABI_optimization_goals
  11              		.eabi_attribute 34, 1	@ Tag_CPU_unaligned_access
  12              		.eabi_attribute 18, 4	@ Tag_ABI_PCS_wchar_t
  13              		.file	"bh1750.c"
  14              	@ GNU C (GNU Tools for ARM Embedded Processors) version 4.9.3 20150529 (release) [ARM/embedded-4_9-
  15              	@	compiled by GNU C version 4.2.1 (Based on Apple Inc. build 5658) (LLVM build 2336.9.00), GMP vers
  16              	@ GGC heuristics: --param ggc-min-expand=100 --param ggc-min-heapsize=131072
  17              	@ options passed:  -I . -I ./Libraries/CMSIS/CM3/CoreSupport
  18              	@ -I ./Libraries/CMSIS/CM3/DeviceSupport/ST/STM32F10x
  19              	@ -I ./Libraries/STM32F10x_StdPeriph_Driver/inc -I ./Libraries/Drivers/Leds
  20              	@ -I ./Libraries/Drivers/Buttons -I ./Libraries/Drivers/Usart
  21              	@ -I ./Libraries/Drivers/i2c -I ./Libraries/Drivers/BH1750
  22              	@ -I ./Libraries/Drivers/Utilities -I ./FreeRTOS/Source/include
  23              	@ -I ./FreeRTOS/Source/portable/GCC/ARM_CM3 -imultilib armv7-m
  24              	@ -iprefix /usr/local/Cellar/arm-none-eabi-gcc/20150921/bin/../lib/gcc/arm-none-eabi/4.9.3/
  25              	@ -isysroot /usr/local/Cellar/arm-none-eabi-gcc/20150921/bin/../arm-none-eabi
  26              	@ -MD Libraries/Drivers/BH1750/bh1750.d -MF .dep/bh1750.o.d -MP
  27              	@ -MQ Libraries/Drivers/BH1750/bh1750.o -D__USES_INITFINI__ -D STM32F10X_MD
  28              	@ -D USE_STDPERIPH_DRIVER -D GCC_ARMCM3 -D RUN_FROM_FLASH=1
  29              	@ Libraries/Drivers/BH1750/bh1750.c -mcpu=cortex-m3 -mthumb
  30              	@ -auxbase-strip Libraries/Drivers/BH1750/bh1750.o -gdwarf-2 -Os -Wall
  31              	@ -Wstrict-prototypes -fomit-frame-pointer -fverbose-asm
  32              	@ options enabled:  -faggressive-loop-optimizations -fauto-inc-dec
  33              	@ -fbranch-count-reg -fcaller-saves -fcombine-stack-adjustments -fcommon
  34              	@ -fcompare-elim -fcprop-registers -fcrossjumping -fcse-follow-jumps
  35              	@ -fdefer-pop -fdelete-null-pointer-checks -fdevirtualize
  36              	@ -fdevirtualize-speculatively -fdwarf2-cfi-asm -fearly-inlining
  37              	@ -feliminate-unused-debug-types -fexpensive-optimizations
  38              	@ -fforward-propagate -ffunction-cse -fgcse -fgcse-lm -fgnu-runtime
  39              	@ -fgnu-unique -fguess-branch-probability -fhoist-adjacent-loads -fident
  40              	@ -fif-conversion -fif-conversion2 -findirect-inlining -finline
  41              	@ -finline-atomics -finline-functions -finline-functions-called-once
  42              	@ -finline-small-functions -fipa-cp -fipa-profile -fipa-pure-const
  43              	@ -fipa-reference -fipa-sra -fira-hoist-pressure -fira-share-save-slots
  44              	@ -fira-share-spill-slots -fisolate-erroneous-paths-dereference -fivopts
  45              	@ -fkeep-static-consts -fleading-underscore -flifetime-dse -fmath-errno
  46              	@ -fmerge-constants -fmerge-debug-strings -fomit-frame-pointer
  47              	@ -foptimize-sibling-calls -fpartial-inlining -fpeephole -fpeephole2
  48              	@ -fprefetch-loop-arrays -freg-struct-return -freorder-blocks
  49              	@ -freorder-functions -frerun-cse-after-loop
  50              	@ -fsched-critical-path-heuristic -fsched-dep-count-heuristic
  51              	@ -fsched-group-heuristic -fsched-interblock -fsched-last-insn-heuristic
  52              	@ -fsched-pressure -fsched-rank-heuristic -fsched-spec
  53              	@ -fsched-spec-insn-heuristic -fsched-stalled-insns-dep -fschedule-insns2
  54              	@ -fsection-anchors -fshow-column -fsigned-zeros -fsplit-ivs-in-unroller
  55              	@ -fsplit-wide-types -fstrict-aliasing -fstrict-overflow
  56              	@ -fstrict-volatile-bitfields -fsync-libcalls -fthread-jumps
  57              	@ -ftoplevel-reorder -ftrapping-math -ftree-bit-ccp -ftree-builtin-call-dce
ARM GAS  /var/folders/yt/6z6x8bjn5sjf5fbb45bk5m4c0000gn/T//ccgpnMsb.s 			page 2


  58              	@ -ftree-ccp -ftree-ch -ftree-coalesce-vars -ftree-copy-prop
  59              	@ -ftree-copyrename -ftree-cselim -ftree-dce -ftree-dominator-opts
  60              	@ -ftree-dse -ftree-forwprop -ftree-fre -ftree-loop-if-convert
  61              	@ -ftree-loop-im -ftree-loop-ivcanon -ftree-loop-optimize
  62              	@ -ftree-parallelize-loops= -ftree-phiprop -ftree-pre -ftree-pta
  63              	@ -ftree-reassoc -ftree-scev-cprop -ftree-sink -ftree-slsr -ftree-sra
  64              	@ -ftree-switch-conversion -ftree-tail-merge -ftree-ter -ftree-vrp
  65              	@ -funit-at-a-time -fvar-tracking -fvar-tracking-assignments -fverbose-asm
  66              	@ -fzero-initialized-in-bss -mfix-cortex-m3-ldrd -mlittle-endian -mlra
  67              	@ -mpic-data-is-text-relative -msched-prolog -mthumb -munaligned-access
  68              	@ -mvectorize-with-neon-quad
  69              	
  70              		.text
  71              	.Ltext0:
  72              		.cfi_sections	.debug_frame
  73              		.global	__aeabi_i2d
  74              		.global	__aeabi_ddiv
  75              		.global	__aeabi_d2uiz
  76              		.align	1
  77              		.global	BH1750readLightLevel
  78              		.thumb
  79              		.thumb_func
  80              		.type	BH1750readLightLevel, %function
  81              	BH1750readLightLevel:
  82              	.LFB36:
  83              		.file 1 "Libraries/Drivers/BH1750/bh1750.c"
   1:Libraries/Drivers/BH1750/bh1750.c **** /*
   2:Libraries/Drivers/BH1750/bh1750.c ****  * bh1750.c
   3:Libraries/Drivers/BH1750/bh1750.c ****  *
   4:Libraries/Drivers/BH1750/bh1750.c ****  * @author Amedeo <ingamedeo[at]gmail[dot]com
   5:Libraries/Drivers/BH1750/bh1750.c ****  * @date 08/10/2016
   6:Libraries/Drivers/BH1750/bh1750.c ****  *
   7:Libraries/Drivers/BH1750/bh1750.c ****  */
   8:Libraries/Drivers/BH1750/bh1750.c **** 
   9:Libraries/Drivers/BH1750/bh1750.c **** #include "bh1750.h"
  10:Libraries/Drivers/BH1750/bh1750.c **** 
  11:Libraries/Drivers/BH1750/bh1750.c **** void BH1750Init(uint8_t mode) {
  12:Libraries/Drivers/BH1750/bh1750.c ****   I2C1_Init();
  13:Libraries/Drivers/BH1750/bh1750.c ****   BH1750configure(mode);
  14:Libraries/Drivers/BH1750/bh1750.c **** }
  15:Libraries/Drivers/BH1750/bh1750.c **** 
  16:Libraries/Drivers/BH1750/bh1750.c **** void BH1750configure(uint8_t mode) {
  17:Libraries/Drivers/BH1750/bh1750.c **** 
  18:Libraries/Drivers/BH1750/bh1750.c ****     switch (mode) {
  19:Libraries/Drivers/BH1750/bh1750.c ****         case BH1750_CONTINUOUS_HIGH_RES_MODE:
  20:Libraries/Drivers/BH1750/bh1750.c ****         case BH1750_CONTINUOUS_HIGH_RES_MODE_2:
  21:Libraries/Drivers/BH1750/bh1750.c ****         case BH1750_CONTINUOUS_LOW_RES_MODE:
  22:Libraries/Drivers/BH1750/bh1750.c ****         case BH1750_ONE_TIME_HIGH_RES_MODE:
  23:Libraries/Drivers/BH1750/bh1750.c ****         case BH1750_ONE_TIME_HIGH_RES_MODE_2:
  24:Libraries/Drivers/BH1750/bh1750.c ****         case BH1750_ONE_TIME_LOW_RES_MODE:
  25:Libraries/Drivers/BH1750/bh1750.c ****             // apply a valid mode change
  26:Libraries/Drivers/BH1750/bh1750.c ****             write8(mode);
  27:Libraries/Drivers/BH1750/bh1750.c ****             //delay_ms(10);
  28:Libraries/Drivers/BH1750/bh1750.c ****             break;
  29:Libraries/Drivers/BH1750/bh1750.c ****         default:
  30:Libraries/Drivers/BH1750/bh1750.c ****             // Invalid measurement mode
  31:Libraries/Drivers/BH1750/bh1750.c ****             break;
ARM GAS  /var/folders/yt/6z6x8bjn5sjf5fbb45bk5m4c0000gn/T//ccgpnMsb.s 			page 3


  32:Libraries/Drivers/BH1750/bh1750.c ****     }
  33:Libraries/Drivers/BH1750/bh1750.c **** }
  34:Libraries/Drivers/BH1750/bh1750.c **** 
  35:Libraries/Drivers/BH1750/bh1750.c **** uint16_t BH1750readLightLevel(void) {
  84              		.loc 1 35 0
  85              		.cfi_startproc
  86              		@ args = 0, pretend = 0, frame = 8
  87              		@ frame_needed = 0, uses_anonymous_args = 0
  88 0000 13B5     		push	{r0, r1, r4, lr}	@
  89              	.LCFI0:
  90              		.cfi_def_cfa_offset 16
  91              		.cfi_offset 4, -8
  92              		.cfi_offset 14, -4
  36:Libraries/Drivers/BH1750/bh1750.c **** 	
  37:Libraries/Drivers/BH1750/bh1750.c ****   uint8_t dataRecv[2];
  38:Libraries/Drivers/BH1750/bh1750.c ****   uint16_t level;
  39:Libraries/Drivers/BH1750/bh1750.c ****   
  40:Libraries/Drivers/BH1750/bh1750.c ****   //I2C1_BeginTransmission(BH1750_I2CADDR);
  41:Libraries/Drivers/BH1750/bh1750.c ****   I2C1_RequestFrom(BH1750_I2CADDR, dataRecv, 2);
  93              		.loc 1 41 0
  94 0002 0222     		movs	r2, #2	@,
  95 0004 01A9     		add	r1, sp, #4	@,,
  96 0006 2320     		movs	r0, #35	@,
  97 0008 FFF7FEFF 		bl	I2C1_RequestFrom	@
  98              	.LVL0:
  42:Libraries/Drivers/BH1750/bh1750.c **** 
  43:Libraries/Drivers/BH1750/bh1750.c ****   level = dataRecv[0];
  44:Libraries/Drivers/BH1750/bh1750.c ****   level <<= 8;
  45:Libraries/Drivers/BH1750/bh1750.c ****   level |= dataRecv[1];
  99              		.loc 1 45 0
 100 000c 9DF80530 		ldrb	r3, [sp, #5]	@ zero_extendqisi2	@ dataRecv, dataRecv
  43:Libraries/Drivers/BH1750/bh1750.c ****   level <<= 8;
 101              		.loc 1 43 0
 102 0010 9DF80440 		ldrb	r4, [sp, #4]	@ zero_extendqisi2	@ level, dataRecv
 103              	.LVL1:
 104              		.loc 1 45 0
 105 0014 43EA0424 		orr	r4, r3, r4, lsl #8	@, level, dataRecv, level,
 106              	.LVL2:
  46:Libraries/Drivers/BH1750/bh1750.c **** 
  47:Libraries/Drivers/BH1750/bh1750.c ****   I2C1_EndTransmission();
 107              		.loc 1 47 0
 108 0018 FFF7FEFF 		bl	I2C1_EndTransmission	@
 109              	.LVL3:
  48:Libraries/Drivers/BH1750/bh1750.c **** 
  49:Libraries/Drivers/BH1750/bh1750.c ****   level = level/1.2; // convert to lux
 110              		.loc 1 49 0
 111 001c 2046     		mov	r0, r4	@, level
 112 001e FFF7FEFF 		bl	__aeabi_i2d	@
 113              	.LVL4:
 114 0022 4FF03332 		mov	r2, #858993459	@,
 115 0026 044B     		ldr	r3, .L2	@,
 116 0028 FFF7FEFF 		bl	__aeabi_ddiv	@
 117              	.LVL5:
 118 002c FFF7FEFF 		bl	__aeabi_d2uiz	@
 119              	.LVL6:
  50:Libraries/Drivers/BH1750/bh1750.c **** 
  51:Libraries/Drivers/BH1750/bh1750.c ****   return level;
ARM GAS  /var/folders/yt/6z6x8bjn5sjf5fbb45bk5m4c0000gn/T//ccgpnMsb.s 			page 4


  52:Libraries/Drivers/BH1750/bh1750.c **** }
 120              		.loc 1 52 0
 121 0030 80B2     		uxth	r0, r0	@,
 122 0032 02B0     		add	sp, sp, #8	@,,
 123              	.LCFI1:
 124              		.cfi_def_cfa_offset 8
 125              		@ sp needed	@
 126 0034 10BD     		pop	{r4, pc}	@
 127              	.L3:
 128 0036 00BF     		.align	2
 129              	.L2:
 130 0038 3333F33F 		.word	1072902963
 131              		.cfi_endproc
 132              	.LFE36:
 133              		.size	BH1750readLightLevel, .-BH1750readLightLevel
 134              		.align	1
 135              		.global	write8
 136              		.thumb
 137              		.thumb_func
 138              		.type	write8, %function
 139              	write8:
 140              	.LFB37:
  53:Libraries/Drivers/BH1750/bh1750.c **** 
  54:Libraries/Drivers/BH1750/bh1750.c **** 
  55:Libraries/Drivers/BH1750/bh1750.c **** /*********************************************************************/
  56:Libraries/Drivers/BH1750/bh1750.c **** 
  57:Libraries/Drivers/BH1750/bh1750.c **** 
  58:Libraries/Drivers/BH1750/bh1750.c **** void write8(uint8_t d) {
 141              		.loc 1 58 0
 142              		.cfi_startproc
 143              		@ args = 0, pretend = 0, frame = 0
 144              		@ frame_needed = 0, uses_anonymous_args = 0
 145              	.LVL7:
 146 003c 10B5     		push	{r4, lr}	@
 147              	.LCFI2:
 148              		.cfi_def_cfa_offset 8
 149              		.cfi_offset 4, -8
 150              		.cfi_offset 14, -4
 151              		.loc 1 58 0
 152 003e 0446     		mov	r4, r0	@ d, d
  59:Libraries/Drivers/BH1750/bh1750.c ****   I2C1_BeginTransmission(BH1750_I2CADDR);
 153              		.loc 1 59 0
 154 0040 2320     		movs	r0, #35	@,
 155              	.LVL8:
 156 0042 FFF7FEFF 		bl	I2C1_BeginTransmission	@
 157              	.LVL9:
  60:Libraries/Drivers/BH1750/bh1750.c ****   I2C1_Write(d);
 158              		.loc 1 60 0
 159 0046 2046     		mov	r0, r4	@, d
 160 0048 FFF7FEFF 		bl	I2C1_Write	@
 161              	.LVL10:
  61:Libraries/Drivers/BH1750/bh1750.c ****   I2C1_EndTransmission();
  62:Libraries/Drivers/BH1750/bh1750.c **** }
 162              		.loc 1 62 0
 163 004c BDE81040 		pop	{r4, lr}	@
 164              	.LCFI3:
 165              		.cfi_restore 14
ARM GAS  /var/folders/yt/6z6x8bjn5sjf5fbb45bk5m4c0000gn/T//ccgpnMsb.s 			page 5


 166              		.cfi_restore 4
 167              		.cfi_def_cfa_offset 0
  61:Libraries/Drivers/BH1750/bh1750.c ****   I2C1_EndTransmission();
 168              		.loc 1 61 0
 169 0050 FFF7FEBF 		b	I2C1_EndTransmission	@
 170              	.LVL11:
 171              		.cfi_endproc
 172              	.LFE37:
 173              		.size	write8, .-write8
 174              		.align	1
 175              		.global	BH1750configure
 176              		.thumb
 177              		.thumb_func
 178              		.type	BH1750configure, %function
 179              	BH1750configure:
 180              	.LFB35:
  16:Libraries/Drivers/BH1750/bh1750.c **** 
 181              		.loc 1 16 0
 182              		.cfi_startproc
 183              		@ args = 0, pretend = 0, frame = 0
 184              		@ frame_needed = 0, uses_anonymous_args = 0
 185              		@ link register save eliminated.
 186              	.LVL12:
 187 0054 A0F11003 		sub	r3, r0, #16	@ tmp115, mode,
 188 0058 DBB2     		uxtb	r3, r3	@ D.5874, tmp115
 189 005a 132B     		cmp	r3, #19	@ D.5874,
 190 005c 07D8     		bhi	.L5	@,
 191 005e 0122     		movs	r2, #1	@ tmp117,
 192 0060 02FA03F3 		lsl	r3, r2, r3	@ D.5875, tmp117, D.5874
 193 0064 13F00B1F 		tst	r3, #720907	@ D.5875,
 194 0068 01D0     		beq	.L5	@,
  26:Libraries/Drivers/BH1750/bh1750.c ****             //delay_ms(10);
 195              		.loc 1 26 0
 196 006a FFF7FEBF 		b	write8	@
 197              	.LVL13:
 198              	.L5:
 199 006e 7047     		bx	lr	@
 200              		.cfi_endproc
 201              	.LFE35:
 202              		.size	BH1750configure, .-BH1750configure
 203              		.align	1
 204              		.global	BH1750Init
 205              		.thumb
 206              		.thumb_func
 207              		.type	BH1750Init, %function
 208              	BH1750Init:
 209              	.LFB34:
  11:Libraries/Drivers/BH1750/bh1750.c ****   I2C1_Init();
 210              		.loc 1 11 0
 211              		.cfi_startproc
 212              		@ args = 0, pretend = 0, frame = 0
 213              		@ frame_needed = 0, uses_anonymous_args = 0
 214              	.LVL14:
 215 0070 10B5     		push	{r4, lr}	@
 216              	.LCFI4:
 217              		.cfi_def_cfa_offset 8
 218              		.cfi_offset 4, -8
ARM GAS  /var/folders/yt/6z6x8bjn5sjf5fbb45bk5m4c0000gn/T//ccgpnMsb.s 			page 6


 219              		.cfi_offset 14, -4
  11:Libraries/Drivers/BH1750/bh1750.c ****   I2C1_Init();
 220              		.loc 1 11 0
 221 0072 0446     		mov	r4, r0	@ mode, mode
  12:Libraries/Drivers/BH1750/bh1750.c ****   BH1750configure(mode);
 222              		.loc 1 12 0
 223 0074 FFF7FEFF 		bl	I2C1_Init	@
 224              	.LVL15:
  13:Libraries/Drivers/BH1750/bh1750.c **** }
 225              		.loc 1 13 0
 226 0078 2046     		mov	r0, r4	@, mode
  14:Libraries/Drivers/BH1750/bh1750.c **** 
 227              		.loc 1 14 0
 228 007a BDE81040 		pop	{r4, lr}	@
 229              	.LCFI5:
 230              		.cfi_restore 14
 231              		.cfi_restore 4
 232              		.cfi_def_cfa_offset 0
  13:Libraries/Drivers/BH1750/bh1750.c **** }
 233              		.loc 1 13 0
 234 007e FFF7FEBF 		b	BH1750configure	@
 235              	.LVL16:
 236              		.cfi_endproc
 237              	.LFE34:
 238              		.size	BH1750Init, .-BH1750Init
 239              	.Letext0:
 240              		.file 2 "/usr/local/Cellar/arm-none-eabi-gcc/20150921/arm-none-eabi/include/machine/_default_types
 241              		.file 3 "/usr/local/Cellar/arm-none-eabi-gcc/20150921/arm-none-eabi/include/sys/_stdint.h"
 242              		.file 4 "./Libraries/CMSIS/CM3/DeviceSupport/ST/STM32F10x/STM32f10x.h"
 243              		.file 5 "./Libraries/Drivers/i2c/i2c1_remap.h"
 244              		.file 6 "./Libraries/CMSIS/CM3/CoreSupport/core_cm3.h"