ARM GAS  /var/folders/yt/6z6x8bjn5sjf5fbb45bk5m4c0000gn/T//ccUpGy7j.s 			page 1


   1              		.syntax unified
   2              		.cpu cortex-m3
   3              		.fpu softvfp
   4              		.eabi_attribute 20, 1	@ Tag_ABI_FP_denormal
   5              		.eabi_attribute 21, 1	@ Tag_ABI_FP_exceptions
   6              		.eabi_attribute 23, 3	@ Tag_ABI_FP_number_model
   7              		.eabi_attribute 24, 1	@ Tag_ABI_align8_needed
   8              		.eabi_attribute 25, 1	@ Tag_ABI_align8_preserved
   9              		.eabi_attribute 26, 1	@ Tag_ABI_enum_size
  10              		.eabi_attribute 30, 4	@ Tag_ABI_optimization_goals
  11              		.eabi_attribute 34, 1	@ Tag_CPU_unaligned_access
  12              		.eabi_attribute 18, 4	@ Tag_ABI_PCS_wchar_t
  13              		.file	"list.c"
  14              	@ GNU C (GNU Tools for ARM Embedded Processors) version 4.9.3 20150529 (release) [ARM/embedded-4_9-
  15              	@	compiled by GNU C version 4.2.1 (Based on Apple Inc. build 5658) (LLVM build 2336.9.00), GMP vers
  16              	@ GGC heuristics: --param ggc-min-expand=100 --param ggc-min-heapsize=131072
  17              	@ options passed:  -I . -I ./Libraries/CMSIS/CM3/CoreSupport
  18              	@ -I ./Libraries/CMSIS/CM3/DeviceSupport/ST/STM32F10x
  19              	@ -I ./Libraries/STM32F10x_StdPeriph_Driver/inc -I ./Libraries/Drivers/Leds
  20              	@ -I ./Libraries/Drivers/Buttons -I ./Libraries/Drivers/Usart
  21              	@ -I ./Libraries/Drivers/i2c -I ./Libraries/Drivers/BH1750
  22              	@ -I ./Libraries/Drivers/Utilities -I ./FreeRTOS/Source/include
  23              	@ -I ./FreeRTOS/Source/portable/GCC/ARM_CM3 -imultilib armv7-m
  24              	@ -iprefix /usr/local/Cellar/arm-none-eabi-gcc/20150921/bin/../lib/gcc/arm-none-eabi/4.9.3/
  25              	@ -isysroot /usr/local/Cellar/arm-none-eabi-gcc/20150921/bin/../arm-none-eabi
  26              	@ -MD FreeRTOS/Source/list.d -MF .dep/list.o.d -MP
  27              	@ -MQ FreeRTOS/Source/list.o -D__USES_INITFINI__ -D STM32F10X_MD
  28              	@ -D USE_STDPERIPH_DRIVER -D GCC_ARMCM3 -D RUN_FROM_FLASH=1
  29              	@ FreeRTOS/Source/list.c -mcpu=cortex-m3 -mthumb
  30              	@ -auxbase-strip FreeRTOS/Source/list.o -gdwarf-2 -Os -Wall
  31              	@ -Wstrict-prototypes -fomit-frame-pointer -fverbose-asm
  32              	@ options enabled:  -faggressive-loop-optimizations -fauto-inc-dec
  33              	@ -fbranch-count-reg -fcaller-saves -fcombine-stack-adjustments -fcommon
  34              	@ -fcompare-elim -fcprop-registers -fcrossjumping -fcse-follow-jumps
  35              	@ -fdefer-pop -fdelete-null-pointer-checks -fdevirtualize
  36              	@ -fdevirtualize-speculatively -fdwarf2-cfi-asm -fearly-inlining
  37              	@ -feliminate-unused-debug-types -fexpensive-optimizations
  38              	@ -fforward-propagate -ffunction-cse -fgcse -fgcse-lm -fgnu-runtime
  39              	@ -fgnu-unique -fguess-branch-probability -fhoist-adjacent-loads -fident
  40              	@ -fif-conversion -fif-conversion2 -findirect-inlining -finline
  41              	@ -finline-atomics -finline-functions -finline-functions-called-once
  42              	@ -finline-small-functions -fipa-cp -fipa-profile -fipa-pure-const
  43              	@ -fipa-reference -fipa-sra -fira-hoist-pressure -fira-share-save-slots
  44              	@ -fira-share-spill-slots -fisolate-erroneous-paths-dereference -fivopts
  45              	@ -fkeep-static-consts -fleading-underscore -flifetime-dse -fmath-errno
  46              	@ -fmerge-constants -fmerge-debug-strings -fomit-frame-pointer
  47              	@ -foptimize-sibling-calls -fpartial-inlining -fpeephole -fpeephole2
  48              	@ -fprefetch-loop-arrays -freg-struct-return -freorder-blocks
  49              	@ -freorder-functions -frerun-cse-after-loop
  50              	@ -fsched-critical-path-heuristic -fsched-dep-count-heuristic
  51              	@ -fsched-group-heuristic -fsched-interblock -fsched-last-insn-heuristic
  52              	@ -fsched-pressure -fsched-rank-heuristic -fsched-spec
  53              	@ -fsched-spec-insn-heuristic -fsched-stalled-insns-dep -fschedule-insns2
  54              	@ -fsection-anchors -fshow-column -fsigned-zeros -fsplit-ivs-in-unroller
  55              	@ -fsplit-wide-types -fstrict-aliasing -fstrict-overflow
  56              	@ -fstrict-volatile-bitfields -fsync-libcalls -fthread-jumps
  57              	@ -ftoplevel-reorder -ftrapping-math -ftree-bit-ccp -ftree-builtin-call-dce
ARM GAS  /var/folders/yt/6z6x8bjn5sjf5fbb45bk5m4c0000gn/T//ccUpGy7j.s 			page 2


  58              	@ -ftree-ccp -ftree-ch -ftree-coalesce-vars -ftree-copy-prop
  59              	@ -ftree-copyrename -ftree-cselim -ftree-dce -ftree-dominator-opts
  60              	@ -ftree-dse -ftree-forwprop -ftree-fre -ftree-loop-if-convert
  61              	@ -ftree-loop-im -ftree-loop-ivcanon -ftree-loop-optimize
  62              	@ -ftree-parallelize-loops= -ftree-phiprop -ftree-pre -ftree-pta
  63              	@ -ftree-reassoc -ftree-scev-cprop -ftree-sink -ftree-slsr -ftree-sra
  64              	@ -ftree-switch-conversion -ftree-tail-merge -ftree-ter -ftree-vrp
  65              	@ -funit-at-a-time -fvar-tracking -fvar-tracking-assignments -fverbose-asm
  66              	@ -fzero-initialized-in-bss -mfix-cortex-m3-ldrd -mlittle-endian -mlra
  67              	@ -mpic-data-is-text-relative -msched-prolog -mthumb -munaligned-access
  68              	@ -mvectorize-with-neon-quad
  69              	
  70              		.text
  71              	.Ltext0:
  72              		.cfi_sections	.debug_frame
  73              		.align	1
  74              		.global	vListInitialise
  75              		.thumb
  76              		.thumb_func
  77              		.type	vListInitialise, %function
  78              	vListInitialise:
  79              	.LFB5:
  80              		.file 1 "FreeRTOS/Source/list.c"
   1:FreeRTOS/Source/list.c **** /*
   2:FreeRTOS/Source/list.c ****     FreeRTOS V9.0.0 - Copyright (C) 2016 Real Time Engineers Ltd.
   3:FreeRTOS/Source/list.c ****     All rights reserved
   4:FreeRTOS/Source/list.c **** 
   5:FreeRTOS/Source/list.c ****     VISIT http://www.FreeRTOS.org TO ENSURE YOU ARE USING THE LATEST VERSION.
   6:FreeRTOS/Source/list.c **** 
   7:FreeRTOS/Source/list.c ****     This file is part of the FreeRTOS distribution.
   8:FreeRTOS/Source/list.c **** 
   9:FreeRTOS/Source/list.c ****     FreeRTOS is free software; you can redistribute it and/or modify it under
  10:FreeRTOS/Source/list.c ****     the terms of the GNU General Public License (version 2) as published by the
  11:FreeRTOS/Source/list.c ****     Free Software Foundation >>>> AND MODIFIED BY <<<< the FreeRTOS exception.
  12:FreeRTOS/Source/list.c **** 
  13:FreeRTOS/Source/list.c ****     ***************************************************************************
  14:FreeRTOS/Source/list.c ****     >>!   NOTE: The modification to the GPL is included to allow you to     !<<
  15:FreeRTOS/Source/list.c ****     >>!   distribute a combined work that includes FreeRTOS without being   !<<
  16:FreeRTOS/Source/list.c ****     >>!   obliged to provide the source code for proprietary components     !<<
  17:FreeRTOS/Source/list.c ****     >>!   outside of the FreeRTOS kernel.                                   !<<
  18:FreeRTOS/Source/list.c ****     ***************************************************************************
  19:FreeRTOS/Source/list.c **** 
  20:FreeRTOS/Source/list.c ****     FreeRTOS is distributed in the hope that it will be useful, but WITHOUT ANY
  21:FreeRTOS/Source/list.c ****     WARRANTY; without even the implied warranty of MERCHANTABILITY or FITNESS
  22:FreeRTOS/Source/list.c ****     FOR A PARTICULAR PURPOSE.  Full license text is available on the following
  23:FreeRTOS/Source/list.c ****     link: http://www.freertos.org/a00114.html
  24:FreeRTOS/Source/list.c **** 
  25:FreeRTOS/Source/list.c ****     ***************************************************************************
  26:FreeRTOS/Source/list.c ****      *                                                                       *
  27:FreeRTOS/Source/list.c ****      *    FreeRTOS provides completely free yet professionally developed,    *
  28:FreeRTOS/Source/list.c ****      *    robust, strictly quality controlled, supported, and cross          *
  29:FreeRTOS/Source/list.c ****      *    platform software that is more than just the market leader, it     *
  30:FreeRTOS/Source/list.c ****      *    is the industry's de facto standard.                               *
  31:FreeRTOS/Source/list.c ****      *                                                                       *
  32:FreeRTOS/Source/list.c ****      *    Help yourself get started quickly while simultaneously helping     *
  33:FreeRTOS/Source/list.c ****      *    to support the FreeRTOS project by purchasing a FreeRTOS           *
  34:FreeRTOS/Source/list.c ****      *    tutorial book, reference manual, or both:                          *
ARM GAS  /var/folders/yt/6z6x8bjn5sjf5fbb45bk5m4c0000gn/T//ccUpGy7j.s 			page 3


  35:FreeRTOS/Source/list.c ****      *    http://www.FreeRTOS.org/Documentation                              *
  36:FreeRTOS/Source/list.c ****      *                                                                       *
  37:FreeRTOS/Source/list.c ****     ***************************************************************************
  38:FreeRTOS/Source/list.c **** 
  39:FreeRTOS/Source/list.c ****     http://www.FreeRTOS.org/FAQHelp.html - Having a problem?  Start by reading
  40:FreeRTOS/Source/list.c ****     the FAQ page "My application does not run, what could be wrong?".  Have you
  41:FreeRTOS/Source/list.c ****     defined configASSERT()?
  42:FreeRTOS/Source/list.c **** 
  43:FreeRTOS/Source/list.c ****     http://www.FreeRTOS.org/support - In return for receiving this top quality
  44:FreeRTOS/Source/list.c ****     embedded software for free we request you assist our global community by
  45:FreeRTOS/Source/list.c ****     participating in the support forum.
  46:FreeRTOS/Source/list.c **** 
  47:FreeRTOS/Source/list.c ****     http://www.FreeRTOS.org/training - Investing in training allows your team to
  48:FreeRTOS/Source/list.c ****     be as productive as possible as early as possible.  Now you can receive
  49:FreeRTOS/Source/list.c ****     FreeRTOS training directly from Richard Barry, CEO of Real Time Engineers
  50:FreeRTOS/Source/list.c ****     Ltd, and the world's leading authority on the world's leading RTOS.
  51:FreeRTOS/Source/list.c **** 
  52:FreeRTOS/Source/list.c ****     http://www.FreeRTOS.org/plus - A selection of FreeRTOS ecosystem products,
  53:FreeRTOS/Source/list.c ****     including FreeRTOS+Trace - an indispensable productivity tool, a DOS
  54:FreeRTOS/Source/list.c ****     compatible FAT file system, and our tiny thread aware UDP/IP stack.
  55:FreeRTOS/Source/list.c **** 
  56:FreeRTOS/Source/list.c ****     http://www.FreeRTOS.org/labs - Where new FreeRTOS products go to incubate.
  57:FreeRTOS/Source/list.c ****     Come and try FreeRTOS+TCP, our new open source TCP/IP stack for FreeRTOS.
  58:FreeRTOS/Source/list.c **** 
  59:FreeRTOS/Source/list.c ****     http://www.OpenRTOS.com - Real Time Engineers ltd. license FreeRTOS to High
  60:FreeRTOS/Source/list.c ****     Integrity Systems ltd. to sell under the OpenRTOS brand.  Low cost OpenRTOS
  61:FreeRTOS/Source/list.c ****     licenses offer ticketed support, indemnification and commercial middleware.
  62:FreeRTOS/Source/list.c **** 
  63:FreeRTOS/Source/list.c ****     http://www.SafeRTOS.com - High Integrity Systems also provide a safety
  64:FreeRTOS/Source/list.c ****     engineered and independently SIL3 certified version for use in safety and
  65:FreeRTOS/Source/list.c ****     mission critical applications that require provable dependability.
  66:FreeRTOS/Source/list.c **** 
  67:FreeRTOS/Source/list.c ****     1 tab == 4 spaces!
  68:FreeRTOS/Source/list.c **** */
  69:FreeRTOS/Source/list.c **** 
  70:FreeRTOS/Source/list.c **** 
  71:FreeRTOS/Source/list.c **** #include <stdlib.h>
  72:FreeRTOS/Source/list.c **** #include "FreeRTOS.h"
  73:FreeRTOS/Source/list.c **** #include "list.h"
  74:FreeRTOS/Source/list.c **** 
  75:FreeRTOS/Source/list.c **** /*-----------------------------------------------------------
  76:FreeRTOS/Source/list.c ****  * PUBLIC LIST API documented in list.h
  77:FreeRTOS/Source/list.c ****  *----------------------------------------------------------*/
  78:FreeRTOS/Source/list.c **** 
  79:FreeRTOS/Source/list.c **** void vListInitialise( List_t * const pxList )
  80:FreeRTOS/Source/list.c **** {
  81              		.loc 1 80 0
  82              		.cfi_startproc
  83              		@ args = 0, pretend = 0, frame = 0
  84              		@ frame_needed = 0, uses_anonymous_args = 0
  85              		@ link register save eliminated.
  86              	.LVL0:
  81:FreeRTOS/Source/list.c **** 	/* The list structure contains a list item which is used to mark the
  82:FreeRTOS/Source/list.c **** 	end of the list.  To initialise the list the list end is inserted
  83:FreeRTOS/Source/list.c **** 	as the only list entry. */
  84:FreeRTOS/Source/list.c **** 	pxList->pxIndex = ( ListItem_t * ) &( pxList->xListEnd );			/*lint !e826 !e740 The mini list struc
  87              		.loc 1 84 0
ARM GAS  /var/folders/yt/6z6x8bjn5sjf5fbb45bk5m4c0000gn/T//ccUpGy7j.s 			page 4


  88 0000 00F10803 		add	r3, r0, #8	@ D.4890, pxList,
  89 0004 4360     		str	r3, [r0, #4]	@ D.4890, pxList_1(D)->pxIndex
  85:FreeRTOS/Source/list.c **** 
  86:FreeRTOS/Source/list.c **** 	/* The list end value is the highest possible value in the list to
  87:FreeRTOS/Source/list.c **** 	ensure it remains at the end of the list. */
  88:FreeRTOS/Source/list.c **** 	pxList->xListEnd.xItemValue = portMAX_DELAY;
  90              		.loc 1 88 0
  91 0006 4FF0FF32 		mov	r2, #-1	@ tmp112,
  89:FreeRTOS/Source/list.c **** 
  90:FreeRTOS/Source/list.c **** 	/* The list end next and previous pointers point to itself so we know
  91:FreeRTOS/Source/list.c **** 	when the list is empty. */
  92:FreeRTOS/Source/list.c **** 	pxList->xListEnd.pxNext = ( ListItem_t * ) &( pxList->xListEnd );	/*lint !e826 !e740 The mini list
  92              		.loc 1 92 0
  93 000a C360     		str	r3, [r0, #12]	@ D.4890, pxList_1(D)->xListEnd.pxNext
  93:FreeRTOS/Source/list.c **** 	pxList->xListEnd.pxPrevious = ( ListItem_t * ) &( pxList->xListEnd );/*lint !e826 !e740 The mini l
  94              		.loc 1 93 0
  95 000c 0361     		str	r3, [r0, #16]	@ D.4890, pxList_1(D)->xListEnd.pxPrevious
  94:FreeRTOS/Source/list.c **** 
  95:FreeRTOS/Source/list.c **** 	pxList->uxNumberOfItems = ( UBaseType_t ) 0U;
  96              		.loc 1 95 0
  97 000e 0023     		movs	r3, #0	@ tmp113,
  88:FreeRTOS/Source/list.c **** 
  98              		.loc 1 88 0
  99 0010 8260     		str	r2, [r0, #8]	@ tmp112, pxList_1(D)->xListEnd.xItemValue
 100              		.loc 1 95 0
 101 0012 0360     		str	r3, [r0]	@ tmp113, pxList_1(D)->uxNumberOfItems
 102 0014 7047     		bx	lr	@
 103              		.cfi_endproc
 104              	.LFE5:
 105              		.size	vListInitialise, .-vListInitialise
 106              		.align	1
 107              		.global	vListInitialiseItem
 108              		.thumb
 109              		.thumb_func
 110              		.type	vListInitialiseItem, %function
 111              	vListInitialiseItem:
 112              	.LFB6:
  96:FreeRTOS/Source/list.c **** 
  97:FreeRTOS/Source/list.c **** 	/* Write known values into the list if
  98:FreeRTOS/Source/list.c **** 	configUSE_LIST_DATA_INTEGRITY_CHECK_BYTES is set to 1. */
  99:FreeRTOS/Source/list.c **** 	listSET_LIST_INTEGRITY_CHECK_1_VALUE( pxList );
 100:FreeRTOS/Source/list.c **** 	listSET_LIST_INTEGRITY_CHECK_2_VALUE( pxList );
 101:FreeRTOS/Source/list.c **** }
 102:FreeRTOS/Source/list.c **** /*-----------------------------------------------------------*/
 103:FreeRTOS/Source/list.c **** 
 104:FreeRTOS/Source/list.c **** void vListInitialiseItem( ListItem_t * const pxItem )
 105:FreeRTOS/Source/list.c **** {
 113              		.loc 1 105 0
 114              		.cfi_startproc
 115              		@ args = 0, pretend = 0, frame = 0
 116              		@ frame_needed = 0, uses_anonymous_args = 0
 117              		@ link register save eliminated.
 118              	.LVL1:
 106:FreeRTOS/Source/list.c **** 	/* Make sure the list item is not recorded as being on a list. */
 107:FreeRTOS/Source/list.c **** 	pxItem->pvContainer = NULL;
 119              		.loc 1 107 0
 120 0016 0023     		movs	r3, #0	@ tmp111,
ARM GAS  /var/folders/yt/6z6x8bjn5sjf5fbb45bk5m4c0000gn/T//ccUpGy7j.s 			page 5


 121 0018 0361     		str	r3, [r0, #16]	@ tmp111, pxItem_2(D)->pvContainer
 122 001a 7047     		bx	lr	@
 123              		.cfi_endproc
 124              	.LFE6:
 125              		.size	vListInitialiseItem, .-vListInitialiseItem
 126              		.align	1
 127              		.global	vListInsertEnd
 128              		.thumb
 129              		.thumb_func
 130              		.type	vListInsertEnd, %function
 131              	vListInsertEnd:
 132              	.LFB7:
 108:FreeRTOS/Source/list.c **** 
 109:FreeRTOS/Source/list.c **** 	/* Write known values into the list item if
 110:FreeRTOS/Source/list.c **** 	configUSE_LIST_DATA_INTEGRITY_CHECK_BYTES is set to 1. */
 111:FreeRTOS/Source/list.c **** 	listSET_FIRST_LIST_ITEM_INTEGRITY_CHECK_VALUE( pxItem );
 112:FreeRTOS/Source/list.c **** 	listSET_SECOND_LIST_ITEM_INTEGRITY_CHECK_VALUE( pxItem );
 113:FreeRTOS/Source/list.c **** }
 114:FreeRTOS/Source/list.c **** /*-----------------------------------------------------------*/
 115:FreeRTOS/Source/list.c **** 
 116:FreeRTOS/Source/list.c **** void vListInsertEnd( List_t * const pxList, ListItem_t * const pxNewListItem )
 117:FreeRTOS/Source/list.c **** {
 133              		.loc 1 117 0
 134              		.cfi_startproc
 135              		@ args = 0, pretend = 0, frame = 0
 136              		@ frame_needed = 0, uses_anonymous_args = 0
 137              		@ link register save eliminated.
 138              	.LVL2:
 118:FreeRTOS/Source/list.c **** ListItem_t * const pxIndex = pxList->pxIndex;
 139              		.loc 1 118 0
 140 001c 4368     		ldr	r3, [r0, #4]	@ pxIndex, pxList_2(D)->pxIndex
 141              	.LVL3:
 119:FreeRTOS/Source/list.c **** 
 120:FreeRTOS/Source/list.c **** 	/* Only effective when configASSERT() is also defined, these tests may catch
 121:FreeRTOS/Source/list.c **** 	the list data structures being overwritten in memory.  They will not catch
 122:FreeRTOS/Source/list.c **** 	data errors caused by incorrect configuration or use of FreeRTOS. */
 123:FreeRTOS/Source/list.c **** 	listTEST_LIST_INTEGRITY( pxList );
 124:FreeRTOS/Source/list.c **** 	listTEST_LIST_ITEM_INTEGRITY( pxNewListItem );
 125:FreeRTOS/Source/list.c **** 
 126:FreeRTOS/Source/list.c **** 	/* Insert a new list item into pxList, but rather than sort the list,
 127:FreeRTOS/Source/list.c **** 	makes the new list item the last item to be removed by a call to
 128:FreeRTOS/Source/list.c **** 	listGET_OWNER_OF_NEXT_ENTRY(). */
 129:FreeRTOS/Source/list.c **** 	pxNewListItem->pxNext = pxIndex;
 130:FreeRTOS/Source/list.c **** 	pxNewListItem->pxPrevious = pxIndex->pxPrevious;
 142              		.loc 1 130 0
 143 001e 9A68     		ldr	r2, [r3, #8]	@ D.4895, pxIndex_3->pxPrevious
 129:FreeRTOS/Source/list.c **** 	pxNewListItem->pxPrevious = pxIndex->pxPrevious;
 144              		.loc 1 129 0
 145 0020 4B60     		str	r3, [r1, #4]	@ pxIndex, pxNewListItem_4(D)->pxNext
 146              		.loc 1 130 0
 147 0022 8A60     		str	r2, [r1, #8]	@ D.4895, pxNewListItem_4(D)->pxPrevious
 131:FreeRTOS/Source/list.c **** 
 132:FreeRTOS/Source/list.c **** 	/* Only used during decision coverage testing. */
 133:FreeRTOS/Source/list.c **** 	mtCOVERAGE_TEST_DELAY();
 134:FreeRTOS/Source/list.c **** 
 135:FreeRTOS/Source/list.c **** 	pxIndex->pxPrevious->pxNext = pxNewListItem;
 148              		.loc 1 135 0
ARM GAS  /var/folders/yt/6z6x8bjn5sjf5fbb45bk5m4c0000gn/T//ccUpGy7j.s 			page 6


 149 0024 9A68     		ldr	r2, [r3, #8]	@ pxIndex_3->pxPrevious, pxIndex_3->pxPrevious
 150 0026 5160     		str	r1, [r2, #4]	@ pxNewListItem, _8->pxNext
 136:FreeRTOS/Source/list.c **** 	pxIndex->pxPrevious = pxNewListItem;
 151              		.loc 1 136 0
 152 0028 9960     		str	r1, [r3, #8]	@ pxNewListItem, pxIndex_3->pxPrevious
 137:FreeRTOS/Source/list.c **** 
 138:FreeRTOS/Source/list.c **** 	/* Remember which list the item is in. */
 139:FreeRTOS/Source/list.c **** 	pxNewListItem->pvContainer = ( void * ) pxList;
 140:FreeRTOS/Source/list.c **** 
 141:FreeRTOS/Source/list.c **** 	( pxList->uxNumberOfItems )++;
 153              		.loc 1 141 0
 154 002a 0368     		ldr	r3, [r0]	@ pxList_2(D)->uxNumberOfItems, pxList_2(D)->uxNumberOfItems
 155              	.LVL4:
 139:FreeRTOS/Source/list.c **** 
 156              		.loc 1 139 0
 157 002c 0861     		str	r0, [r1, #16]	@ pxList, pxNewListItem_4(D)->pvContainer
 158              		.loc 1 141 0
 159 002e 0133     		adds	r3, r3, #1	@ D.4896, pxList_2(D)->uxNumberOfItems,
 160 0030 0360     		str	r3, [r0]	@ D.4896, pxList_2(D)->uxNumberOfItems
 161 0032 7047     		bx	lr	@
 162              		.cfi_endproc
 163              	.LFE7:
 164              		.size	vListInsertEnd, .-vListInsertEnd
 165              		.align	1
 166              		.global	vListInsert
 167              		.thumb
 168              		.thumb_func
 169              		.type	vListInsert, %function
 170              	vListInsert:
 171              	.LFB8:
 142:FreeRTOS/Source/list.c **** }
 143:FreeRTOS/Source/list.c **** /*-----------------------------------------------------------*/
 144:FreeRTOS/Source/list.c **** 
 145:FreeRTOS/Source/list.c **** void vListInsert( List_t * const pxList, ListItem_t * const pxNewListItem )
 146:FreeRTOS/Source/list.c **** {
 172              		.loc 1 146 0
 173              		.cfi_startproc
 174              		@ args = 0, pretend = 0, frame = 0
 175              		@ frame_needed = 0, uses_anonymous_args = 0
 176              	.LVL5:
 147:FreeRTOS/Source/list.c **** ListItem_t *pxIterator;
 148:FreeRTOS/Source/list.c **** const TickType_t xValueOfInsertion = pxNewListItem->xItemValue;
 177              		.loc 1 148 0
 178 0034 0A68     		ldr	r2, [r1]	@ xValueOfInsertion, pxNewListItem_4(D)->xItemValue
 179              	.LVL6:
 146:FreeRTOS/Source/list.c **** ListItem_t *pxIterator;
 180              		.loc 1 146 0
 181 0036 30B5     		push	{r4, r5, lr}	@
 182              	.LCFI0:
 183              		.cfi_def_cfa_offset 12
 184              		.cfi_offset 4, -12
 185              		.cfi_offset 5, -8
 186              		.cfi_offset 14, -4
 149:FreeRTOS/Source/list.c **** 
 150:FreeRTOS/Source/list.c **** 	/* Only effective when configASSERT() is also defined, these tests may catch
 151:FreeRTOS/Source/list.c **** 	the list data structures being overwritten in memory.  They will not catch
 152:FreeRTOS/Source/list.c **** 	data errors caused by incorrect configuration or use of FreeRTOS. */
ARM GAS  /var/folders/yt/6z6x8bjn5sjf5fbb45bk5m4c0000gn/T//ccUpGy7j.s 			page 7


 153:FreeRTOS/Source/list.c **** 	listTEST_LIST_INTEGRITY( pxList );
 154:FreeRTOS/Source/list.c **** 	listTEST_LIST_ITEM_INTEGRITY( pxNewListItem );
 155:FreeRTOS/Source/list.c **** 
 156:FreeRTOS/Source/list.c **** 	/* Insert the new list item into the list, sorted in xItemValue order.
 157:FreeRTOS/Source/list.c **** 
 158:FreeRTOS/Source/list.c **** 	If the list already contains a list item with the same item value then the
 159:FreeRTOS/Source/list.c **** 	new list item should be placed after it.  This ensures that TCB's which are
 160:FreeRTOS/Source/list.c **** 	stored in ready lists (all of which have the same xItemValue value) get a
 161:FreeRTOS/Source/list.c **** 	share of the CPU.  However, if the xItemValue is the same as the back marker
 162:FreeRTOS/Source/list.c **** 	the iteration loop below will not end.  Therefore the value is checked
 163:FreeRTOS/Source/list.c **** 	first, and the algorithm slightly modified if necessary. */
 164:FreeRTOS/Source/list.c **** 	if( xValueOfInsertion == portMAX_DELAY )
 187              		.loc 1 164 0
 188 0038 531C     		adds	r3, r2, #1	@, xValueOfInsertion,
 189 003a 01D1     		bne	.L5	@,
 165:FreeRTOS/Source/list.c **** 	{
 166:FreeRTOS/Source/list.c **** 		pxIterator = pxList->xListEnd.pxPrevious;
 190              		.loc 1 166 0
 191 003c 0369     		ldr	r3, [r0, #16]	@ pxIterator, pxList_6(D)->xListEnd.pxPrevious
 192              	.LVL7:
 193 003e 07E0     		b	.L6	@
 194              	.LVL8:
 195              	.L5:
 167:FreeRTOS/Source/list.c **** 	}
 168:FreeRTOS/Source/list.c **** 	else
 169:FreeRTOS/Source/list.c **** 	{
 170:FreeRTOS/Source/list.c **** 		/* *** NOTE ***********************************************************
 171:FreeRTOS/Source/list.c **** 		If you find your application is crashing here then likely causes are
 172:FreeRTOS/Source/list.c **** 		listed below.  In addition see http://www.freertos.org/FAQHelp.html for
 173:FreeRTOS/Source/list.c **** 		more tips, and ensure configASSERT() is defined!
 174:FreeRTOS/Source/list.c **** 		http://www.freertos.org/a00110.html#configASSERT
 175:FreeRTOS/Source/list.c **** 
 176:FreeRTOS/Source/list.c **** 			1) Stack overflow -
 177:FreeRTOS/Source/list.c **** 			   see http://www.freertos.org/Stacks-and-stack-overflow-checking.html
 178:FreeRTOS/Source/list.c **** 			2) Incorrect interrupt priority assignment, especially on Cortex-M
 179:FreeRTOS/Source/list.c **** 			   parts where numerically high priority values denote low actual
 180:FreeRTOS/Source/list.c **** 			   interrupt priorities, which can seem counter intuitive.  See
 181:FreeRTOS/Source/list.c **** 			   http://www.freertos.org/RTOS-Cortex-M3-M4.html and the definition
 182:FreeRTOS/Source/list.c **** 			   of configMAX_SYSCALL_INTERRUPT_PRIORITY on
 183:FreeRTOS/Source/list.c **** 			   http://www.freertos.org/a00110.html
 184:FreeRTOS/Source/list.c **** 			3) Calling an API function from within a critical section or when
 185:FreeRTOS/Source/list.c **** 			   the scheduler is suspended, or calling an API function that does
 186:FreeRTOS/Source/list.c **** 			   not end in "FromISR" from an interrupt.
 187:FreeRTOS/Source/list.c **** 			4) Using a queue or semaphore before it has been initialised or
 188:FreeRTOS/Source/list.c **** 			   before the scheduler has been started (are interrupts firing
 189:FreeRTOS/Source/list.c **** 			   before vTaskStartScheduler() has been called?).
 190:FreeRTOS/Source/list.c **** 		**********************************************************************/
 191:FreeRTOS/Source/list.c **** 
 192:FreeRTOS/Source/list.c **** 		for( pxIterator = ( ListItem_t * ) &( pxList->xListEnd ); pxIterator->pxNext->xItemValue <= xValu
 196              		.loc 1 192 0
 197 0040 00F10803 		add	r3, r0, #8	@ pxIterator, pxList,
 198              	.LVL9:
 199              	.L7:
 200              		.loc 1 192 0 is_stmt 0 discriminator 1
 201 0044 5C68     		ldr	r4, [r3, #4]	@ pxIterator, pxIterator_1->pxNext
 202 0046 2568     		ldr	r5, [r4]	@ D.4899, MEM[(struct xLIST_ITEM *)pxIterator_9].xItemValue
 203 0048 9542     		cmp	r5, r2	@ D.4899, xValueOfInsertion
ARM GAS  /var/folders/yt/6z6x8bjn5sjf5fbb45bk5m4c0000gn/T//ccUpGy7j.s 			page 8


 204 004a 01D8     		bhi	.L6	@,
 205 004c 2346     		mov	r3, r4	@ pxIterator, pxIterator
 206              	.LVL10:
 207 004e F9E7     		b	.L7	@
 208              	.LVL11:
 209              	.L6:
 193:FreeRTOS/Source/list.c **** 		{
 194:FreeRTOS/Source/list.c **** 			/* There is nothing to do here, just iterating to the wanted
 195:FreeRTOS/Source/list.c **** 			insertion position. */
 196:FreeRTOS/Source/list.c **** 		}
 197:FreeRTOS/Source/list.c **** 	}
 198:FreeRTOS/Source/list.c **** 
 199:FreeRTOS/Source/list.c **** 	pxNewListItem->pxNext = pxIterator->pxNext;
 210              		.loc 1 199 0 is_stmt 1
 211 0050 5A68     		ldr	r2, [r3, #4]	@ D.4900, pxIterator_2->pxNext
 212              	.LVL12:
 213 0052 4A60     		str	r2, [r1, #4]	@ D.4900, pxNewListItem_4(D)->pxNext
 200:FreeRTOS/Source/list.c **** 	pxNewListItem->pxNext->pxPrevious = pxNewListItem;
 214              		.loc 1 200 0
 215 0054 9160     		str	r1, [r2, #8]	@ pxNewListItem, _11->pxPrevious
 201:FreeRTOS/Source/list.c **** 	pxNewListItem->pxPrevious = pxIterator;
 216              		.loc 1 201 0
 217 0056 8B60     		str	r3, [r1, #8]	@ pxIterator, pxNewListItem_4(D)->pxPrevious
 202:FreeRTOS/Source/list.c **** 	pxIterator->pxNext = pxNewListItem;
 218              		.loc 1 202 0
 219 0058 5960     		str	r1, [r3, #4]	@ pxNewListItem, pxIterator_2->pxNext
 203:FreeRTOS/Source/list.c **** 
 204:FreeRTOS/Source/list.c **** 	/* Remember which list the item is in.  This allows fast removal of the
 205:FreeRTOS/Source/list.c **** 	item later. */
 206:FreeRTOS/Source/list.c **** 	pxNewListItem->pvContainer = ( void * ) pxList;
 207:FreeRTOS/Source/list.c **** 
 208:FreeRTOS/Source/list.c **** 	( pxList->uxNumberOfItems )++;
 220              		.loc 1 208 0
 221 005a 0368     		ldr	r3, [r0]	@ pxList_6(D)->uxNumberOfItems, pxList_6(D)->uxNumberOfItems
 222              	.LVL13:
 206:FreeRTOS/Source/list.c **** 
 223              		.loc 1 206 0
 224 005c 0861     		str	r0, [r1, #16]	@ pxList, pxNewListItem_4(D)->pvContainer
 225              		.loc 1 208 0
 226 005e 0133     		adds	r3, r3, #1	@ D.4899, pxList_6(D)->uxNumberOfItems,
 227 0060 0360     		str	r3, [r0]	@ D.4899, pxList_6(D)->uxNumberOfItems
 228 0062 30BD     		pop	{r4, r5, pc}	@
 229              		.cfi_endproc
 230              	.LFE8:
 231              		.size	vListInsert, .-vListInsert
 232              		.align	1
 233              		.global	uxListRemove
 234              		.thumb
 235              		.thumb_func
 236              		.type	uxListRemove, %function
 237              	uxListRemove:
 238              	.LFB9:
 209:FreeRTOS/Source/list.c **** }
 210:FreeRTOS/Source/list.c **** /*-----------------------------------------------------------*/
 211:FreeRTOS/Source/list.c **** 
 212:FreeRTOS/Source/list.c **** UBaseType_t uxListRemove( ListItem_t * const pxItemToRemove )
 213:FreeRTOS/Source/list.c **** {
ARM GAS  /var/folders/yt/6z6x8bjn5sjf5fbb45bk5m4c0000gn/T//ccUpGy7j.s 			page 9


 239              		.loc 1 213 0
 240              		.cfi_startproc
 241              		@ args = 0, pretend = 0, frame = 0
 242              		@ frame_needed = 0, uses_anonymous_args = 0
 243              		@ link register save eliminated.
 244              	.LVL14:
 214:FreeRTOS/Source/list.c **** /* The list item knows which list it is in.  Obtain the list from the list
 215:FreeRTOS/Source/list.c **** item. */
 216:FreeRTOS/Source/list.c **** List_t * const pxList = ( List_t * ) pxItemToRemove->pvContainer;
 217:FreeRTOS/Source/list.c **** 
 218:FreeRTOS/Source/list.c **** 	pxItemToRemove->pxNext->pxPrevious = pxItemToRemove->pxPrevious;
 245              		.loc 1 218 0
 246 0064 4168     		ldr	r1, [r0, #4]	@ D.4903, pxItemToRemove_3(D)->pxNext
 247 0066 8268     		ldr	r2, [r0, #8]	@ D.4903, pxItemToRemove_3(D)->pxPrevious
 216:FreeRTOS/Source/list.c **** 
 248              		.loc 1 216 0
 249 0068 0369     		ldr	r3, [r0, #16]	@ pxList, pxItemToRemove_3(D)->pvContainer
 250              	.LVL15:
 251              		.loc 1 218 0
 252 006a 8A60     		str	r2, [r1, #8]	@ D.4903, _5->pxPrevious
 219:FreeRTOS/Source/list.c **** 	pxItemToRemove->pxPrevious->pxNext = pxItemToRemove->pxNext;
 253              		.loc 1 219 0
 254 006c 8268     		ldr	r2, [r0, #8]	@ D.4903, pxItemToRemove_3(D)->pxPrevious
 255 006e 5160     		str	r1, [r2, #4]	@ D.4903, _8->pxNext
 220:FreeRTOS/Source/list.c **** 
 221:FreeRTOS/Source/list.c **** 	/* Only used during decision coverage testing. */
 222:FreeRTOS/Source/list.c **** 	mtCOVERAGE_TEST_DELAY();
 223:FreeRTOS/Source/list.c **** 
 224:FreeRTOS/Source/list.c **** 	/* Make sure the index is left pointing to a valid item. */
 225:FreeRTOS/Source/list.c **** 	if( pxList->pxIndex == pxItemToRemove )
 256              		.loc 1 225 0
 257 0070 5968     		ldr	r1, [r3, #4]	@ pxList_4->pxIndex, pxList_4->pxIndex
 258 0072 8142     		cmp	r1, r0	@ pxList_4->pxIndex, pxItemToRemove
 226:FreeRTOS/Source/list.c **** 	{
 227:FreeRTOS/Source/list.c **** 		pxList->pxIndex = pxItemToRemove->pxPrevious;
 259              		.loc 1 227 0
 260 0074 08BF     		it	eq
 261 0076 5A60     		streq	r2, [r3, #4]	@ D.4903, pxList_4->pxIndex
 228:FreeRTOS/Source/list.c **** 	}
 229:FreeRTOS/Source/list.c **** 	else
 230:FreeRTOS/Source/list.c **** 	{
 231:FreeRTOS/Source/list.c **** 		mtCOVERAGE_TEST_MARKER();
 232:FreeRTOS/Source/list.c **** 	}
 233:FreeRTOS/Source/list.c **** 
 234:FreeRTOS/Source/list.c **** 	pxItemToRemove->pvContainer = NULL;
 262              		.loc 1 234 0
 263 0078 0022     		movs	r2, #0	@ tmp120,
 264 007a 0261     		str	r2, [r0, #16]	@ tmp120, pxItemToRemove_3(D)->pvContainer
 235:FreeRTOS/Source/list.c **** 	( pxList->uxNumberOfItems )--;
 265              		.loc 1 235 0
 266 007c 1868     		ldr	r0, [r3]	@ pxList_4->uxNumberOfItems, pxList_4->uxNumberOfItems
 267              	.LVL16:
 268 007e 0138     		subs	r0, r0, #1	@ D.4905, pxList_4->uxNumberOfItems,
 269 0080 1860     		str	r0, [r3]	@ D.4905, pxList_4->uxNumberOfItems
 236:FreeRTOS/Source/list.c **** 
 237:FreeRTOS/Source/list.c **** 	return pxList->uxNumberOfItems;
 238:FreeRTOS/Source/list.c **** }
ARM GAS  /var/folders/yt/6z6x8bjn5sjf5fbb45bk5m4c0000gn/T//ccUpGy7j.s 			page 10


 270              		.loc 1 238 0
 271 0082 7047     		bx	lr	@
 272              		.cfi_endproc
 273              	.LFE9:
 274              		.size	uxListRemove, .-uxListRemove
 275              	.Letext0:
 276              		.file 2 "/usr/local/Cellar/arm-none-eabi-gcc/20150921/arm-none-eabi/include/machine/_default_types
 277              		.file 3 "/usr/local/Cellar/arm-none-eabi-gcc/20150921/arm-none-eabi/include/sys/_stdint.h"
 278              		.file 4 "./FreeRTOS/Source/include/../../Source/portable/GCC/ARM_CM3/portmacro.h"
 279              		.file 5 "./FreeRTOS/Source/include/list.h"