ARM GAS  /var/folders/yt/6z6x8bjn5sjf5fbb45bk5m4c0000gn/T//ccnRzt0G.s 			page 1


   1              		.syntax unified
   2              		.cpu cortex-m3
   3              		.fpu softvfp
   4              		.eabi_attribute 20, 1	@ Tag_ABI_FP_denormal
   5              		.eabi_attribute 21, 1	@ Tag_ABI_FP_exceptions
   6              		.eabi_attribute 23, 3	@ Tag_ABI_FP_number_model
   7              		.eabi_attribute 24, 1	@ Tag_ABI_align8_needed
   8              		.eabi_attribute 25, 1	@ Tag_ABI_align8_preserved
   9              		.eabi_attribute 26, 1	@ Tag_ABI_enum_size
  10              		.eabi_attribute 30, 4	@ Tag_ABI_optimization_goals
  11              		.eabi_attribute 34, 1	@ Tag_CPU_unaligned_access
  12              		.eabi_attribute 18, 4	@ Tag_ABI_PCS_wchar_t
  13              		.file	"heap_2.c"
  14              	@ GNU C (GNU Tools for ARM Embedded Processors) version 4.9.3 20150529 (release) [ARM/embedded-4_9-
  15              	@	compiled by GNU C version 4.2.1 (Based on Apple Inc. build 5658) (LLVM build 2336.9.00), GMP vers
  16              	@ GGC heuristics: --param ggc-min-expand=100 --param ggc-min-heapsize=131072
  17              	@ options passed:  -I . -I ./Libraries/CMSIS/CM3/CoreSupport
  18              	@ -I ./Libraries/CMSIS/CM3/DeviceSupport/ST/STM32F10x
  19              	@ -I ./Libraries/STM32F10x_StdPeriph_Driver/inc -I ./Libraries/Drivers/Leds
  20              	@ -I ./Libraries/Drivers/Buttons -I ./Libraries/Drivers/Usart
  21              	@ -I ./Libraries/Drivers/i2c -I ./Libraries/Drivers/BH1750
  22              	@ -I ./Libraries/Drivers/Utilities -I ./FreeRTOS/Source/include
  23              	@ -I ./FreeRTOS/Source/portable/GCC/ARM_CM3 -imultilib armv7-m
  24              	@ -iprefix /usr/local/Cellar/arm-none-eabi-gcc/20150921/bin/../lib/gcc/arm-none-eabi/4.9.3/
  25              	@ -isysroot /usr/local/Cellar/arm-none-eabi-gcc/20150921/bin/../arm-none-eabi
  26              	@ -MD FreeRTOS/Source/portable/MemMang/heap_2.d -MF .dep/heap_2.o.d -MP
  27              	@ -MQ FreeRTOS/Source/portable/MemMang/heap_2.o -D__USES_INITFINI__
  28              	@ -D STM32F10X_MD -D USE_STDPERIPH_DRIVER -D GCC_ARMCM3 -D RUN_FROM_FLASH=1
  29              	@ FreeRTOS/Source/portable/MemMang/heap_2.c -mcpu=cortex-m3 -mthumb
  30              	@ -auxbase-strip FreeRTOS/Source/portable/MemMang/heap_2.o -gdwarf-2 -Os
  31              	@ -Wall -Wstrict-prototypes -fomit-frame-pointer -fverbose-asm
  32              	@ options enabled:  -faggressive-loop-optimizations -fauto-inc-dec
  33              	@ -fbranch-count-reg -fcaller-saves -fcombine-stack-adjustments -fcommon
  34              	@ -fcompare-elim -fcprop-registers -fcrossjumping -fcse-follow-jumps
  35              	@ -fdefer-pop -fdelete-null-pointer-checks -fdevirtualize
  36              	@ -fdevirtualize-speculatively -fdwarf2-cfi-asm -fearly-inlining
  37              	@ -feliminate-unused-debug-types -fexpensive-optimizations
  38              	@ -fforward-propagate -ffunction-cse -fgcse -fgcse-lm -fgnu-runtime
  39              	@ -fgnu-unique -fguess-branch-probability -fhoist-adjacent-loads -fident
  40              	@ -fif-conversion -fif-conversion2 -findirect-inlining -finline
  41              	@ -finline-atomics -finline-functions -finline-functions-called-once
  42              	@ -finline-small-functions -fipa-cp -fipa-profile -fipa-pure-const
  43              	@ -fipa-reference -fipa-sra -fira-hoist-pressure -fira-share-save-slots
  44              	@ -fira-share-spill-slots -fisolate-erroneous-paths-dereference -fivopts
  45              	@ -fkeep-static-consts -fleading-underscore -flifetime-dse -fmath-errno
  46              	@ -fmerge-constants -fmerge-debug-strings -fomit-frame-pointer
  47              	@ -foptimize-sibling-calls -fpartial-inlining -fpeephole -fpeephole2
  48              	@ -fprefetch-loop-arrays -freg-struct-return -freorder-blocks
  49              	@ -freorder-functions -frerun-cse-after-loop
  50              	@ -fsched-critical-path-heuristic -fsched-dep-count-heuristic
  51              	@ -fsched-group-heuristic -fsched-interblock -fsched-last-insn-heuristic
  52              	@ -fsched-pressure -fsched-rank-heuristic -fsched-spec
  53              	@ -fsched-spec-insn-heuristic -fsched-stalled-insns-dep -fschedule-insns2
  54              	@ -fsection-anchors -fshow-column -fsigned-zeros -fsplit-ivs-in-unroller
  55              	@ -fsplit-wide-types -fstrict-aliasing -fstrict-overflow
  56              	@ -fstrict-volatile-bitfields -fsync-libcalls -fthread-jumps
  57              	@ -ftoplevel-reorder -ftrapping-math -ftree-bit-ccp -ftree-builtin-call-dce
ARM GAS  /var/folders/yt/6z6x8bjn5sjf5fbb45bk5m4c0000gn/T//ccnRzt0G.s 			page 2


  58              	@ -ftree-ccp -ftree-ch -ftree-coalesce-vars -ftree-copy-prop
  59              	@ -ftree-copyrename -ftree-cselim -ftree-dce -ftree-dominator-opts
  60              	@ -ftree-dse -ftree-forwprop -ftree-fre -ftree-loop-if-convert
  61              	@ -ftree-loop-im -ftree-loop-ivcanon -ftree-loop-optimize
  62              	@ -ftree-parallelize-loops= -ftree-phiprop -ftree-pre -ftree-pta
  63              	@ -ftree-reassoc -ftree-scev-cprop -ftree-sink -ftree-slsr -ftree-sra
  64              	@ -ftree-switch-conversion -ftree-tail-merge -ftree-ter -ftree-vrp
  65              	@ -funit-at-a-time -fvar-tracking -fvar-tracking-assignments -fverbose-asm
  66              	@ -fzero-initialized-in-bss -mfix-cortex-m3-ldrd -mlittle-endian -mlra
  67              	@ -mpic-data-is-text-relative -msched-prolog -mthumb -munaligned-access
  68              	@ -mvectorize-with-neon-quad
  69              	
  70              		.text
  71              	.Ltext0:
  72              		.cfi_sections	.debug_frame
  73              		.align	1
  74              		.global	pvPortMalloc
  75              		.thumb
  76              		.thumb_func
  77              		.type	pvPortMalloc, %function
  78              	pvPortMalloc:
  79              	.LFB5:
  80              		.file 1 "FreeRTOS/Source/portable/MemMang/heap_2.c"
   1:FreeRTOS/Source/portable/MemMang/heap_2.c **** /*
   2:FreeRTOS/Source/portable/MemMang/heap_2.c ****     FreeRTOS V9.0.0 - Copyright (C) 2016 Real Time Engineers Ltd.
   3:FreeRTOS/Source/portable/MemMang/heap_2.c ****     All rights reserved
   4:FreeRTOS/Source/portable/MemMang/heap_2.c **** 
   5:FreeRTOS/Source/portable/MemMang/heap_2.c ****     VISIT http://www.FreeRTOS.org TO ENSURE YOU ARE USING THE LATEST VERSION.
   6:FreeRTOS/Source/portable/MemMang/heap_2.c **** 
   7:FreeRTOS/Source/portable/MemMang/heap_2.c ****     This file is part of the FreeRTOS distribution.
   8:FreeRTOS/Source/portable/MemMang/heap_2.c **** 
   9:FreeRTOS/Source/portable/MemMang/heap_2.c ****     FreeRTOS is free software; you can redistribute it and/or modify it under
  10:FreeRTOS/Source/portable/MemMang/heap_2.c ****     the terms of the GNU General Public License (version 2) as published by the
  11:FreeRTOS/Source/portable/MemMang/heap_2.c ****     Free Software Foundation >>>> AND MODIFIED BY <<<< the FreeRTOS exception.
  12:FreeRTOS/Source/portable/MemMang/heap_2.c **** 
  13:FreeRTOS/Source/portable/MemMang/heap_2.c ****     ***************************************************************************
  14:FreeRTOS/Source/portable/MemMang/heap_2.c ****     >>!   NOTE: The modification to the GPL is included to allow you to     !<<
  15:FreeRTOS/Source/portable/MemMang/heap_2.c ****     >>!   distribute a combined work that includes FreeRTOS without being   !<<
  16:FreeRTOS/Source/portable/MemMang/heap_2.c ****     >>!   obliged to provide the source code for proprietary components     !<<
  17:FreeRTOS/Source/portable/MemMang/heap_2.c ****     >>!   outside of the FreeRTOS kernel.                                   !<<
  18:FreeRTOS/Source/portable/MemMang/heap_2.c ****     ***************************************************************************
  19:FreeRTOS/Source/portable/MemMang/heap_2.c **** 
  20:FreeRTOS/Source/portable/MemMang/heap_2.c ****     FreeRTOS is distributed in the hope that it will be useful, but WITHOUT ANY
  21:FreeRTOS/Source/portable/MemMang/heap_2.c ****     WARRANTY; without even the implied warranty of MERCHANTABILITY or FITNESS
  22:FreeRTOS/Source/portable/MemMang/heap_2.c ****     FOR A PARTICULAR PURPOSE.  Full license text is available on the following
  23:FreeRTOS/Source/portable/MemMang/heap_2.c ****     link: http://www.freertos.org/a00114.html
  24:FreeRTOS/Source/portable/MemMang/heap_2.c **** 
  25:FreeRTOS/Source/portable/MemMang/heap_2.c ****     ***************************************************************************
  26:FreeRTOS/Source/portable/MemMang/heap_2.c ****      *                                                                       *
  27:FreeRTOS/Source/portable/MemMang/heap_2.c ****      *    FreeRTOS provides completely free yet professionally developed,    *
  28:FreeRTOS/Source/portable/MemMang/heap_2.c ****      *    robust, strictly quality controlled, supported, and cross          *
  29:FreeRTOS/Source/portable/MemMang/heap_2.c ****      *    platform software that is more than just the market leader, it     *
  30:FreeRTOS/Source/portable/MemMang/heap_2.c ****      *    is the industry's de facto standard.                               *
  31:FreeRTOS/Source/portable/MemMang/heap_2.c ****      *                                                                       *
  32:FreeRTOS/Source/portable/MemMang/heap_2.c ****      *    Help yourself get started quickly while simultaneously helping     *
  33:FreeRTOS/Source/portable/MemMang/heap_2.c ****      *    to support the FreeRTOS project by purchasing a FreeRTOS           *
  34:FreeRTOS/Source/portable/MemMang/heap_2.c ****      *    tutorial book, reference manual, or both:                          *
ARM GAS  /var/folders/yt/6z6x8bjn5sjf5fbb45bk5m4c0000gn/T//ccnRzt0G.s 			page 3


  35:FreeRTOS/Source/portable/MemMang/heap_2.c ****      *    http://www.FreeRTOS.org/Documentation                              *
  36:FreeRTOS/Source/portable/MemMang/heap_2.c ****      *                                                                       *
  37:FreeRTOS/Source/portable/MemMang/heap_2.c ****     ***************************************************************************
  38:FreeRTOS/Source/portable/MemMang/heap_2.c **** 
  39:FreeRTOS/Source/portable/MemMang/heap_2.c ****     http://www.FreeRTOS.org/FAQHelp.html - Having a problem?  Start by reading
  40:FreeRTOS/Source/portable/MemMang/heap_2.c ****     the FAQ page "My application does not run, what could be wrong?".  Have you
  41:FreeRTOS/Source/portable/MemMang/heap_2.c ****     defined configASSERT()?
  42:FreeRTOS/Source/portable/MemMang/heap_2.c **** 
  43:FreeRTOS/Source/portable/MemMang/heap_2.c ****     http://www.FreeRTOS.org/support - In return for receiving this top quality
  44:FreeRTOS/Source/portable/MemMang/heap_2.c ****     embedded software for free we request you assist our global community by
  45:FreeRTOS/Source/portable/MemMang/heap_2.c ****     participating in the support forum.
  46:FreeRTOS/Source/portable/MemMang/heap_2.c **** 
  47:FreeRTOS/Source/portable/MemMang/heap_2.c ****     http://www.FreeRTOS.org/training - Investing in training allows your team to
  48:FreeRTOS/Source/portable/MemMang/heap_2.c ****     be as productive as possible as early as possible.  Now you can receive
  49:FreeRTOS/Source/portable/MemMang/heap_2.c ****     FreeRTOS training directly from Richard Barry, CEO of Real Time Engineers
  50:FreeRTOS/Source/portable/MemMang/heap_2.c ****     Ltd, and the world's leading authority on the world's leading RTOS.
  51:FreeRTOS/Source/portable/MemMang/heap_2.c **** 
  52:FreeRTOS/Source/portable/MemMang/heap_2.c ****     http://www.FreeRTOS.org/plus - A selection of FreeRTOS ecosystem products,
  53:FreeRTOS/Source/portable/MemMang/heap_2.c ****     including FreeRTOS+Trace - an indispensable productivity tool, a DOS
  54:FreeRTOS/Source/portable/MemMang/heap_2.c ****     compatible FAT file system, and our tiny thread aware UDP/IP stack.
  55:FreeRTOS/Source/portable/MemMang/heap_2.c **** 
  56:FreeRTOS/Source/portable/MemMang/heap_2.c ****     http://www.FreeRTOS.org/labs - Where new FreeRTOS products go to incubate.
  57:FreeRTOS/Source/portable/MemMang/heap_2.c ****     Come and try FreeRTOS+TCP, our new open source TCP/IP stack for FreeRTOS.
  58:FreeRTOS/Source/portable/MemMang/heap_2.c **** 
  59:FreeRTOS/Source/portable/MemMang/heap_2.c ****     http://www.OpenRTOS.com - Real Time Engineers ltd. license FreeRTOS to High
  60:FreeRTOS/Source/portable/MemMang/heap_2.c ****     Integrity Systems ltd. to sell under the OpenRTOS brand.  Low cost OpenRTOS
  61:FreeRTOS/Source/portable/MemMang/heap_2.c ****     licenses offer ticketed support, indemnification and commercial middleware.
  62:FreeRTOS/Source/portable/MemMang/heap_2.c **** 
  63:FreeRTOS/Source/portable/MemMang/heap_2.c ****     http://www.SafeRTOS.com - High Integrity Systems also provide a safety
  64:FreeRTOS/Source/portable/MemMang/heap_2.c ****     engineered and independently SIL3 certified version for use in safety and
  65:FreeRTOS/Source/portable/MemMang/heap_2.c ****     mission critical applications that require provable dependability.
  66:FreeRTOS/Source/portable/MemMang/heap_2.c **** 
  67:FreeRTOS/Source/portable/MemMang/heap_2.c ****     1 tab == 4 spaces!
  68:FreeRTOS/Source/portable/MemMang/heap_2.c **** */
  69:FreeRTOS/Source/portable/MemMang/heap_2.c **** 
  70:FreeRTOS/Source/portable/MemMang/heap_2.c **** /*
  71:FreeRTOS/Source/portable/MemMang/heap_2.c ****  * A sample implementation of pvPortMalloc() and vPortFree() that permits
  72:FreeRTOS/Source/portable/MemMang/heap_2.c ****  * allocated blocks to be freed, but does not combine adjacent free blocks
  73:FreeRTOS/Source/portable/MemMang/heap_2.c ****  * into a single larger block (and so will fragment memory).  See heap_4.c for
  74:FreeRTOS/Source/portable/MemMang/heap_2.c ****  * an equivalent that does combine adjacent blocks into single larger blocks.
  75:FreeRTOS/Source/portable/MemMang/heap_2.c ****  *
  76:FreeRTOS/Source/portable/MemMang/heap_2.c ****  * See heap_1.c, heap_3.c and heap_4.c for alternative implementations, and the
  77:FreeRTOS/Source/portable/MemMang/heap_2.c ****  * memory management pages of http://www.FreeRTOS.org for more information.
  78:FreeRTOS/Source/portable/MemMang/heap_2.c ****  */
  79:FreeRTOS/Source/portable/MemMang/heap_2.c **** #include <stdlib.h>
  80:FreeRTOS/Source/portable/MemMang/heap_2.c **** 
  81:FreeRTOS/Source/portable/MemMang/heap_2.c **** /* Defining MPU_WRAPPERS_INCLUDED_FROM_API_FILE prevents task.h from redefining
  82:FreeRTOS/Source/portable/MemMang/heap_2.c **** all the API functions to use the MPU wrappers.  That should only be done when
  83:FreeRTOS/Source/portable/MemMang/heap_2.c **** task.h is included from an application file. */
  84:FreeRTOS/Source/portable/MemMang/heap_2.c **** #define MPU_WRAPPERS_INCLUDED_FROM_API_FILE
  85:FreeRTOS/Source/portable/MemMang/heap_2.c **** 
  86:FreeRTOS/Source/portable/MemMang/heap_2.c **** #include "FreeRTOS.h"
  87:FreeRTOS/Source/portable/MemMang/heap_2.c **** #include "task.h"
  88:FreeRTOS/Source/portable/MemMang/heap_2.c **** 
  89:FreeRTOS/Source/portable/MemMang/heap_2.c **** #undef MPU_WRAPPERS_INCLUDED_FROM_API_FILE
  90:FreeRTOS/Source/portable/MemMang/heap_2.c **** 
  91:FreeRTOS/Source/portable/MemMang/heap_2.c **** #if( configSUPPORT_DYNAMIC_ALLOCATION == 0 )
ARM GAS  /var/folders/yt/6z6x8bjn5sjf5fbb45bk5m4c0000gn/T//ccnRzt0G.s 			page 4


  92:FreeRTOS/Source/portable/MemMang/heap_2.c **** 	#error This file must not be used if configSUPPORT_DYNAMIC_ALLOCATION is 0
  93:FreeRTOS/Source/portable/MemMang/heap_2.c **** #endif
  94:FreeRTOS/Source/portable/MemMang/heap_2.c **** 
  95:FreeRTOS/Source/portable/MemMang/heap_2.c **** /* A few bytes might be lost to byte aligning the heap start address. */
  96:FreeRTOS/Source/portable/MemMang/heap_2.c **** #define configADJUSTED_HEAP_SIZE	( configTOTAL_HEAP_SIZE - portBYTE_ALIGNMENT )
  97:FreeRTOS/Source/portable/MemMang/heap_2.c **** 
  98:FreeRTOS/Source/portable/MemMang/heap_2.c **** /*
  99:FreeRTOS/Source/portable/MemMang/heap_2.c ****  * Initialises the heap structures before their first use.
 100:FreeRTOS/Source/portable/MemMang/heap_2.c ****  */
 101:FreeRTOS/Source/portable/MemMang/heap_2.c **** static void prvHeapInit( void );
 102:FreeRTOS/Source/portable/MemMang/heap_2.c **** 
 103:FreeRTOS/Source/portable/MemMang/heap_2.c **** /* Allocate the memory for the heap. */
 104:FreeRTOS/Source/portable/MemMang/heap_2.c **** #if( configAPPLICATION_ALLOCATED_HEAP == 1 )
 105:FreeRTOS/Source/portable/MemMang/heap_2.c **** 	/* The application writer has already defined the array used for the RTOS
 106:FreeRTOS/Source/portable/MemMang/heap_2.c **** 	heap - probably so it can be placed in a special segment or address. */
 107:FreeRTOS/Source/portable/MemMang/heap_2.c **** 	extern uint8_t ucHeap[ configTOTAL_HEAP_SIZE ];
 108:FreeRTOS/Source/portable/MemMang/heap_2.c **** #else
 109:FreeRTOS/Source/portable/MemMang/heap_2.c **** 	static uint8_t ucHeap[ configTOTAL_HEAP_SIZE ];
 110:FreeRTOS/Source/portable/MemMang/heap_2.c **** #endif /* configAPPLICATION_ALLOCATED_HEAP */
 111:FreeRTOS/Source/portable/MemMang/heap_2.c **** 
 112:FreeRTOS/Source/portable/MemMang/heap_2.c **** 
 113:FreeRTOS/Source/portable/MemMang/heap_2.c **** /* Define the linked list structure.  This is used to link free blocks in order
 114:FreeRTOS/Source/portable/MemMang/heap_2.c **** of their size. */
 115:FreeRTOS/Source/portable/MemMang/heap_2.c **** typedef struct A_BLOCK_LINK
 116:FreeRTOS/Source/portable/MemMang/heap_2.c **** {
 117:FreeRTOS/Source/portable/MemMang/heap_2.c **** 	struct A_BLOCK_LINK *pxNextFreeBlock;	/*<< The next free block in the list. */
 118:FreeRTOS/Source/portable/MemMang/heap_2.c **** 	size_t xBlockSize;						/*<< The size of the free block. */
 119:FreeRTOS/Source/portable/MemMang/heap_2.c **** } BlockLink_t;
 120:FreeRTOS/Source/portable/MemMang/heap_2.c **** 
 121:FreeRTOS/Source/portable/MemMang/heap_2.c **** 
 122:FreeRTOS/Source/portable/MemMang/heap_2.c **** static const uint16_t heapSTRUCT_SIZE	= ( ( sizeof ( BlockLink_t ) + ( portBYTE_ALIGNMENT - 1 ) ) &
 123:FreeRTOS/Source/portable/MemMang/heap_2.c **** #define heapMINIMUM_BLOCK_SIZE	( ( size_t ) ( heapSTRUCT_SIZE * 2 ) )
 124:FreeRTOS/Source/portable/MemMang/heap_2.c **** 
 125:FreeRTOS/Source/portable/MemMang/heap_2.c **** /* Create a couple of list links to mark the start and end of the list. */
 126:FreeRTOS/Source/portable/MemMang/heap_2.c **** static BlockLink_t xStart, xEnd;
 127:FreeRTOS/Source/portable/MemMang/heap_2.c **** 
 128:FreeRTOS/Source/portable/MemMang/heap_2.c **** /* Keeps track of the number of free bytes remaining, but says nothing about
 129:FreeRTOS/Source/portable/MemMang/heap_2.c **** fragmentation. */
 130:FreeRTOS/Source/portable/MemMang/heap_2.c **** static size_t xFreeBytesRemaining = configADJUSTED_HEAP_SIZE;
 131:FreeRTOS/Source/portable/MemMang/heap_2.c **** 
 132:FreeRTOS/Source/portable/MemMang/heap_2.c **** /* STATIC FUNCTIONS ARE DEFINED AS MACROS TO MINIMIZE THE FUNCTION CALL DEPTH. */
 133:FreeRTOS/Source/portable/MemMang/heap_2.c **** 
 134:FreeRTOS/Source/portable/MemMang/heap_2.c **** /*
 135:FreeRTOS/Source/portable/MemMang/heap_2.c ****  * Insert a block into the list of free blocks - which is ordered by size of
 136:FreeRTOS/Source/portable/MemMang/heap_2.c ****  * the block.  Small blocks at the start of the list and large blocks at the end
 137:FreeRTOS/Source/portable/MemMang/heap_2.c ****  * of the list.
 138:FreeRTOS/Source/portable/MemMang/heap_2.c ****  */
 139:FreeRTOS/Source/portable/MemMang/heap_2.c **** #define prvInsertBlockIntoFreeList( pxBlockToInsert )								\
 140:FreeRTOS/Source/portable/MemMang/heap_2.c **** {																					\
 141:FreeRTOS/Source/portable/MemMang/heap_2.c **** BlockLink_t *pxIterator;															\
 142:FreeRTOS/Source/portable/MemMang/heap_2.c **** size_t xBlockSize;																	\
 143:FreeRTOS/Source/portable/MemMang/heap_2.c **** 																					\
 144:FreeRTOS/Source/portable/MemMang/heap_2.c **** 	xBlockSize = pxBlockToInsert->xBlockSize;										\
 145:FreeRTOS/Source/portable/MemMang/heap_2.c **** 																					\
 146:FreeRTOS/Source/portable/MemMang/heap_2.c **** 	/* Iterate through the list until a block is found that has a larger size */	\
 147:FreeRTOS/Source/portable/MemMang/heap_2.c **** 	/* than the block we are inserting. */											\
 148:FreeRTOS/Source/portable/MemMang/heap_2.c **** 	for( pxIterator = &xStart; pxIterator->pxNextFreeBlock->xBlockSize < xBlockSize; pxIterator = pxIt
ARM GAS  /var/folders/yt/6z6x8bjn5sjf5fbb45bk5m4c0000gn/T//ccnRzt0G.s 			page 5


 149:FreeRTOS/Source/portable/MemMang/heap_2.c **** 	{																				\
 150:FreeRTOS/Source/portable/MemMang/heap_2.c **** 		/* There is nothing to do here - just iterate to the correct position. */	\
 151:FreeRTOS/Source/portable/MemMang/heap_2.c **** 	}																				\
 152:FreeRTOS/Source/portable/MemMang/heap_2.c **** 																					\
 153:FreeRTOS/Source/portable/MemMang/heap_2.c **** 	/* Update the list to include the block being inserted in the correct */		\
 154:FreeRTOS/Source/portable/MemMang/heap_2.c **** 	/* position. */																	\
 155:FreeRTOS/Source/portable/MemMang/heap_2.c **** 	pxBlockToInsert->pxNextFreeBlock = pxIterator->pxNextFreeBlock;					\
 156:FreeRTOS/Source/portable/MemMang/heap_2.c **** 	pxIterator->pxNextFreeBlock = pxBlockToInsert;									\
 157:FreeRTOS/Source/portable/MemMang/heap_2.c **** }
 158:FreeRTOS/Source/portable/MemMang/heap_2.c **** /*-----------------------------------------------------------*/
 159:FreeRTOS/Source/portable/MemMang/heap_2.c **** 
 160:FreeRTOS/Source/portable/MemMang/heap_2.c **** void *pvPortMalloc( size_t xWantedSize )
 161:FreeRTOS/Source/portable/MemMang/heap_2.c **** {
  81              		.loc 1 161 0
  82              		.cfi_startproc
  83              		@ args = 0, pretend = 0, frame = 0
  84              		@ frame_needed = 0, uses_anonymous_args = 0
  85              	.LVL0:
  86 0000 70B5     		push	{r4, r5, r6, lr}	@
  87              	.LCFI0:
  88              		.cfi_def_cfa_offset 16
  89              		.cfi_offset 4, -16
  90              		.cfi_offset 5, -12
  91              		.cfi_offset 6, -8
  92              		.cfi_offset 14, -4
  93              		.loc 1 161 0
  94 0002 0446     		mov	r4, r0	@ xWantedSize, xWantedSize
 162:FreeRTOS/Source/portable/MemMang/heap_2.c **** BlockLink_t *pxBlock, *pxPreviousBlock, *pxNewBlockLink;
 163:FreeRTOS/Source/portable/MemMang/heap_2.c **** static BaseType_t xHeapHasBeenInitialised = pdFALSE;
 164:FreeRTOS/Source/portable/MemMang/heap_2.c **** void *pvReturn = NULL;
 165:FreeRTOS/Source/portable/MemMang/heap_2.c **** 
 166:FreeRTOS/Source/portable/MemMang/heap_2.c **** 	vTaskSuspendAll();
  95              		.loc 1 166 0
  96 0004 FFF7FEFF 		bl	vTaskSuspendAll	@
  97              	.LVL1:
 167:FreeRTOS/Source/portable/MemMang/heap_2.c **** 	{
 168:FreeRTOS/Source/portable/MemMang/heap_2.c **** 		/* If this is the first call to malloc then the heap will require
 169:FreeRTOS/Source/portable/MemMang/heap_2.c **** 		initialisation to setup the list of free blocks. */
 170:FreeRTOS/Source/portable/MemMang/heap_2.c **** 		if( xHeapHasBeenInitialised == pdFALSE )
  98              		.loc 1 170 0
  99 0008 284B     		ldr	r3, .L22	@ tmp137,
 100 000a 9868     		ldr	r0, [r3, #8]	@ xHeapHasBeenInitialised, xHeapHasBeenInitialised
 101 000c 90B9     		cbnz	r0, .L2	@ xHeapHasBeenInitialised,
 102              	.LBB5:
 103              	.LBB6:
 171:FreeRTOS/Source/portable/MemMang/heap_2.c **** 		{
 172:FreeRTOS/Source/portable/MemMang/heap_2.c **** 			prvHeapInit();
 173:FreeRTOS/Source/portable/MemMang/heap_2.c **** 			xHeapHasBeenInitialised = pdTRUE;
 174:FreeRTOS/Source/portable/MemMang/heap_2.c **** 		}
 175:FreeRTOS/Source/portable/MemMang/heap_2.c **** 
 176:FreeRTOS/Source/portable/MemMang/heap_2.c **** 		/* The wanted size is increased so it can contain a BlockLink_t
 177:FreeRTOS/Source/portable/MemMang/heap_2.c **** 		structure in addition to the requested amount of bytes. */
 178:FreeRTOS/Source/portable/MemMang/heap_2.c **** 		if( xWantedSize > 0 )
 179:FreeRTOS/Source/portable/MemMang/heap_2.c **** 		{
 180:FreeRTOS/Source/portable/MemMang/heap_2.c **** 			xWantedSize += heapSTRUCT_SIZE;
 181:FreeRTOS/Source/portable/MemMang/heap_2.c **** 
 182:FreeRTOS/Source/portable/MemMang/heap_2.c **** 			/* Ensure that blocks are always aligned to the required number of bytes. */
ARM GAS  /var/folders/yt/6z6x8bjn5sjf5fbb45bk5m4c0000gn/T//ccnRzt0G.s 			page 6


 183:FreeRTOS/Source/portable/MemMang/heap_2.c **** 			if( ( xWantedSize & portBYTE_ALIGNMENT_MASK ) != 0 )
 184:FreeRTOS/Source/portable/MemMang/heap_2.c **** 			{
 185:FreeRTOS/Source/portable/MemMang/heap_2.c **** 				/* Byte alignment required. */
 186:FreeRTOS/Source/portable/MemMang/heap_2.c **** 				xWantedSize += ( portBYTE_ALIGNMENT - ( xWantedSize & portBYTE_ALIGNMENT_MASK ) );
 187:FreeRTOS/Source/portable/MemMang/heap_2.c **** 			}
 188:FreeRTOS/Source/portable/MemMang/heap_2.c **** 		}
 189:FreeRTOS/Source/portable/MemMang/heap_2.c **** 
 190:FreeRTOS/Source/portable/MemMang/heap_2.c **** 		if( ( xWantedSize > 0 ) && ( xWantedSize < configADJUSTED_HEAP_SIZE ) )
 191:FreeRTOS/Source/portable/MemMang/heap_2.c **** 		{
 192:FreeRTOS/Source/portable/MemMang/heap_2.c **** 			/* Blocks are stored in byte order - traverse the list from the start
 193:FreeRTOS/Source/portable/MemMang/heap_2.c **** 			(smallest) block until one of adequate size is found. */
 194:FreeRTOS/Source/portable/MemMang/heap_2.c **** 			pxPreviousBlock = &xStart;
 195:FreeRTOS/Source/portable/MemMang/heap_2.c **** 			pxBlock = xStart.pxNextFreeBlock;
 196:FreeRTOS/Source/portable/MemMang/heap_2.c **** 			while( ( pxBlock->xBlockSize < xWantedSize ) && ( pxBlock->pxNextFreeBlock != NULL ) )
 197:FreeRTOS/Source/portable/MemMang/heap_2.c **** 			{
 198:FreeRTOS/Source/portable/MemMang/heap_2.c **** 				pxPreviousBlock = pxBlock;
 199:FreeRTOS/Source/portable/MemMang/heap_2.c **** 				pxBlock = pxBlock->pxNextFreeBlock;
 200:FreeRTOS/Source/portable/MemMang/heap_2.c **** 			}
 201:FreeRTOS/Source/portable/MemMang/heap_2.c **** 
 202:FreeRTOS/Source/portable/MemMang/heap_2.c **** 			/* If we found the end marker then a block of adequate size was not found. */
 203:FreeRTOS/Source/portable/MemMang/heap_2.c **** 			if( pxBlock != &xEnd )
 204:FreeRTOS/Source/portable/MemMang/heap_2.c **** 			{
 205:FreeRTOS/Source/portable/MemMang/heap_2.c **** 				/* Return the memory space - jumping over the BlockLink_t structure
 206:FreeRTOS/Source/portable/MemMang/heap_2.c **** 				at its start. */
 207:FreeRTOS/Source/portable/MemMang/heap_2.c **** 				pvReturn = ( void * ) ( ( ( uint8_t * ) pxPreviousBlock->pxNextFreeBlock ) + heapSTRUCT_SIZE );
 208:FreeRTOS/Source/portable/MemMang/heap_2.c **** 
 209:FreeRTOS/Source/portable/MemMang/heap_2.c **** 				/* This block is being returned for use so must be taken out of the
 210:FreeRTOS/Source/portable/MemMang/heap_2.c **** 				list of free blocks. */
 211:FreeRTOS/Source/portable/MemMang/heap_2.c **** 				pxPreviousBlock->pxNextFreeBlock = pxBlock->pxNextFreeBlock;
 212:FreeRTOS/Source/portable/MemMang/heap_2.c **** 
 213:FreeRTOS/Source/portable/MemMang/heap_2.c **** 				/* If the block is larger than required it can be split into two. */
 214:FreeRTOS/Source/portable/MemMang/heap_2.c **** 				if( ( pxBlock->xBlockSize - xWantedSize ) > heapMINIMUM_BLOCK_SIZE )
 215:FreeRTOS/Source/portable/MemMang/heap_2.c **** 				{
 216:FreeRTOS/Source/portable/MemMang/heap_2.c **** 					/* This block is to be split into two.  Create a new block
 217:FreeRTOS/Source/portable/MemMang/heap_2.c **** 					following the number of bytes requested. The void cast is
 218:FreeRTOS/Source/portable/MemMang/heap_2.c **** 					used to prevent byte alignment warnings from the compiler. */
 219:FreeRTOS/Source/portable/MemMang/heap_2.c **** 					pxNewBlockLink = ( void * ) ( ( ( uint8_t * ) pxBlock ) + xWantedSize );
 220:FreeRTOS/Source/portable/MemMang/heap_2.c **** 
 221:FreeRTOS/Source/portable/MemMang/heap_2.c **** 					/* Calculate the sizes of two blocks split from the single
 222:FreeRTOS/Source/portable/MemMang/heap_2.c **** 					block. */
 223:FreeRTOS/Source/portable/MemMang/heap_2.c **** 					pxNewBlockLink->xBlockSize = pxBlock->xBlockSize - xWantedSize;
 224:FreeRTOS/Source/portable/MemMang/heap_2.c **** 					pxBlock->xBlockSize = xWantedSize;
 225:FreeRTOS/Source/portable/MemMang/heap_2.c **** 
 226:FreeRTOS/Source/portable/MemMang/heap_2.c **** 					/* Insert the new block into the list of free blocks. */
 227:FreeRTOS/Source/portable/MemMang/heap_2.c **** 					prvInsertBlockIntoFreeList( ( pxNewBlockLink ) );
 228:FreeRTOS/Source/portable/MemMang/heap_2.c **** 				}
 229:FreeRTOS/Source/portable/MemMang/heap_2.c **** 
 230:FreeRTOS/Source/portable/MemMang/heap_2.c **** 				xFreeBytesRemaining -= pxBlock->xBlockSize;
 231:FreeRTOS/Source/portable/MemMang/heap_2.c **** 			}
 232:FreeRTOS/Source/portable/MemMang/heap_2.c **** 		}
 233:FreeRTOS/Source/portable/MemMang/heap_2.c **** 
 234:FreeRTOS/Source/portable/MemMang/heap_2.c **** 		traceMALLOC( pvReturn, xWantedSize );
 235:FreeRTOS/Source/portable/MemMang/heap_2.c **** 	}
 236:FreeRTOS/Source/portable/MemMang/heap_2.c **** 	( void ) xTaskResumeAll();
 237:FreeRTOS/Source/portable/MemMang/heap_2.c **** 
 238:FreeRTOS/Source/portable/MemMang/heap_2.c **** 	#if( configUSE_MALLOC_FAILED_HOOK == 1 )
 239:FreeRTOS/Source/portable/MemMang/heap_2.c **** 	{
ARM GAS  /var/folders/yt/6z6x8bjn5sjf5fbb45bk5m4c0000gn/T//ccnRzt0G.s 			page 7


 240:FreeRTOS/Source/portable/MemMang/heap_2.c **** 		if( pvReturn == NULL )
 241:FreeRTOS/Source/portable/MemMang/heap_2.c **** 		{
 242:FreeRTOS/Source/portable/MemMang/heap_2.c **** 			extern void vApplicationMallocFailedHook( void );
 243:FreeRTOS/Source/portable/MemMang/heap_2.c **** 			vApplicationMallocFailedHook();
 244:FreeRTOS/Source/portable/MemMang/heap_2.c **** 		}
 245:FreeRTOS/Source/portable/MemMang/heap_2.c **** 	}
 246:FreeRTOS/Source/portable/MemMang/heap_2.c **** 	#endif
 247:FreeRTOS/Source/portable/MemMang/heap_2.c **** 
 248:FreeRTOS/Source/portable/MemMang/heap_2.c **** 	return pvReturn;
 249:FreeRTOS/Source/portable/MemMang/heap_2.c **** }
 250:FreeRTOS/Source/portable/MemMang/heap_2.c **** /*-----------------------------------------------------------*/
 251:FreeRTOS/Source/portable/MemMang/heap_2.c **** 
 252:FreeRTOS/Source/portable/MemMang/heap_2.c **** void vPortFree( void *pv )
 253:FreeRTOS/Source/portable/MemMang/heap_2.c **** {
 254:FreeRTOS/Source/portable/MemMang/heap_2.c **** uint8_t *puc = ( uint8_t * ) pv;
 255:FreeRTOS/Source/portable/MemMang/heap_2.c **** BlockLink_t *pxLink;
 256:FreeRTOS/Source/portable/MemMang/heap_2.c **** 
 257:FreeRTOS/Source/portable/MemMang/heap_2.c **** 	if( pv != NULL )
 258:FreeRTOS/Source/portable/MemMang/heap_2.c **** 	{
 259:FreeRTOS/Source/portable/MemMang/heap_2.c **** 		/* The memory being freed will have an BlockLink_t structure immediately
 260:FreeRTOS/Source/portable/MemMang/heap_2.c **** 		before it. */
 261:FreeRTOS/Source/portable/MemMang/heap_2.c **** 		puc -= heapSTRUCT_SIZE;
 262:FreeRTOS/Source/portable/MemMang/heap_2.c **** 
 263:FreeRTOS/Source/portable/MemMang/heap_2.c **** 		/* This unexpected casting is to keep some compilers from issuing
 264:FreeRTOS/Source/portable/MemMang/heap_2.c **** 		byte alignment warnings. */
 265:FreeRTOS/Source/portable/MemMang/heap_2.c **** 		pxLink = ( void * ) puc;
 266:FreeRTOS/Source/portable/MemMang/heap_2.c **** 
 267:FreeRTOS/Source/portable/MemMang/heap_2.c **** 		vTaskSuspendAll();
 268:FreeRTOS/Source/portable/MemMang/heap_2.c **** 		{
 269:FreeRTOS/Source/portable/MemMang/heap_2.c **** 			/* Add this block to the list of free blocks. */
 270:FreeRTOS/Source/portable/MemMang/heap_2.c **** 			prvInsertBlockIntoFreeList( ( ( BlockLink_t * ) pxLink ) );
 271:FreeRTOS/Source/portable/MemMang/heap_2.c **** 			xFreeBytesRemaining += pxLink->xBlockSize;
 272:FreeRTOS/Source/portable/MemMang/heap_2.c **** 			traceFREE( pv, pxLink->xBlockSize );
 273:FreeRTOS/Source/portable/MemMang/heap_2.c **** 		}
 274:FreeRTOS/Source/portable/MemMang/heap_2.c **** 		( void ) xTaskResumeAll();
 275:FreeRTOS/Source/portable/MemMang/heap_2.c **** 	}
 276:FreeRTOS/Source/portable/MemMang/heap_2.c **** }
 277:FreeRTOS/Source/portable/MemMang/heap_2.c **** /*-----------------------------------------------------------*/
 278:FreeRTOS/Source/portable/MemMang/heap_2.c **** 
 279:FreeRTOS/Source/portable/MemMang/heap_2.c **** size_t xPortGetFreeHeapSize( void )
 280:FreeRTOS/Source/portable/MemMang/heap_2.c **** {
 281:FreeRTOS/Source/portable/MemMang/heap_2.c **** 	return xFreeBytesRemaining;
 282:FreeRTOS/Source/portable/MemMang/heap_2.c **** }
 283:FreeRTOS/Source/portable/MemMang/heap_2.c **** /*-----------------------------------------------------------*/
 284:FreeRTOS/Source/portable/MemMang/heap_2.c **** 
 285:FreeRTOS/Source/portable/MemMang/heap_2.c **** void vPortInitialiseBlocks( void )
 286:FreeRTOS/Source/portable/MemMang/heap_2.c **** {
 287:FreeRTOS/Source/portable/MemMang/heap_2.c **** 	/* This just exists to keep the linker quiet. */
 288:FreeRTOS/Source/portable/MemMang/heap_2.c **** }
 289:FreeRTOS/Source/portable/MemMang/heap_2.c **** /*-----------------------------------------------------------*/
 290:FreeRTOS/Source/portable/MemMang/heap_2.c **** 
 291:FreeRTOS/Source/portable/MemMang/heap_2.c **** static void prvHeapInit( void )
 292:FreeRTOS/Source/portable/MemMang/heap_2.c **** {
 293:FreeRTOS/Source/portable/MemMang/heap_2.c **** BlockLink_t *pxFirstFreeBlock;
 294:FreeRTOS/Source/portable/MemMang/heap_2.c **** uint8_t *pucAlignedHeap;
 295:FreeRTOS/Source/portable/MemMang/heap_2.c **** 
 296:FreeRTOS/Source/portable/MemMang/heap_2.c **** 	/* Ensure the heap starts on a correctly aligned boundary. */
ARM GAS  /var/folders/yt/6z6x8bjn5sjf5fbb45bk5m4c0000gn/T//ccnRzt0G.s 			page 8


 297:FreeRTOS/Source/portable/MemMang/heap_2.c **** 	pucAlignedHeap = ( uint8_t * ) ( ( ( portPOINTER_SIZE_TYPE ) &ucHeap[ portBYTE_ALIGNMENT ] ) & ( ~
 298:FreeRTOS/Source/portable/MemMang/heap_2.c **** 
 299:FreeRTOS/Source/portable/MemMang/heap_2.c **** 	/* xStart is used to hold a pointer to the first item in the list of free
 300:FreeRTOS/Source/portable/MemMang/heap_2.c **** 	blocks.  The void cast is used to prevent compiler warnings. */
 301:FreeRTOS/Source/portable/MemMang/heap_2.c **** 	xStart.pxNextFreeBlock = ( void * ) pucAlignedHeap;
 302:FreeRTOS/Source/portable/MemMang/heap_2.c **** 	xStart.xBlockSize = ( size_t ) 0;
 303:FreeRTOS/Source/portable/MemMang/heap_2.c **** 
 304:FreeRTOS/Source/portable/MemMang/heap_2.c **** 	/* xEnd is used to mark the end of the list of free blocks. */
 305:FreeRTOS/Source/portable/MemMang/heap_2.c **** 	xEnd.xBlockSize = configADJUSTED_HEAP_SIZE;
 104              		.loc 1 305 0
 105 000e 42F2F875 		movw	r5, #10232	@ tmp146,
 106 0012 2749     		ldr	r1, .L22+4	@ tmp145,
 297:FreeRTOS/Source/portable/MemMang/heap_2.c **** 
 107              		.loc 1 297 0
 108 0014 03F11402 		add	r2, r3, #20	@ D.5131, tmp167,
 109 0018 22F00702 		bic	r2, r2, #7	@ pxFirstFreeBlock, D.5131,
 110              	.LVL2:
 111              		.loc 1 305 0
 112 001c C1F82056 		str	r5, [r1, #1568]	@ tmp146, xEnd.xBlockSize
 306:FreeRTOS/Source/portable/MemMang/heap_2.c **** 	xEnd.pxNextFreeBlock = NULL;
 113              		.loc 1 306 0
 114 0020 C1F81C06 		str	r0, [r1, #1564]	@ xHeapHasBeenInitialised, xEnd.pxNextFreeBlock
 115              	.LVL3:
 307:FreeRTOS/Source/portable/MemMang/heap_2.c **** 
 308:FreeRTOS/Source/portable/MemMang/heap_2.c **** 	/* To start with there is a single free block that is sized to take up the
 309:FreeRTOS/Source/portable/MemMang/heap_2.c **** 	entire heap space. */
 310:FreeRTOS/Source/portable/MemMang/heap_2.c **** 	pxFirstFreeBlock = ( void * ) pucAlignedHeap;
 311:FreeRTOS/Source/portable/MemMang/heap_2.c **** 	pxFirstFreeBlock->xBlockSize = configADJUSTED_HEAP_SIZE;
 312:FreeRTOS/Source/portable/MemMang/heap_2.c **** 	pxFirstFreeBlock->pxNextFreeBlock = &xEnd;
 116              		.loc 1 312 0
 117 0024 01F21C61 		addw	r1, r1, #1564	@ tmp151, tmp145,
 301:FreeRTOS/Source/portable/MemMang/heap_2.c **** 	xStart.xBlockSize = ( size_t ) 0;
 118              		.loc 1 301 0
 119 0028 1A60     		str	r2, [r3]	@ pxFirstFreeBlock, xStart.pxNextFreeBlock
 311:FreeRTOS/Source/portable/MemMang/heap_2.c **** 	pxFirstFreeBlock->pxNextFreeBlock = &xEnd;
 120              		.loc 1 311 0
 121 002a 5560     		str	r5, [r2, #4]	@ tmp146, pxFirstFreeBlock_45->xBlockSize
 122              		.loc 1 312 0
 123 002c 1160     		str	r1, [r2]	@ tmp151, pxFirstFreeBlock_45->pxNextFreeBlock
 124              	.LBE6:
 125              	.LBE5:
 173:FreeRTOS/Source/portable/MemMang/heap_2.c **** 		}
 126              		.loc 1 173 0
 127 002e 0122     		movs	r2, #1	@ tmp153,
 128              	.LVL4:
 129              	.LBB8:
 130              	.LBB7:
 302:FreeRTOS/Source/portable/MemMang/heap_2.c **** 
 131              		.loc 1 302 0
 132 0030 5860     		str	r0, [r3, #4]	@ xHeapHasBeenInitialised, xStart.xBlockSize
 133              	.LBE7:
 134              	.LBE8:
 173:FreeRTOS/Source/portable/MemMang/heap_2.c **** 		}
 135              		.loc 1 173 0
 136 0032 9A60     		str	r2, [r3, #8]	@ tmp153, xHeapHasBeenInitialised
 137              	.LVL5:
 138              	.L2:
ARM GAS  /var/folders/yt/6z6x8bjn5sjf5fbb45bk5m4c0000gn/T//ccnRzt0G.s 			page 9


 178:FreeRTOS/Source/portable/MemMang/heap_2.c **** 		{
 139              		.loc 1 178 0
 140 0034 2CB1     		cbz	r4, .L3	@ xWantedSize,
 180:FreeRTOS/Source/portable/MemMang/heap_2.c **** 
 141              		.loc 1 180 0
 142 0036 0834     		adds	r4, r4, #8	@ xWantedSize, xWantedSize,
 143              	.LVL6:
 183:FreeRTOS/Source/portable/MemMang/heap_2.c **** 			{
 144              		.loc 1 183 0
 145 0038 6207     		lsls	r2, r4, #29	@, xWantedSize,
 186:FreeRTOS/Source/portable/MemMang/heap_2.c **** 			}
 146              		.loc 1 186 0
 147 003a 1CBF     		itt	ne
 148 003c 24F00704 		bicne	r4, r4, #7	@ D.5129, xWantedSize,
 149              	.LVL7:
 150 0040 0834     		addne	r4, r4, #8	@ xWantedSize, D.5129,
 151              	.LVL8:
 152              	.L3:
 190:FreeRTOS/Source/portable/MemMang/heap_2.c **** 		{
 153              		.loc 1 190 0
 154 0042 42F2F672 		movw	r2, #10230	@ tmp156,
 155 0046 611E     		subs	r1, r4, #1	@ D.5129, xWantedSize,
 156 0048 9142     		cmp	r1, r2	@ D.5129, tmp156
 157 004a 29D8     		bhi	.L11	@,
 158              	.LVL9:
 195:FreeRTOS/Source/portable/MemMang/heap_2.c **** 			while( ( pxBlock->xBlockSize < xWantedSize ) && ( pxBlock->pxNextFreeBlock != NULL ) )
 159              		.loc 1 195 0
 160 004c 1B68     		ldr	r3, [r3]	@ pxPreviousBlock, xStart.pxNextFreeBlock
 161              	.LVL10:
 194:FreeRTOS/Source/portable/MemMang/heap_2.c **** 			pxBlock = xStart.pxNextFreeBlock;
 162              		.loc 1 194 0
 163 004e 1749     		ldr	r1, .L22	@ pxPreviousBlock,
 164              	.LVL11:
 165              	.L7:
 196:FreeRTOS/Source/portable/MemMang/heap_2.c **** 			{
 166              		.loc 1 196 0
 167 0050 5A68     		ldr	r2, [r3, #4]	@ D.5129, pxPreviousBlock_2->xBlockSize
 168 0052 A242     		cmp	r2, r4	@ D.5129, xWantedSize
 169 0054 03D3     		bcc	.L5	@,
 170              	.L8:
 203:FreeRTOS/Source/portable/MemMang/heap_2.c **** 			{
 171              		.loc 1 203 0
 172 0056 1748     		ldr	r0, .L22+8	@ tmp159,
 173 0058 8342     		cmp	r3, r0	@ pxPreviousBlock, tmp159
 174 005a 06D1     		bne	.L6	@,
 175 005c 20E0     		b	.L11	@
 176              	.L5:
 196:FreeRTOS/Source/portable/MemMang/heap_2.c **** 			{
 177              		.loc 1 196 0 discriminator 1
 178 005e 1868     		ldr	r0, [r3]	@ pxPreviousBlock, pxPreviousBlock_2->pxNextFreeBlock
 179 0060 0028     		cmp	r0, #0	@ pxPreviousBlock
 180 0062 F8D0     		beq	.L8	@
 181 0064 1946     		mov	r1, r3	@ pxPreviousBlock, pxPreviousBlock
 182 0066 0346     		mov	r3, r0	@ pxPreviousBlock, pxPreviousBlock
 183              	.LVL12:
 184 0068 F2E7     		b	.L7	@
 185              	.LVL13:
ARM GAS  /var/folders/yt/6z6x8bjn5sjf5fbb45bk5m4c0000gn/T//ccnRzt0G.s 			page 10


 186              	.L6:
 207:FreeRTOS/Source/portable/MemMang/heap_2.c **** 
 187              		.loc 1 207 0
 188 006a 0D68     		ldr	r5, [r1]	@ pxPreviousBlock_74->pxNextFreeBlock, pxPreviousBlock_74->pxNextFreeBlock
 211:FreeRTOS/Source/portable/MemMang/heap_2.c **** 
 189              		.loc 1 211 0
 190 006c 1868     		ldr	r0, [r3]	@ D.5130, pxPreviousBlock_75->pxNextFreeBlock
 214:FreeRTOS/Source/portable/MemMang/heap_2.c **** 				{
 191              		.loc 1 214 0
 192 006e 121B     		subs	r2, r2, r4	@ D.5129, D.5129, xWantedSize
 193 0070 102A     		cmp	r2, #16	@ D.5129,
 207:FreeRTOS/Source/portable/MemMang/heap_2.c **** 
 194              		.loc 1 207 0
 195 0072 05F10805 		add	r5, r5, #8	@ pvReturn, pxPreviousBlock_74->pxNextFreeBlock,
 196              	.LVL14:
 211:FreeRTOS/Source/portable/MemMang/heap_2.c **** 
 197              		.loc 1 211 0
 198 0076 0860     		str	r0, [r1]	@ D.5130, pxPreviousBlock_74->pxNextFreeBlock
 214:FreeRTOS/Source/portable/MemMang/heap_2.c **** 				{
 199              		.loc 1 214 0
 200 0078 0CD9     		bls	.L9	@,
 219:FreeRTOS/Source/portable/MemMang/heap_2.c **** 
 201              		.loc 1 219 0
 202 007a 1919     		adds	r1, r3, r4	@ pxNewBlockLink, pxPreviousBlock, xWantedSize
 203              	.LVL15:
 223:FreeRTOS/Source/portable/MemMang/heap_2.c **** 					pxBlock->xBlockSize = xWantedSize;
 204              		.loc 1 223 0
 205 007c 4A60     		str	r2, [r1, #4]	@ D.5129, pxNewBlockLink_29->xBlockSize
 224:FreeRTOS/Source/portable/MemMang/heap_2.c **** 
 206              		.loc 1 224 0
 207 007e 5C60     		str	r4, [r3, #4]	@ xWantedSize, pxPreviousBlock_75->xBlockSize
 208              	.LBB9:
 227:FreeRTOS/Source/portable/MemMang/heap_2.c **** 				}
 209              		.loc 1 227 0
 210 0080 4C68     		ldr	r4, [r1, #4]	@ xBlockSize, pxNewBlockLink_29->xBlockSize
 211              	.LVL16:
 212 0082 0A4A     		ldr	r2, .L22	@ pxIterator,
 213              	.LVL17:
 214              	.L10:
 227:FreeRTOS/Source/portable/MemMang/heap_2.c **** 				}
 215              		.loc 1 227 0 is_stmt 0 discriminator 1
 216 0084 1068     		ldr	r0, [r2]	@ pxIterator, pxIterator_5->pxNextFreeBlock
 217 0086 4668     		ldr	r6, [r0, #4]	@ D.5129, MEM[(struct A_BLOCK_LINK *)pxIterator_33].xBlockSize
 218 0088 A642     		cmp	r6, r4	@ D.5129, xBlockSize
 219 008a 01D2     		bcs	.L21	@,
 220 008c 0246     		mov	r2, r0	@ pxIterator, pxIterator
 221              	.LVL18:
 222 008e F9E7     		b	.L10	@
 223              	.LVL19:
 224              	.L21:
 227:FreeRTOS/Source/portable/MemMang/heap_2.c **** 				}
 225              		.loc 1 227 0
 226 0090 0860     		str	r0, [r1]	@ pxIterator, pxNewBlockLink_29->pxNextFreeBlock
 227 0092 1160     		str	r1, [r2]	@ pxNewBlockLink, pxIterator_60->pxNextFreeBlock
 228              	.LVL20:
 229              	.L9:
 230              	.LBE9:
ARM GAS  /var/folders/yt/6z6x8bjn5sjf5fbb45bk5m4c0000gn/T//ccnRzt0G.s 			page 11


 230:FreeRTOS/Source/portable/MemMang/heap_2.c **** 			}
 231              		.loc 1 230 0 is_stmt 1
 232 0094 0849     		ldr	r1, .L22+12	@ tmp161,
 233 0096 5B68     		ldr	r3, [r3, #4]	@ pxPreviousBlock_75->xBlockSize, pxPreviousBlock_75->xBlockSize
 234              	.LVL21:
 235 0098 0A68     		ldr	r2, [r1]	@ xFreeBytesRemaining, xFreeBytesRemaining
 236 009a D21A     		subs	r2, r2, r3	@ D.5129, xFreeBytesRemaining, pxPreviousBlock_75->xBlockSize
 237 009c 0A60     		str	r2, [r1]	@ D.5129, xFreeBytesRemaining
 238 009e 00E0     		b	.L4	@
 239              	.LVL22:
 240              	.L11:
 164:FreeRTOS/Source/portable/MemMang/heap_2.c **** 
 241              		.loc 1 164 0
 242 00a0 0025     		movs	r5, #0	@ pvReturn,
 243              	.LVL23:
 244              	.L4:
 236:FreeRTOS/Source/portable/MemMang/heap_2.c **** 
 245              		.loc 1 236 0
 246 00a2 FFF7FEFF 		bl	xTaskResumeAll	@
 247              	.LVL24:
 249:FreeRTOS/Source/portable/MemMang/heap_2.c **** /*-----------------------------------------------------------*/
 248              		.loc 1 249 0
 249 00a6 2846     		mov	r0, r5	@, pvReturn
 250 00a8 70BD     		pop	{r4, r5, r6, pc}	@
 251              	.LVL25:
 252              	.L23:
 253 00aa 00BF     		.align	2
 254              	.L22:
 255 00ac 00000000 		.word	.LANCHOR0
 256 00b0 F0210000 		.word	.LANCHOR1
 257 00b4 0C280000 		.word	.LANCHOR1+1564
 258 00b8 00000000 		.word	.LANCHOR2
 259              		.cfi_endproc
 260              	.LFE5:
 261              		.size	pvPortMalloc, .-pvPortMalloc
 262              		.align	1
 263              		.global	vPortFree
 264              		.thumb
 265              		.thumb_func
 266              		.type	vPortFree, %function
 267              	vPortFree:
 268              	.LFB6:
 253:FreeRTOS/Source/portable/MemMang/heap_2.c **** uint8_t *puc = ( uint8_t * ) pv;
 269              		.loc 1 253 0
 270              		.cfi_startproc
 271              		@ args = 0, pretend = 0, frame = 0
 272              		@ frame_needed = 0, uses_anonymous_args = 0
 273              	.LVL26:
 274 00bc 38B5     		push	{r3, r4, r5, lr}	@
 275              	.LCFI1:
 276              		.cfi_def_cfa_offset 16
 277              		.cfi_offset 3, -16
 278              		.cfi_offset 4, -12
 279              		.cfi_offset 5, -8
 280              		.cfi_offset 14, -4
 257:FreeRTOS/Source/portable/MemMang/heap_2.c **** 	{
 281              		.loc 1 257 0
ARM GAS  /var/folders/yt/6z6x8bjn5sjf5fbb45bk5m4c0000gn/T//ccnRzt0G.s 			page 12


 282 00be 0446     		mov	r4, r0	@ pv, pv
 283 00c0 B8B1     		cbz	r0, .L24	@ pv,
 261:FreeRTOS/Source/portable/MemMang/heap_2.c **** 
 284              		.loc 1 261 0
 285 00c2 A0F10805 		sub	r5, r0, #8	@ pxLink, pv,
 286              	.LVL27:
 267:FreeRTOS/Source/portable/MemMang/heap_2.c **** 		{
 287              		.loc 1 267 0
 288 00c6 FFF7FEFF 		bl	vTaskSuspendAll	@
 289              	.LVL28:
 290              	.LBB10:
 270:FreeRTOS/Source/portable/MemMang/heap_2.c **** 			xFreeBytesRemaining += pxLink->xBlockSize;
 291              		.loc 1 270 0
 292 00ca 54F8043C 		ldr	r3, [r4, #-4]	@ xBlockSize, MEM[(struct BlockLink_t *)pv_3(D) + 4294967288B].xBlockSize
 293              	.LVL29:
 294 00ce 094A     		ldr	r2, .L29	@ pxIterator,
 295              	.LVL30:
 296              	.L26:
 270:FreeRTOS/Source/portable/MemMang/heap_2.c **** 			xFreeBytesRemaining += pxLink->xBlockSize;
 297              		.loc 1 270 0 is_stmt 0 discriminator 1
 298 00d0 1168     		ldr	r1, [r2]	@ pxIterator, pxIterator_1->pxNextFreeBlock
 299 00d2 4868     		ldr	r0, [r1, #4]	@ D.5134, MEM[(struct A_BLOCK_LINK *)pxIterator_8].xBlockSize
 300 00d4 9842     		cmp	r0, r3	@ D.5134, xBlockSize
 301 00d6 01D2     		bcs	.L28	@,
 302 00d8 0A46     		mov	r2, r1	@ pxIterator, pxIterator
 303              	.LVL31:
 304 00da F9E7     		b	.L26	@
 305              	.LVL32:
 306              	.L28:
 270:FreeRTOS/Source/portable/MemMang/heap_2.c **** 			xFreeBytesRemaining += pxLink->xBlockSize;
 307              		.loc 1 270 0
 308 00dc 44F8081C 		str	r1, [r4, #-8]	@ pxIterator, MEM[(struct BlockLink_t *)pv_3(D) + 4294967288B].pxNextFreeBlock
 309 00e0 1560     		str	r5, [r2]	@ pxLink, pxIterator_21->pxNextFreeBlock
 310              	.LBE10:
 271:FreeRTOS/Source/portable/MemMang/heap_2.c **** 			traceFREE( pv, pxLink->xBlockSize );
 311              		.loc 1 271 0 is_stmt 1
 312 00e2 054A     		ldr	r2, .L29+4	@ tmp119,
 313              	.LVL33:
 314 00e4 1168     		ldr	r1, [r2]	@ xFreeBytesRemaining, xFreeBytesRemaining
 315 00e6 0B44     		add	r3, r3, r1	@ D.5134, xFreeBytesRemaining
 316              	.LVL34:
 317 00e8 1360     		str	r3, [r2]	@ D.5134, xFreeBytesRemaining
 276:FreeRTOS/Source/portable/MemMang/heap_2.c **** /*-----------------------------------------------------------*/
 318              		.loc 1 276 0
 319 00ea BDE83840 		pop	{r3, r4, r5, lr}	@
 320              	.LCFI2:
 321              		.cfi_remember_state
 322              		.cfi_restore 14
 323              		.cfi_restore 5
 324              		.cfi_restore 4
 325              		.cfi_restore 3
 326              		.cfi_def_cfa_offset 0
 327              	.LVL35:
 274:FreeRTOS/Source/portable/MemMang/heap_2.c **** 	}
 328              		.loc 1 274 0
 329 00ee FFF7FEBF 		b	xTaskResumeAll	@
 330              	.LVL36:
ARM GAS  /var/folders/yt/6z6x8bjn5sjf5fbb45bk5m4c0000gn/T//ccnRzt0G.s 			page 13


 331              	.L24:
 332              	.LCFI3:
 333              		.cfi_restore_state
 334 00f2 38BD     		pop	{r3, r4, r5, pc}	@
 335              	.L30:
 336              		.align	2
 337              	.L29:
 338 00f4 00000000 		.word	.LANCHOR0
 339 00f8 00000000 		.word	.LANCHOR2
 340              		.cfi_endproc
 341              	.LFE6:
 342              		.size	vPortFree, .-vPortFree
 343              		.align	1
 344              		.global	xPortGetFreeHeapSize
 345              		.thumb
 346              		.thumb_func
 347              		.type	xPortGetFreeHeapSize, %function
 348              	xPortGetFreeHeapSize:
 349              	.LFB7:
 280:FreeRTOS/Source/portable/MemMang/heap_2.c **** 	return xFreeBytesRemaining;
 350              		.loc 1 280 0
 351              		.cfi_startproc
 352              		@ args = 0, pretend = 0, frame = 0
 353              		@ frame_needed = 0, uses_anonymous_args = 0
 354              		@ link register save eliminated.
 282:FreeRTOS/Source/portable/MemMang/heap_2.c **** /*-----------------------------------------------------------*/
 355              		.loc 1 282 0
 356 00fc 014B     		ldr	r3, .L32	@ tmp113,
 357 00fe 1868     		ldr	r0, [r3]	@, xFreeBytesRemaining
 358 0100 7047     		bx	lr	@
 359              	.L33:
 360 0102 00BF     		.align	2
 361              	.L32:
 362 0104 00000000 		.word	.LANCHOR2
 363              		.cfi_endproc
 364              	.LFE7:
 365              		.size	xPortGetFreeHeapSize, .-xPortGetFreeHeapSize
 366              		.align	1
 367              		.global	vPortInitialiseBlocks
 368              		.thumb
 369              		.thumb_func
 370              		.type	vPortInitialiseBlocks, %function
 371              	vPortInitialiseBlocks:
 372              	.LFB8:
 286:FreeRTOS/Source/portable/MemMang/heap_2.c **** 	/* This just exists to keep the linker quiet. */
 373              		.loc 1 286 0
 374              		.cfi_startproc
 375              		@ args = 0, pretend = 0, frame = 0
 376              		@ frame_needed = 0, uses_anonymous_args = 0
 377              		@ link register save eliminated.
 378 0108 7047     		bx	lr	@
 379              		.cfi_endproc
 380              	.LFE8:
 381              		.size	vPortInitialiseBlocks, .-vPortInitialiseBlocks
 382              		.data
 383              		.align	2
 384              		.set	.LANCHOR2,. + 0
ARM GAS  /var/folders/yt/6z6x8bjn5sjf5fbb45bk5m4c0000gn/T//ccnRzt0G.s 			page 14


 385              		.type	xFreeBytesRemaining, %object
 386              		.size	xFreeBytesRemaining, 4
 387              	xFreeBytesRemaining:
 388 0000 F8270000 		.word	10232
 389              		.bss
 390              		.align	2
 391              		.set	.LANCHOR0,. + 0
 392              		.set	.LANCHOR1,. + 8688
 393              		.type	xStart, %object
 394              		.size	xStart, 8
 395              	xStart:
 396 0000 00000000 		.space	8
 396      00000000 
 397              		.type	xHeapHasBeenInitialised.5042, %object
 398              		.size	xHeapHasBeenInitialised.5042, 4
 399              	xHeapHasBeenInitialised.5042:
 400 0008 00000000 		.space	4
 401              		.type	ucHeap, %object
 402              		.size	ucHeap, 10240
 403              	ucHeap:
 404 000c 00000000 		.space	10240
 404      00000000 
 404      00000000 
 404      00000000 
 404      00000000 
 405              		.type	xEnd, %object
 406              		.size	xEnd, 8
 407              	xEnd:
 408 280c 00000000 		.space	8
 408      00000000 
 409              		.text
 410              	.Letext0:
 411              		.file 2 "/usr/local/Cellar/arm-none-eabi-gcc/20150921/lib/gcc/arm-none-eabi/4.9.3/include/stddef.h
 412              		.file 3 "/usr/local/Cellar/arm-none-eabi-gcc/20150921/arm-none-eabi/include/machine/_default_types
 413              		.file 4 "/usr/local/Cellar/arm-none-eabi-gcc/20150921/arm-none-eabi/include/sys/_stdint.h"
 414              		.file 5 "./FreeRTOS/Source/include/../../Source/portable/GCC/ARM_CM3/portmacro.h"
 415              		.file 6 "./FreeRTOS/Source/include/task.h"