ARM GAS  /var/folders/yt/6z6x8bjn5sjf5fbb45bk5m4c0000gn/T//cc9V89R8.s 			page 1


   1              		.syntax unified
   2              		.cpu cortex-m3
   3              		.fpu softvfp
   4              		.eabi_attribute 20, 1	@ Tag_ABI_FP_denormal
   5              		.eabi_attribute 21, 1	@ Tag_ABI_FP_exceptions
   6              		.eabi_attribute 23, 3	@ Tag_ABI_FP_number_model
   7              		.eabi_attribute 24, 1	@ Tag_ABI_align8_needed
   8              		.eabi_attribute 25, 1	@ Tag_ABI_align8_preserved
   9              		.eabi_attribute 26, 1	@ Tag_ABI_enum_size
  10              		.eabi_attribute 30, 4	@ Tag_ABI_optimization_goals
  11              		.eabi_attribute 34, 1	@ Tag_CPU_unaligned_access
  12              		.eabi_attribute 18, 4	@ Tag_ABI_PCS_wchar_t
  13              		.file	"stm32f10x_rcc.c"
  14              	@ GNU C (GNU Tools for ARM Embedded Processors) version 4.9.3 20150529 (release) [ARM/embedded-4_9-
  15              	@	compiled by GNU C version 4.2.1 (Based on Apple Inc. build 5658) (LLVM build 2336.9.00), GMP vers
  16              	@ GGC heuristics: --param ggc-min-expand=100 --param ggc-min-heapsize=131072
  17              	@ options passed:  -I . -I ./Libraries/CMSIS/CM3/CoreSupport
  18              	@ -I ./Libraries/CMSIS/CM3/DeviceSupport/ST/STM32F10x
  19              	@ -I ./Libraries/STM32F10x_StdPeriph_Driver/inc -I ./Libraries/Drivers/Leds
  20              	@ -I ./Libraries/Drivers/Buttons -I ./Libraries/Drivers/Usart
  21              	@ -I ./Libraries/Drivers/i2c -I ./Libraries/Drivers/BH1750
  22              	@ -I ./Libraries/Drivers/Utilities -I ./FreeRTOS/Source/include
  23              	@ -I ./FreeRTOS/Source/portable/GCC/ARM_CM3 -imultilib armv7-m
  24              	@ -iprefix /usr/local/Cellar/arm-none-eabi-gcc/20150921/bin/../lib/gcc/arm-none-eabi/4.9.3/
  25              	@ -isysroot /usr/local/Cellar/arm-none-eabi-gcc/20150921/bin/../arm-none-eabi
  26              	@ -MD Libraries/STM32F10x_StdPeriph_Driver/src/stm32f10x_rcc.d
  27              	@ -MF .dep/stm32f10x_rcc.o.d -MP
  28              	@ -MQ Libraries/STM32F10x_StdPeriph_Driver/src/stm32f10x_rcc.o
  29              	@ -D__USES_INITFINI__ -D STM32F10X_MD -D USE_STDPERIPH_DRIVER -D GCC_ARMCM3
  30              	@ -D RUN_FROM_FLASH=1
  31              	@ Libraries/STM32F10x_StdPeriph_Driver/src/stm32f10x_rcc.c -mcpu=cortex-m3
  32              	@ -mthumb
  33              	@ -auxbase-strip Libraries/STM32F10x_StdPeriph_Driver/src/stm32f10x_rcc.o
  34              	@ -gdwarf-2 -Os -Wall -Wstrict-prototypes -fomit-frame-pointer
  35              	@ -fverbose-asm
  36              	@ options enabled:  -faggressive-loop-optimizations -fauto-inc-dec
  37              	@ -fbranch-count-reg -fcaller-saves -fcombine-stack-adjustments -fcommon
  38              	@ -fcompare-elim -fcprop-registers -fcrossjumping -fcse-follow-jumps
  39              	@ -fdefer-pop -fdelete-null-pointer-checks -fdevirtualize
  40              	@ -fdevirtualize-speculatively -fdwarf2-cfi-asm -fearly-inlining
  41              	@ -feliminate-unused-debug-types -fexpensive-optimizations
  42              	@ -fforward-propagate -ffunction-cse -fgcse -fgcse-lm -fgnu-runtime
  43              	@ -fgnu-unique -fguess-branch-probability -fhoist-adjacent-loads -fident
  44              	@ -fif-conversion -fif-conversion2 -findirect-inlining -finline
  45              	@ -finline-atomics -finline-functions -finline-functions-called-once
  46              	@ -finline-small-functions -fipa-cp -fipa-profile -fipa-pure-const
  47              	@ -fipa-reference -fipa-sra -fira-hoist-pressure -fira-share-save-slots
  48              	@ -fira-share-spill-slots -fisolate-erroneous-paths-dereference -fivopts
  49              	@ -fkeep-static-consts -fleading-underscore -flifetime-dse -fmath-errno
  50              	@ -fmerge-constants -fmerge-debug-strings -fomit-frame-pointer
  51              	@ -foptimize-sibling-calls -fpartial-inlining -fpeephole -fpeephole2
  52              	@ -fprefetch-loop-arrays -freg-struct-return -freorder-blocks
  53              	@ -freorder-functions -frerun-cse-after-loop
  54              	@ -fsched-critical-path-heuristic -fsched-dep-count-heuristic
  55              	@ -fsched-group-heuristic -fsched-interblock -fsched-last-insn-heuristic
  56              	@ -fsched-pressure -fsched-rank-heuristic -fsched-spec
  57              	@ -fsched-spec-insn-heuristic -fsched-stalled-insns-dep -fschedule-insns2
ARM GAS  /var/folders/yt/6z6x8bjn5sjf5fbb45bk5m4c0000gn/T//cc9V89R8.s 			page 2


  58              	@ -fsection-anchors -fshow-column -fsigned-zeros -fsplit-ivs-in-unroller
  59              	@ -fsplit-wide-types -fstrict-aliasing -fstrict-overflow
  60              	@ -fstrict-volatile-bitfields -fsync-libcalls -fthread-jumps
  61              	@ -ftoplevel-reorder -ftrapping-math -ftree-bit-ccp -ftree-builtin-call-dce
  62              	@ -ftree-ccp -ftree-ch -ftree-coalesce-vars -ftree-copy-prop
  63              	@ -ftree-copyrename -ftree-cselim -ftree-dce -ftree-dominator-opts
  64              	@ -ftree-dse -ftree-forwprop -ftree-fre -ftree-loop-if-convert
  65              	@ -ftree-loop-im -ftree-loop-ivcanon -ftree-loop-optimize
  66              	@ -ftree-parallelize-loops= -ftree-phiprop -ftree-pre -ftree-pta
  67              	@ -ftree-reassoc -ftree-scev-cprop -ftree-sink -ftree-slsr -ftree-sra
  68              	@ -ftree-switch-conversion -ftree-tail-merge -ftree-ter -ftree-vrp
  69              	@ -funit-at-a-time -fvar-tracking -fvar-tracking-assignments -fverbose-asm
  70              	@ -fzero-initialized-in-bss -mfix-cortex-m3-ldrd -mlittle-endian -mlra
  71              	@ -mpic-data-is-text-relative -msched-prolog -mthumb -munaligned-access
  72              	@ -mvectorize-with-neon-quad
  73              	
  74              		.text
  75              	.Ltext0:
  76              		.cfi_sections	.debug_frame
  77              		.align	1
  78              		.global	RCC_DeInit
  79              		.thumb
  80              		.thumb_func
  81              		.type	RCC_DeInit, %function
  82              	RCC_DeInit:
  83              	.LFB29:
  84              		.file 1 "Libraries/STM32F10x_StdPeriph_Driver/src/stm32f10x_rcc.c"
   1:Libraries/STM32F10x_StdPeriph_Driver/src/stm32f10x_rcc.c **** /**
   2:Libraries/STM32F10x_StdPeriph_Driver/src/stm32f10x_rcc.c ****   ******************************************************************************
   3:Libraries/STM32F10x_StdPeriph_Driver/src/stm32f10x_rcc.c ****   * @file    stm32f10x_rcc.c
   4:Libraries/STM32F10x_StdPeriph_Driver/src/stm32f10x_rcc.c ****   * @author  MCD Application Team
   5:Libraries/STM32F10x_StdPeriph_Driver/src/stm32f10x_rcc.c ****   * @version V3.5.0
   6:Libraries/STM32F10x_StdPeriph_Driver/src/stm32f10x_rcc.c ****   * @date    11-March-2011
   7:Libraries/STM32F10x_StdPeriph_Driver/src/stm32f10x_rcc.c ****   * @brief   This file provides all the RCC firmware functions.
   8:Libraries/STM32F10x_StdPeriph_Driver/src/stm32f10x_rcc.c ****   ******************************************************************************
   9:Libraries/STM32F10x_StdPeriph_Driver/src/stm32f10x_rcc.c ****   * @attention
  10:Libraries/STM32F10x_StdPeriph_Driver/src/stm32f10x_rcc.c ****   *
  11:Libraries/STM32F10x_StdPeriph_Driver/src/stm32f10x_rcc.c ****   * THE PRESENT FIRMWARE WHICH IS FOR GUIDANCE ONLY AIMS AT PROVIDING CUSTOMERS
  12:Libraries/STM32F10x_StdPeriph_Driver/src/stm32f10x_rcc.c ****   * WITH CODING INFORMATION REGARDING THEIR PRODUCTS IN ORDER FOR THEM TO SAVE
  13:Libraries/STM32F10x_StdPeriph_Driver/src/stm32f10x_rcc.c ****   * TIME. AS A RESULT, STMICROELECTRONICS SHALL NOT BE HELD LIABLE FOR ANY
  14:Libraries/STM32F10x_StdPeriph_Driver/src/stm32f10x_rcc.c ****   * DIRECT, INDIRECT OR CONSEQUENTIAL DAMAGES WITH RESPECT TO ANY CLAIMS ARISING
  15:Libraries/STM32F10x_StdPeriph_Driver/src/stm32f10x_rcc.c ****   * FROM THE CONTENT OF SUCH FIRMWARE AND/OR THE USE MADE BY CUSTOMERS OF THE
  16:Libraries/STM32F10x_StdPeriph_Driver/src/stm32f10x_rcc.c ****   * CODING INFORMATION CONTAINED HEREIN IN CONNECTION WITH THEIR PRODUCTS.
  17:Libraries/STM32F10x_StdPeriph_Driver/src/stm32f10x_rcc.c ****   *
  18:Libraries/STM32F10x_StdPeriph_Driver/src/stm32f10x_rcc.c ****   * <h2><center>&copy; COPYRIGHT 2011 STMicroelectronics</center></h2>
  19:Libraries/STM32F10x_StdPeriph_Driver/src/stm32f10x_rcc.c ****   ******************************************************************************
  20:Libraries/STM32F10x_StdPeriph_Driver/src/stm32f10x_rcc.c ****   */
  21:Libraries/STM32F10x_StdPeriph_Driver/src/stm32f10x_rcc.c **** 
  22:Libraries/STM32F10x_StdPeriph_Driver/src/stm32f10x_rcc.c **** /* Includes ------------------------------------------------------------------*/
  23:Libraries/STM32F10x_StdPeriph_Driver/src/stm32f10x_rcc.c **** #include "stm32f10x_rcc.h"
  24:Libraries/STM32F10x_StdPeriph_Driver/src/stm32f10x_rcc.c **** 
  25:Libraries/STM32F10x_StdPeriph_Driver/src/stm32f10x_rcc.c **** /** @addtogroup STM32F10x_StdPeriph_Driver
  26:Libraries/STM32F10x_StdPeriph_Driver/src/stm32f10x_rcc.c ****   * @{
  27:Libraries/STM32F10x_StdPeriph_Driver/src/stm32f10x_rcc.c ****   */
  28:Libraries/STM32F10x_StdPeriph_Driver/src/stm32f10x_rcc.c **** 
  29:Libraries/STM32F10x_StdPeriph_Driver/src/stm32f10x_rcc.c **** /** @defgroup RCC 
  30:Libraries/STM32F10x_StdPeriph_Driver/src/stm32f10x_rcc.c ****   * @brief RCC driver modules
ARM GAS  /var/folders/yt/6z6x8bjn5sjf5fbb45bk5m4c0000gn/T//cc9V89R8.s 			page 3


  31:Libraries/STM32F10x_StdPeriph_Driver/src/stm32f10x_rcc.c ****   * @{
  32:Libraries/STM32F10x_StdPeriph_Driver/src/stm32f10x_rcc.c ****   */ 
  33:Libraries/STM32F10x_StdPeriph_Driver/src/stm32f10x_rcc.c **** 
  34:Libraries/STM32F10x_StdPeriph_Driver/src/stm32f10x_rcc.c **** /** @defgroup RCC_Private_TypesDefinitions
  35:Libraries/STM32F10x_StdPeriph_Driver/src/stm32f10x_rcc.c ****   * @{
  36:Libraries/STM32F10x_StdPeriph_Driver/src/stm32f10x_rcc.c ****   */
  37:Libraries/STM32F10x_StdPeriph_Driver/src/stm32f10x_rcc.c **** 
  38:Libraries/STM32F10x_StdPeriph_Driver/src/stm32f10x_rcc.c **** /**
  39:Libraries/STM32F10x_StdPeriph_Driver/src/stm32f10x_rcc.c ****   * @}
  40:Libraries/STM32F10x_StdPeriph_Driver/src/stm32f10x_rcc.c ****   */
  41:Libraries/STM32F10x_StdPeriph_Driver/src/stm32f10x_rcc.c **** 
  42:Libraries/STM32F10x_StdPeriph_Driver/src/stm32f10x_rcc.c **** /** @defgroup RCC_Private_Defines
  43:Libraries/STM32F10x_StdPeriph_Driver/src/stm32f10x_rcc.c ****   * @{
  44:Libraries/STM32F10x_StdPeriph_Driver/src/stm32f10x_rcc.c ****   */
  45:Libraries/STM32F10x_StdPeriph_Driver/src/stm32f10x_rcc.c **** 
  46:Libraries/STM32F10x_StdPeriph_Driver/src/stm32f10x_rcc.c **** /* ------------ RCC registers bit address in the alias region ----------- */
  47:Libraries/STM32F10x_StdPeriph_Driver/src/stm32f10x_rcc.c **** #define RCC_OFFSET                (RCC_BASE - PERIPH_BASE)
  48:Libraries/STM32F10x_StdPeriph_Driver/src/stm32f10x_rcc.c **** 
  49:Libraries/STM32F10x_StdPeriph_Driver/src/stm32f10x_rcc.c **** /* --- CR Register ---*/
  50:Libraries/STM32F10x_StdPeriph_Driver/src/stm32f10x_rcc.c **** 
  51:Libraries/STM32F10x_StdPeriph_Driver/src/stm32f10x_rcc.c **** /* Alias word address of HSION bit */
  52:Libraries/STM32F10x_StdPeriph_Driver/src/stm32f10x_rcc.c **** #define CR_OFFSET                 (RCC_OFFSET + 0x00)
  53:Libraries/STM32F10x_StdPeriph_Driver/src/stm32f10x_rcc.c **** #define HSION_BitNumber           0x00
  54:Libraries/STM32F10x_StdPeriph_Driver/src/stm32f10x_rcc.c **** #define CR_HSION_BB               (PERIPH_BB_BASE + (CR_OFFSET * 32) + (HSION_BitNumber * 4))
  55:Libraries/STM32F10x_StdPeriph_Driver/src/stm32f10x_rcc.c **** 
  56:Libraries/STM32F10x_StdPeriph_Driver/src/stm32f10x_rcc.c **** /* Alias word address of PLLON bit */
  57:Libraries/STM32F10x_StdPeriph_Driver/src/stm32f10x_rcc.c **** #define PLLON_BitNumber           0x18
  58:Libraries/STM32F10x_StdPeriph_Driver/src/stm32f10x_rcc.c **** #define CR_PLLON_BB               (PERIPH_BB_BASE + (CR_OFFSET * 32) + (PLLON_BitNumber * 4))
  59:Libraries/STM32F10x_StdPeriph_Driver/src/stm32f10x_rcc.c **** 
  60:Libraries/STM32F10x_StdPeriph_Driver/src/stm32f10x_rcc.c **** #ifdef STM32F10X_CL
  61:Libraries/STM32F10x_StdPeriph_Driver/src/stm32f10x_rcc.c ****  /* Alias word address of PLL2ON bit */
  62:Libraries/STM32F10x_StdPeriph_Driver/src/stm32f10x_rcc.c ****  #define PLL2ON_BitNumber          0x1A
  63:Libraries/STM32F10x_StdPeriph_Driver/src/stm32f10x_rcc.c ****  #define CR_PLL2ON_BB              (PERIPH_BB_BASE + (CR_OFFSET * 32) + (PLL2ON_BitNumber * 4))
  64:Libraries/STM32F10x_StdPeriph_Driver/src/stm32f10x_rcc.c **** 
  65:Libraries/STM32F10x_StdPeriph_Driver/src/stm32f10x_rcc.c ****  /* Alias word address of PLL3ON bit */
  66:Libraries/STM32F10x_StdPeriph_Driver/src/stm32f10x_rcc.c ****  #define PLL3ON_BitNumber          0x1C
  67:Libraries/STM32F10x_StdPeriph_Driver/src/stm32f10x_rcc.c ****  #define CR_PLL3ON_BB              (PERIPH_BB_BASE + (CR_OFFSET * 32) + (PLL3ON_BitNumber * 4))
  68:Libraries/STM32F10x_StdPeriph_Driver/src/stm32f10x_rcc.c **** #endif /* STM32F10X_CL */ 
  69:Libraries/STM32F10x_StdPeriph_Driver/src/stm32f10x_rcc.c **** 
  70:Libraries/STM32F10x_StdPeriph_Driver/src/stm32f10x_rcc.c **** /* Alias word address of CSSON bit */
  71:Libraries/STM32F10x_StdPeriph_Driver/src/stm32f10x_rcc.c **** #define CSSON_BitNumber           0x13
  72:Libraries/STM32F10x_StdPeriph_Driver/src/stm32f10x_rcc.c **** #define CR_CSSON_BB               (PERIPH_BB_BASE + (CR_OFFSET * 32) + (CSSON_BitNumber * 4))
  73:Libraries/STM32F10x_StdPeriph_Driver/src/stm32f10x_rcc.c **** 
  74:Libraries/STM32F10x_StdPeriph_Driver/src/stm32f10x_rcc.c **** /* --- CFGR Register ---*/
  75:Libraries/STM32F10x_StdPeriph_Driver/src/stm32f10x_rcc.c **** 
  76:Libraries/STM32F10x_StdPeriph_Driver/src/stm32f10x_rcc.c **** /* Alias word address of USBPRE bit */
  77:Libraries/STM32F10x_StdPeriph_Driver/src/stm32f10x_rcc.c **** #define CFGR_OFFSET               (RCC_OFFSET + 0x04)
  78:Libraries/STM32F10x_StdPeriph_Driver/src/stm32f10x_rcc.c **** 
  79:Libraries/STM32F10x_StdPeriph_Driver/src/stm32f10x_rcc.c **** #ifndef STM32F10X_CL
  80:Libraries/STM32F10x_StdPeriph_Driver/src/stm32f10x_rcc.c ****  #define USBPRE_BitNumber          0x16
  81:Libraries/STM32F10x_StdPeriph_Driver/src/stm32f10x_rcc.c ****  #define CFGR_USBPRE_BB            (PERIPH_BB_BASE + (CFGR_OFFSET * 32) + (USBPRE_BitNumber * 4))
  82:Libraries/STM32F10x_StdPeriph_Driver/src/stm32f10x_rcc.c **** #else
  83:Libraries/STM32F10x_StdPeriph_Driver/src/stm32f10x_rcc.c ****  #define OTGFSPRE_BitNumber        0x16
  84:Libraries/STM32F10x_StdPeriph_Driver/src/stm32f10x_rcc.c ****  #define CFGR_OTGFSPRE_BB          (PERIPH_BB_BASE + (CFGR_OFFSET * 32) + (OTGFSPRE_BitNumber * 4))
  85:Libraries/STM32F10x_StdPeriph_Driver/src/stm32f10x_rcc.c **** #endif /* STM32F10X_CL */ 
  86:Libraries/STM32F10x_StdPeriph_Driver/src/stm32f10x_rcc.c **** 
  87:Libraries/STM32F10x_StdPeriph_Driver/src/stm32f10x_rcc.c **** /* --- BDCR Register ---*/
ARM GAS  /var/folders/yt/6z6x8bjn5sjf5fbb45bk5m4c0000gn/T//cc9V89R8.s 			page 4


  88:Libraries/STM32F10x_StdPeriph_Driver/src/stm32f10x_rcc.c **** 
  89:Libraries/STM32F10x_StdPeriph_Driver/src/stm32f10x_rcc.c **** /* Alias word address of RTCEN bit */
  90:Libraries/STM32F10x_StdPeriph_Driver/src/stm32f10x_rcc.c **** #define BDCR_OFFSET               (RCC_OFFSET + 0x20)
  91:Libraries/STM32F10x_StdPeriph_Driver/src/stm32f10x_rcc.c **** #define RTCEN_BitNumber           0x0F
  92:Libraries/STM32F10x_StdPeriph_Driver/src/stm32f10x_rcc.c **** #define BDCR_RTCEN_BB             (PERIPH_BB_BASE + (BDCR_OFFSET * 32) + (RTCEN_BitNumber * 4))
  93:Libraries/STM32F10x_StdPeriph_Driver/src/stm32f10x_rcc.c **** 
  94:Libraries/STM32F10x_StdPeriph_Driver/src/stm32f10x_rcc.c **** /* Alias word address of BDRST bit */
  95:Libraries/STM32F10x_StdPeriph_Driver/src/stm32f10x_rcc.c **** #define BDRST_BitNumber           0x10
  96:Libraries/STM32F10x_StdPeriph_Driver/src/stm32f10x_rcc.c **** #define BDCR_BDRST_BB             (PERIPH_BB_BASE + (BDCR_OFFSET * 32) + (BDRST_BitNumber * 4))
  97:Libraries/STM32F10x_StdPeriph_Driver/src/stm32f10x_rcc.c **** 
  98:Libraries/STM32F10x_StdPeriph_Driver/src/stm32f10x_rcc.c **** /* --- CSR Register ---*/
  99:Libraries/STM32F10x_StdPeriph_Driver/src/stm32f10x_rcc.c **** 
 100:Libraries/STM32F10x_StdPeriph_Driver/src/stm32f10x_rcc.c **** /* Alias word address of LSION bit */
 101:Libraries/STM32F10x_StdPeriph_Driver/src/stm32f10x_rcc.c **** #define CSR_OFFSET                (RCC_OFFSET + 0x24)
 102:Libraries/STM32F10x_StdPeriph_Driver/src/stm32f10x_rcc.c **** #define LSION_BitNumber           0x00
 103:Libraries/STM32F10x_StdPeriph_Driver/src/stm32f10x_rcc.c **** #define CSR_LSION_BB              (PERIPH_BB_BASE + (CSR_OFFSET * 32) + (LSION_BitNumber * 4))
 104:Libraries/STM32F10x_StdPeriph_Driver/src/stm32f10x_rcc.c **** 
 105:Libraries/STM32F10x_StdPeriph_Driver/src/stm32f10x_rcc.c **** #ifdef STM32F10X_CL
 106:Libraries/STM32F10x_StdPeriph_Driver/src/stm32f10x_rcc.c **** /* --- CFGR2 Register ---*/
 107:Libraries/STM32F10x_StdPeriph_Driver/src/stm32f10x_rcc.c **** 
 108:Libraries/STM32F10x_StdPeriph_Driver/src/stm32f10x_rcc.c ****  /* Alias word address of I2S2SRC bit */
 109:Libraries/STM32F10x_StdPeriph_Driver/src/stm32f10x_rcc.c ****  #define CFGR2_OFFSET              (RCC_OFFSET + 0x2C)
 110:Libraries/STM32F10x_StdPeriph_Driver/src/stm32f10x_rcc.c ****  #define I2S2SRC_BitNumber         0x11
 111:Libraries/STM32F10x_StdPeriph_Driver/src/stm32f10x_rcc.c ****  #define CFGR2_I2S2SRC_BB          (PERIPH_BB_BASE + (CFGR2_OFFSET * 32) + (I2S2SRC_BitNumber * 4))
 112:Libraries/STM32F10x_StdPeriph_Driver/src/stm32f10x_rcc.c **** 
 113:Libraries/STM32F10x_StdPeriph_Driver/src/stm32f10x_rcc.c ****  /* Alias word address of I2S3SRC bit */
 114:Libraries/STM32F10x_StdPeriph_Driver/src/stm32f10x_rcc.c ****  #define I2S3SRC_BitNumber         0x12
 115:Libraries/STM32F10x_StdPeriph_Driver/src/stm32f10x_rcc.c ****  #define CFGR2_I2S3SRC_BB          (PERIPH_BB_BASE + (CFGR2_OFFSET * 32) + (I2S3SRC_BitNumber * 4))
 116:Libraries/STM32F10x_StdPeriph_Driver/src/stm32f10x_rcc.c **** #endif /* STM32F10X_CL */
 117:Libraries/STM32F10x_StdPeriph_Driver/src/stm32f10x_rcc.c **** 
 118:Libraries/STM32F10x_StdPeriph_Driver/src/stm32f10x_rcc.c **** /* ---------------------- RCC registers bit mask ------------------------ */
 119:Libraries/STM32F10x_StdPeriph_Driver/src/stm32f10x_rcc.c **** 
 120:Libraries/STM32F10x_StdPeriph_Driver/src/stm32f10x_rcc.c **** /* CR register bit mask */
 121:Libraries/STM32F10x_StdPeriph_Driver/src/stm32f10x_rcc.c **** #define CR_HSEBYP_Reset           ((uint32_t)0xFFFBFFFF)
 122:Libraries/STM32F10x_StdPeriph_Driver/src/stm32f10x_rcc.c **** #define CR_HSEBYP_Set             ((uint32_t)0x00040000)
 123:Libraries/STM32F10x_StdPeriph_Driver/src/stm32f10x_rcc.c **** #define CR_HSEON_Reset            ((uint32_t)0xFFFEFFFF)
 124:Libraries/STM32F10x_StdPeriph_Driver/src/stm32f10x_rcc.c **** #define CR_HSEON_Set              ((uint32_t)0x00010000)
 125:Libraries/STM32F10x_StdPeriph_Driver/src/stm32f10x_rcc.c **** #define CR_HSITRIM_Mask           ((uint32_t)0xFFFFFF07)
 126:Libraries/STM32F10x_StdPeriph_Driver/src/stm32f10x_rcc.c **** 
 127:Libraries/STM32F10x_StdPeriph_Driver/src/stm32f10x_rcc.c **** /* CFGR register bit mask */
 128:Libraries/STM32F10x_StdPeriph_Driver/src/stm32f10x_rcc.c **** #if defined (STM32F10X_LD_VL) || defined (STM32F10X_MD_VL) || defined (STM32F10X_HD_VL) || defined 
 129:Libraries/STM32F10x_StdPeriph_Driver/src/stm32f10x_rcc.c ****  #define CFGR_PLL_Mask            ((uint32_t)0xFFC2FFFF)
 130:Libraries/STM32F10x_StdPeriph_Driver/src/stm32f10x_rcc.c **** #else
 131:Libraries/STM32F10x_StdPeriph_Driver/src/stm32f10x_rcc.c ****  #define CFGR_PLL_Mask            ((uint32_t)0xFFC0FFFF)
 132:Libraries/STM32F10x_StdPeriph_Driver/src/stm32f10x_rcc.c **** #endif /* STM32F10X_CL */ 
 133:Libraries/STM32F10x_StdPeriph_Driver/src/stm32f10x_rcc.c **** 
 134:Libraries/STM32F10x_StdPeriph_Driver/src/stm32f10x_rcc.c **** #define CFGR_PLLMull_Mask         ((uint32_t)0x003C0000)
 135:Libraries/STM32F10x_StdPeriph_Driver/src/stm32f10x_rcc.c **** #define CFGR_PLLSRC_Mask          ((uint32_t)0x00010000)
 136:Libraries/STM32F10x_StdPeriph_Driver/src/stm32f10x_rcc.c **** #define CFGR_PLLXTPRE_Mask        ((uint32_t)0x00020000)
 137:Libraries/STM32F10x_StdPeriph_Driver/src/stm32f10x_rcc.c **** #define CFGR_SWS_Mask             ((uint32_t)0x0000000C)
 138:Libraries/STM32F10x_StdPeriph_Driver/src/stm32f10x_rcc.c **** #define CFGR_SW_Mask              ((uint32_t)0xFFFFFFFC)
 139:Libraries/STM32F10x_StdPeriph_Driver/src/stm32f10x_rcc.c **** #define CFGR_HPRE_Reset_Mask      ((uint32_t)0xFFFFFF0F)
 140:Libraries/STM32F10x_StdPeriph_Driver/src/stm32f10x_rcc.c **** #define CFGR_HPRE_Set_Mask        ((uint32_t)0x000000F0)
 141:Libraries/STM32F10x_StdPeriph_Driver/src/stm32f10x_rcc.c **** #define CFGR_PPRE1_Reset_Mask     ((uint32_t)0xFFFFF8FF)
 142:Libraries/STM32F10x_StdPeriph_Driver/src/stm32f10x_rcc.c **** #define CFGR_PPRE1_Set_Mask       ((uint32_t)0x00000700)
 143:Libraries/STM32F10x_StdPeriph_Driver/src/stm32f10x_rcc.c **** #define CFGR_PPRE2_Reset_Mask     ((uint32_t)0xFFFFC7FF)
 144:Libraries/STM32F10x_StdPeriph_Driver/src/stm32f10x_rcc.c **** #define CFGR_PPRE2_Set_Mask       ((uint32_t)0x00003800)
ARM GAS  /var/folders/yt/6z6x8bjn5sjf5fbb45bk5m4c0000gn/T//cc9V89R8.s 			page 5


 145:Libraries/STM32F10x_StdPeriph_Driver/src/stm32f10x_rcc.c **** #define CFGR_ADCPRE_Reset_Mask    ((uint32_t)0xFFFF3FFF)
 146:Libraries/STM32F10x_StdPeriph_Driver/src/stm32f10x_rcc.c **** #define CFGR_ADCPRE_Set_Mask      ((uint32_t)0x0000C000)
 147:Libraries/STM32F10x_StdPeriph_Driver/src/stm32f10x_rcc.c **** 
 148:Libraries/STM32F10x_StdPeriph_Driver/src/stm32f10x_rcc.c **** /* CSR register bit mask */
 149:Libraries/STM32F10x_StdPeriph_Driver/src/stm32f10x_rcc.c **** #define CSR_RMVF_Set              ((uint32_t)0x01000000)
 150:Libraries/STM32F10x_StdPeriph_Driver/src/stm32f10x_rcc.c **** 
 151:Libraries/STM32F10x_StdPeriph_Driver/src/stm32f10x_rcc.c **** #if defined (STM32F10X_LD_VL) || defined (STM32F10X_MD_VL) || defined (STM32F10X_HD_VL) || defined 
 152:Libraries/STM32F10x_StdPeriph_Driver/src/stm32f10x_rcc.c **** /* CFGR2 register bit mask */
 153:Libraries/STM32F10x_StdPeriph_Driver/src/stm32f10x_rcc.c ****  #define CFGR2_PREDIV1SRC         ((uint32_t)0x00010000)
 154:Libraries/STM32F10x_StdPeriph_Driver/src/stm32f10x_rcc.c ****  #define CFGR2_PREDIV1            ((uint32_t)0x0000000F)
 155:Libraries/STM32F10x_StdPeriph_Driver/src/stm32f10x_rcc.c **** #endif
 156:Libraries/STM32F10x_StdPeriph_Driver/src/stm32f10x_rcc.c **** #ifdef STM32F10X_CL
 157:Libraries/STM32F10x_StdPeriph_Driver/src/stm32f10x_rcc.c ****  #define CFGR2_PREDIV2            ((uint32_t)0x000000F0)
 158:Libraries/STM32F10x_StdPeriph_Driver/src/stm32f10x_rcc.c ****  #define CFGR2_PLL2MUL            ((uint32_t)0x00000F00)
 159:Libraries/STM32F10x_StdPeriph_Driver/src/stm32f10x_rcc.c ****  #define CFGR2_PLL3MUL            ((uint32_t)0x0000F000)
 160:Libraries/STM32F10x_StdPeriph_Driver/src/stm32f10x_rcc.c **** #endif /* STM32F10X_CL */ 
 161:Libraries/STM32F10x_StdPeriph_Driver/src/stm32f10x_rcc.c **** 
 162:Libraries/STM32F10x_StdPeriph_Driver/src/stm32f10x_rcc.c **** /* RCC Flag Mask */
 163:Libraries/STM32F10x_StdPeriph_Driver/src/stm32f10x_rcc.c **** #define FLAG_Mask                 ((uint8_t)0x1F)
 164:Libraries/STM32F10x_StdPeriph_Driver/src/stm32f10x_rcc.c **** 
 165:Libraries/STM32F10x_StdPeriph_Driver/src/stm32f10x_rcc.c **** /* CIR register byte 2 (Bits[15:8]) base address */
 166:Libraries/STM32F10x_StdPeriph_Driver/src/stm32f10x_rcc.c **** #define CIR_BYTE2_ADDRESS         ((uint32_t)0x40021009)
 167:Libraries/STM32F10x_StdPeriph_Driver/src/stm32f10x_rcc.c **** 
 168:Libraries/STM32F10x_StdPeriph_Driver/src/stm32f10x_rcc.c **** /* CIR register byte 3 (Bits[23:16]) base address */
 169:Libraries/STM32F10x_StdPeriph_Driver/src/stm32f10x_rcc.c **** #define CIR_BYTE3_ADDRESS         ((uint32_t)0x4002100A)
 170:Libraries/STM32F10x_StdPeriph_Driver/src/stm32f10x_rcc.c **** 
 171:Libraries/STM32F10x_StdPeriph_Driver/src/stm32f10x_rcc.c **** /* CFGR register byte 4 (Bits[31:24]) base address */
 172:Libraries/STM32F10x_StdPeriph_Driver/src/stm32f10x_rcc.c **** #define CFGR_BYTE4_ADDRESS        ((uint32_t)0x40021007)
 173:Libraries/STM32F10x_StdPeriph_Driver/src/stm32f10x_rcc.c **** 
 174:Libraries/STM32F10x_StdPeriph_Driver/src/stm32f10x_rcc.c **** /* BDCR register base address */
 175:Libraries/STM32F10x_StdPeriph_Driver/src/stm32f10x_rcc.c **** #define BDCR_ADDRESS              (PERIPH_BASE + BDCR_OFFSET)
 176:Libraries/STM32F10x_StdPeriph_Driver/src/stm32f10x_rcc.c **** 
 177:Libraries/STM32F10x_StdPeriph_Driver/src/stm32f10x_rcc.c **** /**
 178:Libraries/STM32F10x_StdPeriph_Driver/src/stm32f10x_rcc.c ****   * @}
 179:Libraries/STM32F10x_StdPeriph_Driver/src/stm32f10x_rcc.c ****   */ 
 180:Libraries/STM32F10x_StdPeriph_Driver/src/stm32f10x_rcc.c **** 
 181:Libraries/STM32F10x_StdPeriph_Driver/src/stm32f10x_rcc.c **** /** @defgroup RCC_Private_Macros
 182:Libraries/STM32F10x_StdPeriph_Driver/src/stm32f10x_rcc.c ****   * @{
 183:Libraries/STM32F10x_StdPeriph_Driver/src/stm32f10x_rcc.c ****   */ 
 184:Libraries/STM32F10x_StdPeriph_Driver/src/stm32f10x_rcc.c **** 
 185:Libraries/STM32F10x_StdPeriph_Driver/src/stm32f10x_rcc.c **** /**
 186:Libraries/STM32F10x_StdPeriph_Driver/src/stm32f10x_rcc.c ****   * @}
 187:Libraries/STM32F10x_StdPeriph_Driver/src/stm32f10x_rcc.c ****   */ 
 188:Libraries/STM32F10x_StdPeriph_Driver/src/stm32f10x_rcc.c **** 
 189:Libraries/STM32F10x_StdPeriph_Driver/src/stm32f10x_rcc.c **** /** @defgroup RCC_Private_Variables
 190:Libraries/STM32F10x_StdPeriph_Driver/src/stm32f10x_rcc.c ****   * @{
 191:Libraries/STM32F10x_StdPeriph_Driver/src/stm32f10x_rcc.c ****   */ 
 192:Libraries/STM32F10x_StdPeriph_Driver/src/stm32f10x_rcc.c **** 
 193:Libraries/STM32F10x_StdPeriph_Driver/src/stm32f10x_rcc.c **** static __I uint8_t APBAHBPrescTable[16] = {0, 0, 0, 0, 1, 2, 3, 4, 1, 2, 3, 4, 6, 7, 8, 9};
 194:Libraries/STM32F10x_StdPeriph_Driver/src/stm32f10x_rcc.c **** static __I uint8_t ADCPrescTable[4] = {2, 4, 6, 8};
 195:Libraries/STM32F10x_StdPeriph_Driver/src/stm32f10x_rcc.c **** 
 196:Libraries/STM32F10x_StdPeriph_Driver/src/stm32f10x_rcc.c **** /**
 197:Libraries/STM32F10x_StdPeriph_Driver/src/stm32f10x_rcc.c ****   * @}
 198:Libraries/STM32F10x_StdPeriph_Driver/src/stm32f10x_rcc.c ****   */
 199:Libraries/STM32F10x_StdPeriph_Driver/src/stm32f10x_rcc.c **** 
 200:Libraries/STM32F10x_StdPeriph_Driver/src/stm32f10x_rcc.c **** /** @defgroup RCC_Private_FunctionPrototypes
 201:Libraries/STM32F10x_StdPeriph_Driver/src/stm32f10x_rcc.c ****   * @{
ARM GAS  /var/folders/yt/6z6x8bjn5sjf5fbb45bk5m4c0000gn/T//cc9V89R8.s 			page 6


 202:Libraries/STM32F10x_StdPeriph_Driver/src/stm32f10x_rcc.c ****   */
 203:Libraries/STM32F10x_StdPeriph_Driver/src/stm32f10x_rcc.c **** 
 204:Libraries/STM32F10x_StdPeriph_Driver/src/stm32f10x_rcc.c **** /**
 205:Libraries/STM32F10x_StdPeriph_Driver/src/stm32f10x_rcc.c ****   * @}
 206:Libraries/STM32F10x_StdPeriph_Driver/src/stm32f10x_rcc.c ****   */
 207:Libraries/STM32F10x_StdPeriph_Driver/src/stm32f10x_rcc.c **** 
 208:Libraries/STM32F10x_StdPeriph_Driver/src/stm32f10x_rcc.c **** /** @defgroup RCC_Private_Functions
 209:Libraries/STM32F10x_StdPeriph_Driver/src/stm32f10x_rcc.c ****   * @{
 210:Libraries/STM32F10x_StdPeriph_Driver/src/stm32f10x_rcc.c ****   */
 211:Libraries/STM32F10x_StdPeriph_Driver/src/stm32f10x_rcc.c **** 
 212:Libraries/STM32F10x_StdPeriph_Driver/src/stm32f10x_rcc.c **** /**
 213:Libraries/STM32F10x_StdPeriph_Driver/src/stm32f10x_rcc.c ****   * @brief  Resets the RCC clock configuration to the default reset state.
 214:Libraries/STM32F10x_StdPeriph_Driver/src/stm32f10x_rcc.c ****   * @param  None
 215:Libraries/STM32F10x_StdPeriph_Driver/src/stm32f10x_rcc.c ****   * @retval None
 216:Libraries/STM32F10x_StdPeriph_Driver/src/stm32f10x_rcc.c ****   */
 217:Libraries/STM32F10x_StdPeriph_Driver/src/stm32f10x_rcc.c **** void RCC_DeInit(void)
 218:Libraries/STM32F10x_StdPeriph_Driver/src/stm32f10x_rcc.c **** {
  85              		.loc 1 218 0
  86              		.cfi_startproc
  87              		@ args = 0, pretend = 0, frame = 0
  88              		@ frame_needed = 0, uses_anonymous_args = 0
  89              		@ link register save eliminated.
 219:Libraries/STM32F10x_StdPeriph_Driver/src/stm32f10x_rcc.c ****   /* Set HSION bit */
 220:Libraries/STM32F10x_StdPeriph_Driver/src/stm32f10x_rcc.c ****   RCC->CR |= (uint32_t)0x00000001;
  90              		.loc 1 220 0
  91 0000 0D4B     		ldr	r3, .L2	@ tmp120,
  92 0002 1A68     		ldr	r2, [r3]	@ D.5851, MEM[(struct RCC_TypeDef *)1073876992B].CR
  93 0004 42F00102 		orr	r2, r2, #1	@ D.5851, D.5851,
  94 0008 1A60     		str	r2, [r3]	@ D.5851, MEM[(struct RCC_TypeDef *)1073876992B].CR
 221:Libraries/STM32F10x_StdPeriph_Driver/src/stm32f10x_rcc.c **** 
 222:Libraries/STM32F10x_StdPeriph_Driver/src/stm32f10x_rcc.c ****   /* Reset SW, HPRE, PPRE1, PPRE2, ADCPRE and MCO bits */
 223:Libraries/STM32F10x_StdPeriph_Driver/src/stm32f10x_rcc.c **** #ifndef STM32F10X_CL
 224:Libraries/STM32F10x_StdPeriph_Driver/src/stm32f10x_rcc.c ****   RCC->CFGR &= (uint32_t)0xF8FF0000;
  95              		.loc 1 224 0
  96 000a 5968     		ldr	r1, [r3, #4]	@ D.5851, MEM[(struct RCC_TypeDef *)1073876992B].CFGR
  97 000c 0B4A     		ldr	r2, .L2+4	@ D.5851,
  98 000e 0A40     		ands	r2, r2, r1	@, D.5851, D.5851, D.5851
  99 0010 5A60     		str	r2, [r3, #4]	@ D.5851, MEM[(struct RCC_TypeDef *)1073876992B].CFGR
 225:Libraries/STM32F10x_StdPeriph_Driver/src/stm32f10x_rcc.c **** #else
 226:Libraries/STM32F10x_StdPeriph_Driver/src/stm32f10x_rcc.c ****   RCC->CFGR &= (uint32_t)0xF0FF0000;
 227:Libraries/STM32F10x_StdPeriph_Driver/src/stm32f10x_rcc.c **** #endif /* STM32F10X_CL */   
 228:Libraries/STM32F10x_StdPeriph_Driver/src/stm32f10x_rcc.c ****   
 229:Libraries/STM32F10x_StdPeriph_Driver/src/stm32f10x_rcc.c ****   /* Reset HSEON, CSSON and PLLON bits */
 230:Libraries/STM32F10x_StdPeriph_Driver/src/stm32f10x_rcc.c ****   RCC->CR &= (uint32_t)0xFEF6FFFF;
 100              		.loc 1 230 0
 101 0012 1A68     		ldr	r2, [r3]	@ D.5851, MEM[(struct RCC_TypeDef *)1073876992B].CR
 102 0014 22F08472 		bic	r2, r2, #17301504	@ D.5851, D.5851,
 103 0018 22F48032 		bic	r2, r2, #65536	@ D.5851, D.5851,
 104 001c 1A60     		str	r2, [r3]	@ D.5851, MEM[(struct RCC_TypeDef *)1073876992B].CR
 231:Libraries/STM32F10x_StdPeriph_Driver/src/stm32f10x_rcc.c **** 
 232:Libraries/STM32F10x_StdPeriph_Driver/src/stm32f10x_rcc.c ****   /* Reset HSEBYP bit */
 233:Libraries/STM32F10x_StdPeriph_Driver/src/stm32f10x_rcc.c ****   RCC->CR &= (uint32_t)0xFFFBFFFF;
 105              		.loc 1 233 0
 106 001e 1A68     		ldr	r2, [r3]	@ D.5851, MEM[(struct RCC_TypeDef *)1073876992B].CR
 107 0020 22F48022 		bic	r2, r2, #262144	@ D.5851, D.5851,
 108 0024 1A60     		str	r2, [r3]	@ D.5851, MEM[(struct RCC_TypeDef *)1073876992B].CR
 234:Libraries/STM32F10x_StdPeriph_Driver/src/stm32f10x_rcc.c **** 
ARM GAS  /var/folders/yt/6z6x8bjn5sjf5fbb45bk5m4c0000gn/T//cc9V89R8.s 			page 7


 235:Libraries/STM32F10x_StdPeriph_Driver/src/stm32f10x_rcc.c ****   /* Reset PLLSRC, PLLXTPRE, PLLMUL and USBPRE/OTGFSPRE bits */
 236:Libraries/STM32F10x_StdPeriph_Driver/src/stm32f10x_rcc.c ****   RCC->CFGR &= (uint32_t)0xFF80FFFF;
 109              		.loc 1 236 0
 110 0026 5A68     		ldr	r2, [r3, #4]	@ D.5851, MEM[(struct RCC_TypeDef *)1073876992B].CFGR
 111 0028 22F4FE02 		bic	r2, r2, #8323072	@ D.5851, D.5851,
 112 002c 5A60     		str	r2, [r3, #4]	@ D.5851, MEM[(struct RCC_TypeDef *)1073876992B].CFGR
 237:Libraries/STM32F10x_StdPeriph_Driver/src/stm32f10x_rcc.c **** 
 238:Libraries/STM32F10x_StdPeriph_Driver/src/stm32f10x_rcc.c **** #ifdef STM32F10X_CL
 239:Libraries/STM32F10x_StdPeriph_Driver/src/stm32f10x_rcc.c ****   /* Reset PLL2ON and PLL3ON bits */
 240:Libraries/STM32F10x_StdPeriph_Driver/src/stm32f10x_rcc.c ****   RCC->CR &= (uint32_t)0xEBFFFFFF;
 241:Libraries/STM32F10x_StdPeriph_Driver/src/stm32f10x_rcc.c **** 
 242:Libraries/STM32F10x_StdPeriph_Driver/src/stm32f10x_rcc.c ****   /* Disable all interrupts and clear pending bits  */
 243:Libraries/STM32F10x_StdPeriph_Driver/src/stm32f10x_rcc.c ****   RCC->CIR = 0x00FF0000;
 244:Libraries/STM32F10x_StdPeriph_Driver/src/stm32f10x_rcc.c **** 
 245:Libraries/STM32F10x_StdPeriph_Driver/src/stm32f10x_rcc.c ****   /* Reset CFGR2 register */
 246:Libraries/STM32F10x_StdPeriph_Driver/src/stm32f10x_rcc.c ****   RCC->CFGR2 = 0x00000000;
 247:Libraries/STM32F10x_StdPeriph_Driver/src/stm32f10x_rcc.c **** #elif defined (STM32F10X_LD_VL) || defined (STM32F10X_MD_VL) || defined (STM32F10X_HD_VL)
 248:Libraries/STM32F10x_StdPeriph_Driver/src/stm32f10x_rcc.c ****   /* Disable all interrupts and clear pending bits  */
 249:Libraries/STM32F10x_StdPeriph_Driver/src/stm32f10x_rcc.c ****   RCC->CIR = 0x009F0000;
 250:Libraries/STM32F10x_StdPeriph_Driver/src/stm32f10x_rcc.c **** 
 251:Libraries/STM32F10x_StdPeriph_Driver/src/stm32f10x_rcc.c ****   /* Reset CFGR2 register */
 252:Libraries/STM32F10x_StdPeriph_Driver/src/stm32f10x_rcc.c ****   RCC->CFGR2 = 0x00000000;      
 253:Libraries/STM32F10x_StdPeriph_Driver/src/stm32f10x_rcc.c **** #else
 254:Libraries/STM32F10x_StdPeriph_Driver/src/stm32f10x_rcc.c ****   /* Disable all interrupts and clear pending bits  */
 255:Libraries/STM32F10x_StdPeriph_Driver/src/stm32f10x_rcc.c ****   RCC->CIR = 0x009F0000;
 113              		.loc 1 255 0
 114 002e 4FF41F02 		mov	r2, #10420224	@ tmp133,
 115 0032 9A60     		str	r2, [r3, #8]	@ tmp133, MEM[(struct RCC_TypeDef *)1073876992B].CIR
 116 0034 7047     		bx	lr	@
 117              	.L3:
 118 0036 00BF     		.align	2
 119              	.L2:
 120 0038 00100240 		.word	1073876992
 121 003c 0000FFF8 		.word	-117506048
 122              		.cfi_endproc
 123              	.LFE29:
 124              		.size	RCC_DeInit, .-RCC_DeInit
 125              		.align	1
 126              		.global	RCC_HSEConfig
 127              		.thumb
 128              		.thumb_func
 129              		.type	RCC_HSEConfig, %function
 130              	RCC_HSEConfig:
 131              	.LFB30:
 256:Libraries/STM32F10x_StdPeriph_Driver/src/stm32f10x_rcc.c **** #endif /* STM32F10X_CL */
 257:Libraries/STM32F10x_StdPeriph_Driver/src/stm32f10x_rcc.c **** 
 258:Libraries/STM32F10x_StdPeriph_Driver/src/stm32f10x_rcc.c **** }
 259:Libraries/STM32F10x_StdPeriph_Driver/src/stm32f10x_rcc.c **** 
 260:Libraries/STM32F10x_StdPeriph_Driver/src/stm32f10x_rcc.c **** /**
 261:Libraries/STM32F10x_StdPeriph_Driver/src/stm32f10x_rcc.c ****   * @brief  Configures the External High Speed oscillator (HSE).
 262:Libraries/STM32F10x_StdPeriph_Driver/src/stm32f10x_rcc.c ****   * @note   HSE can not be stopped if it is used directly or through the PLL as system clock.
 263:Libraries/STM32F10x_StdPeriph_Driver/src/stm32f10x_rcc.c ****   * @param  RCC_HSE: specifies the new state of the HSE.
 264:Libraries/STM32F10x_StdPeriph_Driver/src/stm32f10x_rcc.c ****   *   This parameter can be one of the following values:
 265:Libraries/STM32F10x_StdPeriph_Driver/src/stm32f10x_rcc.c ****   *     @arg RCC_HSE_OFF: HSE oscillator OFF
 266:Libraries/STM32F10x_StdPeriph_Driver/src/stm32f10x_rcc.c ****   *     @arg RCC_HSE_ON: HSE oscillator ON
 267:Libraries/STM32F10x_StdPeriph_Driver/src/stm32f10x_rcc.c ****   *     @arg RCC_HSE_Bypass: HSE oscillator bypassed with external clock
 268:Libraries/STM32F10x_StdPeriph_Driver/src/stm32f10x_rcc.c ****   * @retval None
ARM GAS  /var/folders/yt/6z6x8bjn5sjf5fbb45bk5m4c0000gn/T//cc9V89R8.s 			page 8


 269:Libraries/STM32F10x_StdPeriph_Driver/src/stm32f10x_rcc.c ****   */
 270:Libraries/STM32F10x_StdPeriph_Driver/src/stm32f10x_rcc.c **** void RCC_HSEConfig(uint32_t RCC_HSE)
 271:Libraries/STM32F10x_StdPeriph_Driver/src/stm32f10x_rcc.c **** {
 132              		.loc 1 271 0
 133              		.cfi_startproc
 134              		@ args = 0, pretend = 0, frame = 0
 135              		@ frame_needed = 0, uses_anonymous_args = 0
 136              		@ link register save eliminated.
 137              	.LVL0:
 272:Libraries/STM32F10x_StdPeriph_Driver/src/stm32f10x_rcc.c ****   /* Check the parameters */
 273:Libraries/STM32F10x_StdPeriph_Driver/src/stm32f10x_rcc.c ****   assert_param(IS_RCC_HSE(RCC_HSE));
 274:Libraries/STM32F10x_StdPeriph_Driver/src/stm32f10x_rcc.c ****   /* Reset HSEON and HSEBYP bits before configuring the HSE ------------------*/
 275:Libraries/STM32F10x_StdPeriph_Driver/src/stm32f10x_rcc.c ****   /* Reset HSEON bit */
 276:Libraries/STM32F10x_StdPeriph_Driver/src/stm32f10x_rcc.c ****   RCC->CR &= CR_HSEON_Reset;
 138              		.loc 1 276 0
 139 0040 0C4B     		ldr	r3, .L10	@ tmp119,
 277:Libraries/STM32F10x_StdPeriph_Driver/src/stm32f10x_rcc.c ****   /* Reset HSEBYP bit */
 278:Libraries/STM32F10x_StdPeriph_Driver/src/stm32f10x_rcc.c ****   RCC->CR &= CR_HSEBYP_Reset;
 279:Libraries/STM32F10x_StdPeriph_Driver/src/stm32f10x_rcc.c ****   /* Configure HSE (RCC_HSE_OFF is already covered by the code section above) */
 280:Libraries/STM32F10x_StdPeriph_Driver/src/stm32f10x_rcc.c ****   switch(RCC_HSE)
 140              		.loc 1 280 0
 141 0042 B0F5803F 		cmp	r0, #65536	@ RCC_HSE,
 276:Libraries/STM32F10x_StdPeriph_Driver/src/stm32f10x_rcc.c ****   /* Reset HSEBYP bit */
 142              		.loc 1 276 0
 143 0046 1A68     		ldr	r2, [r3]	@ D.5856, MEM[(struct RCC_TypeDef *)1073876992B].CR
 144 0048 22F48032 		bic	r2, r2, #65536	@ D.5856, D.5856,
 145 004c 1A60     		str	r2, [r3]	@ D.5856, MEM[(struct RCC_TypeDef *)1073876992B].CR
 278:Libraries/STM32F10x_StdPeriph_Driver/src/stm32f10x_rcc.c ****   /* Configure HSE (RCC_HSE_OFF is already covered by the code section above) */
 146              		.loc 1 278 0
 147 004e 1A68     		ldr	r2, [r3]	@ D.5856, MEM[(struct RCC_TypeDef *)1073876992B].CR
 148 0050 22F48022 		bic	r2, r2, #262144	@ D.5856, D.5856,
 149 0054 1A60     		str	r2, [r3]	@ D.5856, MEM[(struct RCC_TypeDef *)1073876992B].CR
 150              		.loc 1 280 0
 151 0056 03D0     		beq	.L6	@,
 152 0058 B0F5802F 		cmp	r0, #262144	@ RCC_HSE,
 153 005c 04D0     		beq	.L7	@,
 154 005e 7047     		bx	lr	@
 155              	.L6:
 281:Libraries/STM32F10x_StdPeriph_Driver/src/stm32f10x_rcc.c ****   {
 282:Libraries/STM32F10x_StdPeriph_Driver/src/stm32f10x_rcc.c ****     case RCC_HSE_ON:
 283:Libraries/STM32F10x_StdPeriph_Driver/src/stm32f10x_rcc.c ****       /* Set HSEON bit */
 284:Libraries/STM32F10x_StdPeriph_Driver/src/stm32f10x_rcc.c ****       RCC->CR |= CR_HSEON_Set;
 156              		.loc 1 284 0
 157 0060 1A68     		ldr	r2, [r3]	@ D.5856, MEM[(struct RCC_TypeDef *)1073876992B].CR
 158 0062 42F48032 		orr	r2, r2, #65536	@ D.5856, D.5856,
 159 0066 02E0     		b	.L8	@
 160              	.L7:
 285:Libraries/STM32F10x_StdPeriph_Driver/src/stm32f10x_rcc.c ****       break;
 286:Libraries/STM32F10x_StdPeriph_Driver/src/stm32f10x_rcc.c ****       
 287:Libraries/STM32F10x_StdPeriph_Driver/src/stm32f10x_rcc.c ****     case RCC_HSE_Bypass:
 288:Libraries/STM32F10x_StdPeriph_Driver/src/stm32f10x_rcc.c ****       /* Set HSEBYP and HSEON bits */
 289:Libraries/STM32F10x_StdPeriph_Driver/src/stm32f10x_rcc.c ****       RCC->CR |= CR_HSEBYP_Set | CR_HSEON_Set;
 161              		.loc 1 289 0
 162 0068 1A68     		ldr	r2, [r3]	@ D.5856, MEM[(struct RCC_TypeDef *)1073876992B].CR
 163 006a 42F4A022 		orr	r2, r2, #327680	@ D.5856, D.5856,
 164              	.L8:
 165 006e 1A60     		str	r2, [r3]	@ D.5856,
ARM GAS  /var/folders/yt/6z6x8bjn5sjf5fbb45bk5m4c0000gn/T//cc9V89R8.s 			page 9


 166 0070 7047     		bx	lr	@
 167              	.L11:
 168 0072 00BF     		.align	2
 169              	.L10:
 170 0074 00100240 		.word	1073876992
 171              		.cfi_endproc
 172              	.LFE30:
 173              		.size	RCC_HSEConfig, .-RCC_HSEConfig
 174              		.align	1
 175              		.global	RCC_AdjustHSICalibrationValue
 176              		.thumb
 177              		.thumb_func
 178              		.type	RCC_AdjustHSICalibrationValue, %function
 179              	RCC_AdjustHSICalibrationValue:
 180              	.LFB32:
 290:Libraries/STM32F10x_StdPeriph_Driver/src/stm32f10x_rcc.c ****       break;
 291:Libraries/STM32F10x_StdPeriph_Driver/src/stm32f10x_rcc.c ****       
 292:Libraries/STM32F10x_StdPeriph_Driver/src/stm32f10x_rcc.c ****     default:
 293:Libraries/STM32F10x_StdPeriph_Driver/src/stm32f10x_rcc.c ****       break;
 294:Libraries/STM32F10x_StdPeriph_Driver/src/stm32f10x_rcc.c ****   }
 295:Libraries/STM32F10x_StdPeriph_Driver/src/stm32f10x_rcc.c **** }
 296:Libraries/STM32F10x_StdPeriph_Driver/src/stm32f10x_rcc.c **** 
 297:Libraries/STM32F10x_StdPeriph_Driver/src/stm32f10x_rcc.c **** /**
 298:Libraries/STM32F10x_StdPeriph_Driver/src/stm32f10x_rcc.c ****   * @brief  Waits for HSE start-up.
 299:Libraries/STM32F10x_StdPeriph_Driver/src/stm32f10x_rcc.c ****   * @param  None
 300:Libraries/STM32F10x_StdPeriph_Driver/src/stm32f10x_rcc.c ****   * @retval An ErrorStatus enumuration value:
 301:Libraries/STM32F10x_StdPeriph_Driver/src/stm32f10x_rcc.c ****   * - SUCCESS: HSE oscillator is stable and ready to use
 302:Libraries/STM32F10x_StdPeriph_Driver/src/stm32f10x_rcc.c ****   * - ERROR: HSE oscillator not yet ready
 303:Libraries/STM32F10x_StdPeriph_Driver/src/stm32f10x_rcc.c ****   */
 304:Libraries/STM32F10x_StdPeriph_Driver/src/stm32f10x_rcc.c **** ErrorStatus RCC_WaitForHSEStartUp(void)
 305:Libraries/STM32F10x_StdPeriph_Driver/src/stm32f10x_rcc.c **** {
 306:Libraries/STM32F10x_StdPeriph_Driver/src/stm32f10x_rcc.c ****   __IO uint32_t StartUpCounter = 0;
 307:Libraries/STM32F10x_StdPeriph_Driver/src/stm32f10x_rcc.c ****   ErrorStatus status = ERROR;
 308:Libraries/STM32F10x_StdPeriph_Driver/src/stm32f10x_rcc.c ****   FlagStatus HSEStatus = RESET;
 309:Libraries/STM32F10x_StdPeriph_Driver/src/stm32f10x_rcc.c ****   
 310:Libraries/STM32F10x_StdPeriph_Driver/src/stm32f10x_rcc.c ****   /* Wait till HSE is ready and if Time out is reached exit */
 311:Libraries/STM32F10x_StdPeriph_Driver/src/stm32f10x_rcc.c ****   do
 312:Libraries/STM32F10x_StdPeriph_Driver/src/stm32f10x_rcc.c ****   {
 313:Libraries/STM32F10x_StdPeriph_Driver/src/stm32f10x_rcc.c ****     HSEStatus = RCC_GetFlagStatus(RCC_FLAG_HSERDY);
 314:Libraries/STM32F10x_StdPeriph_Driver/src/stm32f10x_rcc.c ****     StartUpCounter++;  
 315:Libraries/STM32F10x_StdPeriph_Driver/src/stm32f10x_rcc.c ****   } while((StartUpCounter != HSE_STARTUP_TIMEOUT) && (HSEStatus == RESET));
 316:Libraries/STM32F10x_StdPeriph_Driver/src/stm32f10x_rcc.c ****   
 317:Libraries/STM32F10x_StdPeriph_Driver/src/stm32f10x_rcc.c ****   if (RCC_GetFlagStatus(RCC_FLAG_HSERDY) != RESET)
 318:Libraries/STM32F10x_StdPeriph_Driver/src/stm32f10x_rcc.c ****   {
 319:Libraries/STM32F10x_StdPeriph_Driver/src/stm32f10x_rcc.c ****     status = SUCCESS;
 320:Libraries/STM32F10x_StdPeriph_Driver/src/stm32f10x_rcc.c ****   }
 321:Libraries/STM32F10x_StdPeriph_Driver/src/stm32f10x_rcc.c ****   else
 322:Libraries/STM32F10x_StdPeriph_Driver/src/stm32f10x_rcc.c ****   {
 323:Libraries/STM32F10x_StdPeriph_Driver/src/stm32f10x_rcc.c ****     status = ERROR;
 324:Libraries/STM32F10x_StdPeriph_Driver/src/stm32f10x_rcc.c ****   }  
 325:Libraries/STM32F10x_StdPeriph_Driver/src/stm32f10x_rcc.c ****   return (status);
 326:Libraries/STM32F10x_StdPeriph_Driver/src/stm32f10x_rcc.c **** }
 327:Libraries/STM32F10x_StdPeriph_Driver/src/stm32f10x_rcc.c **** 
 328:Libraries/STM32F10x_StdPeriph_Driver/src/stm32f10x_rcc.c **** /**
 329:Libraries/STM32F10x_StdPeriph_Driver/src/stm32f10x_rcc.c ****   * @brief  Adjusts the Internal High Speed oscillator (HSI) calibration value.
 330:Libraries/STM32F10x_StdPeriph_Driver/src/stm32f10x_rcc.c ****   * @param  HSICalibrationValue: specifies the calibration trimming value.
 331:Libraries/STM32F10x_StdPeriph_Driver/src/stm32f10x_rcc.c ****   *   This parameter must be a number between 0 and 0x1F.
ARM GAS  /var/folders/yt/6z6x8bjn5sjf5fbb45bk5m4c0000gn/T//cc9V89R8.s 			page 10


 332:Libraries/STM32F10x_StdPeriph_Driver/src/stm32f10x_rcc.c ****   * @retval None
 333:Libraries/STM32F10x_StdPeriph_Driver/src/stm32f10x_rcc.c ****   */
 334:Libraries/STM32F10x_StdPeriph_Driver/src/stm32f10x_rcc.c **** void RCC_AdjustHSICalibrationValue(uint8_t HSICalibrationValue)
 335:Libraries/STM32F10x_StdPeriph_Driver/src/stm32f10x_rcc.c **** {
 181              		.loc 1 335 0
 182              		.cfi_startproc
 183              		@ args = 0, pretend = 0, frame = 0
 184              		@ frame_needed = 0, uses_anonymous_args = 0
 185              		@ link register save eliminated.
 186              	.LVL1:
 336:Libraries/STM32F10x_StdPeriph_Driver/src/stm32f10x_rcc.c ****   uint32_t tmpreg = 0;
 337:Libraries/STM32F10x_StdPeriph_Driver/src/stm32f10x_rcc.c ****   /* Check the parameters */
 338:Libraries/STM32F10x_StdPeriph_Driver/src/stm32f10x_rcc.c ****   assert_param(IS_RCC_CALIBRATION_VALUE(HSICalibrationValue));
 339:Libraries/STM32F10x_StdPeriph_Driver/src/stm32f10x_rcc.c ****   tmpreg = RCC->CR;
 187              		.loc 1 339 0
 188 0078 034A     		ldr	r2, .L13	@ tmp116,
 189 007a 1368     		ldr	r3, [r2]	@ tmpreg, MEM[(struct RCC_TypeDef *)1073876992B].CR
 190              	.LVL2:
 340:Libraries/STM32F10x_StdPeriph_Driver/src/stm32f10x_rcc.c ****   /* Clear HSITRIM[4:0] bits */
 341:Libraries/STM32F10x_StdPeriph_Driver/src/stm32f10x_rcc.c ****   tmpreg &= CR_HSITRIM_Mask;
 191              		.loc 1 341 0
 192 007c 23F0F803 		bic	r3, r3, #248	@ tmpreg, tmpreg,
 193              	.LVL3:
 342:Libraries/STM32F10x_StdPeriph_Driver/src/stm32f10x_rcc.c ****   /* Set the HSITRIM[4:0] bits according to HSICalibrationValue value */
 343:Libraries/STM32F10x_StdPeriph_Driver/src/stm32f10x_rcc.c ****   tmpreg |= (uint32_t)HSICalibrationValue << 3;
 194              		.loc 1 343 0
 195 0080 43EAC000 		orr	r0, r3, r0, lsl #3	@, tmpreg, tmpreg, HSICalibrationValue,
 196              	.LVL4:
 344:Libraries/STM32F10x_StdPeriph_Driver/src/stm32f10x_rcc.c ****   /* Store the new value */
 345:Libraries/STM32F10x_StdPeriph_Driver/src/stm32f10x_rcc.c ****   RCC->CR = tmpreg;
 197              		.loc 1 345 0
 198 0084 1060     		str	r0, [r2]	@ tmpreg, MEM[(struct RCC_TypeDef *)1073876992B].CR
 199 0086 7047     		bx	lr	@
 200              	.L14:
 201              		.align	2
 202              	.L13:
 203 0088 00100240 		.word	1073876992
 204              		.cfi_endproc
 205              	.LFE32:
 206              		.size	RCC_AdjustHSICalibrationValue, .-RCC_AdjustHSICalibrationValue
 207              		.align	1
 208              		.global	RCC_HSICmd
 209              		.thumb
 210              		.thumb_func
 211              		.type	RCC_HSICmd, %function
 212              	RCC_HSICmd:
 213              	.LFB33:
 346:Libraries/STM32F10x_StdPeriph_Driver/src/stm32f10x_rcc.c **** }
 347:Libraries/STM32F10x_StdPeriph_Driver/src/stm32f10x_rcc.c **** 
 348:Libraries/STM32F10x_StdPeriph_Driver/src/stm32f10x_rcc.c **** /**
 349:Libraries/STM32F10x_StdPeriph_Driver/src/stm32f10x_rcc.c ****   * @brief  Enables or disables the Internal High Speed oscillator (HSI).
 350:Libraries/STM32F10x_StdPeriph_Driver/src/stm32f10x_rcc.c ****   * @note   HSI can not be stopped if it is used directly or through the PLL as system clock.
 351:Libraries/STM32F10x_StdPeriph_Driver/src/stm32f10x_rcc.c ****   * @param  NewState: new state of the HSI. This parameter can be: ENABLE or DISABLE.
 352:Libraries/STM32F10x_StdPeriph_Driver/src/stm32f10x_rcc.c ****   * @retval None
 353:Libraries/STM32F10x_StdPeriph_Driver/src/stm32f10x_rcc.c ****   */
 354:Libraries/STM32F10x_StdPeriph_Driver/src/stm32f10x_rcc.c **** void RCC_HSICmd(FunctionalState NewState)
 355:Libraries/STM32F10x_StdPeriph_Driver/src/stm32f10x_rcc.c **** {
ARM GAS  /var/folders/yt/6z6x8bjn5sjf5fbb45bk5m4c0000gn/T//cc9V89R8.s 			page 11


 214              		.loc 1 355 0
 215              		.cfi_startproc
 216              		@ args = 0, pretend = 0, frame = 0
 217              		@ frame_needed = 0, uses_anonymous_args = 0
 218              		@ link register save eliminated.
 219              	.LVL5:
 356:Libraries/STM32F10x_StdPeriph_Driver/src/stm32f10x_rcc.c ****   /* Check the parameters */
 357:Libraries/STM32F10x_StdPeriph_Driver/src/stm32f10x_rcc.c ****   assert_param(IS_FUNCTIONAL_STATE(NewState));
 358:Libraries/STM32F10x_StdPeriph_Driver/src/stm32f10x_rcc.c ****   *(__IO uint32_t *) CR_HSION_BB = (uint32_t)NewState;
 220              		.loc 1 358 0
 221 008c 014B     		ldr	r3, .L16	@ tmp112,
 222 008e 1860     		str	r0, [r3]	@ NewState, MEM[(volatile uint32_t *)1111621632B]
 223 0090 7047     		bx	lr	@
 224              	.L17:
 225 0092 00BF     		.align	2
 226              	.L16:
 227 0094 00004242 		.word	1111621632
 228              		.cfi_endproc
 229              	.LFE33:
 230              		.size	RCC_HSICmd, .-RCC_HSICmd
 231              		.align	1
 232              		.global	RCC_PLLConfig
 233              		.thumb
 234              		.thumb_func
 235              		.type	RCC_PLLConfig, %function
 236              	RCC_PLLConfig:
 237              	.LFB34:
 359:Libraries/STM32F10x_StdPeriph_Driver/src/stm32f10x_rcc.c **** }
 360:Libraries/STM32F10x_StdPeriph_Driver/src/stm32f10x_rcc.c **** 
 361:Libraries/STM32F10x_StdPeriph_Driver/src/stm32f10x_rcc.c **** /**
 362:Libraries/STM32F10x_StdPeriph_Driver/src/stm32f10x_rcc.c ****   * @brief  Configures the PLL clock source and multiplication factor.
 363:Libraries/STM32F10x_StdPeriph_Driver/src/stm32f10x_rcc.c ****   * @note   This function must be used only when the PLL is disabled.
 364:Libraries/STM32F10x_StdPeriph_Driver/src/stm32f10x_rcc.c ****   * @param  RCC_PLLSource: specifies the PLL entry clock source.
 365:Libraries/STM32F10x_StdPeriph_Driver/src/stm32f10x_rcc.c ****   *   For @b STM32_Connectivity_line_devices or @b STM32_Value_line_devices, 
 366:Libraries/STM32F10x_StdPeriph_Driver/src/stm32f10x_rcc.c ****   *   this parameter can be one of the following values:
 367:Libraries/STM32F10x_StdPeriph_Driver/src/stm32f10x_rcc.c ****   *     @arg RCC_PLLSource_HSI_Div2: HSI oscillator clock divided by 2 selected as PLL clock entry
 368:Libraries/STM32F10x_StdPeriph_Driver/src/stm32f10x_rcc.c ****   *     @arg RCC_PLLSource_PREDIV1: PREDIV1 clock selected as PLL clock entry
 369:Libraries/STM32F10x_StdPeriph_Driver/src/stm32f10x_rcc.c ****   *   For @b other_STM32_devices, this parameter can be one of the following values:
 370:Libraries/STM32F10x_StdPeriph_Driver/src/stm32f10x_rcc.c ****   *     @arg RCC_PLLSource_HSI_Div2: HSI oscillator clock divided by 2 selected as PLL clock entry
 371:Libraries/STM32F10x_StdPeriph_Driver/src/stm32f10x_rcc.c ****   *     @arg RCC_PLLSource_HSE_Div1: HSE oscillator clock selected as PLL clock entry
 372:Libraries/STM32F10x_StdPeriph_Driver/src/stm32f10x_rcc.c ****   *     @arg RCC_PLLSource_HSE_Div2: HSE oscillator clock divided by 2 selected as PLL clock entry 
 373:Libraries/STM32F10x_StdPeriph_Driver/src/stm32f10x_rcc.c ****   * @param  RCC_PLLMul: specifies the PLL multiplication factor.
 374:Libraries/STM32F10x_StdPeriph_Driver/src/stm32f10x_rcc.c ****   *   For @b STM32_Connectivity_line_devices, this parameter can be RCC_PLLMul_x where x:{[4,9], 6_
 375:Libraries/STM32F10x_StdPeriph_Driver/src/stm32f10x_rcc.c ****   *   For @b other_STM32_devices, this parameter can be RCC_PLLMul_x where x:[2,16]  
 376:Libraries/STM32F10x_StdPeriph_Driver/src/stm32f10x_rcc.c ****   * @retval None
 377:Libraries/STM32F10x_StdPeriph_Driver/src/stm32f10x_rcc.c ****   */
 378:Libraries/STM32F10x_StdPeriph_Driver/src/stm32f10x_rcc.c **** void RCC_PLLConfig(uint32_t RCC_PLLSource, uint32_t RCC_PLLMul)
 379:Libraries/STM32F10x_StdPeriph_Driver/src/stm32f10x_rcc.c **** {
 238              		.loc 1 379 0
 239              		.cfi_startproc
 240              		@ args = 0, pretend = 0, frame = 0
 241              		@ frame_needed = 0, uses_anonymous_args = 0
 242              		@ link register save eliminated.
 243              	.LVL6:
 380:Libraries/STM32F10x_StdPeriph_Driver/src/stm32f10x_rcc.c ****   uint32_t tmpreg = 0;
 381:Libraries/STM32F10x_StdPeriph_Driver/src/stm32f10x_rcc.c **** 
 382:Libraries/STM32F10x_StdPeriph_Driver/src/stm32f10x_rcc.c ****   /* Check the parameters */
ARM GAS  /var/folders/yt/6z6x8bjn5sjf5fbb45bk5m4c0000gn/T//cc9V89R8.s 			page 12


 383:Libraries/STM32F10x_StdPeriph_Driver/src/stm32f10x_rcc.c ****   assert_param(IS_RCC_PLL_SOURCE(RCC_PLLSource));
 384:Libraries/STM32F10x_StdPeriph_Driver/src/stm32f10x_rcc.c ****   assert_param(IS_RCC_PLL_MUL(RCC_PLLMul));
 385:Libraries/STM32F10x_StdPeriph_Driver/src/stm32f10x_rcc.c **** 
 386:Libraries/STM32F10x_StdPeriph_Driver/src/stm32f10x_rcc.c ****   tmpreg = RCC->CFGR;
 244              		.loc 1 386 0
 245 0098 034A     		ldr	r2, .L19	@ tmp116,
 246 009a 5368     		ldr	r3, [r2, #4]	@ tmpreg, MEM[(struct RCC_TypeDef *)1073876992B].CFGR
 247              	.LVL7:
 387:Libraries/STM32F10x_StdPeriph_Driver/src/stm32f10x_rcc.c ****   /* Clear PLLSRC, PLLXTPRE and PLLMUL[3:0] bits */
 388:Libraries/STM32F10x_StdPeriph_Driver/src/stm32f10x_rcc.c ****   tmpreg &= CFGR_PLL_Mask;
 248              		.loc 1 388 0
 249 009c 23F47C13 		bic	r3, r3, #4128768	@ tmpreg, tmpreg,
 250              	.LVL8:
 251 00a0 1943     		orrs	r1, r1, r3	@, D.5865, RCC_PLLMul, tmpreg
 252              	.LVL9:
 389:Libraries/STM32F10x_StdPeriph_Driver/src/stm32f10x_rcc.c ****   /* Set the PLL configuration bits */
 390:Libraries/STM32F10x_StdPeriph_Driver/src/stm32f10x_rcc.c ****   tmpreg |= RCC_PLLSource | RCC_PLLMul;
 253              		.loc 1 390 0
 254 00a2 0843     		orrs	r0, r0, r1	@, tmpreg, RCC_PLLSource, D.5865
 255              	.LVL10:
 391:Libraries/STM32F10x_StdPeriph_Driver/src/stm32f10x_rcc.c ****   /* Store the new value */
 392:Libraries/STM32F10x_StdPeriph_Driver/src/stm32f10x_rcc.c ****   RCC->CFGR = tmpreg;
 256              		.loc 1 392 0
 257 00a4 5060     		str	r0, [r2, #4]	@ tmpreg, MEM[(struct RCC_TypeDef *)1073876992B].CFGR
 258 00a6 7047     		bx	lr	@
 259              	.L20:
 260              		.align	2
 261              	.L19:
 262 00a8 00100240 		.word	1073876992
 263              		.cfi_endproc
 264              	.LFE34:
 265              		.size	RCC_PLLConfig, .-RCC_PLLConfig
 266              		.align	1
 267              		.global	RCC_PLLCmd
 268              		.thumb
 269              		.thumb_func
 270              		.type	RCC_PLLCmd, %function
 271              	RCC_PLLCmd:
 272              	.LFB35:
 393:Libraries/STM32F10x_StdPeriph_Driver/src/stm32f10x_rcc.c **** }
 394:Libraries/STM32F10x_StdPeriph_Driver/src/stm32f10x_rcc.c **** 
 395:Libraries/STM32F10x_StdPeriph_Driver/src/stm32f10x_rcc.c **** /**
 396:Libraries/STM32F10x_StdPeriph_Driver/src/stm32f10x_rcc.c ****   * @brief  Enables or disables the PLL.
 397:Libraries/STM32F10x_StdPeriph_Driver/src/stm32f10x_rcc.c ****   * @note   The PLL can not be disabled if it is used as system clock.
 398:Libraries/STM32F10x_StdPeriph_Driver/src/stm32f10x_rcc.c ****   * @param  NewState: new state of the PLL. This parameter can be: ENABLE or DISABLE.
 399:Libraries/STM32F10x_StdPeriph_Driver/src/stm32f10x_rcc.c ****   * @retval None
 400:Libraries/STM32F10x_StdPeriph_Driver/src/stm32f10x_rcc.c ****   */
 401:Libraries/STM32F10x_StdPeriph_Driver/src/stm32f10x_rcc.c **** void RCC_PLLCmd(FunctionalState NewState)
 402:Libraries/STM32F10x_StdPeriph_Driver/src/stm32f10x_rcc.c **** {
 273              		.loc 1 402 0
 274              		.cfi_startproc
 275              		@ args = 0, pretend = 0, frame = 0
 276              		@ frame_needed = 0, uses_anonymous_args = 0
 277              		@ link register save eliminated.
 278              	.LVL11:
 403:Libraries/STM32F10x_StdPeriph_Driver/src/stm32f10x_rcc.c ****   /* Check the parameters */
 404:Libraries/STM32F10x_StdPeriph_Driver/src/stm32f10x_rcc.c ****   assert_param(IS_FUNCTIONAL_STATE(NewState));
ARM GAS  /var/folders/yt/6z6x8bjn5sjf5fbb45bk5m4c0000gn/T//cc9V89R8.s 			page 13


 405:Libraries/STM32F10x_StdPeriph_Driver/src/stm32f10x_rcc.c **** 
 406:Libraries/STM32F10x_StdPeriph_Driver/src/stm32f10x_rcc.c ****   *(__IO uint32_t *) CR_PLLON_BB = (uint32_t)NewState;
 279              		.loc 1 406 0
 280 00ac 014B     		ldr	r3, .L22	@ tmp112,
 281 00ae 1860     		str	r0, [r3]	@ NewState, MEM[(volatile uint32_t *)1111621728B]
 282 00b0 7047     		bx	lr	@
 283              	.L23:
 284 00b2 00BF     		.align	2
 285              	.L22:
 286 00b4 60004242 		.word	1111621728
 287              		.cfi_endproc
 288              	.LFE35:
 289              		.size	RCC_PLLCmd, .-RCC_PLLCmd
 290              		.align	1
 291              		.global	RCC_SYSCLKConfig
 292              		.thumb
 293              		.thumb_func
 294              		.type	RCC_SYSCLKConfig, %function
 295              	RCC_SYSCLKConfig:
 296              	.LFB36:
 407:Libraries/STM32F10x_StdPeriph_Driver/src/stm32f10x_rcc.c **** }
 408:Libraries/STM32F10x_StdPeriph_Driver/src/stm32f10x_rcc.c **** 
 409:Libraries/STM32F10x_StdPeriph_Driver/src/stm32f10x_rcc.c **** #if defined (STM32F10X_LD_VL) || defined (STM32F10X_MD_VL) || defined (STM32F10X_HD_VL) || defined 
 410:Libraries/STM32F10x_StdPeriph_Driver/src/stm32f10x_rcc.c **** /**
 411:Libraries/STM32F10x_StdPeriph_Driver/src/stm32f10x_rcc.c ****   * @brief  Configures the PREDIV1 division factor.
 412:Libraries/STM32F10x_StdPeriph_Driver/src/stm32f10x_rcc.c ****   * @note 
 413:Libraries/STM32F10x_StdPeriph_Driver/src/stm32f10x_rcc.c ****   *   - This function must be used only when the PLL is disabled.
 414:Libraries/STM32F10x_StdPeriph_Driver/src/stm32f10x_rcc.c ****   *   - This function applies only to STM32 Connectivity line and Value line 
 415:Libraries/STM32F10x_StdPeriph_Driver/src/stm32f10x_rcc.c ****   *     devices.
 416:Libraries/STM32F10x_StdPeriph_Driver/src/stm32f10x_rcc.c ****   * @param  RCC_PREDIV1_Source: specifies the PREDIV1 clock source.
 417:Libraries/STM32F10x_StdPeriph_Driver/src/stm32f10x_rcc.c ****   *   This parameter can be one of the following values:
 418:Libraries/STM32F10x_StdPeriph_Driver/src/stm32f10x_rcc.c ****   *     @arg RCC_PREDIV1_Source_HSE: HSE selected as PREDIV1 clock
 419:Libraries/STM32F10x_StdPeriph_Driver/src/stm32f10x_rcc.c ****   *     @arg RCC_PREDIV1_Source_PLL2: PLL2 selected as PREDIV1 clock
 420:Libraries/STM32F10x_StdPeriph_Driver/src/stm32f10x_rcc.c ****   * @note 
 421:Libraries/STM32F10x_StdPeriph_Driver/src/stm32f10x_rcc.c ****   *   For @b STM32_Value_line_devices this parameter is always RCC_PREDIV1_Source_HSE  
 422:Libraries/STM32F10x_StdPeriph_Driver/src/stm32f10x_rcc.c ****   * @param  RCC_PREDIV1_Div: specifies the PREDIV1 clock division factor.
 423:Libraries/STM32F10x_StdPeriph_Driver/src/stm32f10x_rcc.c ****   *   This parameter can be RCC_PREDIV1_Divx where x:[1,16]
 424:Libraries/STM32F10x_StdPeriph_Driver/src/stm32f10x_rcc.c ****   * @retval None
 425:Libraries/STM32F10x_StdPeriph_Driver/src/stm32f10x_rcc.c ****   */
 426:Libraries/STM32F10x_StdPeriph_Driver/src/stm32f10x_rcc.c **** void RCC_PREDIV1Config(uint32_t RCC_PREDIV1_Source, uint32_t RCC_PREDIV1_Div)
 427:Libraries/STM32F10x_StdPeriph_Driver/src/stm32f10x_rcc.c **** {
 428:Libraries/STM32F10x_StdPeriph_Driver/src/stm32f10x_rcc.c ****   uint32_t tmpreg = 0;
 429:Libraries/STM32F10x_StdPeriph_Driver/src/stm32f10x_rcc.c ****   
 430:Libraries/STM32F10x_StdPeriph_Driver/src/stm32f10x_rcc.c ****   /* Check the parameters */
 431:Libraries/STM32F10x_StdPeriph_Driver/src/stm32f10x_rcc.c ****   assert_param(IS_RCC_PREDIV1_SOURCE(RCC_PREDIV1_Source));
 432:Libraries/STM32F10x_StdPeriph_Driver/src/stm32f10x_rcc.c ****   assert_param(IS_RCC_PREDIV1(RCC_PREDIV1_Div));
 433:Libraries/STM32F10x_StdPeriph_Driver/src/stm32f10x_rcc.c **** 
 434:Libraries/STM32F10x_StdPeriph_Driver/src/stm32f10x_rcc.c ****   tmpreg = RCC->CFGR2;
 435:Libraries/STM32F10x_StdPeriph_Driver/src/stm32f10x_rcc.c ****   /* Clear PREDIV1[3:0] and PREDIV1SRC bits */
 436:Libraries/STM32F10x_StdPeriph_Driver/src/stm32f10x_rcc.c ****   tmpreg &= ~(CFGR2_PREDIV1 | CFGR2_PREDIV1SRC);
 437:Libraries/STM32F10x_StdPeriph_Driver/src/stm32f10x_rcc.c ****   /* Set the PREDIV1 clock source and division factor */
 438:Libraries/STM32F10x_StdPeriph_Driver/src/stm32f10x_rcc.c ****   tmpreg |= RCC_PREDIV1_Source | RCC_PREDIV1_Div ;
 439:Libraries/STM32F10x_StdPeriph_Driver/src/stm32f10x_rcc.c ****   /* Store the new value */
 440:Libraries/STM32F10x_StdPeriph_Driver/src/stm32f10x_rcc.c ****   RCC->CFGR2 = tmpreg;
 441:Libraries/STM32F10x_StdPeriph_Driver/src/stm32f10x_rcc.c **** }
 442:Libraries/STM32F10x_StdPeriph_Driver/src/stm32f10x_rcc.c **** #endif
 443:Libraries/STM32F10x_StdPeriph_Driver/src/stm32f10x_rcc.c **** 
ARM GAS  /var/folders/yt/6z6x8bjn5sjf5fbb45bk5m4c0000gn/T//cc9V89R8.s 			page 14


 444:Libraries/STM32F10x_StdPeriph_Driver/src/stm32f10x_rcc.c **** #ifdef STM32F10X_CL
 445:Libraries/STM32F10x_StdPeriph_Driver/src/stm32f10x_rcc.c **** /**
 446:Libraries/STM32F10x_StdPeriph_Driver/src/stm32f10x_rcc.c ****   * @brief  Configures the PREDIV2 division factor.
 447:Libraries/STM32F10x_StdPeriph_Driver/src/stm32f10x_rcc.c ****   * @note 
 448:Libraries/STM32F10x_StdPeriph_Driver/src/stm32f10x_rcc.c ****   *   - This function must be used only when both PLL2 and PLL3 are disabled.
 449:Libraries/STM32F10x_StdPeriph_Driver/src/stm32f10x_rcc.c ****   *   - This function applies only to STM32 Connectivity line devices.
 450:Libraries/STM32F10x_StdPeriph_Driver/src/stm32f10x_rcc.c ****   * @param  RCC_PREDIV2_Div: specifies the PREDIV2 clock division factor.
 451:Libraries/STM32F10x_StdPeriph_Driver/src/stm32f10x_rcc.c ****   *   This parameter can be RCC_PREDIV2_Divx where x:[1,16]
 452:Libraries/STM32F10x_StdPeriph_Driver/src/stm32f10x_rcc.c ****   * @retval None
 453:Libraries/STM32F10x_StdPeriph_Driver/src/stm32f10x_rcc.c ****   */
 454:Libraries/STM32F10x_StdPeriph_Driver/src/stm32f10x_rcc.c **** void RCC_PREDIV2Config(uint32_t RCC_PREDIV2_Div)
 455:Libraries/STM32F10x_StdPeriph_Driver/src/stm32f10x_rcc.c **** {
 456:Libraries/STM32F10x_StdPeriph_Driver/src/stm32f10x_rcc.c ****   uint32_t tmpreg = 0;
 457:Libraries/STM32F10x_StdPeriph_Driver/src/stm32f10x_rcc.c **** 
 458:Libraries/STM32F10x_StdPeriph_Driver/src/stm32f10x_rcc.c ****   /* Check the parameters */
 459:Libraries/STM32F10x_StdPeriph_Driver/src/stm32f10x_rcc.c ****   assert_param(IS_RCC_PREDIV2(RCC_PREDIV2_Div));
 460:Libraries/STM32F10x_StdPeriph_Driver/src/stm32f10x_rcc.c **** 
 461:Libraries/STM32F10x_StdPeriph_Driver/src/stm32f10x_rcc.c ****   tmpreg = RCC->CFGR2;
 462:Libraries/STM32F10x_StdPeriph_Driver/src/stm32f10x_rcc.c ****   /* Clear PREDIV2[3:0] bits */
 463:Libraries/STM32F10x_StdPeriph_Driver/src/stm32f10x_rcc.c ****   tmpreg &= ~CFGR2_PREDIV2;
 464:Libraries/STM32F10x_StdPeriph_Driver/src/stm32f10x_rcc.c ****   /* Set the PREDIV2 division factor */
 465:Libraries/STM32F10x_StdPeriph_Driver/src/stm32f10x_rcc.c ****   tmpreg |= RCC_PREDIV2_Div;
 466:Libraries/STM32F10x_StdPeriph_Driver/src/stm32f10x_rcc.c ****   /* Store the new value */
 467:Libraries/STM32F10x_StdPeriph_Driver/src/stm32f10x_rcc.c ****   RCC->CFGR2 = tmpreg;
 468:Libraries/STM32F10x_StdPeriph_Driver/src/stm32f10x_rcc.c **** }
 469:Libraries/STM32F10x_StdPeriph_Driver/src/stm32f10x_rcc.c **** 
 470:Libraries/STM32F10x_StdPeriph_Driver/src/stm32f10x_rcc.c **** /**
 471:Libraries/STM32F10x_StdPeriph_Driver/src/stm32f10x_rcc.c ****   * @brief  Configures the PLL2 multiplication factor.
 472:Libraries/STM32F10x_StdPeriph_Driver/src/stm32f10x_rcc.c ****   * @note
 473:Libraries/STM32F10x_StdPeriph_Driver/src/stm32f10x_rcc.c ****   *   - This function must be used only when the PLL2 is disabled.
 474:Libraries/STM32F10x_StdPeriph_Driver/src/stm32f10x_rcc.c ****   *   - This function applies only to STM32 Connectivity line devices.
 475:Libraries/STM32F10x_StdPeriph_Driver/src/stm32f10x_rcc.c ****   * @param  RCC_PLL2Mul: specifies the PLL2 multiplication factor.
 476:Libraries/STM32F10x_StdPeriph_Driver/src/stm32f10x_rcc.c ****   *   This parameter can be RCC_PLL2Mul_x where x:{[8,14], 16, 20}
 477:Libraries/STM32F10x_StdPeriph_Driver/src/stm32f10x_rcc.c ****   * @retval None
 478:Libraries/STM32F10x_StdPeriph_Driver/src/stm32f10x_rcc.c ****   */
 479:Libraries/STM32F10x_StdPeriph_Driver/src/stm32f10x_rcc.c **** void RCC_PLL2Config(uint32_t RCC_PLL2Mul)
 480:Libraries/STM32F10x_StdPeriph_Driver/src/stm32f10x_rcc.c **** {
 481:Libraries/STM32F10x_StdPeriph_Driver/src/stm32f10x_rcc.c ****   uint32_t tmpreg = 0;
 482:Libraries/STM32F10x_StdPeriph_Driver/src/stm32f10x_rcc.c **** 
 483:Libraries/STM32F10x_StdPeriph_Driver/src/stm32f10x_rcc.c ****   /* Check the parameters */
 484:Libraries/STM32F10x_StdPeriph_Driver/src/stm32f10x_rcc.c ****   assert_param(IS_RCC_PLL2_MUL(RCC_PLL2Mul));
 485:Libraries/STM32F10x_StdPeriph_Driver/src/stm32f10x_rcc.c **** 
 486:Libraries/STM32F10x_StdPeriph_Driver/src/stm32f10x_rcc.c ****   tmpreg = RCC->CFGR2;
 487:Libraries/STM32F10x_StdPeriph_Driver/src/stm32f10x_rcc.c ****   /* Clear PLL2Mul[3:0] bits */
 488:Libraries/STM32F10x_StdPeriph_Driver/src/stm32f10x_rcc.c ****   tmpreg &= ~CFGR2_PLL2MUL;
 489:Libraries/STM32F10x_StdPeriph_Driver/src/stm32f10x_rcc.c ****   /* Set the PLL2 configuration bits */
 490:Libraries/STM32F10x_StdPeriph_Driver/src/stm32f10x_rcc.c ****   tmpreg |= RCC_PLL2Mul;
 491:Libraries/STM32F10x_StdPeriph_Driver/src/stm32f10x_rcc.c ****   /* Store the new value */
 492:Libraries/STM32F10x_StdPeriph_Driver/src/stm32f10x_rcc.c ****   RCC->CFGR2 = tmpreg;
 493:Libraries/STM32F10x_StdPeriph_Driver/src/stm32f10x_rcc.c **** }
 494:Libraries/STM32F10x_StdPeriph_Driver/src/stm32f10x_rcc.c **** 
 495:Libraries/STM32F10x_StdPeriph_Driver/src/stm32f10x_rcc.c **** 
 496:Libraries/STM32F10x_StdPeriph_Driver/src/stm32f10x_rcc.c **** /**
 497:Libraries/STM32F10x_StdPeriph_Driver/src/stm32f10x_rcc.c ****   * @brief  Enables or disables the PLL2.
 498:Libraries/STM32F10x_StdPeriph_Driver/src/stm32f10x_rcc.c ****   * @note 
 499:Libraries/STM32F10x_StdPeriph_Driver/src/stm32f10x_rcc.c ****   *   - The PLL2 can not be disabled if it is used indirectly as system clock
 500:Libraries/STM32F10x_StdPeriph_Driver/src/stm32f10x_rcc.c ****   *     (i.e. it is used as PLL clock entry that is used as System clock).
ARM GAS  /var/folders/yt/6z6x8bjn5sjf5fbb45bk5m4c0000gn/T//cc9V89R8.s 			page 15


 501:Libraries/STM32F10x_StdPeriph_Driver/src/stm32f10x_rcc.c ****   *   - This function applies only to STM32 Connectivity line devices.
 502:Libraries/STM32F10x_StdPeriph_Driver/src/stm32f10x_rcc.c ****   * @param  NewState: new state of the PLL2. This parameter can be: ENABLE or DISABLE.
 503:Libraries/STM32F10x_StdPeriph_Driver/src/stm32f10x_rcc.c ****   * @retval None
 504:Libraries/STM32F10x_StdPeriph_Driver/src/stm32f10x_rcc.c ****   */
 505:Libraries/STM32F10x_StdPeriph_Driver/src/stm32f10x_rcc.c **** void RCC_PLL2Cmd(FunctionalState NewState)
 506:Libraries/STM32F10x_StdPeriph_Driver/src/stm32f10x_rcc.c **** {
 507:Libraries/STM32F10x_StdPeriph_Driver/src/stm32f10x_rcc.c ****   /* Check the parameters */
 508:Libraries/STM32F10x_StdPeriph_Driver/src/stm32f10x_rcc.c ****   assert_param(IS_FUNCTIONAL_STATE(NewState));
 509:Libraries/STM32F10x_StdPeriph_Driver/src/stm32f10x_rcc.c **** 
 510:Libraries/STM32F10x_StdPeriph_Driver/src/stm32f10x_rcc.c ****   *(__IO uint32_t *) CR_PLL2ON_BB = (uint32_t)NewState;
 511:Libraries/STM32F10x_StdPeriph_Driver/src/stm32f10x_rcc.c **** }
 512:Libraries/STM32F10x_StdPeriph_Driver/src/stm32f10x_rcc.c **** 
 513:Libraries/STM32F10x_StdPeriph_Driver/src/stm32f10x_rcc.c **** 
 514:Libraries/STM32F10x_StdPeriph_Driver/src/stm32f10x_rcc.c **** /**
 515:Libraries/STM32F10x_StdPeriph_Driver/src/stm32f10x_rcc.c ****   * @brief  Configures the PLL3 multiplication factor.
 516:Libraries/STM32F10x_StdPeriph_Driver/src/stm32f10x_rcc.c ****   * @note 
 517:Libraries/STM32F10x_StdPeriph_Driver/src/stm32f10x_rcc.c ****   *   - This function must be used only when the PLL3 is disabled.
 518:Libraries/STM32F10x_StdPeriph_Driver/src/stm32f10x_rcc.c ****   *   - This function applies only to STM32 Connectivity line devices.
 519:Libraries/STM32F10x_StdPeriph_Driver/src/stm32f10x_rcc.c ****   * @param  RCC_PLL3Mul: specifies the PLL3 multiplication factor.
 520:Libraries/STM32F10x_StdPeriph_Driver/src/stm32f10x_rcc.c ****   *   This parameter can be RCC_PLL3Mul_x where x:{[8,14], 16, 20}
 521:Libraries/STM32F10x_StdPeriph_Driver/src/stm32f10x_rcc.c ****   * @retval None
 522:Libraries/STM32F10x_StdPeriph_Driver/src/stm32f10x_rcc.c ****   */
 523:Libraries/STM32F10x_StdPeriph_Driver/src/stm32f10x_rcc.c **** void RCC_PLL3Config(uint32_t RCC_PLL3Mul)
 524:Libraries/STM32F10x_StdPeriph_Driver/src/stm32f10x_rcc.c **** {
 525:Libraries/STM32F10x_StdPeriph_Driver/src/stm32f10x_rcc.c ****   uint32_t tmpreg = 0;
 526:Libraries/STM32F10x_StdPeriph_Driver/src/stm32f10x_rcc.c **** 
 527:Libraries/STM32F10x_StdPeriph_Driver/src/stm32f10x_rcc.c ****   /* Check the parameters */
 528:Libraries/STM32F10x_StdPeriph_Driver/src/stm32f10x_rcc.c ****   assert_param(IS_RCC_PLL3_MUL(RCC_PLL3Mul));
 529:Libraries/STM32F10x_StdPeriph_Driver/src/stm32f10x_rcc.c **** 
 530:Libraries/STM32F10x_StdPeriph_Driver/src/stm32f10x_rcc.c ****   tmpreg = RCC->CFGR2;
 531:Libraries/STM32F10x_StdPeriph_Driver/src/stm32f10x_rcc.c ****   /* Clear PLL3Mul[3:0] bits */
 532:Libraries/STM32F10x_StdPeriph_Driver/src/stm32f10x_rcc.c ****   tmpreg &= ~CFGR2_PLL3MUL;
 533:Libraries/STM32F10x_StdPeriph_Driver/src/stm32f10x_rcc.c ****   /* Set the PLL3 configuration bits */
 534:Libraries/STM32F10x_StdPeriph_Driver/src/stm32f10x_rcc.c ****   tmpreg |= RCC_PLL3Mul;
 535:Libraries/STM32F10x_StdPeriph_Driver/src/stm32f10x_rcc.c ****   /* Store the new value */
 536:Libraries/STM32F10x_StdPeriph_Driver/src/stm32f10x_rcc.c ****   RCC->CFGR2 = tmpreg;
 537:Libraries/STM32F10x_StdPeriph_Driver/src/stm32f10x_rcc.c **** }
 538:Libraries/STM32F10x_StdPeriph_Driver/src/stm32f10x_rcc.c **** 
 539:Libraries/STM32F10x_StdPeriph_Driver/src/stm32f10x_rcc.c **** 
 540:Libraries/STM32F10x_StdPeriph_Driver/src/stm32f10x_rcc.c **** /**
 541:Libraries/STM32F10x_StdPeriph_Driver/src/stm32f10x_rcc.c ****   * @brief  Enables or disables the PLL3.
 542:Libraries/STM32F10x_StdPeriph_Driver/src/stm32f10x_rcc.c ****   * @note   This function applies only to STM32 Connectivity line devices.
 543:Libraries/STM32F10x_StdPeriph_Driver/src/stm32f10x_rcc.c ****   * @param  NewState: new state of the PLL3. This parameter can be: ENABLE or DISABLE.
 544:Libraries/STM32F10x_StdPeriph_Driver/src/stm32f10x_rcc.c ****   * @retval None
 545:Libraries/STM32F10x_StdPeriph_Driver/src/stm32f10x_rcc.c ****   */
 546:Libraries/STM32F10x_StdPeriph_Driver/src/stm32f10x_rcc.c **** void RCC_PLL3Cmd(FunctionalState NewState)
 547:Libraries/STM32F10x_StdPeriph_Driver/src/stm32f10x_rcc.c **** {
 548:Libraries/STM32F10x_StdPeriph_Driver/src/stm32f10x_rcc.c ****   /* Check the parameters */
 549:Libraries/STM32F10x_StdPeriph_Driver/src/stm32f10x_rcc.c **** 
 550:Libraries/STM32F10x_StdPeriph_Driver/src/stm32f10x_rcc.c ****   assert_param(IS_FUNCTIONAL_STATE(NewState));
 551:Libraries/STM32F10x_StdPeriph_Driver/src/stm32f10x_rcc.c ****   *(__IO uint32_t *) CR_PLL3ON_BB = (uint32_t)NewState;
 552:Libraries/STM32F10x_StdPeriph_Driver/src/stm32f10x_rcc.c **** }
 553:Libraries/STM32F10x_StdPeriph_Driver/src/stm32f10x_rcc.c **** #endif /* STM32F10X_CL */
 554:Libraries/STM32F10x_StdPeriph_Driver/src/stm32f10x_rcc.c **** 
 555:Libraries/STM32F10x_StdPeriph_Driver/src/stm32f10x_rcc.c **** /**
 556:Libraries/STM32F10x_StdPeriph_Driver/src/stm32f10x_rcc.c ****   * @brief  Configures the system clock (SYSCLK).
 557:Libraries/STM32F10x_StdPeriph_Driver/src/stm32f10x_rcc.c ****   * @param  RCC_SYSCLKSource: specifies the clock source used as system clock.
ARM GAS  /var/folders/yt/6z6x8bjn5sjf5fbb45bk5m4c0000gn/T//cc9V89R8.s 			page 16


 558:Libraries/STM32F10x_StdPeriph_Driver/src/stm32f10x_rcc.c ****   *   This parameter can be one of the following values:
 559:Libraries/STM32F10x_StdPeriph_Driver/src/stm32f10x_rcc.c ****   *     @arg RCC_SYSCLKSource_HSI: HSI selected as system clock
 560:Libraries/STM32F10x_StdPeriph_Driver/src/stm32f10x_rcc.c ****   *     @arg RCC_SYSCLKSource_HSE: HSE selected as system clock
 561:Libraries/STM32F10x_StdPeriph_Driver/src/stm32f10x_rcc.c ****   *     @arg RCC_SYSCLKSource_PLLCLK: PLL selected as system clock
 562:Libraries/STM32F10x_StdPeriph_Driver/src/stm32f10x_rcc.c ****   * @retval None
 563:Libraries/STM32F10x_StdPeriph_Driver/src/stm32f10x_rcc.c ****   */
 564:Libraries/STM32F10x_StdPeriph_Driver/src/stm32f10x_rcc.c **** void RCC_SYSCLKConfig(uint32_t RCC_SYSCLKSource)
 565:Libraries/STM32F10x_StdPeriph_Driver/src/stm32f10x_rcc.c **** {
 297              		.loc 1 565 0
 298              		.cfi_startproc
 299              		@ args = 0, pretend = 0, frame = 0
 300              		@ frame_needed = 0, uses_anonymous_args = 0
 301              		@ link register save eliminated.
 302              	.LVL12:
 566:Libraries/STM32F10x_StdPeriph_Driver/src/stm32f10x_rcc.c ****   uint32_t tmpreg = 0;
 567:Libraries/STM32F10x_StdPeriph_Driver/src/stm32f10x_rcc.c ****   /* Check the parameters */
 568:Libraries/STM32F10x_StdPeriph_Driver/src/stm32f10x_rcc.c ****   assert_param(IS_RCC_SYSCLK_SOURCE(RCC_SYSCLKSource));
 569:Libraries/STM32F10x_StdPeriph_Driver/src/stm32f10x_rcc.c ****   tmpreg = RCC->CFGR;
 303              		.loc 1 569 0
 304 00b8 034A     		ldr	r2, .L25	@ tmp114,
 305 00ba 5368     		ldr	r3, [r2, #4]	@ tmpreg, MEM[(struct RCC_TypeDef *)1073876992B].CFGR
 306              	.LVL13:
 570:Libraries/STM32F10x_StdPeriph_Driver/src/stm32f10x_rcc.c ****   /* Clear SW[1:0] bits */
 571:Libraries/STM32F10x_StdPeriph_Driver/src/stm32f10x_rcc.c ****   tmpreg &= CFGR_SW_Mask;
 307              		.loc 1 571 0
 308 00bc 23F00303 		bic	r3, r3, #3	@ tmpreg, tmpreg,
 309              	.LVL14:
 572:Libraries/STM32F10x_StdPeriph_Driver/src/stm32f10x_rcc.c ****   /* Set SW[1:0] bits according to RCC_SYSCLKSource value */
 573:Libraries/STM32F10x_StdPeriph_Driver/src/stm32f10x_rcc.c ****   tmpreg |= RCC_SYSCLKSource;
 310              		.loc 1 573 0
 311 00c0 1843     		orrs	r0, r0, r3	@, tmpreg, RCC_SYSCLKSource, tmpreg
 312              	.LVL15:
 574:Libraries/STM32F10x_StdPeriph_Driver/src/stm32f10x_rcc.c ****   /* Store the new value */
 575:Libraries/STM32F10x_StdPeriph_Driver/src/stm32f10x_rcc.c ****   RCC->CFGR = tmpreg;
 313              		.loc 1 575 0
 314 00c2 5060     		str	r0, [r2, #4]	@ tmpreg, MEM[(struct RCC_TypeDef *)1073876992B].CFGR
 315 00c4 7047     		bx	lr	@
 316              	.L26:
 317 00c6 00BF     		.align	2
 318              	.L25:
 319 00c8 00100240 		.word	1073876992
 320              		.cfi_endproc
 321              	.LFE36:
 322              		.size	RCC_SYSCLKConfig, .-RCC_SYSCLKConfig
 323              		.align	1
 324              		.global	RCC_GetSYSCLKSource
 325              		.thumb
 326              		.thumb_func
 327              		.type	RCC_GetSYSCLKSource, %function
 328              	RCC_GetSYSCLKSource:
 329              	.LFB37:
 576:Libraries/STM32F10x_StdPeriph_Driver/src/stm32f10x_rcc.c **** }
 577:Libraries/STM32F10x_StdPeriph_Driver/src/stm32f10x_rcc.c **** 
 578:Libraries/STM32F10x_StdPeriph_Driver/src/stm32f10x_rcc.c **** /**
 579:Libraries/STM32F10x_StdPeriph_Driver/src/stm32f10x_rcc.c ****   * @brief  Returns the clock source used as system clock.
 580:Libraries/STM32F10x_StdPeriph_Driver/src/stm32f10x_rcc.c ****   * @param  None
 581:Libraries/STM32F10x_StdPeriph_Driver/src/stm32f10x_rcc.c ****   * @retval The clock source used as system clock. The returned value can
ARM GAS  /var/folders/yt/6z6x8bjn5sjf5fbb45bk5m4c0000gn/T//cc9V89R8.s 			page 17


 582:Libraries/STM32F10x_StdPeriph_Driver/src/stm32f10x_rcc.c ****   *   be one of the following:
 583:Libraries/STM32F10x_StdPeriph_Driver/src/stm32f10x_rcc.c ****   *     - 0x00: HSI used as system clock
 584:Libraries/STM32F10x_StdPeriph_Driver/src/stm32f10x_rcc.c ****   *     - 0x04: HSE used as system clock
 585:Libraries/STM32F10x_StdPeriph_Driver/src/stm32f10x_rcc.c ****   *     - 0x08: PLL used as system clock
 586:Libraries/STM32F10x_StdPeriph_Driver/src/stm32f10x_rcc.c ****   */
 587:Libraries/STM32F10x_StdPeriph_Driver/src/stm32f10x_rcc.c **** uint8_t RCC_GetSYSCLKSource(void)
 588:Libraries/STM32F10x_StdPeriph_Driver/src/stm32f10x_rcc.c **** {
 330              		.loc 1 588 0
 331              		.cfi_startproc
 332              		@ args = 0, pretend = 0, frame = 0
 333              		@ frame_needed = 0, uses_anonymous_args = 0
 334              		@ link register save eliminated.
 589:Libraries/STM32F10x_StdPeriph_Driver/src/stm32f10x_rcc.c ****   return ((uint8_t)(RCC->CFGR & CFGR_SWS_Mask));
 335              		.loc 1 589 0
 336 00cc 024B     		ldr	r3, .L28	@ tmp114,
 337 00ce 5868     		ldr	r0, [r3, #4]	@ D.5873, MEM[(struct RCC_TypeDef *)1073876992B].CFGR
 590:Libraries/STM32F10x_StdPeriph_Driver/src/stm32f10x_rcc.c **** }
 338              		.loc 1 590 0
 339 00d0 00F00C00 		and	r0, r0, #12	@, D.5873,
 340 00d4 7047     		bx	lr	@
 341              	.L29:
 342 00d6 00BF     		.align	2
 343              	.L28:
 344 00d8 00100240 		.word	1073876992
 345              		.cfi_endproc
 346              	.LFE37:
 347              		.size	RCC_GetSYSCLKSource, .-RCC_GetSYSCLKSource
 348              		.align	1
 349              		.global	RCC_HCLKConfig
 350              		.thumb
 351              		.thumb_func
 352              		.type	RCC_HCLKConfig, %function
 353              	RCC_HCLKConfig:
 354              	.LFB38:
 591:Libraries/STM32F10x_StdPeriph_Driver/src/stm32f10x_rcc.c **** 
 592:Libraries/STM32F10x_StdPeriph_Driver/src/stm32f10x_rcc.c **** /**
 593:Libraries/STM32F10x_StdPeriph_Driver/src/stm32f10x_rcc.c ****   * @brief  Configures the AHB clock (HCLK).
 594:Libraries/STM32F10x_StdPeriph_Driver/src/stm32f10x_rcc.c ****   * @param  RCC_SYSCLK: defines the AHB clock divider. This clock is derived from 
 595:Libraries/STM32F10x_StdPeriph_Driver/src/stm32f10x_rcc.c ****   *   the system clock (SYSCLK).
 596:Libraries/STM32F10x_StdPeriph_Driver/src/stm32f10x_rcc.c ****   *   This parameter can be one of the following values:
 597:Libraries/STM32F10x_StdPeriph_Driver/src/stm32f10x_rcc.c ****   *     @arg RCC_SYSCLK_Div1: AHB clock = SYSCLK
 598:Libraries/STM32F10x_StdPeriph_Driver/src/stm32f10x_rcc.c ****   *     @arg RCC_SYSCLK_Div2: AHB clock = SYSCLK/2
 599:Libraries/STM32F10x_StdPeriph_Driver/src/stm32f10x_rcc.c ****   *     @arg RCC_SYSCLK_Div4: AHB clock = SYSCLK/4
 600:Libraries/STM32F10x_StdPeriph_Driver/src/stm32f10x_rcc.c ****   *     @arg RCC_SYSCLK_Div8: AHB clock = SYSCLK/8
 601:Libraries/STM32F10x_StdPeriph_Driver/src/stm32f10x_rcc.c ****   *     @arg RCC_SYSCLK_Div16: AHB clock = SYSCLK/16
 602:Libraries/STM32F10x_StdPeriph_Driver/src/stm32f10x_rcc.c ****   *     @arg RCC_SYSCLK_Div64: AHB clock = SYSCLK/64
 603:Libraries/STM32F10x_StdPeriph_Driver/src/stm32f10x_rcc.c ****   *     @arg RCC_SYSCLK_Div128: AHB clock = SYSCLK/128
 604:Libraries/STM32F10x_StdPeriph_Driver/src/stm32f10x_rcc.c ****   *     @arg RCC_SYSCLK_Div256: AHB clock = SYSCLK/256
 605:Libraries/STM32F10x_StdPeriph_Driver/src/stm32f10x_rcc.c ****   *     @arg RCC_SYSCLK_Div512: AHB clock = SYSCLK/512
 606:Libraries/STM32F10x_StdPeriph_Driver/src/stm32f10x_rcc.c ****   * @retval None
 607:Libraries/STM32F10x_StdPeriph_Driver/src/stm32f10x_rcc.c ****   */
 608:Libraries/STM32F10x_StdPeriph_Driver/src/stm32f10x_rcc.c **** void RCC_HCLKConfig(uint32_t RCC_SYSCLK)
 609:Libraries/STM32F10x_StdPeriph_Driver/src/stm32f10x_rcc.c **** {
 355              		.loc 1 609 0
 356              		.cfi_startproc
 357              		@ args = 0, pretend = 0, frame = 0
 358              		@ frame_needed = 0, uses_anonymous_args = 0
ARM GAS  /var/folders/yt/6z6x8bjn5sjf5fbb45bk5m4c0000gn/T//cc9V89R8.s 			page 18


 359              		@ link register save eliminated.
 360              	.LVL16:
 610:Libraries/STM32F10x_StdPeriph_Driver/src/stm32f10x_rcc.c ****   uint32_t tmpreg = 0;
 611:Libraries/STM32F10x_StdPeriph_Driver/src/stm32f10x_rcc.c ****   /* Check the parameters */
 612:Libraries/STM32F10x_StdPeriph_Driver/src/stm32f10x_rcc.c ****   assert_param(IS_RCC_HCLK(RCC_SYSCLK));
 613:Libraries/STM32F10x_StdPeriph_Driver/src/stm32f10x_rcc.c ****   tmpreg = RCC->CFGR;
 361              		.loc 1 613 0
 362 00dc 034A     		ldr	r2, .L31	@ tmp114,
 363 00de 5368     		ldr	r3, [r2, #4]	@ tmpreg, MEM[(struct RCC_TypeDef *)1073876992B].CFGR
 364              	.LVL17:
 614:Libraries/STM32F10x_StdPeriph_Driver/src/stm32f10x_rcc.c ****   /* Clear HPRE[3:0] bits */
 615:Libraries/STM32F10x_StdPeriph_Driver/src/stm32f10x_rcc.c ****   tmpreg &= CFGR_HPRE_Reset_Mask;
 365              		.loc 1 615 0
 366 00e0 23F0F003 		bic	r3, r3, #240	@ tmpreg, tmpreg,
 367              	.LVL18:
 616:Libraries/STM32F10x_StdPeriph_Driver/src/stm32f10x_rcc.c ****   /* Set HPRE[3:0] bits according to RCC_SYSCLK value */
 617:Libraries/STM32F10x_StdPeriph_Driver/src/stm32f10x_rcc.c ****   tmpreg |= RCC_SYSCLK;
 368              		.loc 1 617 0
 369 00e4 1843     		orrs	r0, r0, r3	@, tmpreg, RCC_SYSCLK, tmpreg
 370              	.LVL19:
 618:Libraries/STM32F10x_StdPeriph_Driver/src/stm32f10x_rcc.c ****   /* Store the new value */
 619:Libraries/STM32F10x_StdPeriph_Driver/src/stm32f10x_rcc.c ****   RCC->CFGR = tmpreg;
 371              		.loc 1 619 0
 372 00e6 5060     		str	r0, [r2, #4]	@ tmpreg, MEM[(struct RCC_TypeDef *)1073876992B].CFGR
 373 00e8 7047     		bx	lr	@
 374              	.L32:
 375 00ea 00BF     		.align	2
 376              	.L31:
 377 00ec 00100240 		.word	1073876992
 378              		.cfi_endproc
 379              	.LFE38:
 380              		.size	RCC_HCLKConfig, .-RCC_HCLKConfig
 381              		.align	1
 382              		.global	RCC_PCLK1Config
 383              		.thumb
 384              		.thumb_func
 385              		.type	RCC_PCLK1Config, %function
 386              	RCC_PCLK1Config:
 387              	.LFB39:
 620:Libraries/STM32F10x_StdPeriph_Driver/src/stm32f10x_rcc.c **** }
 621:Libraries/STM32F10x_StdPeriph_Driver/src/stm32f10x_rcc.c **** 
 622:Libraries/STM32F10x_StdPeriph_Driver/src/stm32f10x_rcc.c **** /**
 623:Libraries/STM32F10x_StdPeriph_Driver/src/stm32f10x_rcc.c ****   * @brief  Configures the Low Speed APB clock (PCLK1).
 624:Libraries/STM32F10x_StdPeriph_Driver/src/stm32f10x_rcc.c ****   * @param  RCC_HCLK: defines the APB1 clock divider. This clock is derived from 
 625:Libraries/STM32F10x_StdPeriph_Driver/src/stm32f10x_rcc.c ****   *   the AHB clock (HCLK).
 626:Libraries/STM32F10x_StdPeriph_Driver/src/stm32f10x_rcc.c ****   *   This parameter can be one of the following values:
 627:Libraries/STM32F10x_StdPeriph_Driver/src/stm32f10x_rcc.c ****   *     @arg RCC_HCLK_Div1: APB1 clock = HCLK
 628:Libraries/STM32F10x_StdPeriph_Driver/src/stm32f10x_rcc.c ****   *     @arg RCC_HCLK_Div2: APB1 clock = HCLK/2
 629:Libraries/STM32F10x_StdPeriph_Driver/src/stm32f10x_rcc.c ****   *     @arg RCC_HCLK_Div4: APB1 clock = HCLK/4
 630:Libraries/STM32F10x_StdPeriph_Driver/src/stm32f10x_rcc.c ****   *     @arg RCC_HCLK_Div8: APB1 clock = HCLK/8
 631:Libraries/STM32F10x_StdPeriph_Driver/src/stm32f10x_rcc.c ****   *     @arg RCC_HCLK_Div16: APB1 clock = HCLK/16
 632:Libraries/STM32F10x_StdPeriph_Driver/src/stm32f10x_rcc.c ****   * @retval None
 633:Libraries/STM32F10x_StdPeriph_Driver/src/stm32f10x_rcc.c ****   */
 634:Libraries/STM32F10x_StdPeriph_Driver/src/stm32f10x_rcc.c **** void RCC_PCLK1Config(uint32_t RCC_HCLK)
 635:Libraries/STM32F10x_StdPeriph_Driver/src/stm32f10x_rcc.c **** {
 388              		.loc 1 635 0
 389              		.cfi_startproc
ARM GAS  /var/folders/yt/6z6x8bjn5sjf5fbb45bk5m4c0000gn/T//cc9V89R8.s 			page 19


 390              		@ args = 0, pretend = 0, frame = 0
 391              		@ frame_needed = 0, uses_anonymous_args = 0
 392              		@ link register save eliminated.
 393              	.LVL20:
 636:Libraries/STM32F10x_StdPeriph_Driver/src/stm32f10x_rcc.c ****   uint32_t tmpreg = 0;
 637:Libraries/STM32F10x_StdPeriph_Driver/src/stm32f10x_rcc.c ****   /* Check the parameters */
 638:Libraries/STM32F10x_StdPeriph_Driver/src/stm32f10x_rcc.c ****   assert_param(IS_RCC_PCLK(RCC_HCLK));
 639:Libraries/STM32F10x_StdPeriph_Driver/src/stm32f10x_rcc.c ****   tmpreg = RCC->CFGR;
 394              		.loc 1 639 0
 395 00f0 034A     		ldr	r2, .L34	@ tmp114,
 396 00f2 5368     		ldr	r3, [r2, #4]	@ tmpreg, MEM[(struct RCC_TypeDef *)1073876992B].CFGR
 397              	.LVL21:
 640:Libraries/STM32F10x_StdPeriph_Driver/src/stm32f10x_rcc.c ****   /* Clear PPRE1[2:0] bits */
 641:Libraries/STM32F10x_StdPeriph_Driver/src/stm32f10x_rcc.c ****   tmpreg &= CFGR_PPRE1_Reset_Mask;
 398              		.loc 1 641 0
 399 00f4 23F4E063 		bic	r3, r3, #1792	@ tmpreg, tmpreg,
 400              	.LVL22:
 642:Libraries/STM32F10x_StdPeriph_Driver/src/stm32f10x_rcc.c ****   /* Set PPRE1[2:0] bits according to RCC_HCLK value */
 643:Libraries/STM32F10x_StdPeriph_Driver/src/stm32f10x_rcc.c ****   tmpreg |= RCC_HCLK;
 401              		.loc 1 643 0
 402 00f8 1843     		orrs	r0, r0, r3	@, tmpreg, RCC_HCLK, tmpreg
 403              	.LVL23:
 644:Libraries/STM32F10x_StdPeriph_Driver/src/stm32f10x_rcc.c ****   /* Store the new value */
 645:Libraries/STM32F10x_StdPeriph_Driver/src/stm32f10x_rcc.c ****   RCC->CFGR = tmpreg;
 404              		.loc 1 645 0
 405 00fa 5060     		str	r0, [r2, #4]	@ tmpreg, MEM[(struct RCC_TypeDef *)1073876992B].CFGR
 406 00fc 7047     		bx	lr	@
 407              	.L35:
 408 00fe 00BF     		.align	2
 409              	.L34:
 410 0100 00100240 		.word	1073876992
 411              		.cfi_endproc
 412              	.LFE39:
 413              		.size	RCC_PCLK1Config, .-RCC_PCLK1Config
 414              		.align	1
 415              		.global	RCC_PCLK2Config
 416              		.thumb
 417              		.thumb_func
 418              		.type	RCC_PCLK2Config, %function
 419              	RCC_PCLK2Config:
 420              	.LFB40:
 646:Libraries/STM32F10x_StdPeriph_Driver/src/stm32f10x_rcc.c **** }
 647:Libraries/STM32F10x_StdPeriph_Driver/src/stm32f10x_rcc.c **** 
 648:Libraries/STM32F10x_StdPeriph_Driver/src/stm32f10x_rcc.c **** /**
 649:Libraries/STM32F10x_StdPeriph_Driver/src/stm32f10x_rcc.c ****   * @brief  Configures the High Speed APB clock (PCLK2).
 650:Libraries/STM32F10x_StdPeriph_Driver/src/stm32f10x_rcc.c ****   * @param  RCC_HCLK: defines the APB2 clock divider. This clock is derived from 
 651:Libraries/STM32F10x_StdPeriph_Driver/src/stm32f10x_rcc.c ****   *   the AHB clock (HCLK).
 652:Libraries/STM32F10x_StdPeriph_Driver/src/stm32f10x_rcc.c ****   *   This parameter can be one of the following values:
 653:Libraries/STM32F10x_StdPeriph_Driver/src/stm32f10x_rcc.c ****   *     @arg RCC_HCLK_Div1: APB2 clock = HCLK
 654:Libraries/STM32F10x_StdPeriph_Driver/src/stm32f10x_rcc.c ****   *     @arg RCC_HCLK_Div2: APB2 clock = HCLK/2
 655:Libraries/STM32F10x_StdPeriph_Driver/src/stm32f10x_rcc.c ****   *     @arg RCC_HCLK_Div4: APB2 clock = HCLK/4
 656:Libraries/STM32F10x_StdPeriph_Driver/src/stm32f10x_rcc.c ****   *     @arg RCC_HCLK_Div8: APB2 clock = HCLK/8
 657:Libraries/STM32F10x_StdPeriph_Driver/src/stm32f10x_rcc.c ****   *     @arg RCC_HCLK_Div16: APB2 clock = HCLK/16
 658:Libraries/STM32F10x_StdPeriph_Driver/src/stm32f10x_rcc.c ****   * @retval None
 659:Libraries/STM32F10x_StdPeriph_Driver/src/stm32f10x_rcc.c ****   */
 660:Libraries/STM32F10x_StdPeriph_Driver/src/stm32f10x_rcc.c **** void RCC_PCLK2Config(uint32_t RCC_HCLK)
 661:Libraries/STM32F10x_StdPeriph_Driver/src/stm32f10x_rcc.c **** {
ARM GAS  /var/folders/yt/6z6x8bjn5sjf5fbb45bk5m4c0000gn/T//cc9V89R8.s 			page 20


 421              		.loc 1 661 0
 422              		.cfi_startproc
 423              		@ args = 0, pretend = 0, frame = 0
 424              		@ frame_needed = 0, uses_anonymous_args = 0
 425              		@ link register save eliminated.
 426              	.LVL24:
 662:Libraries/STM32F10x_StdPeriph_Driver/src/stm32f10x_rcc.c ****   uint32_t tmpreg = 0;
 663:Libraries/STM32F10x_StdPeriph_Driver/src/stm32f10x_rcc.c ****   /* Check the parameters */
 664:Libraries/STM32F10x_StdPeriph_Driver/src/stm32f10x_rcc.c ****   assert_param(IS_RCC_PCLK(RCC_HCLK));
 665:Libraries/STM32F10x_StdPeriph_Driver/src/stm32f10x_rcc.c ****   tmpreg = RCC->CFGR;
 427              		.loc 1 665 0
 428 0104 034A     		ldr	r2, .L37	@ tmp115,
 429 0106 5368     		ldr	r3, [r2, #4]	@ tmpreg, MEM[(struct RCC_TypeDef *)1073876992B].CFGR
 430              	.LVL25:
 666:Libraries/STM32F10x_StdPeriph_Driver/src/stm32f10x_rcc.c ****   /* Clear PPRE2[2:0] bits */
 667:Libraries/STM32F10x_StdPeriph_Driver/src/stm32f10x_rcc.c ****   tmpreg &= CFGR_PPRE2_Reset_Mask;
 431              		.loc 1 667 0
 432 0108 23F46053 		bic	r3, r3, #14336	@ tmpreg, tmpreg,
 433              	.LVL26:
 668:Libraries/STM32F10x_StdPeriph_Driver/src/stm32f10x_rcc.c ****   /* Set PPRE2[2:0] bits according to RCC_HCLK value */
 669:Libraries/STM32F10x_StdPeriph_Driver/src/stm32f10x_rcc.c ****   tmpreg |= RCC_HCLK << 3;
 434              		.loc 1 669 0
 435 010c 43EAC000 		orr	r0, r3, r0, lsl #3	@, tmpreg, tmpreg, RCC_HCLK,
 436              	.LVL27:
 670:Libraries/STM32F10x_StdPeriph_Driver/src/stm32f10x_rcc.c ****   /* Store the new value */
 671:Libraries/STM32F10x_StdPeriph_Driver/src/stm32f10x_rcc.c ****   RCC->CFGR = tmpreg;
 437              		.loc 1 671 0
 438 0110 5060     		str	r0, [r2, #4]	@ tmpreg, MEM[(struct RCC_TypeDef *)1073876992B].CFGR
 439 0112 7047     		bx	lr	@
 440              	.L38:
 441              		.align	2
 442              	.L37:
 443 0114 00100240 		.word	1073876992
 444              		.cfi_endproc
 445              	.LFE40:
 446              		.size	RCC_PCLK2Config, .-RCC_PCLK2Config
 447              		.align	1
 448              		.global	RCC_ITConfig
 449              		.thumb
 450              		.thumb_func
 451              		.type	RCC_ITConfig, %function
 452              	RCC_ITConfig:
 453              	.LFB41:
 672:Libraries/STM32F10x_StdPeriph_Driver/src/stm32f10x_rcc.c **** }
 673:Libraries/STM32F10x_StdPeriph_Driver/src/stm32f10x_rcc.c **** 
 674:Libraries/STM32F10x_StdPeriph_Driver/src/stm32f10x_rcc.c **** /**
 675:Libraries/STM32F10x_StdPeriph_Driver/src/stm32f10x_rcc.c ****   * @brief  Enables or disables the specified RCC interrupts.
 676:Libraries/STM32F10x_StdPeriph_Driver/src/stm32f10x_rcc.c ****   * @param  RCC_IT: specifies the RCC interrupt sources to be enabled or disabled.
 677:Libraries/STM32F10x_StdPeriph_Driver/src/stm32f10x_rcc.c ****   * 
 678:Libraries/STM32F10x_StdPeriph_Driver/src/stm32f10x_rcc.c ****   *   For @b STM32_Connectivity_line_devices, this parameter can be any combination
 679:Libraries/STM32F10x_StdPeriph_Driver/src/stm32f10x_rcc.c ****   *   of the following values        
 680:Libraries/STM32F10x_StdPeriph_Driver/src/stm32f10x_rcc.c ****   *     @arg RCC_IT_LSIRDY: LSI ready interrupt
 681:Libraries/STM32F10x_StdPeriph_Driver/src/stm32f10x_rcc.c ****   *     @arg RCC_IT_LSERDY: LSE ready interrupt
 682:Libraries/STM32F10x_StdPeriph_Driver/src/stm32f10x_rcc.c ****   *     @arg RCC_IT_HSIRDY: HSI ready interrupt
 683:Libraries/STM32F10x_StdPeriph_Driver/src/stm32f10x_rcc.c ****   *     @arg RCC_IT_HSERDY: HSE ready interrupt
 684:Libraries/STM32F10x_StdPeriph_Driver/src/stm32f10x_rcc.c ****   *     @arg RCC_IT_PLLRDY: PLL ready interrupt
 685:Libraries/STM32F10x_StdPeriph_Driver/src/stm32f10x_rcc.c ****   *     @arg RCC_IT_PLL2RDY: PLL2 ready interrupt
ARM GAS  /var/folders/yt/6z6x8bjn5sjf5fbb45bk5m4c0000gn/T//cc9V89R8.s 			page 21


 686:Libraries/STM32F10x_StdPeriph_Driver/src/stm32f10x_rcc.c ****   *     @arg RCC_IT_PLL3RDY: PLL3 ready interrupt
 687:Libraries/STM32F10x_StdPeriph_Driver/src/stm32f10x_rcc.c ****   * 
 688:Libraries/STM32F10x_StdPeriph_Driver/src/stm32f10x_rcc.c ****   *   For @b other_STM32_devices, this parameter can be any combination of the 
 689:Libraries/STM32F10x_StdPeriph_Driver/src/stm32f10x_rcc.c ****   *   following values        
 690:Libraries/STM32F10x_StdPeriph_Driver/src/stm32f10x_rcc.c ****   *     @arg RCC_IT_LSIRDY: LSI ready interrupt
 691:Libraries/STM32F10x_StdPeriph_Driver/src/stm32f10x_rcc.c ****   *     @arg RCC_IT_LSERDY: LSE ready interrupt
 692:Libraries/STM32F10x_StdPeriph_Driver/src/stm32f10x_rcc.c ****   *     @arg RCC_IT_HSIRDY: HSI ready interrupt
 693:Libraries/STM32F10x_StdPeriph_Driver/src/stm32f10x_rcc.c ****   *     @arg RCC_IT_HSERDY: HSE ready interrupt
 694:Libraries/STM32F10x_StdPeriph_Driver/src/stm32f10x_rcc.c ****   *     @arg RCC_IT_PLLRDY: PLL ready interrupt
 695:Libraries/STM32F10x_StdPeriph_Driver/src/stm32f10x_rcc.c ****   *       
 696:Libraries/STM32F10x_StdPeriph_Driver/src/stm32f10x_rcc.c ****   * @param  NewState: new state of the specified RCC interrupts.
 697:Libraries/STM32F10x_StdPeriph_Driver/src/stm32f10x_rcc.c ****   *   This parameter can be: ENABLE or DISABLE.
 698:Libraries/STM32F10x_StdPeriph_Driver/src/stm32f10x_rcc.c ****   * @retval None
 699:Libraries/STM32F10x_StdPeriph_Driver/src/stm32f10x_rcc.c ****   */
 700:Libraries/STM32F10x_StdPeriph_Driver/src/stm32f10x_rcc.c **** void RCC_ITConfig(uint8_t RCC_IT, FunctionalState NewState)
 701:Libraries/STM32F10x_StdPeriph_Driver/src/stm32f10x_rcc.c **** {
 454              		.loc 1 701 0
 455              		.cfi_startproc
 456              		@ args = 0, pretend = 0, frame = 0
 457              		@ frame_needed = 0, uses_anonymous_args = 0
 458              		@ link register save eliminated.
 459              	.LVL28:
 460 0118 044B     		ldr	r3, .L43	@ tmp131,
 702:Libraries/STM32F10x_StdPeriph_Driver/src/stm32f10x_rcc.c ****   /* Check the parameters */
 703:Libraries/STM32F10x_StdPeriph_Driver/src/stm32f10x_rcc.c ****   assert_param(IS_RCC_IT(RCC_IT));
 704:Libraries/STM32F10x_StdPeriph_Driver/src/stm32f10x_rcc.c ****   assert_param(IS_FUNCTIONAL_STATE(NewState));
 705:Libraries/STM32F10x_StdPeriph_Driver/src/stm32f10x_rcc.c ****   if (NewState != DISABLE)
 706:Libraries/STM32F10x_StdPeriph_Driver/src/stm32f10x_rcc.c ****   {
 707:Libraries/STM32F10x_StdPeriph_Driver/src/stm32f10x_rcc.c ****     /* Perform Byte access to RCC_CIR bits to enable the selected interrupts */
 708:Libraries/STM32F10x_StdPeriph_Driver/src/stm32f10x_rcc.c ****     *(__IO uint8_t *) CIR_BYTE2_ADDRESS |= RCC_IT;
 461              		.loc 1 708 0
 462 011a 1A78     		ldrb	r2, [r3]	@ zero_extendqisi2	@ MEM[(volatile uint8_t *)1073877001B],
 705:Libraries/STM32F10x_StdPeriph_Driver/src/stm32f10x_rcc.c ****   {
 463              		.loc 1 705 0
 464 011c 09B1     		cbz	r1, .L40	@ NewState,
 465              		.loc 1 708 0
 466 011e 1043     		orrs	r0, r0, r2	@, D.5885, RCC_IT, MEM[(volatile uint8_t *)1073877001B]
 467              	.LVL29:
 468 0120 01E0     		b	.L42	@
 469              	.LVL30:
 470              	.L40:
 709:Libraries/STM32F10x_StdPeriph_Driver/src/stm32f10x_rcc.c ****   }
 710:Libraries/STM32F10x_StdPeriph_Driver/src/stm32f10x_rcc.c ****   else
 711:Libraries/STM32F10x_StdPeriph_Driver/src/stm32f10x_rcc.c ****   {
 712:Libraries/STM32F10x_StdPeriph_Driver/src/stm32f10x_rcc.c ****     /* Perform Byte access to RCC_CIR bits to disable the selected interrupts */
 713:Libraries/STM32F10x_StdPeriph_Driver/src/stm32f10x_rcc.c ****     *(__IO uint8_t *) CIR_BYTE2_ADDRESS &= (uint8_t)~RCC_IT;
 471              		.loc 1 713 0
 472 0122 22EA0000 		bic	r0, r2, r0	@ D.5885, MEM[(volatile uint8_t *)1073877001B], RCC_IT
 473              	.LVL31:
 474              	.L42:
 475 0126 1870     		strb	r0, [r3]	@ D.5885,
 476 0128 7047     		bx	lr	@
 477              	.L44:
 478 012a 00BF     		.align	2
 479              	.L43:
 480 012c 09100240 		.word	1073877001
 481              		.cfi_endproc
ARM GAS  /var/folders/yt/6z6x8bjn5sjf5fbb45bk5m4c0000gn/T//cc9V89R8.s 			page 22


 482              	.LFE41:
 483              		.size	RCC_ITConfig, .-RCC_ITConfig
 484              		.align	1
 485              		.global	RCC_USBCLKConfig
 486              		.thumb
 487              		.thumb_func
 488              		.type	RCC_USBCLKConfig, %function
 489              	RCC_USBCLKConfig:
 490              	.LFB42:
 714:Libraries/STM32F10x_StdPeriph_Driver/src/stm32f10x_rcc.c ****   }
 715:Libraries/STM32F10x_StdPeriph_Driver/src/stm32f10x_rcc.c **** }
 716:Libraries/STM32F10x_StdPeriph_Driver/src/stm32f10x_rcc.c **** 
 717:Libraries/STM32F10x_StdPeriph_Driver/src/stm32f10x_rcc.c **** #ifndef STM32F10X_CL
 718:Libraries/STM32F10x_StdPeriph_Driver/src/stm32f10x_rcc.c **** /**
 719:Libraries/STM32F10x_StdPeriph_Driver/src/stm32f10x_rcc.c ****   * @brief  Configures the USB clock (USBCLK).
 720:Libraries/STM32F10x_StdPeriph_Driver/src/stm32f10x_rcc.c ****   * @param  RCC_USBCLKSource: specifies the USB clock source. This clock is 
 721:Libraries/STM32F10x_StdPeriph_Driver/src/stm32f10x_rcc.c ****   *   derived from the PLL output.
 722:Libraries/STM32F10x_StdPeriph_Driver/src/stm32f10x_rcc.c ****   *   This parameter can be one of the following values:
 723:Libraries/STM32F10x_StdPeriph_Driver/src/stm32f10x_rcc.c ****   *     @arg RCC_USBCLKSource_PLLCLK_1Div5: PLL clock divided by 1,5 selected as USB 
 724:Libraries/STM32F10x_StdPeriph_Driver/src/stm32f10x_rcc.c ****   *                                     clock source
 725:Libraries/STM32F10x_StdPeriph_Driver/src/stm32f10x_rcc.c ****   *     @arg RCC_USBCLKSource_PLLCLK_Div1: PLL clock selected as USB clock source
 726:Libraries/STM32F10x_StdPeriph_Driver/src/stm32f10x_rcc.c ****   * @retval None
 727:Libraries/STM32F10x_StdPeriph_Driver/src/stm32f10x_rcc.c ****   */
 728:Libraries/STM32F10x_StdPeriph_Driver/src/stm32f10x_rcc.c **** void RCC_USBCLKConfig(uint32_t RCC_USBCLKSource)
 729:Libraries/STM32F10x_StdPeriph_Driver/src/stm32f10x_rcc.c **** {
 491              		.loc 1 729 0
 492              		.cfi_startproc
 493              		@ args = 0, pretend = 0, frame = 0
 494              		@ frame_needed = 0, uses_anonymous_args = 0
 495              		@ link register save eliminated.
 496              	.LVL32:
 730:Libraries/STM32F10x_StdPeriph_Driver/src/stm32f10x_rcc.c ****   /* Check the parameters */
 731:Libraries/STM32F10x_StdPeriph_Driver/src/stm32f10x_rcc.c ****   assert_param(IS_RCC_USBCLK_SOURCE(RCC_USBCLKSource));
 732:Libraries/STM32F10x_StdPeriph_Driver/src/stm32f10x_rcc.c **** 
 733:Libraries/STM32F10x_StdPeriph_Driver/src/stm32f10x_rcc.c ****   *(__IO uint32_t *) CFGR_USBPRE_BB = RCC_USBCLKSource;
 497              		.loc 1 733 0
 498 0130 014B     		ldr	r3, .L46	@ tmp111,
 499 0132 1860     		str	r0, [r3]	@ RCC_USBCLKSource, MEM[(volatile uint32_t *)1111621848B]
 500 0134 7047     		bx	lr	@
 501              	.L47:
 502 0136 00BF     		.align	2
 503              	.L46:
 504 0138 D8004242 		.word	1111621848
 505              		.cfi_endproc
 506              	.LFE42:
 507              		.size	RCC_USBCLKConfig, .-RCC_USBCLKConfig
 508              		.align	1
 509              		.global	RCC_ADCCLKConfig
 510              		.thumb
 511              		.thumb_func
 512              		.type	RCC_ADCCLKConfig, %function
 513              	RCC_ADCCLKConfig:
 514              	.LFB43:
 734:Libraries/STM32F10x_StdPeriph_Driver/src/stm32f10x_rcc.c **** }
 735:Libraries/STM32F10x_StdPeriph_Driver/src/stm32f10x_rcc.c **** #else
 736:Libraries/STM32F10x_StdPeriph_Driver/src/stm32f10x_rcc.c **** /**
 737:Libraries/STM32F10x_StdPeriph_Driver/src/stm32f10x_rcc.c ****   * @brief  Configures the USB OTG FS clock (OTGFSCLK).
ARM GAS  /var/folders/yt/6z6x8bjn5sjf5fbb45bk5m4c0000gn/T//cc9V89R8.s 			page 23


 738:Libraries/STM32F10x_StdPeriph_Driver/src/stm32f10x_rcc.c ****   *   This function applies only to STM32 Connectivity line devices.
 739:Libraries/STM32F10x_StdPeriph_Driver/src/stm32f10x_rcc.c ****   * @param  RCC_OTGFSCLKSource: specifies the USB OTG FS clock source.
 740:Libraries/STM32F10x_StdPeriph_Driver/src/stm32f10x_rcc.c ****   *   This clock is derived from the PLL output.
 741:Libraries/STM32F10x_StdPeriph_Driver/src/stm32f10x_rcc.c ****   *   This parameter can be one of the following values:
 742:Libraries/STM32F10x_StdPeriph_Driver/src/stm32f10x_rcc.c ****   *     @arg  RCC_OTGFSCLKSource_PLLVCO_Div3: PLL VCO clock divided by 2 selected as USB OTG FS clo
 743:Libraries/STM32F10x_StdPeriph_Driver/src/stm32f10x_rcc.c ****   *     @arg  RCC_OTGFSCLKSource_PLLVCO_Div2: PLL VCO clock divided by 2 selected as USB OTG FS clo
 744:Libraries/STM32F10x_StdPeriph_Driver/src/stm32f10x_rcc.c ****   * @retval None
 745:Libraries/STM32F10x_StdPeriph_Driver/src/stm32f10x_rcc.c ****   */
 746:Libraries/STM32F10x_StdPeriph_Driver/src/stm32f10x_rcc.c **** void RCC_OTGFSCLKConfig(uint32_t RCC_OTGFSCLKSource)
 747:Libraries/STM32F10x_StdPeriph_Driver/src/stm32f10x_rcc.c **** {
 748:Libraries/STM32F10x_StdPeriph_Driver/src/stm32f10x_rcc.c ****   /* Check the parameters */
 749:Libraries/STM32F10x_StdPeriph_Driver/src/stm32f10x_rcc.c ****   assert_param(IS_RCC_OTGFSCLK_SOURCE(RCC_OTGFSCLKSource));
 750:Libraries/STM32F10x_StdPeriph_Driver/src/stm32f10x_rcc.c **** 
 751:Libraries/STM32F10x_StdPeriph_Driver/src/stm32f10x_rcc.c ****   *(__IO uint32_t *) CFGR_OTGFSPRE_BB = RCC_OTGFSCLKSource;
 752:Libraries/STM32F10x_StdPeriph_Driver/src/stm32f10x_rcc.c **** }
 753:Libraries/STM32F10x_StdPeriph_Driver/src/stm32f10x_rcc.c **** #endif /* STM32F10X_CL */ 
 754:Libraries/STM32F10x_StdPeriph_Driver/src/stm32f10x_rcc.c **** 
 755:Libraries/STM32F10x_StdPeriph_Driver/src/stm32f10x_rcc.c **** /**
 756:Libraries/STM32F10x_StdPeriph_Driver/src/stm32f10x_rcc.c ****   * @brief  Configures the ADC clock (ADCCLK).
 757:Libraries/STM32F10x_StdPeriph_Driver/src/stm32f10x_rcc.c ****   * @param  RCC_PCLK2: defines the ADC clock divider. This clock is derived from 
 758:Libraries/STM32F10x_StdPeriph_Driver/src/stm32f10x_rcc.c ****   *   the APB2 clock (PCLK2).
 759:Libraries/STM32F10x_StdPeriph_Driver/src/stm32f10x_rcc.c ****   *   This parameter can be one of the following values:
 760:Libraries/STM32F10x_StdPeriph_Driver/src/stm32f10x_rcc.c ****   *     @arg RCC_PCLK2_Div2: ADC clock = PCLK2/2
 761:Libraries/STM32F10x_StdPeriph_Driver/src/stm32f10x_rcc.c ****   *     @arg RCC_PCLK2_Div4: ADC clock = PCLK2/4
 762:Libraries/STM32F10x_StdPeriph_Driver/src/stm32f10x_rcc.c ****   *     @arg RCC_PCLK2_Div6: ADC clock = PCLK2/6
 763:Libraries/STM32F10x_StdPeriph_Driver/src/stm32f10x_rcc.c ****   *     @arg RCC_PCLK2_Div8: ADC clock = PCLK2/8
 764:Libraries/STM32F10x_StdPeriph_Driver/src/stm32f10x_rcc.c ****   * @retval None
 765:Libraries/STM32F10x_StdPeriph_Driver/src/stm32f10x_rcc.c ****   */
 766:Libraries/STM32F10x_StdPeriph_Driver/src/stm32f10x_rcc.c **** void RCC_ADCCLKConfig(uint32_t RCC_PCLK2)
 767:Libraries/STM32F10x_StdPeriph_Driver/src/stm32f10x_rcc.c **** {
 515              		.loc 1 767 0
 516              		.cfi_startproc
 517              		@ args = 0, pretend = 0, frame = 0
 518              		@ frame_needed = 0, uses_anonymous_args = 0
 519              		@ link register save eliminated.
 520              	.LVL33:
 768:Libraries/STM32F10x_StdPeriph_Driver/src/stm32f10x_rcc.c ****   uint32_t tmpreg = 0;
 769:Libraries/STM32F10x_StdPeriph_Driver/src/stm32f10x_rcc.c ****   /* Check the parameters */
 770:Libraries/STM32F10x_StdPeriph_Driver/src/stm32f10x_rcc.c ****   assert_param(IS_RCC_ADCCLK(RCC_PCLK2));
 771:Libraries/STM32F10x_StdPeriph_Driver/src/stm32f10x_rcc.c ****   tmpreg = RCC->CFGR;
 521              		.loc 1 771 0
 522 013c 034A     		ldr	r2, .L49	@ tmp114,
 523 013e 5368     		ldr	r3, [r2, #4]	@ tmpreg, MEM[(struct RCC_TypeDef *)1073876992B].CFGR
 524              	.LVL34:
 772:Libraries/STM32F10x_StdPeriph_Driver/src/stm32f10x_rcc.c ****   /* Clear ADCPRE[1:0] bits */
 773:Libraries/STM32F10x_StdPeriph_Driver/src/stm32f10x_rcc.c ****   tmpreg &= CFGR_ADCPRE_Reset_Mask;
 525              		.loc 1 773 0
 526 0140 23F44043 		bic	r3, r3, #49152	@ tmpreg, tmpreg,
 527              	.LVL35:
 774:Libraries/STM32F10x_StdPeriph_Driver/src/stm32f10x_rcc.c ****   /* Set ADCPRE[1:0] bits according to RCC_PCLK2 value */
 775:Libraries/STM32F10x_StdPeriph_Driver/src/stm32f10x_rcc.c ****   tmpreg |= RCC_PCLK2;
 528              		.loc 1 775 0
 529 0144 1843     		orrs	r0, r0, r3	@, tmpreg, RCC_PCLK2, tmpreg
 530              	.LVL36:
 776:Libraries/STM32F10x_StdPeriph_Driver/src/stm32f10x_rcc.c ****   /* Store the new value */
 777:Libraries/STM32F10x_StdPeriph_Driver/src/stm32f10x_rcc.c ****   RCC->CFGR = tmpreg;
 531              		.loc 1 777 0
ARM GAS  /var/folders/yt/6z6x8bjn5sjf5fbb45bk5m4c0000gn/T//cc9V89R8.s 			page 24


 532 0146 5060     		str	r0, [r2, #4]	@ tmpreg, MEM[(struct RCC_TypeDef *)1073876992B].CFGR
 533 0148 7047     		bx	lr	@
 534              	.L50:
 535 014a 00BF     		.align	2
 536              	.L49:
 537 014c 00100240 		.word	1073876992
 538              		.cfi_endproc
 539              	.LFE43:
 540              		.size	RCC_ADCCLKConfig, .-RCC_ADCCLKConfig
 541              		.align	1
 542              		.global	RCC_LSEConfig
 543              		.thumb
 544              		.thumb_func
 545              		.type	RCC_LSEConfig, %function
 546              	RCC_LSEConfig:
 547              	.LFB44:
 778:Libraries/STM32F10x_StdPeriph_Driver/src/stm32f10x_rcc.c **** }
 779:Libraries/STM32F10x_StdPeriph_Driver/src/stm32f10x_rcc.c **** 
 780:Libraries/STM32F10x_StdPeriph_Driver/src/stm32f10x_rcc.c **** #ifdef STM32F10X_CL
 781:Libraries/STM32F10x_StdPeriph_Driver/src/stm32f10x_rcc.c **** /**
 782:Libraries/STM32F10x_StdPeriph_Driver/src/stm32f10x_rcc.c ****   * @brief  Configures the I2S2 clock source(I2S2CLK).
 783:Libraries/STM32F10x_StdPeriph_Driver/src/stm32f10x_rcc.c ****   * @note
 784:Libraries/STM32F10x_StdPeriph_Driver/src/stm32f10x_rcc.c ****   *   - This function must be called before enabling I2S2 APB clock.
 785:Libraries/STM32F10x_StdPeriph_Driver/src/stm32f10x_rcc.c ****   *   - This function applies only to STM32 Connectivity line devices.
 786:Libraries/STM32F10x_StdPeriph_Driver/src/stm32f10x_rcc.c ****   * @param  RCC_I2S2CLKSource: specifies the I2S2 clock source.
 787:Libraries/STM32F10x_StdPeriph_Driver/src/stm32f10x_rcc.c ****   *   This parameter can be one of the following values:
 788:Libraries/STM32F10x_StdPeriph_Driver/src/stm32f10x_rcc.c ****   *     @arg RCC_I2S2CLKSource_SYSCLK: system clock selected as I2S2 clock entry
 789:Libraries/STM32F10x_StdPeriph_Driver/src/stm32f10x_rcc.c ****   *     @arg RCC_I2S2CLKSource_PLL3_VCO: PLL3 VCO clock selected as I2S2 clock entry
 790:Libraries/STM32F10x_StdPeriph_Driver/src/stm32f10x_rcc.c ****   * @retval None
 791:Libraries/STM32F10x_StdPeriph_Driver/src/stm32f10x_rcc.c ****   */
 792:Libraries/STM32F10x_StdPeriph_Driver/src/stm32f10x_rcc.c **** void RCC_I2S2CLKConfig(uint32_t RCC_I2S2CLKSource)
 793:Libraries/STM32F10x_StdPeriph_Driver/src/stm32f10x_rcc.c **** {
 794:Libraries/STM32F10x_StdPeriph_Driver/src/stm32f10x_rcc.c ****   /* Check the parameters */
 795:Libraries/STM32F10x_StdPeriph_Driver/src/stm32f10x_rcc.c ****   assert_param(IS_RCC_I2S2CLK_SOURCE(RCC_I2S2CLKSource));
 796:Libraries/STM32F10x_StdPeriph_Driver/src/stm32f10x_rcc.c **** 
 797:Libraries/STM32F10x_StdPeriph_Driver/src/stm32f10x_rcc.c ****   *(__IO uint32_t *) CFGR2_I2S2SRC_BB = RCC_I2S2CLKSource;
 798:Libraries/STM32F10x_StdPeriph_Driver/src/stm32f10x_rcc.c **** }
 799:Libraries/STM32F10x_StdPeriph_Driver/src/stm32f10x_rcc.c **** 
 800:Libraries/STM32F10x_StdPeriph_Driver/src/stm32f10x_rcc.c **** /**
 801:Libraries/STM32F10x_StdPeriph_Driver/src/stm32f10x_rcc.c ****   * @brief  Configures the I2S3 clock source(I2S2CLK).
 802:Libraries/STM32F10x_StdPeriph_Driver/src/stm32f10x_rcc.c ****   * @note
 803:Libraries/STM32F10x_StdPeriph_Driver/src/stm32f10x_rcc.c ****   *   - This function must be called before enabling I2S3 APB clock.
 804:Libraries/STM32F10x_StdPeriph_Driver/src/stm32f10x_rcc.c ****   *   - This function applies only to STM32 Connectivity line devices.
 805:Libraries/STM32F10x_StdPeriph_Driver/src/stm32f10x_rcc.c ****   * @param  RCC_I2S3CLKSource: specifies the I2S3 clock source.
 806:Libraries/STM32F10x_StdPeriph_Driver/src/stm32f10x_rcc.c ****   *   This parameter can be one of the following values:
 807:Libraries/STM32F10x_StdPeriph_Driver/src/stm32f10x_rcc.c ****   *     @arg RCC_I2S3CLKSource_SYSCLK: system clock selected as I2S3 clock entry
 808:Libraries/STM32F10x_StdPeriph_Driver/src/stm32f10x_rcc.c ****   *     @arg RCC_I2S3CLKSource_PLL3_VCO: PLL3 VCO clock selected as I2S3 clock entry
 809:Libraries/STM32F10x_StdPeriph_Driver/src/stm32f10x_rcc.c ****   * @retval None
 810:Libraries/STM32F10x_StdPeriph_Driver/src/stm32f10x_rcc.c ****   */
 811:Libraries/STM32F10x_StdPeriph_Driver/src/stm32f10x_rcc.c **** void RCC_I2S3CLKConfig(uint32_t RCC_I2S3CLKSource)
 812:Libraries/STM32F10x_StdPeriph_Driver/src/stm32f10x_rcc.c **** {
 813:Libraries/STM32F10x_StdPeriph_Driver/src/stm32f10x_rcc.c ****   /* Check the parameters */
 814:Libraries/STM32F10x_StdPeriph_Driver/src/stm32f10x_rcc.c ****   assert_param(IS_RCC_I2S3CLK_SOURCE(RCC_I2S3CLKSource));
 815:Libraries/STM32F10x_StdPeriph_Driver/src/stm32f10x_rcc.c **** 
 816:Libraries/STM32F10x_StdPeriph_Driver/src/stm32f10x_rcc.c ****   *(__IO uint32_t *) CFGR2_I2S3SRC_BB = RCC_I2S3CLKSource;
 817:Libraries/STM32F10x_StdPeriph_Driver/src/stm32f10x_rcc.c **** }
 818:Libraries/STM32F10x_StdPeriph_Driver/src/stm32f10x_rcc.c **** #endif /* STM32F10X_CL */
ARM GAS  /var/folders/yt/6z6x8bjn5sjf5fbb45bk5m4c0000gn/T//cc9V89R8.s 			page 25


 819:Libraries/STM32F10x_StdPeriph_Driver/src/stm32f10x_rcc.c **** 
 820:Libraries/STM32F10x_StdPeriph_Driver/src/stm32f10x_rcc.c **** /**
 821:Libraries/STM32F10x_StdPeriph_Driver/src/stm32f10x_rcc.c ****   * @brief  Configures the External Low Speed oscillator (LSE).
 822:Libraries/STM32F10x_StdPeriph_Driver/src/stm32f10x_rcc.c ****   * @param  RCC_LSE: specifies the new state of the LSE.
 823:Libraries/STM32F10x_StdPeriph_Driver/src/stm32f10x_rcc.c ****   *   This parameter can be one of the following values:
 824:Libraries/STM32F10x_StdPeriph_Driver/src/stm32f10x_rcc.c ****   *     @arg RCC_LSE_OFF: LSE oscillator OFF
 825:Libraries/STM32F10x_StdPeriph_Driver/src/stm32f10x_rcc.c ****   *     @arg RCC_LSE_ON: LSE oscillator ON
 826:Libraries/STM32F10x_StdPeriph_Driver/src/stm32f10x_rcc.c ****   *     @arg RCC_LSE_Bypass: LSE oscillator bypassed with external clock
 827:Libraries/STM32F10x_StdPeriph_Driver/src/stm32f10x_rcc.c ****   * @retval None
 828:Libraries/STM32F10x_StdPeriph_Driver/src/stm32f10x_rcc.c ****   */
 829:Libraries/STM32F10x_StdPeriph_Driver/src/stm32f10x_rcc.c **** void RCC_LSEConfig(uint8_t RCC_LSE)
 830:Libraries/STM32F10x_StdPeriph_Driver/src/stm32f10x_rcc.c **** {
 548              		.loc 1 830 0
 549              		.cfi_startproc
 550              		@ args = 0, pretend = 0, frame = 0
 551              		@ frame_needed = 0, uses_anonymous_args = 0
 552              		@ link register save eliminated.
 553              	.LVL37:
 831:Libraries/STM32F10x_StdPeriph_Driver/src/stm32f10x_rcc.c ****   /* Check the parameters */
 832:Libraries/STM32F10x_StdPeriph_Driver/src/stm32f10x_rcc.c ****   assert_param(IS_RCC_LSE(RCC_LSE));
 833:Libraries/STM32F10x_StdPeriph_Driver/src/stm32f10x_rcc.c ****   /* Reset LSEON and LSEBYP bits before configuring the LSE ------------------*/
 834:Libraries/STM32F10x_StdPeriph_Driver/src/stm32f10x_rcc.c ****   /* Reset LSEON bit */
 835:Libraries/STM32F10x_StdPeriph_Driver/src/stm32f10x_rcc.c ****   *(__IO uint8_t *) BDCR_ADDRESS = RCC_LSE_OFF;
 554              		.loc 1 835 0
 555 0150 064B     		ldr	r3, .L55	@ tmp111,
 556 0152 0022     		movs	r2, #0	@ tmp112,
 836:Libraries/STM32F10x_StdPeriph_Driver/src/stm32f10x_rcc.c ****   /* Reset LSEBYP bit */
 837:Libraries/STM32F10x_StdPeriph_Driver/src/stm32f10x_rcc.c ****   *(__IO uint8_t *) BDCR_ADDRESS = RCC_LSE_OFF;
 838:Libraries/STM32F10x_StdPeriph_Driver/src/stm32f10x_rcc.c ****   /* Configure LSE (RCC_LSE_OFF is already covered by the code section above) */
 839:Libraries/STM32F10x_StdPeriph_Driver/src/stm32f10x_rcc.c ****   switch(RCC_LSE)
 557              		.loc 1 839 0
 558 0154 0128     		cmp	r0, #1	@ RCC_LSE,
 835:Libraries/STM32F10x_StdPeriph_Driver/src/stm32f10x_rcc.c ****   /* Reset LSEBYP bit */
 559              		.loc 1 835 0
 560 0156 1A70     		strb	r2, [r3]	@ tmp112, MEM[(volatile uint8_t *)1073877024B]
 837:Libraries/STM32F10x_StdPeriph_Driver/src/stm32f10x_rcc.c ****   /* Configure LSE (RCC_LSE_OFF is already covered by the code section above) */
 561              		.loc 1 837 0
 562 0158 1A70     		strb	r2, [r3]	@ tmp112, MEM[(volatile uint8_t *)1073877024B]
 563              		.loc 1 839 0
 564 015a 02D0     		beq	.L53	@,
 565 015c 0428     		cmp	r0, #4	@ RCC_LSE,
 566 015e 02D0     		beq	.L54	@,
 567 0160 7047     		bx	lr	@
 568              	.L53:
 840:Libraries/STM32F10x_StdPeriph_Driver/src/stm32f10x_rcc.c ****   {
 841:Libraries/STM32F10x_StdPeriph_Driver/src/stm32f10x_rcc.c ****     case RCC_LSE_ON:
 842:Libraries/STM32F10x_StdPeriph_Driver/src/stm32f10x_rcc.c ****       /* Set LSEON bit */
 843:Libraries/STM32F10x_StdPeriph_Driver/src/stm32f10x_rcc.c ****       *(__IO uint8_t *) BDCR_ADDRESS = RCC_LSE_ON;
 569              		.loc 1 843 0
 570 0162 1870     		strb	r0, [r3]	@ RCC_LSE, MEM[(volatile uint8_t *)1073877024B]
 844:Libraries/STM32F10x_StdPeriph_Driver/src/stm32f10x_rcc.c ****       break;
 571              		.loc 1 844 0
 572 0164 7047     		bx	lr	@
 573              	.L54:
 845:Libraries/STM32F10x_StdPeriph_Driver/src/stm32f10x_rcc.c ****       
 846:Libraries/STM32F10x_StdPeriph_Driver/src/stm32f10x_rcc.c ****     case RCC_LSE_Bypass:
 847:Libraries/STM32F10x_StdPeriph_Driver/src/stm32f10x_rcc.c ****       /* Set LSEBYP and LSEON bits */
ARM GAS  /var/folders/yt/6z6x8bjn5sjf5fbb45bk5m4c0000gn/T//cc9V89R8.s 			page 26


 848:Libraries/STM32F10x_StdPeriph_Driver/src/stm32f10x_rcc.c ****       *(__IO uint8_t *) BDCR_ADDRESS = RCC_LSE_Bypass | RCC_LSE_ON;
 574              		.loc 1 848 0
 575 0166 0522     		movs	r2, #5	@ tmp121,
 576 0168 1A70     		strb	r2, [r3]	@ tmp121, MEM[(volatile uint8_t *)1073877024B]
 577 016a 7047     		bx	lr	@
 578              	.L56:
 579              		.align	2
 580              	.L55:
 581 016c 20100240 		.word	1073877024
 582              		.cfi_endproc
 583              	.LFE44:
 584              		.size	RCC_LSEConfig, .-RCC_LSEConfig
 585              		.align	1
 586              		.global	RCC_LSICmd
 587              		.thumb
 588              		.thumb_func
 589              		.type	RCC_LSICmd, %function
 590              	RCC_LSICmd:
 591              	.LFB45:
 849:Libraries/STM32F10x_StdPeriph_Driver/src/stm32f10x_rcc.c ****       break;            
 850:Libraries/STM32F10x_StdPeriph_Driver/src/stm32f10x_rcc.c ****       
 851:Libraries/STM32F10x_StdPeriph_Driver/src/stm32f10x_rcc.c ****     default:
 852:Libraries/STM32F10x_StdPeriph_Driver/src/stm32f10x_rcc.c ****       break;      
 853:Libraries/STM32F10x_StdPeriph_Driver/src/stm32f10x_rcc.c ****   }
 854:Libraries/STM32F10x_StdPeriph_Driver/src/stm32f10x_rcc.c **** }
 855:Libraries/STM32F10x_StdPeriph_Driver/src/stm32f10x_rcc.c **** 
 856:Libraries/STM32F10x_StdPeriph_Driver/src/stm32f10x_rcc.c **** /**
 857:Libraries/STM32F10x_StdPeriph_Driver/src/stm32f10x_rcc.c ****   * @brief  Enables or disables the Internal Low Speed oscillator (LSI).
 858:Libraries/STM32F10x_StdPeriph_Driver/src/stm32f10x_rcc.c ****   * @note   LSI can not be disabled if the IWDG is running.
 859:Libraries/STM32F10x_StdPeriph_Driver/src/stm32f10x_rcc.c ****   * @param  NewState: new state of the LSI. This parameter can be: ENABLE or DISABLE.
 860:Libraries/STM32F10x_StdPeriph_Driver/src/stm32f10x_rcc.c ****   * @retval None
 861:Libraries/STM32F10x_StdPeriph_Driver/src/stm32f10x_rcc.c ****   */
 862:Libraries/STM32F10x_StdPeriph_Driver/src/stm32f10x_rcc.c **** void RCC_LSICmd(FunctionalState NewState)
 863:Libraries/STM32F10x_StdPeriph_Driver/src/stm32f10x_rcc.c **** {
 592              		.loc 1 863 0
 593              		.cfi_startproc
 594              		@ args = 0, pretend = 0, frame = 0
 595              		@ frame_needed = 0, uses_anonymous_args = 0
 596              		@ link register save eliminated.
 597              	.LVL38:
 864:Libraries/STM32F10x_StdPeriph_Driver/src/stm32f10x_rcc.c ****   /* Check the parameters */
 865:Libraries/STM32F10x_StdPeriph_Driver/src/stm32f10x_rcc.c ****   assert_param(IS_FUNCTIONAL_STATE(NewState));
 866:Libraries/STM32F10x_StdPeriph_Driver/src/stm32f10x_rcc.c ****   *(__IO uint32_t *) CSR_LSION_BB = (uint32_t)NewState;
 598              		.loc 1 866 0
 599 0170 014B     		ldr	r3, .L58	@ tmp112,
 600 0172 1860     		str	r0, [r3]	@ NewState, MEM[(volatile uint32_t *)1111622784B]
 601 0174 7047     		bx	lr	@
 602              	.L59:
 603 0176 00BF     		.align	2
 604              	.L58:
 605 0178 80044242 		.word	1111622784
 606              		.cfi_endproc
 607              	.LFE45:
 608              		.size	RCC_LSICmd, .-RCC_LSICmd
 609              		.align	1
 610              		.global	RCC_RTCCLKConfig
 611              		.thumb
ARM GAS  /var/folders/yt/6z6x8bjn5sjf5fbb45bk5m4c0000gn/T//cc9V89R8.s 			page 27


 612              		.thumb_func
 613              		.type	RCC_RTCCLKConfig, %function
 614              	RCC_RTCCLKConfig:
 615              	.LFB46:
 867:Libraries/STM32F10x_StdPeriph_Driver/src/stm32f10x_rcc.c **** }
 868:Libraries/STM32F10x_StdPeriph_Driver/src/stm32f10x_rcc.c **** 
 869:Libraries/STM32F10x_StdPeriph_Driver/src/stm32f10x_rcc.c **** /**
 870:Libraries/STM32F10x_StdPeriph_Driver/src/stm32f10x_rcc.c ****   * @brief  Configures the RTC clock (RTCCLK).
 871:Libraries/STM32F10x_StdPeriph_Driver/src/stm32f10x_rcc.c ****   * @note   Once the RTC clock is selected it can't be changed unless the Backup domain is reset.
 872:Libraries/STM32F10x_StdPeriph_Driver/src/stm32f10x_rcc.c ****   * @param  RCC_RTCCLKSource: specifies the RTC clock source.
 873:Libraries/STM32F10x_StdPeriph_Driver/src/stm32f10x_rcc.c ****   *   This parameter can be one of the following values:
 874:Libraries/STM32F10x_StdPeriph_Driver/src/stm32f10x_rcc.c ****   *     @arg RCC_RTCCLKSource_LSE: LSE selected as RTC clock
 875:Libraries/STM32F10x_StdPeriph_Driver/src/stm32f10x_rcc.c ****   *     @arg RCC_RTCCLKSource_LSI: LSI selected as RTC clock
 876:Libraries/STM32F10x_StdPeriph_Driver/src/stm32f10x_rcc.c ****   *     @arg RCC_RTCCLKSource_HSE_Div128: HSE clock divided by 128 selected as RTC clock
 877:Libraries/STM32F10x_StdPeriph_Driver/src/stm32f10x_rcc.c ****   * @retval None
 878:Libraries/STM32F10x_StdPeriph_Driver/src/stm32f10x_rcc.c ****   */
 879:Libraries/STM32F10x_StdPeriph_Driver/src/stm32f10x_rcc.c **** void RCC_RTCCLKConfig(uint32_t RCC_RTCCLKSource)
 880:Libraries/STM32F10x_StdPeriph_Driver/src/stm32f10x_rcc.c **** {
 616              		.loc 1 880 0
 617              		.cfi_startproc
 618              		@ args = 0, pretend = 0, frame = 0
 619              		@ frame_needed = 0, uses_anonymous_args = 0
 620              		@ link register save eliminated.
 621              	.LVL39:
 881:Libraries/STM32F10x_StdPeriph_Driver/src/stm32f10x_rcc.c ****   /* Check the parameters */
 882:Libraries/STM32F10x_StdPeriph_Driver/src/stm32f10x_rcc.c ****   assert_param(IS_RCC_RTCCLK_SOURCE(RCC_RTCCLKSource));
 883:Libraries/STM32F10x_StdPeriph_Driver/src/stm32f10x_rcc.c ****   /* Select the RTC clock source */
 884:Libraries/STM32F10x_StdPeriph_Driver/src/stm32f10x_rcc.c ****   RCC->BDCR |= RCC_RTCCLKSource;
 622              		.loc 1 884 0
 623 017c 024A     		ldr	r2, .L61	@ tmp113,
 624 017e 136A     		ldr	r3, [r2, #32]	@ D.5899, MEM[(struct RCC_TypeDef *)1073876992B].BDCR
 625 0180 1843     		orrs	r0, r0, r3	@, D.5899, RCC_RTCCLKSource, D.5899
 626              	.LVL40:
 627 0182 1062     		str	r0, [r2, #32]	@ D.5899, MEM[(struct RCC_TypeDef *)1073876992B].BDCR
 628 0184 7047     		bx	lr	@
 629              	.L62:
 630 0186 00BF     		.align	2
 631              	.L61:
 632 0188 00100240 		.word	1073876992
 633              		.cfi_endproc
 634              	.LFE46:
 635              		.size	RCC_RTCCLKConfig, .-RCC_RTCCLKConfig
 636              		.align	1
 637              		.global	RCC_RTCCLKCmd
 638              		.thumb
 639              		.thumb_func
 640              		.type	RCC_RTCCLKCmd, %function
 641              	RCC_RTCCLKCmd:
 642              	.LFB47:
 885:Libraries/STM32F10x_StdPeriph_Driver/src/stm32f10x_rcc.c **** }
 886:Libraries/STM32F10x_StdPeriph_Driver/src/stm32f10x_rcc.c **** 
 887:Libraries/STM32F10x_StdPeriph_Driver/src/stm32f10x_rcc.c **** /**
 888:Libraries/STM32F10x_StdPeriph_Driver/src/stm32f10x_rcc.c ****   * @brief  Enables or disables the RTC clock.
 889:Libraries/STM32F10x_StdPeriph_Driver/src/stm32f10x_rcc.c ****   * @note   This function must be used only after the RTC clock was selected using the RCC_RTCCLKCo
 890:Libraries/STM32F10x_StdPeriph_Driver/src/stm32f10x_rcc.c ****   * @param  NewState: new state of the RTC clock. This parameter can be: ENABLE or DISABLE.
 891:Libraries/STM32F10x_StdPeriph_Driver/src/stm32f10x_rcc.c ****   * @retval None
 892:Libraries/STM32F10x_StdPeriph_Driver/src/stm32f10x_rcc.c ****   */
ARM GAS  /var/folders/yt/6z6x8bjn5sjf5fbb45bk5m4c0000gn/T//cc9V89R8.s 			page 28


 893:Libraries/STM32F10x_StdPeriph_Driver/src/stm32f10x_rcc.c **** void RCC_RTCCLKCmd(FunctionalState NewState)
 894:Libraries/STM32F10x_StdPeriph_Driver/src/stm32f10x_rcc.c **** {
 643              		.loc 1 894 0
 644              		.cfi_startproc
 645              		@ args = 0, pretend = 0, frame = 0
 646              		@ frame_needed = 0, uses_anonymous_args = 0
 647              		@ link register save eliminated.
 648              	.LVL41:
 895:Libraries/STM32F10x_StdPeriph_Driver/src/stm32f10x_rcc.c ****   /* Check the parameters */
 896:Libraries/STM32F10x_StdPeriph_Driver/src/stm32f10x_rcc.c ****   assert_param(IS_FUNCTIONAL_STATE(NewState));
 897:Libraries/STM32F10x_StdPeriph_Driver/src/stm32f10x_rcc.c ****   *(__IO uint32_t *) BDCR_RTCEN_BB = (uint32_t)NewState;
 649              		.loc 1 897 0
 650 018c 014B     		ldr	r3, .L64	@ tmp112,
 651 018e 1860     		str	r0, [r3]	@ NewState, MEM[(volatile uint32_t *)1111622716B]
 652 0190 7047     		bx	lr	@
 653              	.L65:
 654 0192 00BF     		.align	2
 655              	.L64:
 656 0194 3C044242 		.word	1111622716
 657              		.cfi_endproc
 658              	.LFE47:
 659              		.size	RCC_RTCCLKCmd, .-RCC_RTCCLKCmd
 660              		.align	1
 661              		.global	RCC_GetClocksFreq
 662              		.thumb
 663              		.thumb_func
 664              		.type	RCC_GetClocksFreq, %function
 665              	RCC_GetClocksFreq:
 666              	.LFB48:
 898:Libraries/STM32F10x_StdPeriph_Driver/src/stm32f10x_rcc.c **** }
 899:Libraries/STM32F10x_StdPeriph_Driver/src/stm32f10x_rcc.c **** 
 900:Libraries/STM32F10x_StdPeriph_Driver/src/stm32f10x_rcc.c **** /**
 901:Libraries/STM32F10x_StdPeriph_Driver/src/stm32f10x_rcc.c ****   * @brief  Returns the frequencies of different on chip clocks.
 902:Libraries/STM32F10x_StdPeriph_Driver/src/stm32f10x_rcc.c ****   * @param  RCC_Clocks: pointer to a RCC_ClocksTypeDef structure which will hold
 903:Libraries/STM32F10x_StdPeriph_Driver/src/stm32f10x_rcc.c ****   *         the clocks frequencies.
 904:Libraries/STM32F10x_StdPeriph_Driver/src/stm32f10x_rcc.c ****   * @note   The result of this function could be not correct when using 
 905:Libraries/STM32F10x_StdPeriph_Driver/src/stm32f10x_rcc.c ****   *         fractional value for HSE crystal.  
 906:Libraries/STM32F10x_StdPeriph_Driver/src/stm32f10x_rcc.c ****   * @retval None
 907:Libraries/STM32F10x_StdPeriph_Driver/src/stm32f10x_rcc.c ****   */
 908:Libraries/STM32F10x_StdPeriph_Driver/src/stm32f10x_rcc.c **** void RCC_GetClocksFreq(RCC_ClocksTypeDef* RCC_Clocks)
 909:Libraries/STM32F10x_StdPeriph_Driver/src/stm32f10x_rcc.c **** {
 667              		.loc 1 909 0
 668              		.cfi_startproc
 669              		@ args = 0, pretend = 0, frame = 0
 670              		@ frame_needed = 0, uses_anonymous_args = 0
 671              	.LVL42:
 910:Libraries/STM32F10x_StdPeriph_Driver/src/stm32f10x_rcc.c ****   uint32_t tmp = 0, pllmull = 0, pllsource = 0, presc = 0;
 911:Libraries/STM32F10x_StdPeriph_Driver/src/stm32f10x_rcc.c **** 
 912:Libraries/STM32F10x_StdPeriph_Driver/src/stm32f10x_rcc.c **** #ifdef  STM32F10X_CL
 913:Libraries/STM32F10x_StdPeriph_Driver/src/stm32f10x_rcc.c ****   uint32_t prediv1source = 0, prediv1factor = 0, prediv2factor = 0, pll2mull = 0;
 914:Libraries/STM32F10x_StdPeriph_Driver/src/stm32f10x_rcc.c **** #endif /* STM32F10X_CL */
 915:Libraries/STM32F10x_StdPeriph_Driver/src/stm32f10x_rcc.c **** 
 916:Libraries/STM32F10x_StdPeriph_Driver/src/stm32f10x_rcc.c **** #if defined (STM32F10X_LD_VL) || defined (STM32F10X_MD_VL) || defined (STM32F10X_HD_VL)
 917:Libraries/STM32F10x_StdPeriph_Driver/src/stm32f10x_rcc.c ****   uint32_t prediv1factor = 0;
 918:Libraries/STM32F10x_StdPeriph_Driver/src/stm32f10x_rcc.c **** #endif
 919:Libraries/STM32F10x_StdPeriph_Driver/src/stm32f10x_rcc.c ****     
 920:Libraries/STM32F10x_StdPeriph_Driver/src/stm32f10x_rcc.c ****   /* Get SYSCLK source -------------------------------------------------------*/
ARM GAS  /var/folders/yt/6z6x8bjn5sjf5fbb45bk5m4c0000gn/T//cc9V89R8.s 			page 29


 921:Libraries/STM32F10x_StdPeriph_Driver/src/stm32f10x_rcc.c ****   tmp = RCC->CFGR & CFGR_SWS_Mask;
 672              		.loc 1 921 0
 673 0198 1C4A     		ldr	r2, .L77	@ tmp149,
 909:Libraries/STM32F10x_StdPeriph_Driver/src/stm32f10x_rcc.c ****   uint32_t tmp = 0, pllmull = 0, pllsource = 0, presc = 0;
 674              		.loc 1 909 0
 675 019a 10B5     		push	{r4, lr}	@
 676              	.LCFI0:
 677              		.cfi_def_cfa_offset 8
 678              		.cfi_offset 4, -8
 679              		.cfi_offset 14, -4
 680              		.loc 1 921 0
 681 019c 5368     		ldr	r3, [r2, #4]	@ D.5905, MEM[(struct RCC_TypeDef *)1073876992B].CFGR
 682              	.LVL43:
 683 019e 03F00C03 		and	r3, r3, #12	@ tmp, D.5905,
 684              	.LVL44:
 922:Libraries/STM32F10x_StdPeriph_Driver/src/stm32f10x_rcc.c ****   
 923:Libraries/STM32F10x_StdPeriph_Driver/src/stm32f10x_rcc.c ****   switch (tmp)
 685              		.loc 1 923 0
 686 01a2 042B     		cmp	r3, #4	@ tmp,
 687 01a4 01D0     		beq	.L68	@,
 688 01a6 082B     		cmp	r3, #8	@ tmp,
 689 01a8 01D0     		beq	.L69	@,
 690              	.L68:
 924:Libraries/STM32F10x_StdPeriph_Driver/src/stm32f10x_rcc.c ****   {
 925:Libraries/STM32F10x_StdPeriph_Driver/src/stm32f10x_rcc.c ****     case 0x00:  /* HSI used as system clock */
 926:Libraries/STM32F10x_StdPeriph_Driver/src/stm32f10x_rcc.c ****       RCC_Clocks->SYSCLK_Frequency = HSI_VALUE;
 927:Libraries/STM32F10x_StdPeriph_Driver/src/stm32f10x_rcc.c ****       break;
 928:Libraries/STM32F10x_StdPeriph_Driver/src/stm32f10x_rcc.c ****     case 0x04:  /* HSE used as system clock */
 929:Libraries/STM32F10x_StdPeriph_Driver/src/stm32f10x_rcc.c ****       RCC_Clocks->SYSCLK_Frequency = HSE_VALUE;
 691              		.loc 1 929 0
 692 01aa 194B     		ldr	r3, .L77+4	@ tmp152,
 693              	.LVL45:
 694 01ac 0EE0     		b	.L74	@
 695              	.LVL46:
 696              	.L69:
 930:Libraries/STM32F10x_StdPeriph_Driver/src/stm32f10x_rcc.c ****       break;
 931:Libraries/STM32F10x_StdPeriph_Driver/src/stm32f10x_rcc.c ****     case 0x08:  /* PLL used as system clock */
 932:Libraries/STM32F10x_StdPeriph_Driver/src/stm32f10x_rcc.c **** 
 933:Libraries/STM32F10x_StdPeriph_Driver/src/stm32f10x_rcc.c ****       /* Get PLL clock source and multiplication factor ----------------------*/
 934:Libraries/STM32F10x_StdPeriph_Driver/src/stm32f10x_rcc.c ****       pllmull = RCC->CFGR & CFGR_PLLMull_Mask;
 697              		.loc 1 934 0
 698 01ae 5368     		ldr	r3, [r2, #4]	@ D.5905, MEM[(struct RCC_TypeDef *)1073876992B].CFGR
 699              	.LVL47:
 935:Libraries/STM32F10x_StdPeriph_Driver/src/stm32f10x_rcc.c ****       pllsource = RCC->CFGR & CFGR_PLLSRC_Mask;
 700              		.loc 1 935 0
 701 01b0 5168     		ldr	r1, [r2, #4]	@ D.5905, MEM[(struct RCC_TypeDef *)1073876992B].CFGR
 702              	.LVL48:
 936:Libraries/STM32F10x_StdPeriph_Driver/src/stm32f10x_rcc.c ****       
 937:Libraries/STM32F10x_StdPeriph_Driver/src/stm32f10x_rcc.c **** #ifndef STM32F10X_CL      
 938:Libraries/STM32F10x_StdPeriph_Driver/src/stm32f10x_rcc.c ****       pllmull = ( pllmull >> 18) + 2;
 703              		.loc 1 938 0
 704 01b2 C3F38343 		ubfx	r3, r3, #18, #4	@ D.5905, D.5905,,
 705              	.LVL49:
 939:Libraries/STM32F10x_StdPeriph_Driver/src/stm32f10x_rcc.c ****       
 940:Libraries/STM32F10x_StdPeriph_Driver/src/stm32f10x_rcc.c ****       if (pllsource == 0x00)
 706              		.loc 1 940 0
 707 01b6 CC03     		lsls	r4, r1, #15	@, D.5905,
ARM GAS  /var/folders/yt/6z6x8bjn5sjf5fbb45bk5m4c0000gn/T//cc9V89R8.s 			page 30


 938:Libraries/STM32F10x_StdPeriph_Driver/src/stm32f10x_rcc.c ****       
 708              		.loc 1 938 0
 709 01b8 03F10203 		add	r3, r3, #2	@ pllmull, D.5905,
 710              	.LVL50:
 711              		.loc 1 940 0
 712 01bc 02D5     		bpl	.L76	@,
 941:Libraries/STM32F10x_StdPeriph_Driver/src/stm32f10x_rcc.c ****       {/* HSI oscillator clock divided by 2 selected as PLL clock entry */
 942:Libraries/STM32F10x_StdPeriph_Driver/src/stm32f10x_rcc.c ****         RCC_Clocks->SYSCLK_Frequency = (HSI_VALUE >> 1) * pllmull;
 943:Libraries/STM32F10x_StdPeriph_Driver/src/stm32f10x_rcc.c ****       }
 944:Libraries/STM32F10x_StdPeriph_Driver/src/stm32f10x_rcc.c ****       else
 945:Libraries/STM32F10x_StdPeriph_Driver/src/stm32f10x_rcc.c ****       {
 946:Libraries/STM32F10x_StdPeriph_Driver/src/stm32f10x_rcc.c ****  #if defined (STM32F10X_LD_VL) || defined (STM32F10X_MD_VL) || defined (STM32F10X_HD_VL)
 947:Libraries/STM32F10x_StdPeriph_Driver/src/stm32f10x_rcc.c ****        prediv1factor = (RCC->CFGR2 & CFGR2_PREDIV1) + 1;
 948:Libraries/STM32F10x_StdPeriph_Driver/src/stm32f10x_rcc.c ****        /* HSE oscillator clock selected as PREDIV1 clock entry */
 949:Libraries/STM32F10x_StdPeriph_Driver/src/stm32f10x_rcc.c ****        RCC_Clocks->SYSCLK_Frequency = (HSE_VALUE / prediv1factor) * pllmull; 
 950:Libraries/STM32F10x_StdPeriph_Driver/src/stm32f10x_rcc.c ****  #else
 951:Libraries/STM32F10x_StdPeriph_Driver/src/stm32f10x_rcc.c ****         /* HSE selected as PLL clock entry */
 952:Libraries/STM32F10x_StdPeriph_Driver/src/stm32f10x_rcc.c ****         if ((RCC->CFGR & CFGR_PLLXTPRE_Mask) != (uint32_t)RESET)
 713              		.loc 1 952 0
 714 01be 5168     		ldr	r1, [r2, #4]	@ D.5905, MEM[(struct RCC_TypeDef *)1073876992B].CFGR
 715              	.LVL51:
 716 01c0 8903     		lsls	r1, r1, #14	@, D.5905,
 717 01c2 01D5     		bpl	.L73	@,
 718              	.L76:
 953:Libraries/STM32F10x_StdPeriph_Driver/src/stm32f10x_rcc.c ****         {/* HSE oscillator clock divided by 2 */
 954:Libraries/STM32F10x_StdPeriph_Driver/src/stm32f10x_rcc.c ****           RCC_Clocks->SYSCLK_Frequency = (HSE_VALUE >> 1) * pllmull;
 719              		.loc 1 954 0
 720 01c4 1349     		ldr	r1, .L77+8	@ tmp162,
 721 01c6 00E0     		b	.L75	@
 722              	.L73:
 955:Libraries/STM32F10x_StdPeriph_Driver/src/stm32f10x_rcc.c ****         }
 956:Libraries/STM32F10x_StdPeriph_Driver/src/stm32f10x_rcc.c ****         else
 957:Libraries/STM32F10x_StdPeriph_Driver/src/stm32f10x_rcc.c ****         {
 958:Libraries/STM32F10x_StdPeriph_Driver/src/stm32f10x_rcc.c ****           RCC_Clocks->SYSCLK_Frequency = HSE_VALUE * pllmull;
 723              		.loc 1 958 0
 724 01c8 1149     		ldr	r1, .L77+4	@ tmp164,
 725              	.L75:
 726 01ca 4B43     		muls	r3, r1, r3	@ D.5905, tmp164
 727              	.LVL52:
 728              	.L74:
 729 01cc 0360     		str	r3, [r0]	@ D.5905, RCC_Clocks_5(D)->SYSCLK_Frequency
 959:Libraries/STM32F10x_StdPeriph_Driver/src/stm32f10x_rcc.c ****         }
 960:Libraries/STM32F10x_StdPeriph_Driver/src/stm32f10x_rcc.c ****  #endif
 961:Libraries/STM32F10x_StdPeriph_Driver/src/stm32f10x_rcc.c ****       }
 962:Libraries/STM32F10x_StdPeriph_Driver/src/stm32f10x_rcc.c **** #else
 963:Libraries/STM32F10x_StdPeriph_Driver/src/stm32f10x_rcc.c ****       pllmull = pllmull >> 18;
 964:Libraries/STM32F10x_StdPeriph_Driver/src/stm32f10x_rcc.c ****       
 965:Libraries/STM32F10x_StdPeriph_Driver/src/stm32f10x_rcc.c ****       if (pllmull != 0x0D)
 966:Libraries/STM32F10x_StdPeriph_Driver/src/stm32f10x_rcc.c ****       {
 967:Libraries/STM32F10x_StdPeriph_Driver/src/stm32f10x_rcc.c ****          pllmull += 2;
 968:Libraries/STM32F10x_StdPeriph_Driver/src/stm32f10x_rcc.c ****       }
 969:Libraries/STM32F10x_StdPeriph_Driver/src/stm32f10x_rcc.c ****       else
 970:Libraries/STM32F10x_StdPeriph_Driver/src/stm32f10x_rcc.c ****       { /* PLL multiplication factor = PLL input clock * 6.5 */
 971:Libraries/STM32F10x_StdPeriph_Driver/src/stm32f10x_rcc.c ****         pllmull = 13 / 2; 
 972:Libraries/STM32F10x_StdPeriph_Driver/src/stm32f10x_rcc.c ****       }
 973:Libraries/STM32F10x_StdPeriph_Driver/src/stm32f10x_rcc.c ****             
 974:Libraries/STM32F10x_StdPeriph_Driver/src/stm32f10x_rcc.c ****       if (pllsource == 0x00)
ARM GAS  /var/folders/yt/6z6x8bjn5sjf5fbb45bk5m4c0000gn/T//cc9V89R8.s 			page 31


 975:Libraries/STM32F10x_StdPeriph_Driver/src/stm32f10x_rcc.c ****       {/* HSI oscillator clock divided by 2 selected as PLL clock entry */
 976:Libraries/STM32F10x_StdPeriph_Driver/src/stm32f10x_rcc.c ****         RCC_Clocks->SYSCLK_Frequency = (HSI_VALUE >> 1) * pllmull;
 977:Libraries/STM32F10x_StdPeriph_Driver/src/stm32f10x_rcc.c ****       }
 978:Libraries/STM32F10x_StdPeriph_Driver/src/stm32f10x_rcc.c ****       else
 979:Libraries/STM32F10x_StdPeriph_Driver/src/stm32f10x_rcc.c ****       {/* PREDIV1 selected as PLL clock entry */
 980:Libraries/STM32F10x_StdPeriph_Driver/src/stm32f10x_rcc.c ****         
 981:Libraries/STM32F10x_StdPeriph_Driver/src/stm32f10x_rcc.c ****         /* Get PREDIV1 clock source and division factor */
 982:Libraries/STM32F10x_StdPeriph_Driver/src/stm32f10x_rcc.c ****         prediv1source = RCC->CFGR2 & CFGR2_PREDIV1SRC;
 983:Libraries/STM32F10x_StdPeriph_Driver/src/stm32f10x_rcc.c ****         prediv1factor = (RCC->CFGR2 & CFGR2_PREDIV1) + 1;
 984:Libraries/STM32F10x_StdPeriph_Driver/src/stm32f10x_rcc.c ****         
 985:Libraries/STM32F10x_StdPeriph_Driver/src/stm32f10x_rcc.c ****         if (prediv1source == 0)
 986:Libraries/STM32F10x_StdPeriph_Driver/src/stm32f10x_rcc.c ****         { /* HSE oscillator clock selected as PREDIV1 clock entry */
 987:Libraries/STM32F10x_StdPeriph_Driver/src/stm32f10x_rcc.c ****           RCC_Clocks->SYSCLK_Frequency = (HSE_VALUE / prediv1factor) * pllmull;          
 988:Libraries/STM32F10x_StdPeriph_Driver/src/stm32f10x_rcc.c ****         }
 989:Libraries/STM32F10x_StdPeriph_Driver/src/stm32f10x_rcc.c ****         else
 990:Libraries/STM32F10x_StdPeriph_Driver/src/stm32f10x_rcc.c ****         {/* PLL2 clock selected as PREDIV1 clock entry */
 991:Libraries/STM32F10x_StdPeriph_Driver/src/stm32f10x_rcc.c ****           
 992:Libraries/STM32F10x_StdPeriph_Driver/src/stm32f10x_rcc.c ****           /* Get PREDIV2 division factor and PLL2 multiplication factor */
 993:Libraries/STM32F10x_StdPeriph_Driver/src/stm32f10x_rcc.c ****           prediv2factor = ((RCC->CFGR2 & CFGR2_PREDIV2) >> 4) + 1;
 994:Libraries/STM32F10x_StdPeriph_Driver/src/stm32f10x_rcc.c ****           pll2mull = ((RCC->CFGR2 & CFGR2_PLL2MUL) >> 8 ) + 2; 
 995:Libraries/STM32F10x_StdPeriph_Driver/src/stm32f10x_rcc.c ****           RCC_Clocks->SYSCLK_Frequency = (((HSE_VALUE / prediv2factor) * pll2mull) / prediv1factor)
 996:Libraries/STM32F10x_StdPeriph_Driver/src/stm32f10x_rcc.c ****         }
 997:Libraries/STM32F10x_StdPeriph_Driver/src/stm32f10x_rcc.c ****       }
 998:Libraries/STM32F10x_StdPeriph_Driver/src/stm32f10x_rcc.c **** #endif /* STM32F10X_CL */ 
 999:Libraries/STM32F10x_StdPeriph_Driver/src/stm32f10x_rcc.c ****       break;
1000:Libraries/STM32F10x_StdPeriph_Driver/src/stm32f10x_rcc.c **** 
1001:Libraries/STM32F10x_StdPeriph_Driver/src/stm32f10x_rcc.c ****     default:
1002:Libraries/STM32F10x_StdPeriph_Driver/src/stm32f10x_rcc.c ****       RCC_Clocks->SYSCLK_Frequency = HSI_VALUE;
1003:Libraries/STM32F10x_StdPeriph_Driver/src/stm32f10x_rcc.c ****       break;
1004:Libraries/STM32F10x_StdPeriph_Driver/src/stm32f10x_rcc.c ****   }
1005:Libraries/STM32F10x_StdPeriph_Driver/src/stm32f10x_rcc.c **** 
1006:Libraries/STM32F10x_StdPeriph_Driver/src/stm32f10x_rcc.c ****   /* Compute HCLK, PCLK1, PCLK2 and ADCCLK clocks frequencies ----------------*/
1007:Libraries/STM32F10x_StdPeriph_Driver/src/stm32f10x_rcc.c ****   /* Get HCLK prescaler */
1008:Libraries/STM32F10x_StdPeriph_Driver/src/stm32f10x_rcc.c ****   tmp = RCC->CFGR & CFGR_HPRE_Set_Mask;
 730              		.loc 1 1008 0
 731 01ce 5368     		ldr	r3, [r2, #4]	@ D.5905, MEM[(struct RCC_TypeDef *)1073876992B].CFGR
 732              	.LVL53:
1009:Libraries/STM32F10x_StdPeriph_Driver/src/stm32f10x_rcc.c ****   tmp = tmp >> 4;
1010:Libraries/STM32F10x_StdPeriph_Driver/src/stm32f10x_rcc.c ****   presc = APBAHBPrescTable[tmp];
 733              		.loc 1 1010 0
 734 01d0 1149     		ldr	r1, .L77+12	@ tmp167,
1009:Libraries/STM32F10x_StdPeriph_Driver/src/stm32f10x_rcc.c ****   tmp = tmp >> 4;
 735              		.loc 1 1009 0
 736 01d2 C3F30313 		ubfx	r3, r3, #4, #4	@ tmp, D.5905,,
 737              	.LVL54:
 738              		.loc 1 1010 0
 739 01d6 CC5C     		ldrb	r4, [r1, r3]	@ zero_extendqisi2	@ tmp170, APBAHBPrescTable
 740              	.LVL55:
1011:Libraries/STM32F10x_StdPeriph_Driver/src/stm32f10x_rcc.c ****   /* HCLK clock frequency */
1012:Libraries/STM32F10x_StdPeriph_Driver/src/stm32f10x_rcc.c ****   RCC_Clocks->HCLK_Frequency = RCC_Clocks->SYSCLK_Frequency >> presc;
 741              		.loc 1 1012 0
 742 01d8 0368     		ldr	r3, [r0]	@ RCC_Clocks_5(D)->SYSCLK_Frequency, RCC_Clocks_5(D)->SYSCLK_Frequency
 743              	.LVL56:
 744 01da E340     		lsrs	r3, r3, r4	@ D.5905, RCC_Clocks_5(D)->SYSCLK_Frequency, tmp170
 745 01dc 4360     		str	r3, [r0, #4]	@ D.5905, RCC_Clocks_5(D)->HCLK_Frequency
1013:Libraries/STM32F10x_StdPeriph_Driver/src/stm32f10x_rcc.c ****   /* Get PCLK1 prescaler */
1014:Libraries/STM32F10x_StdPeriph_Driver/src/stm32f10x_rcc.c ****   tmp = RCC->CFGR & CFGR_PPRE1_Set_Mask;
ARM GAS  /var/folders/yt/6z6x8bjn5sjf5fbb45bk5m4c0000gn/T//cc9V89R8.s 			page 32


 746              		.loc 1 1014 0
 747 01de 5468     		ldr	r4, [r2, #4]	@ D.5905, MEM[(struct RCC_TypeDef *)1073876992B].CFGR
 748              	.LVL57:
1015:Libraries/STM32F10x_StdPeriph_Driver/src/stm32f10x_rcc.c ****   tmp = tmp >> 8;
 749              		.loc 1 1015 0
 750 01e0 C4F30224 		ubfx	r4, r4, #8, #3	@ tmp, D.5905,,
 751              	.LVL58:
1016:Libraries/STM32F10x_StdPeriph_Driver/src/stm32f10x_rcc.c ****   presc = APBAHBPrescTable[tmp];
 752              		.loc 1 1016 0
 753 01e4 0C5D     		ldrb	r4, [r1, r4]	@ zero_extendqisi2	@ tmp176, APBAHBPrescTable
 754              	.LVL59:
1017:Libraries/STM32F10x_StdPeriph_Driver/src/stm32f10x_rcc.c ****   /* PCLK1 clock frequency */
1018:Libraries/STM32F10x_StdPeriph_Driver/src/stm32f10x_rcc.c ****   RCC_Clocks->PCLK1_Frequency = RCC_Clocks->HCLK_Frequency >> presc;
 755              		.loc 1 1018 0
 756 01e6 23FA04F4 		lsr	r4, r3, r4	@ D.5905, D.5905, tmp176
 757              	.LVL60:
 758 01ea 8460     		str	r4, [r0, #8]	@ D.5905, RCC_Clocks_5(D)->PCLK1_Frequency
1019:Libraries/STM32F10x_StdPeriph_Driver/src/stm32f10x_rcc.c ****   /* Get PCLK2 prescaler */
1020:Libraries/STM32F10x_StdPeriph_Driver/src/stm32f10x_rcc.c ****   tmp = RCC->CFGR & CFGR_PPRE2_Set_Mask;
 759              		.loc 1 1020 0
 760 01ec 5468     		ldr	r4, [r2, #4]	@ D.5905, MEM[(struct RCC_TypeDef *)1073876992B].CFGR
 761              	.LVL61:
1021:Libraries/STM32F10x_StdPeriph_Driver/src/stm32f10x_rcc.c ****   tmp = tmp >> 11;
 762              		.loc 1 1021 0
 763 01ee C4F3C224 		ubfx	r4, r4, #11, #3	@ tmp, D.5905,,
 764              	.LVL62:
1022:Libraries/STM32F10x_StdPeriph_Driver/src/stm32f10x_rcc.c ****   presc = APBAHBPrescTable[tmp];
 765              		.loc 1 1022 0
 766 01f2 0C5D     		ldrb	r4, [r1, r4]	@ zero_extendqisi2	@ tmp182, APBAHBPrescTable
 767              	.LVL63:
1023:Libraries/STM32F10x_StdPeriph_Driver/src/stm32f10x_rcc.c ****   /* PCLK2 clock frequency */
1024:Libraries/STM32F10x_StdPeriph_Driver/src/stm32f10x_rcc.c ****   RCC_Clocks->PCLK2_Frequency = RCC_Clocks->HCLK_Frequency >> presc;
 768              		.loc 1 1024 0
 769 01f4 E340     		lsrs	r3, r3, r4	@ D.5905, D.5905, tmp182
 770 01f6 C360     		str	r3, [r0, #12]	@ D.5905, RCC_Clocks_5(D)->PCLK2_Frequency
1025:Libraries/STM32F10x_StdPeriph_Driver/src/stm32f10x_rcc.c ****   /* Get ADCCLK prescaler */
1026:Libraries/STM32F10x_StdPeriph_Driver/src/stm32f10x_rcc.c ****   tmp = RCC->CFGR & CFGR_ADCPRE_Set_Mask;
 771              		.loc 1 1026 0
 772 01f8 5268     		ldr	r2, [r2, #4]	@ D.5905, MEM[(struct RCC_TypeDef *)1073876992B].CFGR
 773              	.LVL64:
1027:Libraries/STM32F10x_StdPeriph_Driver/src/stm32f10x_rcc.c ****   tmp = tmp >> 14;
 774              		.loc 1 1027 0
 775 01fa C2F38132 		ubfx	r2, r2, #14, #2	@ tmp, D.5905,,
 776              	.LVL65:
1028:Libraries/STM32F10x_StdPeriph_Driver/src/stm32f10x_rcc.c ****   presc = ADCPrescTable[tmp];
 777              		.loc 1 1028 0
 778 01fe 0A44     		add	r2, r2, r1	@ tmp185, tmp167
 779              	.LVL66:
 780 0200 127C     		ldrb	r2, [r2, #16]	@ zero_extendqisi2	@ tmp188, ADCPrescTable
 781              	.LVL67:
1029:Libraries/STM32F10x_StdPeriph_Driver/src/stm32f10x_rcc.c ****   /* ADCCLK clock frequency */
1030:Libraries/STM32F10x_StdPeriph_Driver/src/stm32f10x_rcc.c ****   RCC_Clocks->ADCCLK_Frequency = RCC_Clocks->PCLK2_Frequency / presc;
 782              		.loc 1 1030 0
 783 0202 B3FBF2F3 		udiv	r3, r3, r2	@ D.5905, D.5905, tmp188
 784 0206 0361     		str	r3, [r0, #16]	@ D.5905, RCC_Clocks_5(D)->ADCCLK_Frequency
 785 0208 10BD     		pop	{r4, pc}	@
 786              	.L78:
ARM GAS  /var/folders/yt/6z6x8bjn5sjf5fbb45bk5m4c0000gn/T//cc9V89R8.s 			page 33


 787 020a 00BF     		.align	2
 788              	.L77:
 789 020c 00100240 		.word	1073876992
 790 0210 00127A00 		.word	8000000
 791 0214 00093D00 		.word	4000000
 792 0218 00000000 		.word	.LANCHOR0
 793              		.cfi_endproc
 794              	.LFE48:
 795              		.size	RCC_GetClocksFreq, .-RCC_GetClocksFreq
 796              		.align	1
 797              		.global	RCC_AHBPeriphClockCmd
 798              		.thumb
 799              		.thumb_func
 800              		.type	RCC_AHBPeriphClockCmd, %function
 801              	RCC_AHBPeriphClockCmd:
 802              	.LFB49:
1031:Libraries/STM32F10x_StdPeriph_Driver/src/stm32f10x_rcc.c **** }
1032:Libraries/STM32F10x_StdPeriph_Driver/src/stm32f10x_rcc.c **** 
1033:Libraries/STM32F10x_StdPeriph_Driver/src/stm32f10x_rcc.c **** /**
1034:Libraries/STM32F10x_StdPeriph_Driver/src/stm32f10x_rcc.c ****   * @brief  Enables or disables the AHB peripheral clock.
1035:Libraries/STM32F10x_StdPeriph_Driver/src/stm32f10x_rcc.c ****   * @param  RCC_AHBPeriph: specifies the AHB peripheral to gates its clock.
1036:Libraries/STM32F10x_StdPeriph_Driver/src/stm32f10x_rcc.c ****   *   
1037:Libraries/STM32F10x_StdPeriph_Driver/src/stm32f10x_rcc.c ****   *   For @b STM32_Connectivity_line_devices, this parameter can be any combination
1038:Libraries/STM32F10x_StdPeriph_Driver/src/stm32f10x_rcc.c ****   *   of the following values:        
1039:Libraries/STM32F10x_StdPeriph_Driver/src/stm32f10x_rcc.c ****   *     @arg RCC_AHBPeriph_DMA1
1040:Libraries/STM32F10x_StdPeriph_Driver/src/stm32f10x_rcc.c ****   *     @arg RCC_AHBPeriph_DMA2
1041:Libraries/STM32F10x_StdPeriph_Driver/src/stm32f10x_rcc.c ****   *     @arg RCC_AHBPeriph_SRAM
1042:Libraries/STM32F10x_StdPeriph_Driver/src/stm32f10x_rcc.c ****   *     @arg RCC_AHBPeriph_FLITF
1043:Libraries/STM32F10x_StdPeriph_Driver/src/stm32f10x_rcc.c ****   *     @arg RCC_AHBPeriph_CRC
1044:Libraries/STM32F10x_StdPeriph_Driver/src/stm32f10x_rcc.c ****   *     @arg RCC_AHBPeriph_OTG_FS    
1045:Libraries/STM32F10x_StdPeriph_Driver/src/stm32f10x_rcc.c ****   *     @arg RCC_AHBPeriph_ETH_MAC   
1046:Libraries/STM32F10x_StdPeriph_Driver/src/stm32f10x_rcc.c ****   *     @arg RCC_AHBPeriph_ETH_MAC_Tx
1047:Libraries/STM32F10x_StdPeriph_Driver/src/stm32f10x_rcc.c ****   *     @arg RCC_AHBPeriph_ETH_MAC_Rx
1048:Libraries/STM32F10x_StdPeriph_Driver/src/stm32f10x_rcc.c ****   * 
1049:Libraries/STM32F10x_StdPeriph_Driver/src/stm32f10x_rcc.c ****   *   For @b other_STM32_devices, this parameter can be any combination of the 
1050:Libraries/STM32F10x_StdPeriph_Driver/src/stm32f10x_rcc.c ****   *   following values:        
1051:Libraries/STM32F10x_StdPeriph_Driver/src/stm32f10x_rcc.c ****   *     @arg RCC_AHBPeriph_DMA1
1052:Libraries/STM32F10x_StdPeriph_Driver/src/stm32f10x_rcc.c ****   *     @arg RCC_AHBPeriph_DMA2
1053:Libraries/STM32F10x_StdPeriph_Driver/src/stm32f10x_rcc.c ****   *     @arg RCC_AHBPeriph_SRAM
1054:Libraries/STM32F10x_StdPeriph_Driver/src/stm32f10x_rcc.c ****   *     @arg RCC_AHBPeriph_FLITF
1055:Libraries/STM32F10x_StdPeriph_Driver/src/stm32f10x_rcc.c ****   *     @arg RCC_AHBPeriph_CRC
1056:Libraries/STM32F10x_StdPeriph_Driver/src/stm32f10x_rcc.c ****   *     @arg RCC_AHBPeriph_FSMC
1057:Libraries/STM32F10x_StdPeriph_Driver/src/stm32f10x_rcc.c ****   *     @arg RCC_AHBPeriph_SDIO
1058:Libraries/STM32F10x_StdPeriph_Driver/src/stm32f10x_rcc.c ****   *   
1059:Libraries/STM32F10x_StdPeriph_Driver/src/stm32f10x_rcc.c ****   * @note SRAM and FLITF clock can be disabled only during sleep mode.
1060:Libraries/STM32F10x_StdPeriph_Driver/src/stm32f10x_rcc.c ****   * @param  NewState: new state of the specified peripheral clock.
1061:Libraries/STM32F10x_StdPeriph_Driver/src/stm32f10x_rcc.c ****   *   This parameter can be: ENABLE or DISABLE.
1062:Libraries/STM32F10x_StdPeriph_Driver/src/stm32f10x_rcc.c ****   * @retval None
1063:Libraries/STM32F10x_StdPeriph_Driver/src/stm32f10x_rcc.c ****   */
1064:Libraries/STM32F10x_StdPeriph_Driver/src/stm32f10x_rcc.c **** void RCC_AHBPeriphClockCmd(uint32_t RCC_AHBPeriph, FunctionalState NewState)
1065:Libraries/STM32F10x_StdPeriph_Driver/src/stm32f10x_rcc.c **** {
 803              		.loc 1 1065 0
 804              		.cfi_startproc
 805              		@ args = 0, pretend = 0, frame = 0
 806              		@ frame_needed = 0, uses_anonymous_args = 0
 807              		@ link register save eliminated.
 808              	.LVL68:
ARM GAS  /var/folders/yt/6z6x8bjn5sjf5fbb45bk5m4c0000gn/T//cc9V89R8.s 			page 34


 809 021c 044B     		ldr	r3, .L83	@ tmp122,
1066:Libraries/STM32F10x_StdPeriph_Driver/src/stm32f10x_rcc.c ****   /* Check the parameters */
1067:Libraries/STM32F10x_StdPeriph_Driver/src/stm32f10x_rcc.c ****   assert_param(IS_RCC_AHB_PERIPH(RCC_AHBPeriph));
1068:Libraries/STM32F10x_StdPeriph_Driver/src/stm32f10x_rcc.c ****   assert_param(IS_FUNCTIONAL_STATE(NewState));
1069:Libraries/STM32F10x_StdPeriph_Driver/src/stm32f10x_rcc.c **** 
1070:Libraries/STM32F10x_StdPeriph_Driver/src/stm32f10x_rcc.c ****   if (NewState != DISABLE)
1071:Libraries/STM32F10x_StdPeriph_Driver/src/stm32f10x_rcc.c ****   {
1072:Libraries/STM32F10x_StdPeriph_Driver/src/stm32f10x_rcc.c ****     RCC->AHBENR |= RCC_AHBPeriph;
 810              		.loc 1 1072 0
 811 021e 5A69     		ldr	r2, [r3, #20]	@ D.5910,
1070:Libraries/STM32F10x_StdPeriph_Driver/src/stm32f10x_rcc.c ****   {
 812              		.loc 1 1070 0
 813 0220 09B1     		cbz	r1, .L80	@ NewState,
 814              		.loc 1 1072 0
 815 0222 1043     		orrs	r0, r0, r2	@, D.5910, RCC_AHBPeriph, D.5910
 816              	.LVL69:
 817 0224 01E0     		b	.L82	@
 818              	.LVL70:
 819              	.L80:
1073:Libraries/STM32F10x_StdPeriph_Driver/src/stm32f10x_rcc.c ****   }
1074:Libraries/STM32F10x_StdPeriph_Driver/src/stm32f10x_rcc.c ****   else
1075:Libraries/STM32F10x_StdPeriph_Driver/src/stm32f10x_rcc.c ****   {
1076:Libraries/STM32F10x_StdPeriph_Driver/src/stm32f10x_rcc.c ****     RCC->AHBENR &= ~RCC_AHBPeriph;
 820              		.loc 1 1076 0
 821 0226 22EA0000 		bic	r0, r2, r0	@ D.5910, D.5910, RCC_AHBPeriph
 822              	.LVL71:
 823              	.L82:
 824 022a 5861     		str	r0, [r3, #20]	@ D.5910,
 825 022c 7047     		bx	lr	@
 826              	.L84:
 827 022e 00BF     		.align	2
 828              	.L83:
 829 0230 00100240 		.word	1073876992
 830              		.cfi_endproc
 831              	.LFE49:
 832              		.size	RCC_AHBPeriphClockCmd, .-RCC_AHBPeriphClockCmd
 833              		.align	1
 834              		.global	RCC_APB2PeriphClockCmd
 835              		.thumb
 836              		.thumb_func
 837              		.type	RCC_APB2PeriphClockCmd, %function
 838              	RCC_APB2PeriphClockCmd:
 839              	.LFB50:
1077:Libraries/STM32F10x_StdPeriph_Driver/src/stm32f10x_rcc.c ****   }
1078:Libraries/STM32F10x_StdPeriph_Driver/src/stm32f10x_rcc.c **** }
1079:Libraries/STM32F10x_StdPeriph_Driver/src/stm32f10x_rcc.c **** 
1080:Libraries/STM32F10x_StdPeriph_Driver/src/stm32f10x_rcc.c **** /**
1081:Libraries/STM32F10x_StdPeriph_Driver/src/stm32f10x_rcc.c ****   * @brief  Enables or disables the High Speed APB (APB2) peripheral clock.
1082:Libraries/STM32F10x_StdPeriph_Driver/src/stm32f10x_rcc.c ****   * @param  RCC_APB2Periph: specifies the APB2 peripheral to gates its clock.
1083:Libraries/STM32F10x_StdPeriph_Driver/src/stm32f10x_rcc.c ****   *   This parameter can be any combination of the following values:
1084:Libraries/STM32F10x_StdPeriph_Driver/src/stm32f10x_rcc.c ****   *     @arg RCC_APB2Periph_AFIO, RCC_APB2Periph_GPIOA, RCC_APB2Periph_GPIOB,
1085:Libraries/STM32F10x_StdPeriph_Driver/src/stm32f10x_rcc.c ****   *          RCC_APB2Periph_GPIOC, RCC_APB2Periph_GPIOD, RCC_APB2Periph_GPIOE,
1086:Libraries/STM32F10x_StdPeriph_Driver/src/stm32f10x_rcc.c ****   *          RCC_APB2Periph_GPIOF, RCC_APB2Periph_GPIOG, RCC_APB2Periph_ADC1,
1087:Libraries/STM32F10x_StdPeriph_Driver/src/stm32f10x_rcc.c ****   *          RCC_APB2Periph_ADC2, RCC_APB2Periph_TIM1, RCC_APB2Periph_SPI1,
1088:Libraries/STM32F10x_StdPeriph_Driver/src/stm32f10x_rcc.c ****   *          RCC_APB2Periph_TIM8, RCC_APB2Periph_USART1, RCC_APB2Periph_ADC3,
1089:Libraries/STM32F10x_StdPeriph_Driver/src/stm32f10x_rcc.c ****   *          RCC_APB2Periph_TIM15, RCC_APB2Periph_TIM16, RCC_APB2Periph_TIM17,
1090:Libraries/STM32F10x_StdPeriph_Driver/src/stm32f10x_rcc.c ****   *          RCC_APB2Periph_TIM9, RCC_APB2Periph_TIM10, RCC_APB2Periph_TIM11     
ARM GAS  /var/folders/yt/6z6x8bjn5sjf5fbb45bk5m4c0000gn/T//cc9V89R8.s 			page 35


1091:Libraries/STM32F10x_StdPeriph_Driver/src/stm32f10x_rcc.c ****   * @param  NewState: new state of the specified peripheral clock.
1092:Libraries/STM32F10x_StdPeriph_Driver/src/stm32f10x_rcc.c ****   *   This parameter can be: ENABLE or DISABLE.
1093:Libraries/STM32F10x_StdPeriph_Driver/src/stm32f10x_rcc.c ****   * @retval None
1094:Libraries/STM32F10x_StdPeriph_Driver/src/stm32f10x_rcc.c ****   */
1095:Libraries/STM32F10x_StdPeriph_Driver/src/stm32f10x_rcc.c **** void RCC_APB2PeriphClockCmd(uint32_t RCC_APB2Periph, FunctionalState NewState)
1096:Libraries/STM32F10x_StdPeriph_Driver/src/stm32f10x_rcc.c **** {
 840              		.loc 1 1096 0
 841              		.cfi_startproc
 842              		@ args = 0, pretend = 0, frame = 0
 843              		@ frame_needed = 0, uses_anonymous_args = 0
 844              		@ link register save eliminated.
 845              	.LVL72:
 846 0234 044B     		ldr	r3, .L89	@ tmp122,
1097:Libraries/STM32F10x_StdPeriph_Driver/src/stm32f10x_rcc.c ****   /* Check the parameters */
1098:Libraries/STM32F10x_StdPeriph_Driver/src/stm32f10x_rcc.c ****   assert_param(IS_RCC_APB2_PERIPH(RCC_APB2Periph));
1099:Libraries/STM32F10x_StdPeriph_Driver/src/stm32f10x_rcc.c ****   assert_param(IS_FUNCTIONAL_STATE(NewState));
1100:Libraries/STM32F10x_StdPeriph_Driver/src/stm32f10x_rcc.c ****   if (NewState != DISABLE)
1101:Libraries/STM32F10x_StdPeriph_Driver/src/stm32f10x_rcc.c ****   {
1102:Libraries/STM32F10x_StdPeriph_Driver/src/stm32f10x_rcc.c ****     RCC->APB2ENR |= RCC_APB2Periph;
 847              		.loc 1 1102 0
 848 0236 9A69     		ldr	r2, [r3, #24]	@ D.5913,
1100:Libraries/STM32F10x_StdPeriph_Driver/src/stm32f10x_rcc.c ****   {
 849              		.loc 1 1100 0
 850 0238 09B1     		cbz	r1, .L86	@ NewState,
 851              		.loc 1 1102 0
 852 023a 1043     		orrs	r0, r0, r2	@, D.5913, RCC_APB2Periph, D.5913
 853              	.LVL73:
 854 023c 01E0     		b	.L88	@
 855              	.LVL74:
 856              	.L86:
1103:Libraries/STM32F10x_StdPeriph_Driver/src/stm32f10x_rcc.c ****   }
1104:Libraries/STM32F10x_StdPeriph_Driver/src/stm32f10x_rcc.c ****   else
1105:Libraries/STM32F10x_StdPeriph_Driver/src/stm32f10x_rcc.c ****   {
1106:Libraries/STM32F10x_StdPeriph_Driver/src/stm32f10x_rcc.c ****     RCC->APB2ENR &= ~RCC_APB2Periph;
 857              		.loc 1 1106 0
 858 023e 22EA0000 		bic	r0, r2, r0	@ D.5913, D.5913, RCC_APB2Periph
 859              	.LVL75:
 860              	.L88:
 861 0242 9861     		str	r0, [r3, #24]	@ D.5913,
 862 0244 7047     		bx	lr	@
 863              	.L90:
 864 0246 00BF     		.align	2
 865              	.L89:
 866 0248 00100240 		.word	1073876992
 867              		.cfi_endproc
 868              	.LFE50:
 869              		.size	RCC_APB2PeriphClockCmd, .-RCC_APB2PeriphClockCmd
 870              		.align	1
 871              		.global	RCC_APB1PeriphClockCmd
 872              		.thumb
 873              		.thumb_func
 874              		.type	RCC_APB1PeriphClockCmd, %function
 875              	RCC_APB1PeriphClockCmd:
 876              	.LFB51:
1107:Libraries/STM32F10x_StdPeriph_Driver/src/stm32f10x_rcc.c ****   }
1108:Libraries/STM32F10x_StdPeriph_Driver/src/stm32f10x_rcc.c **** }
1109:Libraries/STM32F10x_StdPeriph_Driver/src/stm32f10x_rcc.c **** 
ARM GAS  /var/folders/yt/6z6x8bjn5sjf5fbb45bk5m4c0000gn/T//cc9V89R8.s 			page 36


1110:Libraries/STM32F10x_StdPeriph_Driver/src/stm32f10x_rcc.c **** /**
1111:Libraries/STM32F10x_StdPeriph_Driver/src/stm32f10x_rcc.c ****   * @brief  Enables or disables the Low Speed APB (APB1) peripheral clock.
1112:Libraries/STM32F10x_StdPeriph_Driver/src/stm32f10x_rcc.c ****   * @param  RCC_APB1Periph: specifies the APB1 peripheral to gates its clock.
1113:Libraries/STM32F10x_StdPeriph_Driver/src/stm32f10x_rcc.c ****   *   This parameter can be any combination of the following values:
1114:Libraries/STM32F10x_StdPeriph_Driver/src/stm32f10x_rcc.c ****   *     @arg RCC_APB1Periph_TIM2, RCC_APB1Periph_TIM3, RCC_APB1Periph_TIM4,
1115:Libraries/STM32F10x_StdPeriph_Driver/src/stm32f10x_rcc.c ****   *          RCC_APB1Periph_TIM5, RCC_APB1Periph_TIM6, RCC_APB1Periph_TIM7,
1116:Libraries/STM32F10x_StdPeriph_Driver/src/stm32f10x_rcc.c ****   *          RCC_APB1Periph_WWDG, RCC_APB1Periph_SPI2, RCC_APB1Periph_SPI3,
1117:Libraries/STM32F10x_StdPeriph_Driver/src/stm32f10x_rcc.c ****   *          RCC_APB1Periph_USART2, RCC_APB1Periph_USART3, RCC_APB1Periph_USART4, 
1118:Libraries/STM32F10x_StdPeriph_Driver/src/stm32f10x_rcc.c ****   *          RCC_APB1Periph_USART5, RCC_APB1Periph_I2C1, RCC_APB1Periph_I2C2,
1119:Libraries/STM32F10x_StdPeriph_Driver/src/stm32f10x_rcc.c ****   *          RCC_APB1Periph_USB, RCC_APB1Periph_CAN1, RCC_APB1Periph_BKP,
1120:Libraries/STM32F10x_StdPeriph_Driver/src/stm32f10x_rcc.c ****   *          RCC_APB1Periph_PWR, RCC_APB1Periph_DAC, RCC_APB1Periph_CEC,
1121:Libraries/STM32F10x_StdPeriph_Driver/src/stm32f10x_rcc.c ****   *          RCC_APB1Periph_TIM12, RCC_APB1Periph_TIM13, RCC_APB1Periph_TIM14
1122:Libraries/STM32F10x_StdPeriph_Driver/src/stm32f10x_rcc.c ****   * @param  NewState: new state of the specified peripheral clock.
1123:Libraries/STM32F10x_StdPeriph_Driver/src/stm32f10x_rcc.c ****   *   This parameter can be: ENABLE or DISABLE.
1124:Libraries/STM32F10x_StdPeriph_Driver/src/stm32f10x_rcc.c ****   * @retval None
1125:Libraries/STM32F10x_StdPeriph_Driver/src/stm32f10x_rcc.c ****   */
1126:Libraries/STM32F10x_StdPeriph_Driver/src/stm32f10x_rcc.c **** void RCC_APB1PeriphClockCmd(uint32_t RCC_APB1Periph, FunctionalState NewState)
1127:Libraries/STM32F10x_StdPeriph_Driver/src/stm32f10x_rcc.c **** {
 877              		.loc 1 1127 0
 878              		.cfi_startproc
 879              		@ args = 0, pretend = 0, frame = 0
 880              		@ frame_needed = 0, uses_anonymous_args = 0
 881              		@ link register save eliminated.
 882              	.LVL76:
 883 024c 044B     		ldr	r3, .L95	@ tmp122,
1128:Libraries/STM32F10x_StdPeriph_Driver/src/stm32f10x_rcc.c ****   /* Check the parameters */
1129:Libraries/STM32F10x_StdPeriph_Driver/src/stm32f10x_rcc.c ****   assert_param(IS_RCC_APB1_PERIPH(RCC_APB1Periph));
1130:Libraries/STM32F10x_StdPeriph_Driver/src/stm32f10x_rcc.c ****   assert_param(IS_FUNCTIONAL_STATE(NewState));
1131:Libraries/STM32F10x_StdPeriph_Driver/src/stm32f10x_rcc.c ****   if (NewState != DISABLE)
1132:Libraries/STM32F10x_StdPeriph_Driver/src/stm32f10x_rcc.c ****   {
1133:Libraries/STM32F10x_StdPeriph_Driver/src/stm32f10x_rcc.c ****     RCC->APB1ENR |= RCC_APB1Periph;
 884              		.loc 1 1133 0
 885 024e DA69     		ldr	r2, [r3, #28]	@ D.5916,
1131:Libraries/STM32F10x_StdPeriph_Driver/src/stm32f10x_rcc.c ****   {
 886              		.loc 1 1131 0
 887 0250 09B1     		cbz	r1, .L92	@ NewState,
 888              		.loc 1 1133 0
 889 0252 1043     		orrs	r0, r0, r2	@, D.5916, RCC_APB1Periph, D.5916
 890              	.LVL77:
 891 0254 01E0     		b	.L94	@
 892              	.LVL78:
 893              	.L92:
1134:Libraries/STM32F10x_StdPeriph_Driver/src/stm32f10x_rcc.c ****   }
1135:Libraries/STM32F10x_StdPeriph_Driver/src/stm32f10x_rcc.c ****   else
1136:Libraries/STM32F10x_StdPeriph_Driver/src/stm32f10x_rcc.c ****   {
1137:Libraries/STM32F10x_StdPeriph_Driver/src/stm32f10x_rcc.c ****     RCC->APB1ENR &= ~RCC_APB1Periph;
 894              		.loc 1 1137 0
 895 0256 22EA0000 		bic	r0, r2, r0	@ D.5916, D.5916, RCC_APB1Periph
 896              	.LVL79:
 897              	.L94:
 898 025a D861     		str	r0, [r3, #28]	@ D.5916,
 899 025c 7047     		bx	lr	@
 900              	.L96:
 901 025e 00BF     		.align	2
 902              	.L95:
 903 0260 00100240 		.word	1073876992
 904              		.cfi_endproc
ARM GAS  /var/folders/yt/6z6x8bjn5sjf5fbb45bk5m4c0000gn/T//cc9V89R8.s 			page 37


 905              	.LFE51:
 906              		.size	RCC_APB1PeriphClockCmd, .-RCC_APB1PeriphClockCmd
 907              		.align	1
 908              		.global	RCC_APB2PeriphResetCmd
 909              		.thumb
 910              		.thumb_func
 911              		.type	RCC_APB2PeriphResetCmd, %function
 912              	RCC_APB2PeriphResetCmd:
 913              	.LFB52:
1138:Libraries/STM32F10x_StdPeriph_Driver/src/stm32f10x_rcc.c ****   }
1139:Libraries/STM32F10x_StdPeriph_Driver/src/stm32f10x_rcc.c **** }
1140:Libraries/STM32F10x_StdPeriph_Driver/src/stm32f10x_rcc.c **** 
1141:Libraries/STM32F10x_StdPeriph_Driver/src/stm32f10x_rcc.c **** #ifdef STM32F10X_CL
1142:Libraries/STM32F10x_StdPeriph_Driver/src/stm32f10x_rcc.c **** /**
1143:Libraries/STM32F10x_StdPeriph_Driver/src/stm32f10x_rcc.c ****   * @brief  Forces or releases AHB peripheral reset.
1144:Libraries/STM32F10x_StdPeriph_Driver/src/stm32f10x_rcc.c ****   * @note   This function applies only to STM32 Connectivity line devices.
1145:Libraries/STM32F10x_StdPeriph_Driver/src/stm32f10x_rcc.c ****   * @param  RCC_AHBPeriph: specifies the AHB peripheral to reset.
1146:Libraries/STM32F10x_StdPeriph_Driver/src/stm32f10x_rcc.c ****   *   This parameter can be any combination of the following values:
1147:Libraries/STM32F10x_StdPeriph_Driver/src/stm32f10x_rcc.c ****   *     @arg RCC_AHBPeriph_OTG_FS 
1148:Libraries/STM32F10x_StdPeriph_Driver/src/stm32f10x_rcc.c ****   *     @arg RCC_AHBPeriph_ETH_MAC
1149:Libraries/STM32F10x_StdPeriph_Driver/src/stm32f10x_rcc.c ****   * @param  NewState: new state of the specified peripheral reset.
1150:Libraries/STM32F10x_StdPeriph_Driver/src/stm32f10x_rcc.c ****   *   This parameter can be: ENABLE or DISABLE.
1151:Libraries/STM32F10x_StdPeriph_Driver/src/stm32f10x_rcc.c ****   * @retval None
1152:Libraries/STM32F10x_StdPeriph_Driver/src/stm32f10x_rcc.c ****   */
1153:Libraries/STM32F10x_StdPeriph_Driver/src/stm32f10x_rcc.c **** void RCC_AHBPeriphResetCmd(uint32_t RCC_AHBPeriph, FunctionalState NewState)
1154:Libraries/STM32F10x_StdPeriph_Driver/src/stm32f10x_rcc.c **** {
1155:Libraries/STM32F10x_StdPeriph_Driver/src/stm32f10x_rcc.c ****   /* Check the parameters */
1156:Libraries/STM32F10x_StdPeriph_Driver/src/stm32f10x_rcc.c ****   assert_param(IS_RCC_AHB_PERIPH_RESET(RCC_AHBPeriph));
1157:Libraries/STM32F10x_StdPeriph_Driver/src/stm32f10x_rcc.c ****   assert_param(IS_FUNCTIONAL_STATE(NewState));
1158:Libraries/STM32F10x_StdPeriph_Driver/src/stm32f10x_rcc.c **** 
1159:Libraries/STM32F10x_StdPeriph_Driver/src/stm32f10x_rcc.c ****   if (NewState != DISABLE)
1160:Libraries/STM32F10x_StdPeriph_Driver/src/stm32f10x_rcc.c ****   {
1161:Libraries/STM32F10x_StdPeriph_Driver/src/stm32f10x_rcc.c ****     RCC->AHBRSTR |= RCC_AHBPeriph;
1162:Libraries/STM32F10x_StdPeriph_Driver/src/stm32f10x_rcc.c ****   }
1163:Libraries/STM32F10x_StdPeriph_Driver/src/stm32f10x_rcc.c ****   else
1164:Libraries/STM32F10x_StdPeriph_Driver/src/stm32f10x_rcc.c ****   {
1165:Libraries/STM32F10x_StdPeriph_Driver/src/stm32f10x_rcc.c ****     RCC->AHBRSTR &= ~RCC_AHBPeriph;
1166:Libraries/STM32F10x_StdPeriph_Driver/src/stm32f10x_rcc.c ****   }
1167:Libraries/STM32F10x_StdPeriph_Driver/src/stm32f10x_rcc.c **** }
1168:Libraries/STM32F10x_StdPeriph_Driver/src/stm32f10x_rcc.c **** #endif /* STM32F10X_CL */ 
1169:Libraries/STM32F10x_StdPeriph_Driver/src/stm32f10x_rcc.c **** 
1170:Libraries/STM32F10x_StdPeriph_Driver/src/stm32f10x_rcc.c **** /**
1171:Libraries/STM32F10x_StdPeriph_Driver/src/stm32f10x_rcc.c ****   * @brief  Forces or releases High Speed APB (APB2) peripheral reset.
1172:Libraries/STM32F10x_StdPeriph_Driver/src/stm32f10x_rcc.c ****   * @param  RCC_APB2Periph: specifies the APB2 peripheral to reset.
1173:Libraries/STM32F10x_StdPeriph_Driver/src/stm32f10x_rcc.c ****   *   This parameter can be any combination of the following values:
1174:Libraries/STM32F10x_StdPeriph_Driver/src/stm32f10x_rcc.c ****   *     @arg RCC_APB2Periph_AFIO, RCC_APB2Periph_GPIOA, RCC_APB2Periph_GPIOB,
1175:Libraries/STM32F10x_StdPeriph_Driver/src/stm32f10x_rcc.c ****   *          RCC_APB2Periph_GPIOC, RCC_APB2Periph_GPIOD, RCC_APB2Periph_GPIOE,
1176:Libraries/STM32F10x_StdPeriph_Driver/src/stm32f10x_rcc.c ****   *          RCC_APB2Periph_GPIOF, RCC_APB2Periph_GPIOG, RCC_APB2Periph_ADC1,
1177:Libraries/STM32F10x_StdPeriph_Driver/src/stm32f10x_rcc.c ****   *          RCC_APB2Periph_ADC2, RCC_APB2Periph_TIM1, RCC_APB2Periph_SPI1,
1178:Libraries/STM32F10x_StdPeriph_Driver/src/stm32f10x_rcc.c ****   *          RCC_APB2Periph_TIM8, RCC_APB2Periph_USART1, RCC_APB2Periph_ADC3,
1179:Libraries/STM32F10x_StdPeriph_Driver/src/stm32f10x_rcc.c ****   *          RCC_APB2Periph_TIM15, RCC_APB2Periph_TIM16, RCC_APB2Periph_TIM17,
1180:Libraries/STM32F10x_StdPeriph_Driver/src/stm32f10x_rcc.c ****   *          RCC_APB2Periph_TIM9, RCC_APB2Periph_TIM10, RCC_APB2Periph_TIM11  
1181:Libraries/STM32F10x_StdPeriph_Driver/src/stm32f10x_rcc.c ****   * @param  NewState: new state of the specified peripheral reset.
1182:Libraries/STM32F10x_StdPeriph_Driver/src/stm32f10x_rcc.c ****   *   This parameter can be: ENABLE or DISABLE.
1183:Libraries/STM32F10x_StdPeriph_Driver/src/stm32f10x_rcc.c ****   * @retval None
1184:Libraries/STM32F10x_StdPeriph_Driver/src/stm32f10x_rcc.c ****   */
1185:Libraries/STM32F10x_StdPeriph_Driver/src/stm32f10x_rcc.c **** void RCC_APB2PeriphResetCmd(uint32_t RCC_APB2Periph, FunctionalState NewState)
ARM GAS  /var/folders/yt/6z6x8bjn5sjf5fbb45bk5m4c0000gn/T//cc9V89R8.s 			page 38


1186:Libraries/STM32F10x_StdPeriph_Driver/src/stm32f10x_rcc.c **** {
 914              		.loc 1 1186 0
 915              		.cfi_startproc
 916              		@ args = 0, pretend = 0, frame = 0
 917              		@ frame_needed = 0, uses_anonymous_args = 0
 918              		@ link register save eliminated.
 919              	.LVL80:
 920 0264 044B     		ldr	r3, .L101	@ tmp122,
1187:Libraries/STM32F10x_StdPeriph_Driver/src/stm32f10x_rcc.c ****   /* Check the parameters */
1188:Libraries/STM32F10x_StdPeriph_Driver/src/stm32f10x_rcc.c ****   assert_param(IS_RCC_APB2_PERIPH(RCC_APB2Periph));
1189:Libraries/STM32F10x_StdPeriph_Driver/src/stm32f10x_rcc.c ****   assert_param(IS_FUNCTIONAL_STATE(NewState));
1190:Libraries/STM32F10x_StdPeriph_Driver/src/stm32f10x_rcc.c ****   if (NewState != DISABLE)
1191:Libraries/STM32F10x_StdPeriph_Driver/src/stm32f10x_rcc.c ****   {
1192:Libraries/STM32F10x_StdPeriph_Driver/src/stm32f10x_rcc.c ****     RCC->APB2RSTR |= RCC_APB2Periph;
 921              		.loc 1 1192 0
 922 0266 DA68     		ldr	r2, [r3, #12]	@ D.5919,
1190:Libraries/STM32F10x_StdPeriph_Driver/src/stm32f10x_rcc.c ****   {
 923              		.loc 1 1190 0
 924 0268 09B1     		cbz	r1, .L98	@ NewState,
 925              		.loc 1 1192 0
 926 026a 1043     		orrs	r0, r0, r2	@, D.5919, RCC_APB2Periph, D.5919
 927              	.LVL81:
 928 026c 01E0     		b	.L100	@
 929              	.LVL82:
 930              	.L98:
1193:Libraries/STM32F10x_StdPeriph_Driver/src/stm32f10x_rcc.c ****   }
1194:Libraries/STM32F10x_StdPeriph_Driver/src/stm32f10x_rcc.c ****   else
1195:Libraries/STM32F10x_StdPeriph_Driver/src/stm32f10x_rcc.c ****   {
1196:Libraries/STM32F10x_StdPeriph_Driver/src/stm32f10x_rcc.c ****     RCC->APB2RSTR &= ~RCC_APB2Periph;
 931              		.loc 1 1196 0
 932 026e 22EA0000 		bic	r0, r2, r0	@ D.5919, D.5919, RCC_APB2Periph
 933              	.LVL83:
 934              	.L100:
 935 0272 D860     		str	r0, [r3, #12]	@ D.5919,
 936 0274 7047     		bx	lr	@
 937              	.L102:
 938 0276 00BF     		.align	2
 939              	.L101:
 940 0278 00100240 		.word	1073876992
 941              		.cfi_endproc
 942              	.LFE52:
 943              		.size	RCC_APB2PeriphResetCmd, .-RCC_APB2PeriphResetCmd
 944              		.align	1
 945              		.global	RCC_APB1PeriphResetCmd
 946              		.thumb
 947              		.thumb_func
 948              		.type	RCC_APB1PeriphResetCmd, %function
 949              	RCC_APB1PeriphResetCmd:
 950              	.LFB53:
1197:Libraries/STM32F10x_StdPeriph_Driver/src/stm32f10x_rcc.c ****   }
1198:Libraries/STM32F10x_StdPeriph_Driver/src/stm32f10x_rcc.c **** }
1199:Libraries/STM32F10x_StdPeriph_Driver/src/stm32f10x_rcc.c **** 
1200:Libraries/STM32F10x_StdPeriph_Driver/src/stm32f10x_rcc.c **** /**
1201:Libraries/STM32F10x_StdPeriph_Driver/src/stm32f10x_rcc.c ****   * @brief  Forces or releases Low Speed APB (APB1) peripheral reset.
1202:Libraries/STM32F10x_StdPeriph_Driver/src/stm32f10x_rcc.c ****   * @param  RCC_APB1Periph: specifies the APB1 peripheral to reset.
1203:Libraries/STM32F10x_StdPeriph_Driver/src/stm32f10x_rcc.c ****   *   This parameter can be any combination of the following values:
1204:Libraries/STM32F10x_StdPeriph_Driver/src/stm32f10x_rcc.c ****   *     @arg RCC_APB1Periph_TIM2, RCC_APB1Periph_TIM3, RCC_APB1Periph_TIM4,
ARM GAS  /var/folders/yt/6z6x8bjn5sjf5fbb45bk5m4c0000gn/T//cc9V89R8.s 			page 39


1205:Libraries/STM32F10x_StdPeriph_Driver/src/stm32f10x_rcc.c ****   *          RCC_APB1Periph_TIM5, RCC_APB1Periph_TIM6, RCC_APB1Periph_TIM7,
1206:Libraries/STM32F10x_StdPeriph_Driver/src/stm32f10x_rcc.c ****   *          RCC_APB1Periph_WWDG, RCC_APB1Periph_SPI2, RCC_APB1Periph_SPI3,
1207:Libraries/STM32F10x_StdPeriph_Driver/src/stm32f10x_rcc.c ****   *          RCC_APB1Periph_USART2, RCC_APB1Periph_USART3, RCC_APB1Periph_USART4, 
1208:Libraries/STM32F10x_StdPeriph_Driver/src/stm32f10x_rcc.c ****   *          RCC_APB1Periph_USART5, RCC_APB1Periph_I2C1, RCC_APB1Periph_I2C2,
1209:Libraries/STM32F10x_StdPeriph_Driver/src/stm32f10x_rcc.c ****   *          RCC_APB1Periph_USB, RCC_APB1Periph_CAN1, RCC_APB1Periph_BKP,
1210:Libraries/STM32F10x_StdPeriph_Driver/src/stm32f10x_rcc.c ****   *          RCC_APB1Periph_PWR, RCC_APB1Periph_DAC, RCC_APB1Periph_CEC,
1211:Libraries/STM32F10x_StdPeriph_Driver/src/stm32f10x_rcc.c ****   *          RCC_APB1Periph_TIM12, RCC_APB1Periph_TIM13, RCC_APB1Periph_TIM14  
1212:Libraries/STM32F10x_StdPeriph_Driver/src/stm32f10x_rcc.c ****   * @param  NewState: new state of the specified peripheral clock.
1213:Libraries/STM32F10x_StdPeriph_Driver/src/stm32f10x_rcc.c ****   *   This parameter can be: ENABLE or DISABLE.
1214:Libraries/STM32F10x_StdPeriph_Driver/src/stm32f10x_rcc.c ****   * @retval None
1215:Libraries/STM32F10x_StdPeriph_Driver/src/stm32f10x_rcc.c ****   */
1216:Libraries/STM32F10x_StdPeriph_Driver/src/stm32f10x_rcc.c **** void RCC_APB1PeriphResetCmd(uint32_t RCC_APB1Periph, FunctionalState NewState)
1217:Libraries/STM32F10x_StdPeriph_Driver/src/stm32f10x_rcc.c **** {
 951              		.loc 1 1217 0
 952              		.cfi_startproc
 953              		@ args = 0, pretend = 0, frame = 0
 954              		@ frame_needed = 0, uses_anonymous_args = 0
 955              		@ link register save eliminated.
 956              	.LVL84:
 957 027c 044B     		ldr	r3, .L107	@ tmp122,
1218:Libraries/STM32F10x_StdPeriph_Driver/src/stm32f10x_rcc.c ****   /* Check the parameters */
1219:Libraries/STM32F10x_StdPeriph_Driver/src/stm32f10x_rcc.c ****   assert_param(IS_RCC_APB1_PERIPH(RCC_APB1Periph));
1220:Libraries/STM32F10x_StdPeriph_Driver/src/stm32f10x_rcc.c ****   assert_param(IS_FUNCTIONAL_STATE(NewState));
1221:Libraries/STM32F10x_StdPeriph_Driver/src/stm32f10x_rcc.c ****   if (NewState != DISABLE)
1222:Libraries/STM32F10x_StdPeriph_Driver/src/stm32f10x_rcc.c ****   {
1223:Libraries/STM32F10x_StdPeriph_Driver/src/stm32f10x_rcc.c ****     RCC->APB1RSTR |= RCC_APB1Periph;
 958              		.loc 1 1223 0
 959 027e 1A69     		ldr	r2, [r3, #16]	@ D.5922,
1221:Libraries/STM32F10x_StdPeriph_Driver/src/stm32f10x_rcc.c ****   {
 960              		.loc 1 1221 0
 961 0280 09B1     		cbz	r1, .L104	@ NewState,
 962              		.loc 1 1223 0
 963 0282 1043     		orrs	r0, r0, r2	@, D.5922, RCC_APB1Periph, D.5922
 964              	.LVL85:
 965 0284 01E0     		b	.L106	@
 966              	.LVL86:
 967              	.L104:
1224:Libraries/STM32F10x_StdPeriph_Driver/src/stm32f10x_rcc.c ****   }
1225:Libraries/STM32F10x_StdPeriph_Driver/src/stm32f10x_rcc.c ****   else
1226:Libraries/STM32F10x_StdPeriph_Driver/src/stm32f10x_rcc.c ****   {
1227:Libraries/STM32F10x_StdPeriph_Driver/src/stm32f10x_rcc.c ****     RCC->APB1RSTR &= ~RCC_APB1Periph;
 968              		.loc 1 1227 0
 969 0286 22EA0000 		bic	r0, r2, r0	@ D.5922, D.5922, RCC_APB1Periph
 970              	.LVL87:
 971              	.L106:
 972 028a 1861     		str	r0, [r3, #16]	@ D.5922,
 973 028c 7047     		bx	lr	@
 974              	.L108:
 975 028e 00BF     		.align	2
 976              	.L107:
 977 0290 00100240 		.word	1073876992
 978              		.cfi_endproc
 979              	.LFE53:
 980              		.size	RCC_APB1PeriphResetCmd, .-RCC_APB1PeriphResetCmd
 981              		.align	1
 982              		.global	RCC_BackupResetCmd
 983              		.thumb
ARM GAS  /var/folders/yt/6z6x8bjn5sjf5fbb45bk5m4c0000gn/T//cc9V89R8.s 			page 40


 984              		.thumb_func
 985              		.type	RCC_BackupResetCmd, %function
 986              	RCC_BackupResetCmd:
 987              	.LFB54:
1228:Libraries/STM32F10x_StdPeriph_Driver/src/stm32f10x_rcc.c ****   }
1229:Libraries/STM32F10x_StdPeriph_Driver/src/stm32f10x_rcc.c **** }
1230:Libraries/STM32F10x_StdPeriph_Driver/src/stm32f10x_rcc.c **** 
1231:Libraries/STM32F10x_StdPeriph_Driver/src/stm32f10x_rcc.c **** /**
1232:Libraries/STM32F10x_StdPeriph_Driver/src/stm32f10x_rcc.c ****   * @brief  Forces or releases the Backup domain reset.
1233:Libraries/STM32F10x_StdPeriph_Driver/src/stm32f10x_rcc.c ****   * @param  NewState: new state of the Backup domain reset.
1234:Libraries/STM32F10x_StdPeriph_Driver/src/stm32f10x_rcc.c ****   *   This parameter can be: ENABLE or DISABLE.
1235:Libraries/STM32F10x_StdPeriph_Driver/src/stm32f10x_rcc.c ****   * @retval None
1236:Libraries/STM32F10x_StdPeriph_Driver/src/stm32f10x_rcc.c ****   */
1237:Libraries/STM32F10x_StdPeriph_Driver/src/stm32f10x_rcc.c **** void RCC_BackupResetCmd(FunctionalState NewState)
1238:Libraries/STM32F10x_StdPeriph_Driver/src/stm32f10x_rcc.c **** {
 988              		.loc 1 1238 0
 989              		.cfi_startproc
 990              		@ args = 0, pretend = 0, frame = 0
 991              		@ frame_needed = 0, uses_anonymous_args = 0
 992              		@ link register save eliminated.
 993              	.LVL88:
1239:Libraries/STM32F10x_StdPeriph_Driver/src/stm32f10x_rcc.c ****   /* Check the parameters */
1240:Libraries/STM32F10x_StdPeriph_Driver/src/stm32f10x_rcc.c ****   assert_param(IS_FUNCTIONAL_STATE(NewState));
1241:Libraries/STM32F10x_StdPeriph_Driver/src/stm32f10x_rcc.c ****   *(__IO uint32_t *) BDCR_BDRST_BB = (uint32_t)NewState;
 994              		.loc 1 1241 0
 995 0294 014B     		ldr	r3, .L110	@ tmp112,
 996 0296 1860     		str	r0, [r3]	@ NewState, MEM[(volatile uint32_t *)1111622720B]
 997 0298 7047     		bx	lr	@
 998              	.L111:
 999 029a 00BF     		.align	2
 1000              	.L110:
 1001 029c 40044242 		.word	1111622720
 1002              		.cfi_endproc
 1003              	.LFE54:
 1004              		.size	RCC_BackupResetCmd, .-RCC_BackupResetCmd
 1005              		.align	1
 1006              		.global	RCC_ClockSecuritySystemCmd
 1007              		.thumb
 1008              		.thumb_func
 1009              		.type	RCC_ClockSecuritySystemCmd, %function
 1010              	RCC_ClockSecuritySystemCmd:
 1011              	.LFB55:
1242:Libraries/STM32F10x_StdPeriph_Driver/src/stm32f10x_rcc.c **** }
1243:Libraries/STM32F10x_StdPeriph_Driver/src/stm32f10x_rcc.c **** 
1244:Libraries/STM32F10x_StdPeriph_Driver/src/stm32f10x_rcc.c **** /**
1245:Libraries/STM32F10x_StdPeriph_Driver/src/stm32f10x_rcc.c ****   * @brief  Enables or disables the Clock Security System.
1246:Libraries/STM32F10x_StdPeriph_Driver/src/stm32f10x_rcc.c ****   * @param  NewState: new state of the Clock Security System..
1247:Libraries/STM32F10x_StdPeriph_Driver/src/stm32f10x_rcc.c ****   *   This parameter can be: ENABLE or DISABLE.
1248:Libraries/STM32F10x_StdPeriph_Driver/src/stm32f10x_rcc.c ****   * @retval None
1249:Libraries/STM32F10x_StdPeriph_Driver/src/stm32f10x_rcc.c ****   */
1250:Libraries/STM32F10x_StdPeriph_Driver/src/stm32f10x_rcc.c **** void RCC_ClockSecuritySystemCmd(FunctionalState NewState)
1251:Libraries/STM32F10x_StdPeriph_Driver/src/stm32f10x_rcc.c **** {
 1012              		.loc 1 1251 0
 1013              		.cfi_startproc
 1014              		@ args = 0, pretend = 0, frame = 0
 1015              		@ frame_needed = 0, uses_anonymous_args = 0
 1016              		@ link register save eliminated.
ARM GAS  /var/folders/yt/6z6x8bjn5sjf5fbb45bk5m4c0000gn/T//cc9V89R8.s 			page 41


 1017              	.LVL89:
1252:Libraries/STM32F10x_StdPeriph_Driver/src/stm32f10x_rcc.c ****   /* Check the parameters */
1253:Libraries/STM32F10x_StdPeriph_Driver/src/stm32f10x_rcc.c ****   assert_param(IS_FUNCTIONAL_STATE(NewState));
1254:Libraries/STM32F10x_StdPeriph_Driver/src/stm32f10x_rcc.c ****   *(__IO uint32_t *) CR_CSSON_BB = (uint32_t)NewState;
 1018              		.loc 1 1254 0
 1019 02a0 014B     		ldr	r3, .L113	@ tmp112,
 1020 02a2 1860     		str	r0, [r3]	@ NewState, MEM[(volatile uint32_t *)1111621708B]
 1021 02a4 7047     		bx	lr	@
 1022              	.L114:
 1023 02a6 00BF     		.align	2
 1024              	.L113:
 1025 02a8 4C004242 		.word	1111621708
 1026              		.cfi_endproc
 1027              	.LFE55:
 1028              		.size	RCC_ClockSecuritySystemCmd, .-RCC_ClockSecuritySystemCmd
 1029              		.align	1
 1030              		.global	RCC_MCOConfig
 1031              		.thumb
 1032              		.thumb_func
 1033              		.type	RCC_MCOConfig, %function
 1034              	RCC_MCOConfig:
 1035              	.LFB56:
1255:Libraries/STM32F10x_StdPeriph_Driver/src/stm32f10x_rcc.c **** }
1256:Libraries/STM32F10x_StdPeriph_Driver/src/stm32f10x_rcc.c **** 
1257:Libraries/STM32F10x_StdPeriph_Driver/src/stm32f10x_rcc.c **** /**
1258:Libraries/STM32F10x_StdPeriph_Driver/src/stm32f10x_rcc.c ****   * @brief  Selects the clock source to output on MCO pin.
1259:Libraries/STM32F10x_StdPeriph_Driver/src/stm32f10x_rcc.c ****   * @param  RCC_MCO: specifies the clock source to output.
1260:Libraries/STM32F10x_StdPeriph_Driver/src/stm32f10x_rcc.c ****   *   
1261:Libraries/STM32F10x_StdPeriph_Driver/src/stm32f10x_rcc.c ****   *   For @b STM32_Connectivity_line_devices, this parameter can be one of the
1262:Libraries/STM32F10x_StdPeriph_Driver/src/stm32f10x_rcc.c ****   *   following values:       
1263:Libraries/STM32F10x_StdPeriph_Driver/src/stm32f10x_rcc.c ****   *     @arg RCC_MCO_NoClock: No clock selected
1264:Libraries/STM32F10x_StdPeriph_Driver/src/stm32f10x_rcc.c ****   *     @arg RCC_MCO_SYSCLK: System clock selected
1265:Libraries/STM32F10x_StdPeriph_Driver/src/stm32f10x_rcc.c ****   *     @arg RCC_MCO_HSI: HSI oscillator clock selected
1266:Libraries/STM32F10x_StdPeriph_Driver/src/stm32f10x_rcc.c ****   *     @arg RCC_MCO_HSE: HSE oscillator clock selected
1267:Libraries/STM32F10x_StdPeriph_Driver/src/stm32f10x_rcc.c ****   *     @arg RCC_MCO_PLLCLK_Div2: PLL clock divided by 2 selected
1268:Libraries/STM32F10x_StdPeriph_Driver/src/stm32f10x_rcc.c ****   *     @arg RCC_MCO_PLL2CLK: PLL2 clock selected                     
1269:Libraries/STM32F10x_StdPeriph_Driver/src/stm32f10x_rcc.c ****   *     @arg RCC_MCO_PLL3CLK_Div2: PLL3 clock divided by 2 selected   
1270:Libraries/STM32F10x_StdPeriph_Driver/src/stm32f10x_rcc.c ****   *     @arg RCC_MCO_XT1: External 3-25 MHz oscillator clock selected  
1271:Libraries/STM32F10x_StdPeriph_Driver/src/stm32f10x_rcc.c ****   *     @arg RCC_MCO_PLL3CLK: PLL3 clock selected 
1272:Libraries/STM32F10x_StdPeriph_Driver/src/stm32f10x_rcc.c ****   * 
1273:Libraries/STM32F10x_StdPeriph_Driver/src/stm32f10x_rcc.c ****   *   For  @b other_STM32_devices, this parameter can be one of the following values:        
1274:Libraries/STM32F10x_StdPeriph_Driver/src/stm32f10x_rcc.c ****   *     @arg RCC_MCO_NoClock: No clock selected
1275:Libraries/STM32F10x_StdPeriph_Driver/src/stm32f10x_rcc.c ****   *     @arg RCC_MCO_SYSCLK: System clock selected
1276:Libraries/STM32F10x_StdPeriph_Driver/src/stm32f10x_rcc.c ****   *     @arg RCC_MCO_HSI: HSI oscillator clock selected
1277:Libraries/STM32F10x_StdPeriph_Driver/src/stm32f10x_rcc.c ****   *     @arg RCC_MCO_HSE: HSE oscillator clock selected
1278:Libraries/STM32F10x_StdPeriph_Driver/src/stm32f10x_rcc.c ****   *     @arg RCC_MCO_PLLCLK_Div2: PLL clock divided by 2 selected
1279:Libraries/STM32F10x_StdPeriph_Driver/src/stm32f10x_rcc.c ****   *   
1280:Libraries/STM32F10x_StdPeriph_Driver/src/stm32f10x_rcc.c ****   * @retval None
1281:Libraries/STM32F10x_StdPeriph_Driver/src/stm32f10x_rcc.c ****   */
1282:Libraries/STM32F10x_StdPeriph_Driver/src/stm32f10x_rcc.c **** void RCC_MCOConfig(uint8_t RCC_MCO)
1283:Libraries/STM32F10x_StdPeriph_Driver/src/stm32f10x_rcc.c **** {
 1036              		.loc 1 1283 0
 1037              		.cfi_startproc
 1038              		@ args = 0, pretend = 0, frame = 0
 1039              		@ frame_needed = 0, uses_anonymous_args = 0
 1040              		@ link register save eliminated.
 1041              	.LVL90:
ARM GAS  /var/folders/yt/6z6x8bjn5sjf5fbb45bk5m4c0000gn/T//cc9V89R8.s 			page 42


1284:Libraries/STM32F10x_StdPeriph_Driver/src/stm32f10x_rcc.c ****   /* Check the parameters */
1285:Libraries/STM32F10x_StdPeriph_Driver/src/stm32f10x_rcc.c ****   assert_param(IS_RCC_MCO(RCC_MCO));
1286:Libraries/STM32F10x_StdPeriph_Driver/src/stm32f10x_rcc.c **** 
1287:Libraries/STM32F10x_StdPeriph_Driver/src/stm32f10x_rcc.c ****   /* Perform Byte access to MCO bits to select the MCO source */
1288:Libraries/STM32F10x_StdPeriph_Driver/src/stm32f10x_rcc.c ****   *(__IO uint8_t *) CFGR_BYTE4_ADDRESS = RCC_MCO;
 1042              		.loc 1 1288 0
 1043 02ac 014B     		ldr	r3, .L116	@ tmp111,
 1044 02ae 1870     		strb	r0, [r3]	@ RCC_MCO, MEM[(volatile uint8_t *)1073876999B]
 1045 02b0 7047     		bx	lr	@
 1046              	.L117:
 1047 02b2 00BF     		.align	2
 1048              	.L116:
 1049 02b4 07100240 		.word	1073876999
 1050              		.cfi_endproc
 1051              	.LFE56:
 1052              		.size	RCC_MCOConfig, .-RCC_MCOConfig
 1053              		.align	1
 1054              		.global	RCC_GetFlagStatus
 1055              		.thumb
 1056              		.thumb_func
 1057              		.type	RCC_GetFlagStatus, %function
 1058              	RCC_GetFlagStatus:
 1059              	.LFB57:
1289:Libraries/STM32F10x_StdPeriph_Driver/src/stm32f10x_rcc.c **** }
1290:Libraries/STM32F10x_StdPeriph_Driver/src/stm32f10x_rcc.c **** 
1291:Libraries/STM32F10x_StdPeriph_Driver/src/stm32f10x_rcc.c **** /**
1292:Libraries/STM32F10x_StdPeriph_Driver/src/stm32f10x_rcc.c ****   * @brief  Checks whether the specified RCC flag is set or not.
1293:Libraries/STM32F10x_StdPeriph_Driver/src/stm32f10x_rcc.c ****   * @param  RCC_FLAG: specifies the flag to check.
1294:Libraries/STM32F10x_StdPeriph_Driver/src/stm32f10x_rcc.c ****   *   
1295:Libraries/STM32F10x_StdPeriph_Driver/src/stm32f10x_rcc.c ****   *   For @b STM32_Connectivity_line_devices, this parameter can be one of the
1296:Libraries/STM32F10x_StdPeriph_Driver/src/stm32f10x_rcc.c ****   *   following values:
1297:Libraries/STM32F10x_StdPeriph_Driver/src/stm32f10x_rcc.c ****   *     @arg RCC_FLAG_HSIRDY: HSI oscillator clock ready
1298:Libraries/STM32F10x_StdPeriph_Driver/src/stm32f10x_rcc.c ****   *     @arg RCC_FLAG_HSERDY: HSE oscillator clock ready
1299:Libraries/STM32F10x_StdPeriph_Driver/src/stm32f10x_rcc.c ****   *     @arg RCC_FLAG_PLLRDY: PLL clock ready
1300:Libraries/STM32F10x_StdPeriph_Driver/src/stm32f10x_rcc.c ****   *     @arg RCC_FLAG_PLL2RDY: PLL2 clock ready      
1301:Libraries/STM32F10x_StdPeriph_Driver/src/stm32f10x_rcc.c ****   *     @arg RCC_FLAG_PLL3RDY: PLL3 clock ready                           
1302:Libraries/STM32F10x_StdPeriph_Driver/src/stm32f10x_rcc.c ****   *     @arg RCC_FLAG_LSERDY: LSE oscillator clock ready
1303:Libraries/STM32F10x_StdPeriph_Driver/src/stm32f10x_rcc.c ****   *     @arg RCC_FLAG_LSIRDY: LSI oscillator clock ready
1304:Libraries/STM32F10x_StdPeriph_Driver/src/stm32f10x_rcc.c ****   *     @arg RCC_FLAG_PINRST: Pin reset
1305:Libraries/STM32F10x_StdPeriph_Driver/src/stm32f10x_rcc.c ****   *     @arg RCC_FLAG_PORRST: POR/PDR reset
1306:Libraries/STM32F10x_StdPeriph_Driver/src/stm32f10x_rcc.c ****   *     @arg RCC_FLAG_SFTRST: Software reset
1307:Libraries/STM32F10x_StdPeriph_Driver/src/stm32f10x_rcc.c ****   *     @arg RCC_FLAG_IWDGRST: Independent Watchdog reset
1308:Libraries/STM32F10x_StdPeriph_Driver/src/stm32f10x_rcc.c ****   *     @arg RCC_FLAG_WWDGRST: Window Watchdog reset
1309:Libraries/STM32F10x_StdPeriph_Driver/src/stm32f10x_rcc.c ****   *     @arg RCC_FLAG_LPWRRST: Low Power reset
1310:Libraries/STM32F10x_StdPeriph_Driver/src/stm32f10x_rcc.c ****   * 
1311:Libraries/STM32F10x_StdPeriph_Driver/src/stm32f10x_rcc.c ****   *   For @b other_STM32_devices, this parameter can be one of the following values:        
1312:Libraries/STM32F10x_StdPeriph_Driver/src/stm32f10x_rcc.c ****   *     @arg RCC_FLAG_HSIRDY: HSI oscillator clock ready
1313:Libraries/STM32F10x_StdPeriph_Driver/src/stm32f10x_rcc.c ****   *     @arg RCC_FLAG_HSERDY: HSE oscillator clock ready
1314:Libraries/STM32F10x_StdPeriph_Driver/src/stm32f10x_rcc.c ****   *     @arg RCC_FLAG_PLLRDY: PLL clock ready
1315:Libraries/STM32F10x_StdPeriph_Driver/src/stm32f10x_rcc.c ****   *     @arg RCC_FLAG_LSERDY: LSE oscillator clock ready
1316:Libraries/STM32F10x_StdPeriph_Driver/src/stm32f10x_rcc.c ****   *     @arg RCC_FLAG_LSIRDY: LSI oscillator clock ready
1317:Libraries/STM32F10x_StdPeriph_Driver/src/stm32f10x_rcc.c ****   *     @arg RCC_FLAG_PINRST: Pin reset
1318:Libraries/STM32F10x_StdPeriph_Driver/src/stm32f10x_rcc.c ****   *     @arg RCC_FLAG_PORRST: POR/PDR reset
1319:Libraries/STM32F10x_StdPeriph_Driver/src/stm32f10x_rcc.c ****   *     @arg RCC_FLAG_SFTRST: Software reset
1320:Libraries/STM32F10x_StdPeriph_Driver/src/stm32f10x_rcc.c ****   *     @arg RCC_FLAG_IWDGRST: Independent Watchdog reset
1321:Libraries/STM32F10x_StdPeriph_Driver/src/stm32f10x_rcc.c ****   *     @arg RCC_FLAG_WWDGRST: Window Watchdog reset
1322:Libraries/STM32F10x_StdPeriph_Driver/src/stm32f10x_rcc.c ****   *     @arg RCC_FLAG_LPWRRST: Low Power reset
ARM GAS  /var/folders/yt/6z6x8bjn5sjf5fbb45bk5m4c0000gn/T//cc9V89R8.s 			page 43


1323:Libraries/STM32F10x_StdPeriph_Driver/src/stm32f10x_rcc.c ****   *   
1324:Libraries/STM32F10x_StdPeriph_Driver/src/stm32f10x_rcc.c ****   * @retval The new state of RCC_FLAG (SET or RESET).
1325:Libraries/STM32F10x_StdPeriph_Driver/src/stm32f10x_rcc.c ****   */
1326:Libraries/STM32F10x_StdPeriph_Driver/src/stm32f10x_rcc.c **** FlagStatus RCC_GetFlagStatus(uint8_t RCC_FLAG)
1327:Libraries/STM32F10x_StdPeriph_Driver/src/stm32f10x_rcc.c **** {
 1060              		.loc 1 1327 0
 1061              		.cfi_startproc
 1062              		@ args = 0, pretend = 0, frame = 0
 1063              		@ frame_needed = 0, uses_anonymous_args = 0
 1064              		@ link register save eliminated.
 1065              	.LVL91:
1328:Libraries/STM32F10x_StdPeriph_Driver/src/stm32f10x_rcc.c ****   uint32_t tmp = 0;
1329:Libraries/STM32F10x_StdPeriph_Driver/src/stm32f10x_rcc.c ****   uint32_t statusreg = 0;
1330:Libraries/STM32F10x_StdPeriph_Driver/src/stm32f10x_rcc.c ****   FlagStatus bitstatus = RESET;
1331:Libraries/STM32F10x_StdPeriph_Driver/src/stm32f10x_rcc.c ****   /* Check the parameters */
1332:Libraries/STM32F10x_StdPeriph_Driver/src/stm32f10x_rcc.c ****   assert_param(IS_RCC_FLAG(RCC_FLAG));
1333:Libraries/STM32F10x_StdPeriph_Driver/src/stm32f10x_rcc.c **** 
1334:Libraries/STM32F10x_StdPeriph_Driver/src/stm32f10x_rcc.c ****   /* Get the RCC register index */
1335:Libraries/STM32F10x_StdPeriph_Driver/src/stm32f10x_rcc.c ****   tmp = RCC_FLAG >> 5;
 1066              		.loc 1 1335 0
 1067 02b8 4209     		lsrs	r2, r0, #5	@ D.5933, RCC_FLAG,
 1068              	.LVL92:
1336:Libraries/STM32F10x_StdPeriph_Driver/src/stm32f10x_rcc.c ****   if (tmp == 1)               /* The flag to check is in CR register */
 1069              		.loc 1 1336 0
 1070 02ba 012A     		cmp	r2, #1	@ D.5933,
 1071 02bc 074B     		ldr	r3, .L122	@ tmp129,
 1072 02be 01D1     		bne	.L119	@,
1337:Libraries/STM32F10x_StdPeriph_Driver/src/stm32f10x_rcc.c ****   {
1338:Libraries/STM32F10x_StdPeriph_Driver/src/stm32f10x_rcc.c ****     statusreg = RCC->CR;
 1073              		.loc 1 1338 0
 1074 02c0 1B68     		ldr	r3, [r3]	@ statusreg, MEM[(struct RCC_TypeDef *)1073876992B].CR
 1075              	.LVL93:
 1076 02c2 03E0     		b	.L120	@
 1077              	.LVL94:
 1078              	.L119:
1339:Libraries/STM32F10x_StdPeriph_Driver/src/stm32f10x_rcc.c ****   }
1340:Libraries/STM32F10x_StdPeriph_Driver/src/stm32f10x_rcc.c ****   else if (tmp == 2)          /* The flag to check is in BDCR register */
 1079              		.loc 1 1340 0
 1080 02c4 022A     		cmp	r2, #2	@ D.5933,
1341:Libraries/STM32F10x_StdPeriph_Driver/src/stm32f10x_rcc.c ****   {
1342:Libraries/STM32F10x_StdPeriph_Driver/src/stm32f10x_rcc.c ****     statusreg = RCC->BDCR;
 1081              		.loc 1 1342 0
 1082 02c6 0CBF     		ite	eq
 1083 02c8 1B6A     		ldreq	r3, [r3, #32]	@ statusreg, MEM[(struct RCC_TypeDef *)1073876992B].BDCR
 1084              	.LVL95:
1343:Libraries/STM32F10x_StdPeriph_Driver/src/stm32f10x_rcc.c ****   }
1344:Libraries/STM32F10x_StdPeriph_Driver/src/stm32f10x_rcc.c ****   else                       /* The flag to check is in CSR register */
1345:Libraries/STM32F10x_StdPeriph_Driver/src/stm32f10x_rcc.c ****   {
1346:Libraries/STM32F10x_StdPeriph_Driver/src/stm32f10x_rcc.c ****     statusreg = RCC->CSR;
 1085              		.loc 1 1346 0
 1086 02ca 5B6A     		ldrne	r3, [r3, #36]	@ statusreg, MEM[(struct RCC_TypeDef *)1073876992B].CSR
 1087              	.LVL96:
 1088              	.L120:
1347:Libraries/STM32F10x_StdPeriph_Driver/src/stm32f10x_rcc.c ****   }
1348:Libraries/STM32F10x_StdPeriph_Driver/src/stm32f10x_rcc.c **** 
1349:Libraries/STM32F10x_StdPeriph_Driver/src/stm32f10x_rcc.c ****   /* Get the flag position */
1350:Libraries/STM32F10x_StdPeriph_Driver/src/stm32f10x_rcc.c ****   tmp = RCC_FLAG & FLAG_Mask;
ARM GAS  /var/folders/yt/6z6x8bjn5sjf5fbb45bk5m4c0000gn/T//cc9V89R8.s 			page 44


1351:Libraries/STM32F10x_StdPeriph_Driver/src/stm32f10x_rcc.c ****   if ((statusreg & ((uint32_t)1 << tmp)) != (uint32_t)RESET)
 1089              		.loc 1 1351 0
 1090 02cc 00F01F00 		and	r0, r0, #31	@ D.5935, RCC_FLAG,
 1091              	.LVL97:
 1092 02d0 23FA00F0 		lsr	r0, r3, r0	@ D.5936, statusreg, D.5935
1352:Libraries/STM32F10x_StdPeriph_Driver/src/stm32f10x_rcc.c ****   {
1353:Libraries/STM32F10x_StdPeriph_Driver/src/stm32f10x_rcc.c ****     bitstatus = SET;
1354:Libraries/STM32F10x_StdPeriph_Driver/src/stm32f10x_rcc.c ****   }
1355:Libraries/STM32F10x_StdPeriph_Driver/src/stm32f10x_rcc.c ****   else
1356:Libraries/STM32F10x_StdPeriph_Driver/src/stm32f10x_rcc.c ****   {
1357:Libraries/STM32F10x_StdPeriph_Driver/src/stm32f10x_rcc.c ****     bitstatus = RESET;
1358:Libraries/STM32F10x_StdPeriph_Driver/src/stm32f10x_rcc.c ****   }
1359:Libraries/STM32F10x_StdPeriph_Driver/src/stm32f10x_rcc.c **** 
1360:Libraries/STM32F10x_StdPeriph_Driver/src/stm32f10x_rcc.c ****   /* Return the flag status */
1361:Libraries/STM32F10x_StdPeriph_Driver/src/stm32f10x_rcc.c ****   return bitstatus;
1362:Libraries/STM32F10x_StdPeriph_Driver/src/stm32f10x_rcc.c **** }
 1093              		.loc 1 1362 0
 1094 02d4 00F00100 		and	r0, r0, #1	@, D.5936,
 1095 02d8 7047     		bx	lr	@
 1096              	.L123:
 1097 02da 00BF     		.align	2
 1098              	.L122:
 1099 02dc 00100240 		.word	1073876992
 1100              		.cfi_endproc
 1101              	.LFE57:
 1102              		.size	RCC_GetFlagStatus, .-RCC_GetFlagStatus
 1103              		.align	1
 1104              		.global	RCC_WaitForHSEStartUp
 1105              		.thumb
 1106              		.thumb_func
 1107              		.type	RCC_WaitForHSEStartUp, %function
 1108              	RCC_WaitForHSEStartUp:
 1109              	.LFB31:
 305:Libraries/STM32F10x_StdPeriph_Driver/src/stm32f10x_rcc.c ****   __IO uint32_t StartUpCounter = 0;
 1110              		.loc 1 305 0
 1111              		.cfi_startproc
 1112              		@ args = 0, pretend = 0, frame = 8
 1113              		@ frame_needed = 0, uses_anonymous_args = 0
 1114 02e0 07B5     		push	{r0, r1, r2, lr}	@
 1115              	.LCFI1:
 1116              		.cfi_def_cfa_offset 16
 1117              		.cfi_offset 14, -4
 306:Libraries/STM32F10x_StdPeriph_Driver/src/stm32f10x_rcc.c ****   ErrorStatus status = ERROR;
 1118              		.loc 1 306 0
 1119 02e2 0023     		movs	r3, #0	@ tmp118,
 1120 02e4 0193     		str	r3, [sp, #4]	@ tmp118, StartUpCounter
 1121              	.LVL98:
 1122              	.L126:
 313:Libraries/STM32F10x_StdPeriph_Driver/src/stm32f10x_rcc.c ****     StartUpCounter++;  
 1123              		.loc 1 313 0 discriminator 2
 1124 02e6 3120     		movs	r0, #49	@,
 1125 02e8 FFF7FEFF 		bl	RCC_GetFlagStatus	@
 1126              	.LVL99:
 314:Libraries/STM32F10x_StdPeriph_Driver/src/stm32f10x_rcc.c ****   } while((StartUpCounter != HSE_STARTUP_TIMEOUT) && (HSEStatus == RESET));
 1127              		.loc 1 314 0 discriminator 2
 1128 02ec 019B     		ldr	r3, [sp, #4]	@ D.5940, StartUpCounter
 1129 02ee 0133     		adds	r3, r3, #1	@ D.5940, D.5940,
ARM GAS  /var/folders/yt/6z6x8bjn5sjf5fbb45bk5m4c0000gn/T//cc9V89R8.s 			page 45


 1130 02f0 0193     		str	r3, [sp, #4]	@ D.5940, StartUpCounter
 315:Libraries/STM32F10x_StdPeriph_Driver/src/stm32f10x_rcc.c ****   
 1131              		.loc 1 315 0 discriminator 2
 1132 02f2 019B     		ldr	r3, [sp, #4]	@ D.5940, StartUpCounter
 1133 02f4 B3F5A06F 		cmp	r3, #1280	@ D.5940,
 1134 02f8 01D0     		beq	.L125	@,
 315:Libraries/STM32F10x_StdPeriph_Driver/src/stm32f10x_rcc.c ****   
 1135              		.loc 1 315 0 is_stmt 0 discriminator 1
 1136 02fa 0028     		cmp	r0, #0	@ tmp119
 1137 02fc F3D0     		beq	.L126	@
 1138              	.L125:
 317:Libraries/STM32F10x_StdPeriph_Driver/src/stm32f10x_rcc.c ****   {
 1139              		.loc 1 317 0 is_stmt 1
 1140 02fe 3120     		movs	r0, #49	@,
 1141              	.LVL100:
 1142 0300 FFF7FEFF 		bl	RCC_GetFlagStatus	@
 1143              	.LVL101:
 326:Libraries/STM32F10x_StdPeriph_Driver/src/stm32f10x_rcc.c **** 
 1144              		.loc 1 326 0
 1145 0304 0030     		adds	r0, r0, #0	@,,
 1146              	.LVL102:
 1147 0306 18BF     		it	ne
 1148 0308 0120     		movne	r0, #1	@,
 1149 030a 03B0     		add	sp, sp, #12	@,,
 1150              	.LCFI2:
 1151              		.cfi_def_cfa_offset 4
 1152              		@ sp needed	@
 1153 030c 5DF804FB 		ldr	pc, [sp], #4	@
 1154              		.cfi_endproc
 1155              	.LFE31:
 1156              		.size	RCC_WaitForHSEStartUp, .-RCC_WaitForHSEStartUp
 1157              		.align	1
 1158              		.global	RCC_ClearFlag
 1159              		.thumb
 1160              		.thumb_func
 1161              		.type	RCC_ClearFlag, %function
 1162              	RCC_ClearFlag:
 1163              	.LFB58:
1363:Libraries/STM32F10x_StdPeriph_Driver/src/stm32f10x_rcc.c **** 
1364:Libraries/STM32F10x_StdPeriph_Driver/src/stm32f10x_rcc.c **** /**
1365:Libraries/STM32F10x_StdPeriph_Driver/src/stm32f10x_rcc.c ****   * @brief  Clears the RCC reset flags.
1366:Libraries/STM32F10x_StdPeriph_Driver/src/stm32f10x_rcc.c ****   * @note   The reset flags are: RCC_FLAG_PINRST, RCC_FLAG_PORRST, RCC_FLAG_SFTRST,
1367:Libraries/STM32F10x_StdPeriph_Driver/src/stm32f10x_rcc.c ****   *   RCC_FLAG_IWDGRST, RCC_FLAG_WWDGRST, RCC_FLAG_LPWRRST
1368:Libraries/STM32F10x_StdPeriph_Driver/src/stm32f10x_rcc.c ****   * @param  None
1369:Libraries/STM32F10x_StdPeriph_Driver/src/stm32f10x_rcc.c ****   * @retval None
1370:Libraries/STM32F10x_StdPeriph_Driver/src/stm32f10x_rcc.c ****   */
1371:Libraries/STM32F10x_StdPeriph_Driver/src/stm32f10x_rcc.c **** void RCC_ClearFlag(void)
1372:Libraries/STM32F10x_StdPeriph_Driver/src/stm32f10x_rcc.c **** {
 1164              		.loc 1 1372 0
 1165              		.cfi_startproc
 1166              		@ args = 0, pretend = 0, frame = 0
 1167              		@ frame_needed = 0, uses_anonymous_args = 0
 1168              		@ link register save eliminated.
1373:Libraries/STM32F10x_StdPeriph_Driver/src/stm32f10x_rcc.c ****   /* Set RMVF bit to clear the reset flags */
1374:Libraries/STM32F10x_StdPeriph_Driver/src/stm32f10x_rcc.c ****   RCC->CSR |= CSR_RMVF_Set;
 1169              		.loc 1 1374 0
 1170 0310 024A     		ldr	r2, .L133	@ tmp112,
ARM GAS  /var/folders/yt/6z6x8bjn5sjf5fbb45bk5m4c0000gn/T//cc9V89R8.s 			page 46


 1171 0312 536A     		ldr	r3, [r2, #36]	@ D.5946, MEM[(struct RCC_TypeDef *)1073876992B].CSR
 1172 0314 43F08073 		orr	r3, r3, #16777216	@ D.5946, D.5946,
 1173 0318 5362     		str	r3, [r2, #36]	@ D.5946, MEM[(struct RCC_TypeDef *)1073876992B].CSR
 1174 031a 7047     		bx	lr	@
 1175              	.L134:
 1176              		.align	2
 1177              	.L133:
 1178 031c 00100240 		.word	1073876992
 1179              		.cfi_endproc
 1180              	.LFE58:
 1181              		.size	RCC_ClearFlag, .-RCC_ClearFlag
 1182              		.align	1
 1183              		.global	RCC_GetITStatus
 1184              		.thumb
 1185              		.thumb_func
 1186              		.type	RCC_GetITStatus, %function
 1187              	RCC_GetITStatus:
 1188              	.LFB59:
1375:Libraries/STM32F10x_StdPeriph_Driver/src/stm32f10x_rcc.c **** }
1376:Libraries/STM32F10x_StdPeriph_Driver/src/stm32f10x_rcc.c **** 
1377:Libraries/STM32F10x_StdPeriph_Driver/src/stm32f10x_rcc.c **** /**
1378:Libraries/STM32F10x_StdPeriph_Driver/src/stm32f10x_rcc.c ****   * @brief  Checks whether the specified RCC interrupt has occurred or not.
1379:Libraries/STM32F10x_StdPeriph_Driver/src/stm32f10x_rcc.c ****   * @param  RCC_IT: specifies the RCC interrupt source to check.
1380:Libraries/STM32F10x_StdPeriph_Driver/src/stm32f10x_rcc.c ****   *   
1381:Libraries/STM32F10x_StdPeriph_Driver/src/stm32f10x_rcc.c ****   *   For @b STM32_Connectivity_line_devices, this parameter can be one of the
1382:Libraries/STM32F10x_StdPeriph_Driver/src/stm32f10x_rcc.c ****   *   following values:
1383:Libraries/STM32F10x_StdPeriph_Driver/src/stm32f10x_rcc.c ****   *     @arg RCC_IT_LSIRDY: LSI ready interrupt
1384:Libraries/STM32F10x_StdPeriph_Driver/src/stm32f10x_rcc.c ****   *     @arg RCC_IT_LSERDY: LSE ready interrupt
1385:Libraries/STM32F10x_StdPeriph_Driver/src/stm32f10x_rcc.c ****   *     @arg RCC_IT_HSIRDY: HSI ready interrupt
1386:Libraries/STM32F10x_StdPeriph_Driver/src/stm32f10x_rcc.c ****   *     @arg RCC_IT_HSERDY: HSE ready interrupt
1387:Libraries/STM32F10x_StdPeriph_Driver/src/stm32f10x_rcc.c ****   *     @arg RCC_IT_PLLRDY: PLL ready interrupt
1388:Libraries/STM32F10x_StdPeriph_Driver/src/stm32f10x_rcc.c ****   *     @arg RCC_IT_PLL2RDY: PLL2 ready interrupt 
1389:Libraries/STM32F10x_StdPeriph_Driver/src/stm32f10x_rcc.c ****   *     @arg RCC_IT_PLL3RDY: PLL3 ready interrupt                      
1390:Libraries/STM32F10x_StdPeriph_Driver/src/stm32f10x_rcc.c ****   *     @arg RCC_IT_CSS: Clock Security System interrupt
1391:Libraries/STM32F10x_StdPeriph_Driver/src/stm32f10x_rcc.c ****   * 
1392:Libraries/STM32F10x_StdPeriph_Driver/src/stm32f10x_rcc.c ****   *   For @b other_STM32_devices, this parameter can be one of the following values:        
1393:Libraries/STM32F10x_StdPeriph_Driver/src/stm32f10x_rcc.c ****   *     @arg RCC_IT_LSIRDY: LSI ready interrupt
1394:Libraries/STM32F10x_StdPeriph_Driver/src/stm32f10x_rcc.c ****   *     @arg RCC_IT_LSERDY: LSE ready interrupt
1395:Libraries/STM32F10x_StdPeriph_Driver/src/stm32f10x_rcc.c ****   *     @arg RCC_IT_HSIRDY: HSI ready interrupt
1396:Libraries/STM32F10x_StdPeriph_Driver/src/stm32f10x_rcc.c ****   *     @arg RCC_IT_HSERDY: HSE ready interrupt
1397:Libraries/STM32F10x_StdPeriph_Driver/src/stm32f10x_rcc.c ****   *     @arg RCC_IT_PLLRDY: PLL ready interrupt
1398:Libraries/STM32F10x_StdPeriph_Driver/src/stm32f10x_rcc.c ****   *     @arg RCC_IT_CSS: Clock Security System interrupt
1399:Libraries/STM32F10x_StdPeriph_Driver/src/stm32f10x_rcc.c ****   *   
1400:Libraries/STM32F10x_StdPeriph_Driver/src/stm32f10x_rcc.c ****   * @retval The new state of RCC_IT (SET or RESET).
1401:Libraries/STM32F10x_StdPeriph_Driver/src/stm32f10x_rcc.c ****   */
1402:Libraries/STM32F10x_StdPeriph_Driver/src/stm32f10x_rcc.c **** ITStatus RCC_GetITStatus(uint8_t RCC_IT)
1403:Libraries/STM32F10x_StdPeriph_Driver/src/stm32f10x_rcc.c **** {
 1189              		.loc 1 1403 0
 1190              		.cfi_startproc
 1191              		@ args = 0, pretend = 0, frame = 0
 1192              		@ frame_needed = 0, uses_anonymous_args = 0
 1193              		@ link register save eliminated.
 1194              	.LVL103:
1404:Libraries/STM32F10x_StdPeriph_Driver/src/stm32f10x_rcc.c ****   ITStatus bitstatus = RESET;
1405:Libraries/STM32F10x_StdPeriph_Driver/src/stm32f10x_rcc.c ****   /* Check the parameters */
1406:Libraries/STM32F10x_StdPeriph_Driver/src/stm32f10x_rcc.c ****   assert_param(IS_RCC_GET_IT(RCC_IT));
1407:Libraries/STM32F10x_StdPeriph_Driver/src/stm32f10x_rcc.c **** 
ARM GAS  /var/folders/yt/6z6x8bjn5sjf5fbb45bk5m4c0000gn/T//cc9V89R8.s 			page 47


1408:Libraries/STM32F10x_StdPeriph_Driver/src/stm32f10x_rcc.c ****   /* Check the status of the specified RCC interrupt */
1409:Libraries/STM32F10x_StdPeriph_Driver/src/stm32f10x_rcc.c ****   if ((RCC->CIR & RCC_IT) != (uint32_t)RESET)
 1195              		.loc 1 1409 0
 1196 0320 034B     		ldr	r3, .L136	@ tmp117,
 1197 0322 9B68     		ldr	r3, [r3, #8]	@ D.5949, MEM[(struct RCC_TypeDef *)1073876992B].CIR
 1198              	.LVL104:
 1199 0324 1842     		tst	r0, r3	@ RCC_IT, D.5949
1410:Libraries/STM32F10x_StdPeriph_Driver/src/stm32f10x_rcc.c ****   {
1411:Libraries/STM32F10x_StdPeriph_Driver/src/stm32f10x_rcc.c ****     bitstatus = SET;
1412:Libraries/STM32F10x_StdPeriph_Driver/src/stm32f10x_rcc.c ****   }
1413:Libraries/STM32F10x_StdPeriph_Driver/src/stm32f10x_rcc.c ****   else
1414:Libraries/STM32F10x_StdPeriph_Driver/src/stm32f10x_rcc.c ****   {
1415:Libraries/STM32F10x_StdPeriph_Driver/src/stm32f10x_rcc.c ****     bitstatus = RESET;
1416:Libraries/STM32F10x_StdPeriph_Driver/src/stm32f10x_rcc.c ****   }
1417:Libraries/STM32F10x_StdPeriph_Driver/src/stm32f10x_rcc.c **** 
1418:Libraries/STM32F10x_StdPeriph_Driver/src/stm32f10x_rcc.c ****   /* Return the RCC_IT status */
1419:Libraries/STM32F10x_StdPeriph_Driver/src/stm32f10x_rcc.c ****   return  bitstatus;
1420:Libraries/STM32F10x_StdPeriph_Driver/src/stm32f10x_rcc.c **** }
 1200              		.loc 1 1420 0
 1201 0326 14BF     		ite	ne
 1202 0328 0120     		movne	r0, #1	@,
 1203              	.LVL105:
 1204 032a 0020     		moveq	r0, #0	@,
 1205 032c 7047     		bx	lr	@
 1206              	.L137:
 1207 032e 00BF     		.align	2
 1208              	.L136:
 1209 0330 00100240 		.word	1073876992
 1210              		.cfi_endproc
 1211              	.LFE59:
 1212              		.size	RCC_GetITStatus, .-RCC_GetITStatus
 1213              		.align	1
 1214              		.global	RCC_ClearITPendingBit
 1215              		.thumb
 1216              		.thumb_func
 1217              		.type	RCC_ClearITPendingBit, %function
 1218              	RCC_ClearITPendingBit:
 1219              	.LFB60:
1421:Libraries/STM32F10x_StdPeriph_Driver/src/stm32f10x_rcc.c **** 
1422:Libraries/STM32F10x_StdPeriph_Driver/src/stm32f10x_rcc.c **** /**
1423:Libraries/STM32F10x_StdPeriph_Driver/src/stm32f10x_rcc.c ****   * @brief  Clears the RCC's interrupt pending bits.
1424:Libraries/STM32F10x_StdPeriph_Driver/src/stm32f10x_rcc.c ****   * @param  RCC_IT: specifies the interrupt pending bit to clear.
1425:Libraries/STM32F10x_StdPeriph_Driver/src/stm32f10x_rcc.c ****   *   
1426:Libraries/STM32F10x_StdPeriph_Driver/src/stm32f10x_rcc.c ****   *   For @b STM32_Connectivity_line_devices, this parameter can be any combination
1427:Libraries/STM32F10x_StdPeriph_Driver/src/stm32f10x_rcc.c ****   *   of the following values:
1428:Libraries/STM32F10x_StdPeriph_Driver/src/stm32f10x_rcc.c ****   *     @arg RCC_IT_LSIRDY: LSI ready interrupt
1429:Libraries/STM32F10x_StdPeriph_Driver/src/stm32f10x_rcc.c ****   *     @arg RCC_IT_LSERDY: LSE ready interrupt
1430:Libraries/STM32F10x_StdPeriph_Driver/src/stm32f10x_rcc.c ****   *     @arg RCC_IT_HSIRDY: HSI ready interrupt
1431:Libraries/STM32F10x_StdPeriph_Driver/src/stm32f10x_rcc.c ****   *     @arg RCC_IT_HSERDY: HSE ready interrupt
1432:Libraries/STM32F10x_StdPeriph_Driver/src/stm32f10x_rcc.c ****   *     @arg RCC_IT_PLLRDY: PLL ready interrupt
1433:Libraries/STM32F10x_StdPeriph_Driver/src/stm32f10x_rcc.c ****   *     @arg RCC_IT_PLL2RDY: PLL2 ready interrupt 
1434:Libraries/STM32F10x_StdPeriph_Driver/src/stm32f10x_rcc.c ****   *     @arg RCC_IT_PLL3RDY: PLL3 ready interrupt                      
1435:Libraries/STM32F10x_StdPeriph_Driver/src/stm32f10x_rcc.c ****   *     @arg RCC_IT_CSS: Clock Security System interrupt
1436:Libraries/STM32F10x_StdPeriph_Driver/src/stm32f10x_rcc.c ****   * 
1437:Libraries/STM32F10x_StdPeriph_Driver/src/stm32f10x_rcc.c ****   *   For @b other_STM32_devices, this parameter can be any combination of the
1438:Libraries/STM32F10x_StdPeriph_Driver/src/stm32f10x_rcc.c ****   *   following values:        
1439:Libraries/STM32F10x_StdPeriph_Driver/src/stm32f10x_rcc.c ****   *     @arg RCC_IT_LSIRDY: LSI ready interrupt
ARM GAS  /var/folders/yt/6z6x8bjn5sjf5fbb45bk5m4c0000gn/T//cc9V89R8.s 			page 48


1440:Libraries/STM32F10x_StdPeriph_Driver/src/stm32f10x_rcc.c ****   *     @arg RCC_IT_LSERDY: LSE ready interrupt
1441:Libraries/STM32F10x_StdPeriph_Driver/src/stm32f10x_rcc.c ****   *     @arg RCC_IT_HSIRDY: HSI ready interrupt
1442:Libraries/STM32F10x_StdPeriph_Driver/src/stm32f10x_rcc.c ****   *     @arg RCC_IT_HSERDY: HSE ready interrupt
1443:Libraries/STM32F10x_StdPeriph_Driver/src/stm32f10x_rcc.c ****   *     @arg RCC_IT_PLLRDY: PLL ready interrupt
1444:Libraries/STM32F10x_StdPeriph_Driver/src/stm32f10x_rcc.c ****   *   
1445:Libraries/STM32F10x_StdPeriph_Driver/src/stm32f10x_rcc.c ****   *     @arg RCC_IT_CSS: Clock Security System interrupt
1446:Libraries/STM32F10x_StdPeriph_Driver/src/stm32f10x_rcc.c ****   * @retval None
1447:Libraries/STM32F10x_StdPeriph_Driver/src/stm32f10x_rcc.c ****   */
1448:Libraries/STM32F10x_StdPeriph_Driver/src/stm32f10x_rcc.c **** void RCC_ClearITPendingBit(uint8_t RCC_IT)
1449:Libraries/STM32F10x_StdPeriph_Driver/src/stm32f10x_rcc.c **** {
 1220              		.loc 1 1449 0
 1221              		.cfi_startproc
 1222              		@ args = 0, pretend = 0, frame = 0
 1223              		@ frame_needed = 0, uses_anonymous_args = 0
 1224              		@ link register save eliminated.
 1225              	.LVL106:
1450:Libraries/STM32F10x_StdPeriph_Driver/src/stm32f10x_rcc.c ****   /* Check the parameters */
1451:Libraries/STM32F10x_StdPeriph_Driver/src/stm32f10x_rcc.c ****   assert_param(IS_RCC_CLEAR_IT(RCC_IT));
1452:Libraries/STM32F10x_StdPeriph_Driver/src/stm32f10x_rcc.c **** 
1453:Libraries/STM32F10x_StdPeriph_Driver/src/stm32f10x_rcc.c ****   /* Perform Byte access to RCC_CIR[23:16] bits to clear the selected interrupt
1454:Libraries/STM32F10x_StdPeriph_Driver/src/stm32f10x_rcc.c ****      pending bits */
1455:Libraries/STM32F10x_StdPeriph_Driver/src/stm32f10x_rcc.c ****   *(__IO uint8_t *) CIR_BYTE3_ADDRESS = RCC_IT;
 1226              		.loc 1 1455 0
 1227 0334 014B     		ldr	r3, .L139	@ tmp111,
 1228 0336 1870     		strb	r0, [r3]	@ RCC_IT, MEM[(volatile uint8_t *)1073877002B]
 1229 0338 7047     		bx	lr	@
 1230              	.L140:
 1231 033a 00BF     		.align	2
 1232              	.L139:
 1233 033c 0A100240 		.word	1073877002
 1234              		.cfi_endproc
 1235              	.LFE60:
 1236              		.size	RCC_ClearITPendingBit, .-RCC_ClearITPendingBit
 1237              		.data
 1238              		.set	.LANCHOR0,. + 0
 1239              		.type	APBAHBPrescTable, %object
 1240              		.size	APBAHBPrescTable, 16
 1241              	APBAHBPrescTable:
 1242 0000 00       		.byte	0
 1243 0001 00       		.byte	0
 1244 0002 00       		.byte	0
 1245 0003 00       		.byte	0
 1246 0004 01       		.byte	1
 1247 0005 02       		.byte	2
 1248 0006 03       		.byte	3
 1249 0007 04       		.byte	4
 1250 0008 01       		.byte	1
 1251 0009 02       		.byte	2
 1252 000a 03       		.byte	3
 1253 000b 04       		.byte	4
 1254 000c 06       		.byte	6
 1255 000d 07       		.byte	7
 1256 000e 08       		.byte	8
 1257 000f 09       		.byte	9
 1258              		.type	ADCPrescTable, %object
 1259              		.size	ADCPrescTable, 4
 1260              	ADCPrescTable:
ARM GAS  /var/folders/yt/6z6x8bjn5sjf5fbb45bk5m4c0000gn/T//cc9V89R8.s 			page 49


 1261 0010 02       		.byte	2
 1262 0011 04       		.byte	4
 1263 0012 06       		.byte	6
 1264 0013 08       		.byte	8
 1265              		.text
 1266              	.Letext0:
 1267              		.file 2 "/usr/local/Cellar/arm-none-eabi-gcc/20150921/arm-none-eabi/include/machine/_default_types
 1268              		.file 3 "/usr/local/Cellar/arm-none-eabi-gcc/20150921/arm-none-eabi/include/sys/_stdint.h"
 1269              		.file 4 "./Libraries/CMSIS/CM3/DeviceSupport/ST/STM32F10x/stm32f10x.h"
 1270              		.file 5 "./Libraries/STM32F10x_StdPeriph_Driver/inc/stm32f10x_rcc.h"
 1271              		.file 6 "./Libraries/CMSIS/CM3/CoreSupport/core_cm3.h"