ARM GAS  /var/folders/yt/6z6x8bjn5sjf5fbb45bk5m4c0000gn/T//ccOwc6J1.s 			page 1


   1              		.syntax unified
   2              		.cpu cortex-m3
   3              		.fpu softvfp
   4              		.eabi_attribute 20, 1	@ Tag_ABI_FP_denormal
   5              		.eabi_attribute 21, 1	@ Tag_ABI_FP_exceptions
   6              		.eabi_attribute 23, 3	@ Tag_ABI_FP_number_model
   7              		.eabi_attribute 24, 1	@ Tag_ABI_align8_needed
   8              		.eabi_attribute 25, 1	@ Tag_ABI_align8_preserved
   9              		.eabi_attribute 26, 1	@ Tag_ABI_enum_size
  10              		.eabi_attribute 30, 4	@ Tag_ABI_optimization_goals
  11              		.eabi_attribute 34, 1	@ Tag_CPU_unaligned_access
  12              		.eabi_attribute 18, 4	@ Tag_ABI_PCS_wchar_t
  13              		.file	"stm32f10x_gpio.c"
  14              	@ GNU C (GNU Tools for ARM Embedded Processors) version 4.9.3 20150529 (release) [ARM/embedded-4_9-
  15              	@	compiled by GNU C version 4.2.1 (Based on Apple Inc. build 5658) (LLVM build 2336.9.00), GMP vers
  16              	@ GGC heuristics: --param ggc-min-expand=100 --param ggc-min-heapsize=131072
  17              	@ options passed:  -I . -I ./Libraries/CMSIS/CM3/CoreSupport
  18              	@ -I ./Libraries/CMSIS/CM3/DeviceSupport/ST/STM32F10x
  19              	@ -I ./Libraries/STM32F10x_StdPeriph_Driver/inc -I ./Libraries/Drivers/Leds
  20              	@ -I ./Libraries/Drivers/Buttons -I ./Libraries/Drivers/Usart
  21              	@ -I ./Libraries/Drivers/i2c -I ./Libraries/Drivers/BH1750
  22              	@ -I ./Libraries/Drivers/Utilities -I ./FreeRTOS/Source/include
  23              	@ -I ./FreeRTOS/Source/portable/GCC/ARM_CM3 -imultilib armv7-m
  24              	@ -iprefix /usr/local/Cellar/arm-none-eabi-gcc/20150921/bin/../lib/gcc/arm-none-eabi/4.9.3/
  25              	@ -isysroot /usr/local/Cellar/arm-none-eabi-gcc/20150921/bin/../arm-none-eabi
  26              	@ -MD Libraries/STM32F10x_StdPeriph_Driver/src/stm32f10x_gpio.d
  27              	@ -MF .dep/stm32f10x_gpio.o.d -MP
  28              	@ -MQ Libraries/STM32F10x_StdPeriph_Driver/src/stm32f10x_gpio.o
  29              	@ -D__USES_INITFINI__ -D STM32F10X_MD -D USE_STDPERIPH_DRIVER -D GCC_ARMCM3
  30              	@ -D RUN_FROM_FLASH=1
  31              	@ Libraries/STM32F10x_StdPeriph_Driver/src/stm32f10x_gpio.c -mcpu=cortex-m3
  32              	@ -mthumb
  33              	@ -auxbase-strip Libraries/STM32F10x_StdPeriph_Driver/src/stm32f10x_gpio.o
  34              	@ -gdwarf-2 -Os -Wall -Wstrict-prototypes -fomit-frame-pointer
  35              	@ -fverbose-asm
  36              	@ options enabled:  -faggressive-loop-optimizations -fauto-inc-dec
  37              	@ -fbranch-count-reg -fcaller-saves -fcombine-stack-adjustments -fcommon
  38              	@ -fcompare-elim -fcprop-registers -fcrossjumping -fcse-follow-jumps
  39              	@ -fdefer-pop -fdelete-null-pointer-checks -fdevirtualize
  40              	@ -fdevirtualize-speculatively -fdwarf2-cfi-asm -fearly-inlining
  41              	@ -feliminate-unused-debug-types -fexpensive-optimizations
  42              	@ -fforward-propagate -ffunction-cse -fgcse -fgcse-lm -fgnu-runtime
  43              	@ -fgnu-unique -fguess-branch-probability -fhoist-adjacent-loads -fident
  44              	@ -fif-conversion -fif-conversion2 -findirect-inlining -finline
  45              	@ -finline-atomics -finline-functions -finline-functions-called-once
  46              	@ -finline-small-functions -fipa-cp -fipa-profile -fipa-pure-const
  47              	@ -fipa-reference -fipa-sra -fira-hoist-pressure -fira-share-save-slots
  48              	@ -fira-share-spill-slots -fisolate-erroneous-paths-dereference -fivopts
  49              	@ -fkeep-static-consts -fleading-underscore -flifetime-dse -fmath-errno
  50              	@ -fmerge-constants -fmerge-debug-strings -fomit-frame-pointer
  51              	@ -foptimize-sibling-calls -fpartial-inlining -fpeephole -fpeephole2
  52              	@ -fprefetch-loop-arrays -freg-struct-return -freorder-blocks
  53              	@ -freorder-functions -frerun-cse-after-loop
  54              	@ -fsched-critical-path-heuristic -fsched-dep-count-heuristic
  55              	@ -fsched-group-heuristic -fsched-interblock -fsched-last-insn-heuristic
  56              	@ -fsched-pressure -fsched-rank-heuristic -fsched-spec
  57              	@ -fsched-spec-insn-heuristic -fsched-stalled-insns-dep -fschedule-insns2
ARM GAS  /var/folders/yt/6z6x8bjn5sjf5fbb45bk5m4c0000gn/T//ccOwc6J1.s 			page 2


  58              	@ -fsection-anchors -fshow-column -fsigned-zeros -fsplit-ivs-in-unroller
  59              	@ -fsplit-wide-types -fstrict-aliasing -fstrict-overflow
  60              	@ -fstrict-volatile-bitfields -fsync-libcalls -fthread-jumps
  61              	@ -ftoplevel-reorder -ftrapping-math -ftree-bit-ccp -ftree-builtin-call-dce
  62              	@ -ftree-ccp -ftree-ch -ftree-coalesce-vars -ftree-copy-prop
  63              	@ -ftree-copyrename -ftree-cselim -ftree-dce -ftree-dominator-opts
  64              	@ -ftree-dse -ftree-forwprop -ftree-fre -ftree-loop-if-convert
  65              	@ -ftree-loop-im -ftree-loop-ivcanon -ftree-loop-optimize
  66              	@ -ftree-parallelize-loops= -ftree-phiprop -ftree-pre -ftree-pta
  67              	@ -ftree-reassoc -ftree-scev-cprop -ftree-sink -ftree-slsr -ftree-sra
  68              	@ -ftree-switch-conversion -ftree-tail-merge -ftree-ter -ftree-vrp
  69              	@ -funit-at-a-time -fvar-tracking -fvar-tracking-assignments -fverbose-asm
  70              	@ -fzero-initialized-in-bss -mfix-cortex-m3-ldrd -mlittle-endian -mlra
  71              	@ -mpic-data-is-text-relative -msched-prolog -mthumb -munaligned-access
  72              	@ -mvectorize-with-neon-quad
  73              	
  74              		.text
  75              	.Ltext0:
  76              		.cfi_sections	.debug_frame
  77              		.align	1
  78              		.global	GPIO_DeInit
  79              		.thumb
  80              		.thumb_func
  81              		.type	GPIO_DeInit, %function
  82              	GPIO_DeInit:
  83              	.LFB29:
  84              		.file 1 "Libraries/STM32F10x_StdPeriph_Driver/src/stm32f10x_gpio.c"
   1:Libraries/STM32F10x_StdPeriph_Driver/src/stm32f10x_gpio.c **** /**
   2:Libraries/STM32F10x_StdPeriph_Driver/src/stm32f10x_gpio.c ****   ******************************************************************************
   3:Libraries/STM32F10x_StdPeriph_Driver/src/stm32f10x_gpio.c ****   * @file    stm32f10x_gpio.c
   4:Libraries/STM32F10x_StdPeriph_Driver/src/stm32f10x_gpio.c ****   * @author  MCD Application Team
   5:Libraries/STM32F10x_StdPeriph_Driver/src/stm32f10x_gpio.c ****   * @version V3.5.0
   6:Libraries/STM32F10x_StdPeriph_Driver/src/stm32f10x_gpio.c ****   * @date    11-March-2011
   7:Libraries/STM32F10x_StdPeriph_Driver/src/stm32f10x_gpio.c ****   * @brief   This file provides all the GPIO firmware functions.
   8:Libraries/STM32F10x_StdPeriph_Driver/src/stm32f10x_gpio.c ****   ******************************************************************************
   9:Libraries/STM32F10x_StdPeriph_Driver/src/stm32f10x_gpio.c ****   * @attention
  10:Libraries/STM32F10x_StdPeriph_Driver/src/stm32f10x_gpio.c ****   *
  11:Libraries/STM32F10x_StdPeriph_Driver/src/stm32f10x_gpio.c ****   * THE PRESENT FIRMWARE WHICH IS FOR GUIDANCE ONLY AIMS AT PROVIDING CUSTOMERS
  12:Libraries/STM32F10x_StdPeriph_Driver/src/stm32f10x_gpio.c ****   * WITH CODING INFORMATION REGARDING THEIR PRODUCTS IN ORDER FOR THEM TO SAVE
  13:Libraries/STM32F10x_StdPeriph_Driver/src/stm32f10x_gpio.c ****   * TIME. AS A RESULT, STMICROELECTRONICS SHALL NOT BE HELD LIABLE FOR ANY
  14:Libraries/STM32F10x_StdPeriph_Driver/src/stm32f10x_gpio.c ****   * DIRECT, INDIRECT OR CONSEQUENTIAL DAMAGES WITH RESPECT TO ANY CLAIMS ARISING
  15:Libraries/STM32F10x_StdPeriph_Driver/src/stm32f10x_gpio.c ****   * FROM THE CONTENT OF SUCH FIRMWARE AND/OR THE USE MADE BY CUSTOMERS OF THE
  16:Libraries/STM32F10x_StdPeriph_Driver/src/stm32f10x_gpio.c ****   * CODING INFORMATION CONTAINED HEREIN IN CONNECTION WITH THEIR PRODUCTS.
  17:Libraries/STM32F10x_StdPeriph_Driver/src/stm32f10x_gpio.c ****   *
  18:Libraries/STM32F10x_StdPeriph_Driver/src/stm32f10x_gpio.c ****   * <h2><center>&copy; COPYRIGHT 2011 STMicroelectronics</center></h2>
  19:Libraries/STM32F10x_StdPeriph_Driver/src/stm32f10x_gpio.c ****   ******************************************************************************
  20:Libraries/STM32F10x_StdPeriph_Driver/src/stm32f10x_gpio.c ****   */
  21:Libraries/STM32F10x_StdPeriph_Driver/src/stm32f10x_gpio.c **** 
  22:Libraries/STM32F10x_StdPeriph_Driver/src/stm32f10x_gpio.c **** /* Includes ------------------------------------------------------------------*/
  23:Libraries/STM32F10x_StdPeriph_Driver/src/stm32f10x_gpio.c **** #include "stm32f10x_gpio.h"
  24:Libraries/STM32F10x_StdPeriph_Driver/src/stm32f10x_gpio.c **** #include "stm32f10x_rcc.h"
  25:Libraries/STM32F10x_StdPeriph_Driver/src/stm32f10x_gpio.c **** 
  26:Libraries/STM32F10x_StdPeriph_Driver/src/stm32f10x_gpio.c **** /** @addtogroup STM32F10x_StdPeriph_Driver
  27:Libraries/STM32F10x_StdPeriph_Driver/src/stm32f10x_gpio.c ****   * @{
  28:Libraries/STM32F10x_StdPeriph_Driver/src/stm32f10x_gpio.c ****   */
  29:Libraries/STM32F10x_StdPeriph_Driver/src/stm32f10x_gpio.c **** 
  30:Libraries/STM32F10x_StdPeriph_Driver/src/stm32f10x_gpio.c **** /** @defgroup GPIO 
ARM GAS  /var/folders/yt/6z6x8bjn5sjf5fbb45bk5m4c0000gn/T//ccOwc6J1.s 			page 3


  31:Libraries/STM32F10x_StdPeriph_Driver/src/stm32f10x_gpio.c ****   * @brief GPIO driver modules
  32:Libraries/STM32F10x_StdPeriph_Driver/src/stm32f10x_gpio.c ****   * @{
  33:Libraries/STM32F10x_StdPeriph_Driver/src/stm32f10x_gpio.c ****   */ 
  34:Libraries/STM32F10x_StdPeriph_Driver/src/stm32f10x_gpio.c **** 
  35:Libraries/STM32F10x_StdPeriph_Driver/src/stm32f10x_gpio.c **** /** @defgroup GPIO_Private_TypesDefinitions
  36:Libraries/STM32F10x_StdPeriph_Driver/src/stm32f10x_gpio.c ****   * @{
  37:Libraries/STM32F10x_StdPeriph_Driver/src/stm32f10x_gpio.c ****   */
  38:Libraries/STM32F10x_StdPeriph_Driver/src/stm32f10x_gpio.c **** 
  39:Libraries/STM32F10x_StdPeriph_Driver/src/stm32f10x_gpio.c **** /**
  40:Libraries/STM32F10x_StdPeriph_Driver/src/stm32f10x_gpio.c ****   * @}
  41:Libraries/STM32F10x_StdPeriph_Driver/src/stm32f10x_gpio.c ****   */
  42:Libraries/STM32F10x_StdPeriph_Driver/src/stm32f10x_gpio.c **** 
  43:Libraries/STM32F10x_StdPeriph_Driver/src/stm32f10x_gpio.c **** /** @defgroup GPIO_Private_Defines
  44:Libraries/STM32F10x_StdPeriph_Driver/src/stm32f10x_gpio.c ****   * @{
  45:Libraries/STM32F10x_StdPeriph_Driver/src/stm32f10x_gpio.c ****   */
  46:Libraries/STM32F10x_StdPeriph_Driver/src/stm32f10x_gpio.c **** 
  47:Libraries/STM32F10x_StdPeriph_Driver/src/stm32f10x_gpio.c **** /* ------------ RCC registers bit address in the alias region ----------------*/
  48:Libraries/STM32F10x_StdPeriph_Driver/src/stm32f10x_gpio.c **** #define AFIO_OFFSET                 (AFIO_BASE - PERIPH_BASE)
  49:Libraries/STM32F10x_StdPeriph_Driver/src/stm32f10x_gpio.c **** 
  50:Libraries/STM32F10x_StdPeriph_Driver/src/stm32f10x_gpio.c **** /* --- EVENTCR Register -----*/
  51:Libraries/STM32F10x_StdPeriph_Driver/src/stm32f10x_gpio.c **** 
  52:Libraries/STM32F10x_StdPeriph_Driver/src/stm32f10x_gpio.c **** /* Alias word address of EVOE bit */
  53:Libraries/STM32F10x_StdPeriph_Driver/src/stm32f10x_gpio.c **** #define EVCR_OFFSET                 (AFIO_OFFSET + 0x00)
  54:Libraries/STM32F10x_StdPeriph_Driver/src/stm32f10x_gpio.c **** #define EVOE_BitNumber              ((uint8_t)0x07)
  55:Libraries/STM32F10x_StdPeriph_Driver/src/stm32f10x_gpio.c **** #define EVCR_EVOE_BB                (PERIPH_BB_BASE + (EVCR_OFFSET * 32) + (EVOE_BitNumber * 4))
  56:Libraries/STM32F10x_StdPeriph_Driver/src/stm32f10x_gpio.c **** 
  57:Libraries/STM32F10x_StdPeriph_Driver/src/stm32f10x_gpio.c **** 
  58:Libraries/STM32F10x_StdPeriph_Driver/src/stm32f10x_gpio.c **** /* ---  MAPR Register ---*/ 
  59:Libraries/STM32F10x_StdPeriph_Driver/src/stm32f10x_gpio.c **** /* Alias word address of MII_RMII_SEL bit */ 
  60:Libraries/STM32F10x_StdPeriph_Driver/src/stm32f10x_gpio.c **** #define MAPR_OFFSET                 (AFIO_OFFSET + 0x04) 
  61:Libraries/STM32F10x_StdPeriph_Driver/src/stm32f10x_gpio.c **** #define MII_RMII_SEL_BitNumber      ((u8)0x17) 
  62:Libraries/STM32F10x_StdPeriph_Driver/src/stm32f10x_gpio.c **** #define MAPR_MII_RMII_SEL_BB        (PERIPH_BB_BASE + (MAPR_OFFSET * 32) + (MII_RMII_SEL_BitNumber 
  63:Libraries/STM32F10x_StdPeriph_Driver/src/stm32f10x_gpio.c **** 
  64:Libraries/STM32F10x_StdPeriph_Driver/src/stm32f10x_gpio.c **** 
  65:Libraries/STM32F10x_StdPeriph_Driver/src/stm32f10x_gpio.c **** #define EVCR_PORTPINCONFIG_MASK     ((uint16_t)0xFF80)
  66:Libraries/STM32F10x_StdPeriph_Driver/src/stm32f10x_gpio.c **** #define LSB_MASK                    ((uint16_t)0xFFFF)
  67:Libraries/STM32F10x_StdPeriph_Driver/src/stm32f10x_gpio.c **** #define DBGAFR_POSITION_MASK        ((uint32_t)0x000F0000)
  68:Libraries/STM32F10x_StdPeriph_Driver/src/stm32f10x_gpio.c **** #define DBGAFR_SWJCFG_MASK          ((uint32_t)0xF0FFFFFF)
  69:Libraries/STM32F10x_StdPeriph_Driver/src/stm32f10x_gpio.c **** #define DBGAFR_LOCATION_MASK        ((uint32_t)0x00200000)
  70:Libraries/STM32F10x_StdPeriph_Driver/src/stm32f10x_gpio.c **** #define DBGAFR_NUMBITS_MASK         ((uint32_t)0x00100000)
  71:Libraries/STM32F10x_StdPeriph_Driver/src/stm32f10x_gpio.c **** /**
  72:Libraries/STM32F10x_StdPeriph_Driver/src/stm32f10x_gpio.c ****   * @}
  73:Libraries/STM32F10x_StdPeriph_Driver/src/stm32f10x_gpio.c ****   */
  74:Libraries/STM32F10x_StdPeriph_Driver/src/stm32f10x_gpio.c **** 
  75:Libraries/STM32F10x_StdPeriph_Driver/src/stm32f10x_gpio.c **** /** @defgroup GPIO_Private_Macros
  76:Libraries/STM32F10x_StdPeriph_Driver/src/stm32f10x_gpio.c ****   * @{
  77:Libraries/STM32F10x_StdPeriph_Driver/src/stm32f10x_gpio.c ****   */
  78:Libraries/STM32F10x_StdPeriph_Driver/src/stm32f10x_gpio.c **** 
  79:Libraries/STM32F10x_StdPeriph_Driver/src/stm32f10x_gpio.c **** /**
  80:Libraries/STM32F10x_StdPeriph_Driver/src/stm32f10x_gpio.c ****   * @}
  81:Libraries/STM32F10x_StdPeriph_Driver/src/stm32f10x_gpio.c ****   */
  82:Libraries/STM32F10x_StdPeriph_Driver/src/stm32f10x_gpio.c **** 
  83:Libraries/STM32F10x_StdPeriph_Driver/src/stm32f10x_gpio.c **** /** @defgroup GPIO_Private_Variables
  84:Libraries/STM32F10x_StdPeriph_Driver/src/stm32f10x_gpio.c ****   * @{
  85:Libraries/STM32F10x_StdPeriph_Driver/src/stm32f10x_gpio.c ****   */
  86:Libraries/STM32F10x_StdPeriph_Driver/src/stm32f10x_gpio.c **** 
  87:Libraries/STM32F10x_StdPeriph_Driver/src/stm32f10x_gpio.c **** /**
ARM GAS  /var/folders/yt/6z6x8bjn5sjf5fbb45bk5m4c0000gn/T//ccOwc6J1.s 			page 4


  88:Libraries/STM32F10x_StdPeriph_Driver/src/stm32f10x_gpio.c ****   * @}
  89:Libraries/STM32F10x_StdPeriph_Driver/src/stm32f10x_gpio.c ****   */
  90:Libraries/STM32F10x_StdPeriph_Driver/src/stm32f10x_gpio.c **** 
  91:Libraries/STM32F10x_StdPeriph_Driver/src/stm32f10x_gpio.c **** /** @defgroup GPIO_Private_FunctionPrototypes
  92:Libraries/STM32F10x_StdPeriph_Driver/src/stm32f10x_gpio.c ****   * @{
  93:Libraries/STM32F10x_StdPeriph_Driver/src/stm32f10x_gpio.c ****   */
  94:Libraries/STM32F10x_StdPeriph_Driver/src/stm32f10x_gpio.c **** 
  95:Libraries/STM32F10x_StdPeriph_Driver/src/stm32f10x_gpio.c **** /**
  96:Libraries/STM32F10x_StdPeriph_Driver/src/stm32f10x_gpio.c ****   * @}
  97:Libraries/STM32F10x_StdPeriph_Driver/src/stm32f10x_gpio.c ****   */
  98:Libraries/STM32F10x_StdPeriph_Driver/src/stm32f10x_gpio.c **** 
  99:Libraries/STM32F10x_StdPeriph_Driver/src/stm32f10x_gpio.c **** /** @defgroup GPIO_Private_Functions
 100:Libraries/STM32F10x_StdPeriph_Driver/src/stm32f10x_gpio.c ****   * @{
 101:Libraries/STM32F10x_StdPeriph_Driver/src/stm32f10x_gpio.c ****   */
 102:Libraries/STM32F10x_StdPeriph_Driver/src/stm32f10x_gpio.c **** 
 103:Libraries/STM32F10x_StdPeriph_Driver/src/stm32f10x_gpio.c **** /**
 104:Libraries/STM32F10x_StdPeriph_Driver/src/stm32f10x_gpio.c ****   * @brief  Deinitializes the GPIOx peripheral registers to their default reset values.
 105:Libraries/STM32F10x_StdPeriph_Driver/src/stm32f10x_gpio.c ****   * @param  GPIOx: where x can be (A..G) to select the GPIO peripheral.
 106:Libraries/STM32F10x_StdPeriph_Driver/src/stm32f10x_gpio.c ****   * @retval None
 107:Libraries/STM32F10x_StdPeriph_Driver/src/stm32f10x_gpio.c ****   */
 108:Libraries/STM32F10x_StdPeriph_Driver/src/stm32f10x_gpio.c **** void GPIO_DeInit(GPIO_TypeDef* GPIOx)
 109:Libraries/STM32F10x_StdPeriph_Driver/src/stm32f10x_gpio.c **** {
  85              		.loc 1 109 0
  86              		.cfi_startproc
  87              		@ args = 0, pretend = 0, frame = 0
  88              		@ frame_needed = 0, uses_anonymous_args = 0
  89              	.LVL0:
  90 0000 08B5     		push	{r3, lr}	@
  91              	.LCFI0:
  92              		.cfi_def_cfa_offset 8
  93              		.cfi_offset 3, -8
  94              		.cfi_offset 14, -4
 110:Libraries/STM32F10x_StdPeriph_Driver/src/stm32f10x_gpio.c ****   /* Check the parameters */
 111:Libraries/STM32F10x_StdPeriph_Driver/src/stm32f10x_gpio.c ****   assert_param(IS_GPIO_ALL_PERIPH(GPIOx));
 112:Libraries/STM32F10x_StdPeriph_Driver/src/stm32f10x_gpio.c ****   
 113:Libraries/STM32F10x_StdPeriph_Driver/src/stm32f10x_gpio.c ****   if (GPIOx == GPIOA)
  95              		.loc 1 113 0
  96 0002 234B     		ldr	r3, .L11	@ tmp111,
  97 0004 9842     		cmp	r0, r3	@ GPIOx, tmp111
  98 0006 05D1     		bne	.L2	@,
 114:Libraries/STM32F10x_StdPeriph_Driver/src/stm32f10x_gpio.c ****   {
 115:Libraries/STM32F10x_StdPeriph_Driver/src/stm32f10x_gpio.c ****     RCC_APB2PeriphResetCmd(RCC_APB2Periph_GPIOA, ENABLE);
  99              		.loc 1 115 0
 100 0008 0420     		movs	r0, #4	@,
 101              	.LVL1:
 102 000a 0121     		movs	r1, #1	@,
 103 000c FFF7FEFF 		bl	RCC_APB2PeriphResetCmd	@
 104              	.LVL2:
 116:Libraries/STM32F10x_StdPeriph_Driver/src/stm32f10x_gpio.c ****     RCC_APB2PeriphResetCmd(RCC_APB2Periph_GPIOA, DISABLE);
 105              		.loc 1 116 0
 106 0010 0420     		movs	r0, #4	@,
 107 0012 36E0     		b	.L9	@
 108              	.LVL3:
 109              	.L2:
 117:Libraries/STM32F10x_StdPeriph_Driver/src/stm32f10x_gpio.c ****   }
 118:Libraries/STM32F10x_StdPeriph_Driver/src/stm32f10x_gpio.c ****   else if (GPIOx == GPIOB)
 110              		.loc 1 118 0
ARM GAS  /var/folders/yt/6z6x8bjn5sjf5fbb45bk5m4c0000gn/T//ccOwc6J1.s 			page 5


 111 0014 1F4B     		ldr	r3, .L11+4	@ tmp112,
 112 0016 9842     		cmp	r0, r3	@ GPIOx, tmp112
 113 0018 05D1     		bne	.L3	@,
 119:Libraries/STM32F10x_StdPeriph_Driver/src/stm32f10x_gpio.c ****   {
 120:Libraries/STM32F10x_StdPeriph_Driver/src/stm32f10x_gpio.c ****     RCC_APB2PeriphResetCmd(RCC_APB2Periph_GPIOB, ENABLE);
 114              		.loc 1 120 0
 115 001a 0820     		movs	r0, #8	@,
 116              	.LVL4:
 117 001c 0121     		movs	r1, #1	@,
 118 001e FFF7FEFF 		bl	RCC_APB2PeriphResetCmd	@
 119              	.LVL5:
 121:Libraries/STM32F10x_StdPeriph_Driver/src/stm32f10x_gpio.c ****     RCC_APB2PeriphResetCmd(RCC_APB2Periph_GPIOB, DISABLE);
 120              		.loc 1 121 0
 121 0022 0820     		movs	r0, #8	@,
 122 0024 2DE0     		b	.L9	@
 123              	.LVL6:
 124              	.L3:
 122:Libraries/STM32F10x_StdPeriph_Driver/src/stm32f10x_gpio.c ****   }
 123:Libraries/STM32F10x_StdPeriph_Driver/src/stm32f10x_gpio.c ****   else if (GPIOx == GPIOC)
 125              		.loc 1 123 0
 126 0026 1C4B     		ldr	r3, .L11+8	@ tmp113,
 127 0028 9842     		cmp	r0, r3	@ GPIOx, tmp113
 128 002a 05D1     		bne	.L4	@,
 124:Libraries/STM32F10x_StdPeriph_Driver/src/stm32f10x_gpio.c ****   {
 125:Libraries/STM32F10x_StdPeriph_Driver/src/stm32f10x_gpio.c ****     RCC_APB2PeriphResetCmd(RCC_APB2Periph_GPIOC, ENABLE);
 129              		.loc 1 125 0
 130 002c 1020     		movs	r0, #16	@,
 131              	.LVL7:
 132 002e 0121     		movs	r1, #1	@,
 133 0030 FFF7FEFF 		bl	RCC_APB2PeriphResetCmd	@
 134              	.LVL8:
 126:Libraries/STM32F10x_StdPeriph_Driver/src/stm32f10x_gpio.c ****     RCC_APB2PeriphResetCmd(RCC_APB2Periph_GPIOC, DISABLE);
 135              		.loc 1 126 0
 136 0034 1020     		movs	r0, #16	@,
 137 0036 24E0     		b	.L9	@
 138              	.LVL9:
 139              	.L4:
 127:Libraries/STM32F10x_StdPeriph_Driver/src/stm32f10x_gpio.c ****   }
 128:Libraries/STM32F10x_StdPeriph_Driver/src/stm32f10x_gpio.c ****   else if (GPIOx == GPIOD)
 140              		.loc 1 128 0
 141 0038 184B     		ldr	r3, .L11+12	@ tmp114,
 142 003a 9842     		cmp	r0, r3	@ GPIOx, tmp114
 143 003c 05D1     		bne	.L5	@,
 129:Libraries/STM32F10x_StdPeriph_Driver/src/stm32f10x_gpio.c ****   {
 130:Libraries/STM32F10x_StdPeriph_Driver/src/stm32f10x_gpio.c ****     RCC_APB2PeriphResetCmd(RCC_APB2Periph_GPIOD, ENABLE);
 144              		.loc 1 130 0
 145 003e 2020     		movs	r0, #32	@,
 146              	.LVL10:
 147 0040 0121     		movs	r1, #1	@,
 148 0042 FFF7FEFF 		bl	RCC_APB2PeriphResetCmd	@
 149              	.LVL11:
 131:Libraries/STM32F10x_StdPeriph_Driver/src/stm32f10x_gpio.c ****     RCC_APB2PeriphResetCmd(RCC_APB2Periph_GPIOD, DISABLE);
 150              		.loc 1 131 0
 151 0046 2020     		movs	r0, #32	@,
 152 0048 1BE0     		b	.L9	@
 153              	.LVL12:
 154              	.L5:
ARM GAS  /var/folders/yt/6z6x8bjn5sjf5fbb45bk5m4c0000gn/T//ccOwc6J1.s 			page 6


 132:Libraries/STM32F10x_StdPeriph_Driver/src/stm32f10x_gpio.c ****   }    
 133:Libraries/STM32F10x_StdPeriph_Driver/src/stm32f10x_gpio.c ****   else if (GPIOx == GPIOE)
 155              		.loc 1 133 0
 156 004a 154B     		ldr	r3, .L11+16	@ tmp115,
 157 004c 9842     		cmp	r0, r3	@ GPIOx, tmp115
 158 004e 05D1     		bne	.L6	@,
 134:Libraries/STM32F10x_StdPeriph_Driver/src/stm32f10x_gpio.c ****   {
 135:Libraries/STM32F10x_StdPeriph_Driver/src/stm32f10x_gpio.c ****     RCC_APB2PeriphResetCmd(RCC_APB2Periph_GPIOE, ENABLE);
 159              		.loc 1 135 0
 160 0050 4020     		movs	r0, #64	@,
 161              	.LVL13:
 162 0052 0121     		movs	r1, #1	@,
 163 0054 FFF7FEFF 		bl	RCC_APB2PeriphResetCmd	@
 164              	.LVL14:
 136:Libraries/STM32F10x_StdPeriph_Driver/src/stm32f10x_gpio.c ****     RCC_APB2PeriphResetCmd(RCC_APB2Periph_GPIOE, DISABLE);
 165              		.loc 1 136 0
 166 0058 4020     		movs	r0, #64	@,
 167 005a 12E0     		b	.L9	@
 168              	.LVL15:
 169              	.L6:
 137:Libraries/STM32F10x_StdPeriph_Driver/src/stm32f10x_gpio.c ****   } 
 138:Libraries/STM32F10x_StdPeriph_Driver/src/stm32f10x_gpio.c ****   else if (GPIOx == GPIOF)
 170              		.loc 1 138 0
 171 005c 114B     		ldr	r3, .L11+20	@ tmp116,
 172 005e 9842     		cmp	r0, r3	@ GPIOx, tmp116
 173 0060 05D1     		bne	.L7	@,
 139:Libraries/STM32F10x_StdPeriph_Driver/src/stm32f10x_gpio.c ****   {
 140:Libraries/STM32F10x_StdPeriph_Driver/src/stm32f10x_gpio.c ****     RCC_APB2PeriphResetCmd(RCC_APB2Periph_GPIOF, ENABLE);
 174              		.loc 1 140 0
 175 0062 8020     		movs	r0, #128	@,
 176              	.LVL16:
 177 0064 0121     		movs	r1, #1	@,
 178 0066 FFF7FEFF 		bl	RCC_APB2PeriphResetCmd	@
 179              	.LVL17:
 141:Libraries/STM32F10x_StdPeriph_Driver/src/stm32f10x_gpio.c ****     RCC_APB2PeriphResetCmd(RCC_APB2Periph_GPIOF, DISABLE);
 180              		.loc 1 141 0
 181 006a 8020     		movs	r0, #128	@,
 182 006c 09E0     		b	.L9	@
 183              	.LVL18:
 184              	.L7:
 142:Libraries/STM32F10x_StdPeriph_Driver/src/stm32f10x_gpio.c ****   }
 143:Libraries/STM32F10x_StdPeriph_Driver/src/stm32f10x_gpio.c ****   else
 144:Libraries/STM32F10x_StdPeriph_Driver/src/stm32f10x_gpio.c ****   {
 145:Libraries/STM32F10x_StdPeriph_Driver/src/stm32f10x_gpio.c ****     if (GPIOx == GPIOG)
 185              		.loc 1 145 0
 186 006e 0E4B     		ldr	r3, .L11+24	@ tmp117,
 187 0070 9842     		cmp	r0, r3	@ GPIOx, tmp117
 188 0072 0BD1     		bne	.L1	@,
 146:Libraries/STM32F10x_StdPeriph_Driver/src/stm32f10x_gpio.c ****     {
 147:Libraries/STM32F10x_StdPeriph_Driver/src/stm32f10x_gpio.c ****       RCC_APB2PeriphResetCmd(RCC_APB2Periph_GPIOG, ENABLE);
 189              		.loc 1 147 0
 190 0074 4FF48070 		mov	r0, #256	@,
 191              	.LVL19:
 192 0078 0121     		movs	r1, #1	@,
 193 007a FFF7FEFF 		bl	RCC_APB2PeriphResetCmd	@
 194              	.LVL20:
 148:Libraries/STM32F10x_StdPeriph_Driver/src/stm32f10x_gpio.c ****       RCC_APB2PeriphResetCmd(RCC_APB2Periph_GPIOG, DISABLE);
ARM GAS  /var/folders/yt/6z6x8bjn5sjf5fbb45bk5m4c0000gn/T//ccOwc6J1.s 			page 7


 195              		.loc 1 148 0
 196 007e 4FF48070 		mov	r0, #256	@,
 197              	.L9:
 198 0082 0021     		movs	r1, #0	@,
 149:Libraries/STM32F10x_StdPeriph_Driver/src/stm32f10x_gpio.c ****     }
 150:Libraries/STM32F10x_StdPeriph_Driver/src/stm32f10x_gpio.c ****   }
 151:Libraries/STM32F10x_StdPeriph_Driver/src/stm32f10x_gpio.c **** }
 199              		.loc 1 151 0
 200 0084 BDE80840 		pop	{r3, lr}	@
 201              	.LCFI1:
 202              		.cfi_remember_state
 203              		.cfi_restore 14
 204              		.cfi_restore 3
 205              		.cfi_def_cfa_offset 0
 148:Libraries/STM32F10x_StdPeriph_Driver/src/stm32f10x_gpio.c ****       RCC_APB2PeriphResetCmd(RCC_APB2Periph_GPIOG, DISABLE);
 206              		.loc 1 148 0
 207 0088 FFF7FEBF 		b	RCC_APB2PeriphResetCmd	@
 208              	.LVL21:
 209              	.L1:
 210              	.LCFI2:
 211              		.cfi_restore_state
 212 008c 08BD     		pop	{r3, pc}	@
 213              	.L12:
 214 008e 00BF     		.align	2
 215              	.L11:
 216 0090 00080140 		.word	1073809408
 217 0094 000C0140 		.word	1073810432
 218 0098 00100140 		.word	1073811456
 219 009c 00140140 		.word	1073812480
 220 00a0 00180140 		.word	1073813504
 221 00a4 001C0140 		.word	1073814528
 222 00a8 00200140 		.word	1073815552
 223              		.cfi_endproc
 224              	.LFE29:
 225              		.size	GPIO_DeInit, .-GPIO_DeInit
 226              		.align	1
 227              		.global	GPIO_AFIODeInit
 228              		.thumb
 229              		.thumb_func
 230              		.type	GPIO_AFIODeInit, %function
 231              	GPIO_AFIODeInit:
 232              	.LFB30:
 152:Libraries/STM32F10x_StdPeriph_Driver/src/stm32f10x_gpio.c **** 
 153:Libraries/STM32F10x_StdPeriph_Driver/src/stm32f10x_gpio.c **** /**
 154:Libraries/STM32F10x_StdPeriph_Driver/src/stm32f10x_gpio.c ****   * @brief  Deinitializes the Alternate Functions (remap, event control
 155:Libraries/STM32F10x_StdPeriph_Driver/src/stm32f10x_gpio.c ****   *   and EXTI configuration) registers to their default reset values.
 156:Libraries/STM32F10x_StdPeriph_Driver/src/stm32f10x_gpio.c ****   * @param  None
 157:Libraries/STM32F10x_StdPeriph_Driver/src/stm32f10x_gpio.c ****   * @retval None
 158:Libraries/STM32F10x_StdPeriph_Driver/src/stm32f10x_gpio.c ****   */
 159:Libraries/STM32F10x_StdPeriph_Driver/src/stm32f10x_gpio.c **** void GPIO_AFIODeInit(void)
 160:Libraries/STM32F10x_StdPeriph_Driver/src/stm32f10x_gpio.c **** {
 233              		.loc 1 160 0
 234              		.cfi_startproc
 235              		@ args = 0, pretend = 0, frame = 0
 236              		@ frame_needed = 0, uses_anonymous_args = 0
 237 00ac 08B5     		push	{r3, lr}	@
 238              	.LCFI3:
ARM GAS  /var/folders/yt/6z6x8bjn5sjf5fbb45bk5m4c0000gn/T//ccOwc6J1.s 			page 8


 239              		.cfi_def_cfa_offset 8
 240              		.cfi_offset 3, -8
 241              		.cfi_offset 14, -4
 161:Libraries/STM32F10x_StdPeriph_Driver/src/stm32f10x_gpio.c ****   RCC_APB2PeriphResetCmd(RCC_APB2Periph_AFIO, ENABLE);
 242              		.loc 1 161 0
 243 00ae 0120     		movs	r0, #1	@,
 244 00b0 0146     		mov	r1, r0	@,
 245 00b2 FFF7FEFF 		bl	RCC_APB2PeriphResetCmd	@
 246              	.LVL22:
 162:Libraries/STM32F10x_StdPeriph_Driver/src/stm32f10x_gpio.c ****   RCC_APB2PeriphResetCmd(RCC_APB2Periph_AFIO, DISABLE);
 163:Libraries/STM32F10x_StdPeriph_Driver/src/stm32f10x_gpio.c **** }
 247              		.loc 1 163 0
 248 00b6 BDE80840 		pop	{r3, lr}	@
 249              	.LCFI4:
 250              		.cfi_restore 14
 251              		.cfi_restore 3
 252              		.cfi_def_cfa_offset 0
 162:Libraries/STM32F10x_StdPeriph_Driver/src/stm32f10x_gpio.c ****   RCC_APB2PeriphResetCmd(RCC_APB2Periph_AFIO, DISABLE);
 253              		.loc 1 162 0
 254 00ba 0120     		movs	r0, #1	@,
 255 00bc 0021     		movs	r1, #0	@,
 256 00be FFF7FEBF 		b	RCC_APB2PeriphResetCmd	@
 257              	.LVL23:
 258              		.cfi_endproc
 259              	.LFE30:
 260              		.size	GPIO_AFIODeInit, .-GPIO_AFIODeInit
 261              		.align	1
 262              		.global	GPIO_Init
 263              		.thumb
 264              		.thumb_func
 265              		.type	GPIO_Init, %function
 266              	GPIO_Init:
 267              	.LFB31:
 164:Libraries/STM32F10x_StdPeriph_Driver/src/stm32f10x_gpio.c **** 
 165:Libraries/STM32F10x_StdPeriph_Driver/src/stm32f10x_gpio.c **** /**
 166:Libraries/STM32F10x_StdPeriph_Driver/src/stm32f10x_gpio.c ****   * @brief  Initializes the GPIOx peripheral according to the specified
 167:Libraries/STM32F10x_StdPeriph_Driver/src/stm32f10x_gpio.c ****   *         parameters in the GPIO_InitStruct.
 168:Libraries/STM32F10x_StdPeriph_Driver/src/stm32f10x_gpio.c ****   * @param  GPIOx: where x can be (A..G) to select the GPIO peripheral.
 169:Libraries/STM32F10x_StdPeriph_Driver/src/stm32f10x_gpio.c ****   * @param  GPIO_InitStruct: pointer to a GPIO_InitTypeDef structure that
 170:Libraries/STM32F10x_StdPeriph_Driver/src/stm32f10x_gpio.c ****   *         contains the configuration information for the specified GPIO peripheral.
 171:Libraries/STM32F10x_StdPeriph_Driver/src/stm32f10x_gpio.c ****   * @retval None
 172:Libraries/STM32F10x_StdPeriph_Driver/src/stm32f10x_gpio.c ****   */
 173:Libraries/STM32F10x_StdPeriph_Driver/src/stm32f10x_gpio.c **** void GPIO_Init(GPIO_TypeDef* GPIOx, GPIO_InitTypeDef* GPIO_InitStruct)
 174:Libraries/STM32F10x_StdPeriph_Driver/src/stm32f10x_gpio.c **** {
 268              		.loc 1 174 0
 269              		.cfi_startproc
 270              		@ args = 0, pretend = 0, frame = 0
 271              		@ frame_needed = 0, uses_anonymous_args = 0
 272              	.LVL24:
 175:Libraries/STM32F10x_StdPeriph_Driver/src/stm32f10x_gpio.c ****   uint32_t currentmode = 0x00, currentpin = 0x00, pinpos = 0x00, pos = 0x00;
 176:Libraries/STM32F10x_StdPeriph_Driver/src/stm32f10x_gpio.c ****   uint32_t tmpreg = 0x00, pinmask = 0x00;
 177:Libraries/STM32F10x_StdPeriph_Driver/src/stm32f10x_gpio.c ****   /* Check the parameters */
 178:Libraries/STM32F10x_StdPeriph_Driver/src/stm32f10x_gpio.c ****   assert_param(IS_GPIO_ALL_PERIPH(GPIOx));
 179:Libraries/STM32F10x_StdPeriph_Driver/src/stm32f10x_gpio.c ****   assert_param(IS_GPIO_MODE(GPIO_InitStruct->GPIO_Mode));
 180:Libraries/STM32F10x_StdPeriph_Driver/src/stm32f10x_gpio.c ****   assert_param(IS_GPIO_PIN(GPIO_InitStruct->GPIO_Pin));  
 181:Libraries/STM32F10x_StdPeriph_Driver/src/stm32f10x_gpio.c ****   
 182:Libraries/STM32F10x_StdPeriph_Driver/src/stm32f10x_gpio.c **** /*---------------------------- GPIO Mode Configuration -----------------------*/
ARM GAS  /var/folders/yt/6z6x8bjn5sjf5fbb45bk5m4c0000gn/T//ccOwc6J1.s 			page 9


 183:Libraries/STM32F10x_StdPeriph_Driver/src/stm32f10x_gpio.c ****   currentmode = ((uint32_t)GPIO_InitStruct->GPIO_Mode) & ((uint32_t)0x0F);
 273              		.loc 1 183 0
 274 00c2 CA78     		ldrb	r2, [r1, #3]	@ zero_extendqisi2	@ D.5742, GPIO_InitStruct_20(D)->GPIO_Mode
 174:Libraries/STM32F10x_StdPeriph_Driver/src/stm32f10x_gpio.c ****   uint32_t currentmode = 0x00, currentpin = 0x00, pinpos = 0x00, pos = 0x00;
 275              		.loc 1 174 0
 276 00c4 F0B5     		push	{r4, r5, r6, r7, lr}	@
 277              	.LCFI5:
 278              		.cfi_def_cfa_offset 20
 279              		.cfi_offset 4, -20
 280              		.cfi_offset 5, -16
 281              		.cfi_offset 6, -12
 282              		.cfi_offset 7, -8
 283              		.cfi_offset 14, -4
 184:Libraries/STM32F10x_StdPeriph_Driver/src/stm32f10x_gpio.c ****   if ((((uint32_t)GPIO_InitStruct->GPIO_Mode) & ((uint32_t)0x10)) != 0x00)
 284              		.loc 1 184 0
 285 00c6 D406     		lsls	r4, r2, #27	@, D.5742,
 185:Libraries/STM32F10x_StdPeriph_Driver/src/stm32f10x_gpio.c ****   { 
 186:Libraries/STM32F10x_StdPeriph_Driver/src/stm32f10x_gpio.c ****     /* Check the parameters */
 187:Libraries/STM32F10x_StdPeriph_Driver/src/stm32f10x_gpio.c ****     assert_param(IS_GPIO_SPEED(GPIO_InitStruct->GPIO_Speed));
 188:Libraries/STM32F10x_StdPeriph_Driver/src/stm32f10x_gpio.c ****     /* Output mode */
 189:Libraries/STM32F10x_StdPeriph_Driver/src/stm32f10x_gpio.c ****     currentmode |= (uint32_t)GPIO_InitStruct->GPIO_Speed;
 286              		.loc 1 189 0
 287 00c8 48BF     		it	mi
 288 00ca 8C78     		ldrbmi	r4, [r1, #2]	@ zero_extendqisi2	@ GPIO_InitStruct_20(D)->GPIO_Speed, GPIO_InitStruct_20(D)-
 190:Libraries/STM32F10x_StdPeriph_Driver/src/stm32f10x_gpio.c ****   }
 191:Libraries/STM32F10x_StdPeriph_Driver/src/stm32f10x_gpio.c **** /*---------------------------- GPIO CRL Configuration ------------------------*/
 192:Libraries/STM32F10x_StdPeriph_Driver/src/stm32f10x_gpio.c ****   /* Configure the eight low port pins */
 193:Libraries/STM32F10x_StdPeriph_Driver/src/stm32f10x_gpio.c ****   if (((uint32_t)GPIO_InitStruct->GPIO_Pin & ((uint32_t)0x00FF)) != 0x00)
 289              		.loc 1 193 0
 290 00cc 0D88     		ldrh	r5, [r1]	@ D.5743, GPIO_InitStruct_20(D)->GPIO_Pin
 183:Libraries/STM32F10x_StdPeriph_Driver/src/stm32f10x_gpio.c ****   if ((((uint32_t)GPIO_InitStruct->GPIO_Mode) & ((uint32_t)0x10)) != 0x00)
 291              		.loc 1 183 0
 292 00ce 02F00F03 		and	r3, r2, #15	@ D.5742, D.5742,
 293              	.LVL25:
 189:Libraries/STM32F10x_StdPeriph_Driver/src/stm32f10x_gpio.c ****   }
 294              		.loc 1 189 0
 295 00d2 48BF     		it	mi
 296 00d4 2343     		orrmi	r3, r3, r4	@ currentmode, D.5742, GPIO_InitStruct_20(D)->GPIO_Speed
 297              	.LVL26:
 298              		.loc 1 193 0
 299 00d6 15F0FF0F 		tst	r5, #255	@ D.5743
 300 00da 1DD0     		beq	.L17	@,
 194:Libraries/STM32F10x_StdPeriph_Driver/src/stm32f10x_gpio.c ****   {
 195:Libraries/STM32F10x_StdPeriph_Driver/src/stm32f10x_gpio.c ****     tmpreg = GPIOx->CRL;
 301              		.loc 1 195 0
 302 00dc 0168     		ldr	r1, [r0]	@ tmpreg, GPIOx_27(D)->CRL
 303              	.LVL27:
 196:Libraries/STM32F10x_StdPeriph_Driver/src/stm32f10x_gpio.c ****     for (pinpos = 0x00; pinpos < 0x08; pinpos++)
 304              		.loc 1 196 0
 305 00de 0024     		movs	r4, #0	@ pinpos,
 306              	.LVL28:
 307              	.L20:
 197:Libraries/STM32F10x_StdPeriph_Driver/src/stm32f10x_gpio.c ****     {
 198:Libraries/STM32F10x_StdPeriph_Driver/src/stm32f10x_gpio.c ****       pos = ((uint32_t)0x01) << pinpos;
 308              		.loc 1 198 0
 309 00e0 0126     		movs	r6, #1	@ tmp155,
 310 00e2 A640     		lsls	r6, r6, r4	@ pos, tmp155, pinpos
ARM GAS  /var/folders/yt/6z6x8bjn5sjf5fbb45bk5m4c0000gn/T//ccOwc6J1.s 			page 10


 311              	.LVL29:
 199:Libraries/STM32F10x_StdPeriph_Driver/src/stm32f10x_gpio.c ****       /* Get the port pins position */
 200:Libraries/STM32F10x_StdPeriph_Driver/src/stm32f10x_gpio.c ****       currentpin = (GPIO_InitStruct->GPIO_Pin) & pos;
 312              		.loc 1 200 0
 313 00e4 06EA0507 		and	r7, r6, r5	@ currentpin, pos, D.5743
 314              	.LVL30:
 201:Libraries/STM32F10x_StdPeriph_Driver/src/stm32f10x_gpio.c ****       if (currentpin == pos)
 315              		.loc 1 201 0
 316 00e8 B742     		cmp	r7, r6	@ currentpin, pos
 317 00ea 11D1     		bne	.L18	@,
 318              	.LVL31:
 202:Libraries/STM32F10x_StdPeriph_Driver/src/stm32f10x_gpio.c ****       {
 203:Libraries/STM32F10x_StdPeriph_Driver/src/stm32f10x_gpio.c ****         pos = pinpos << 2;
 319              		.loc 1 203 0
 320 00ec 4FEA840E 		lsl	lr, r4, #2	@ D.5745, pinpos,
 321              	.LVL32:
 204:Libraries/STM32F10x_StdPeriph_Driver/src/stm32f10x_gpio.c ****         /* Clear the corresponding low control register bits */
 205:Libraries/STM32F10x_StdPeriph_Driver/src/stm32f10x_gpio.c ****         pinmask = ((uint32_t)0x0F) << pos;
 322              		.loc 1 205 0
 323 00f0 0F26     		movs	r6, #15	@ tmp157,
 324 00f2 06FA0EF6 		lsl	r6, r6, lr	@ pinmask, tmp157, D.5745
 325              	.LVL33:
 206:Libraries/STM32F10x_StdPeriph_Driver/src/stm32f10x_gpio.c ****         tmpreg &= ~pinmask;
 326              		.loc 1 206 0
 327 00f6 21EA0601 		bic	r1, r1, r6	@ tmpreg, tmpreg, pinmask
 328              	.LVL34:
 207:Libraries/STM32F10x_StdPeriph_Driver/src/stm32f10x_gpio.c ****         /* Write the mode configuration in the corresponding bits */
 208:Libraries/STM32F10x_StdPeriph_Driver/src/stm32f10x_gpio.c ****         tmpreg |= (currentmode << pos);
 209:Libraries/STM32F10x_StdPeriph_Driver/src/stm32f10x_gpio.c ****         /* Reset the corresponding ODR bit */
 210:Libraries/STM32F10x_StdPeriph_Driver/src/stm32f10x_gpio.c ****         if (GPIO_InitStruct->GPIO_Mode == GPIO_Mode_IPD)
 329              		.loc 1 210 0
 330 00fa 282A     		cmp	r2, #40	@ D.5742,
 208:Libraries/STM32F10x_StdPeriph_Driver/src/stm32f10x_gpio.c ****         /* Reset the corresponding ODR bit */
 331              		.loc 1 208 0
 332 00fc 03FA0EF6 		lsl	r6, r3, lr	@ D.5746, currentmode, D.5745
 333              	.LVL35:
 334 0100 41EA0601 		orr	r1, r1, r6	@ tmpreg, tmpreg, D.5746
 335              	.LVL36:
 336              		.loc 1 210 0
 337 0104 01D1     		bne	.L19	@,
 211:Libraries/STM32F10x_StdPeriph_Driver/src/stm32f10x_gpio.c ****         {
 212:Libraries/STM32F10x_StdPeriph_Driver/src/stm32f10x_gpio.c ****           GPIOx->BRR = (((uint32_t)0x01) << pinpos);
 338              		.loc 1 212 0
 339 0106 4761     		str	r7, [r0, #20]	@ currentpin, GPIOx_27(D)->BRR
 340 0108 02E0     		b	.L18	@
 341              	.L19:
 213:Libraries/STM32F10x_StdPeriph_Driver/src/stm32f10x_gpio.c ****         }
 214:Libraries/STM32F10x_StdPeriph_Driver/src/stm32f10x_gpio.c ****         else
 215:Libraries/STM32F10x_StdPeriph_Driver/src/stm32f10x_gpio.c ****         {
 216:Libraries/STM32F10x_StdPeriph_Driver/src/stm32f10x_gpio.c ****           /* Set the corresponding ODR bit */
 217:Libraries/STM32F10x_StdPeriph_Driver/src/stm32f10x_gpio.c ****           if (GPIO_InitStruct->GPIO_Mode == GPIO_Mode_IPU)
 342              		.loc 1 217 0
 343 010a 482A     		cmp	r2, #72	@ D.5742,
 218:Libraries/STM32F10x_StdPeriph_Driver/src/stm32f10x_gpio.c ****           {
 219:Libraries/STM32F10x_StdPeriph_Driver/src/stm32f10x_gpio.c ****             GPIOx->BSRR = (((uint32_t)0x01) << pinpos);
 344              		.loc 1 219 0
 345 010c 08BF     		it	eq
ARM GAS  /var/folders/yt/6z6x8bjn5sjf5fbb45bk5m4c0000gn/T//ccOwc6J1.s 			page 11


 346 010e 0761     		streq	r7, [r0, #16]	@ currentpin, GPIOx_27(D)->BSRR
 347              	.LVL37:
 348              	.L18:
 196:Libraries/STM32F10x_StdPeriph_Driver/src/stm32f10x_gpio.c ****     {
 349              		.loc 1 196 0 discriminator 2
 350 0110 0134     		adds	r4, r4, #1	@ pinpos, pinpos,
 351              	.LVL38:
 352 0112 082C     		cmp	r4, #8	@ pinpos,
 353 0114 E4D1     		bne	.L20	@,
 220:Libraries/STM32F10x_StdPeriph_Driver/src/stm32f10x_gpio.c ****           }
 221:Libraries/STM32F10x_StdPeriph_Driver/src/stm32f10x_gpio.c ****         }
 222:Libraries/STM32F10x_StdPeriph_Driver/src/stm32f10x_gpio.c ****       }
 223:Libraries/STM32F10x_StdPeriph_Driver/src/stm32f10x_gpio.c ****     }
 224:Libraries/STM32F10x_StdPeriph_Driver/src/stm32f10x_gpio.c ****     GPIOx->CRL = tmpreg;
 354              		.loc 1 224 0
 355 0116 0160     		str	r1, [r0]	@ tmpreg, GPIOx_27(D)->CRL
 356              	.LVL39:
 357              	.L17:
 225:Libraries/STM32F10x_StdPeriph_Driver/src/stm32f10x_gpio.c ****   }
 226:Libraries/STM32F10x_StdPeriph_Driver/src/stm32f10x_gpio.c **** /*---------------------------- GPIO CRH Configuration ------------------------*/
 227:Libraries/STM32F10x_StdPeriph_Driver/src/stm32f10x_gpio.c ****   /* Configure the eight high port pins */
 228:Libraries/STM32F10x_StdPeriph_Driver/src/stm32f10x_gpio.c ****   if (GPIO_InitStruct->GPIO_Pin > 0x00FF)
 358              		.loc 1 228 0
 359 0118 FF2D     		cmp	r5, #255	@ D.5743,
 360 011a 1FD9     		bls	.L14	@,
 229:Libraries/STM32F10x_StdPeriph_Driver/src/stm32f10x_gpio.c ****   {
 230:Libraries/STM32F10x_StdPeriph_Driver/src/stm32f10x_gpio.c ****     tmpreg = GPIOx->CRH;
 361              		.loc 1 230 0
 362 011c 4168     		ldr	r1, [r0, #4]	@ tmpreg, GPIOx_27(D)->CRH
 363              	.LVL40:
 231:Libraries/STM32F10x_StdPeriph_Driver/src/stm32f10x_gpio.c ****     for (pinpos = 0x00; pinpos < 0x08; pinpos++)
 364              		.loc 1 231 0
 365 011e 0024     		movs	r4, #0	@ pinpos,
 366              	.LVL41:
 367              	.L24:
 368 0120 04F10807 		add	r7, r4, #8	@ D.5741, pinpos,
 232:Libraries/STM32F10x_StdPeriph_Driver/src/stm32f10x_gpio.c ****     {
 233:Libraries/STM32F10x_StdPeriph_Driver/src/stm32f10x_gpio.c ****       pos = (((uint32_t)0x01) << (pinpos + 0x08));
 369              		.loc 1 233 0
 370 0124 0126     		movs	r6, #1	@ tmp161,
 371 0126 BE40     		lsls	r6, r6, r7	@ pos, tmp161, D.5741
 372              	.LVL42:
 234:Libraries/STM32F10x_StdPeriph_Driver/src/stm32f10x_gpio.c ****       /* Get the port pins position */
 235:Libraries/STM32F10x_StdPeriph_Driver/src/stm32f10x_gpio.c ****       currentpin = ((GPIO_InitStruct->GPIO_Pin) & pos);
 373              		.loc 1 235 0
 374 0128 06EA0507 		and	r7, r6, r5	@ currentpin, pos, D.5743
 375              	.LVL43:
 236:Libraries/STM32F10x_StdPeriph_Driver/src/stm32f10x_gpio.c ****       if (currentpin == pos)
 376              		.loc 1 236 0
 377 012c B742     		cmp	r7, r6	@ currentpin, pos
 378 012e 11D1     		bne	.L22	@,
 379              	.LVL44:
 237:Libraries/STM32F10x_StdPeriph_Driver/src/stm32f10x_gpio.c ****       {
 238:Libraries/STM32F10x_StdPeriph_Driver/src/stm32f10x_gpio.c ****         pos = pinpos << 2;
 380              		.loc 1 238 0
 381 0130 4FEA840E 		lsl	lr, r4, #2	@ D.5745, pinpos,
 382              	.LVL45:
ARM GAS  /var/folders/yt/6z6x8bjn5sjf5fbb45bk5m4c0000gn/T//ccOwc6J1.s 			page 12


 239:Libraries/STM32F10x_StdPeriph_Driver/src/stm32f10x_gpio.c ****         /* Clear the corresponding high control register bits */
 240:Libraries/STM32F10x_StdPeriph_Driver/src/stm32f10x_gpio.c ****         pinmask = ((uint32_t)0x0F) << pos;
 383              		.loc 1 240 0
 384 0134 0F26     		movs	r6, #15	@ tmp163,
 385 0136 06FA0EF6 		lsl	r6, r6, lr	@ pinmask, tmp163, D.5745
 386              	.LVL46:
 241:Libraries/STM32F10x_StdPeriph_Driver/src/stm32f10x_gpio.c ****         tmpreg &= ~pinmask;
 387              		.loc 1 241 0
 388 013a 21EA0601 		bic	r1, r1, r6	@ tmpreg, tmpreg, pinmask
 389              	.LVL47:
 242:Libraries/STM32F10x_StdPeriph_Driver/src/stm32f10x_gpio.c ****         /* Write the mode configuration in the corresponding bits */
 243:Libraries/STM32F10x_StdPeriph_Driver/src/stm32f10x_gpio.c ****         tmpreg |= (currentmode << pos);
 244:Libraries/STM32F10x_StdPeriph_Driver/src/stm32f10x_gpio.c ****         /* Reset the corresponding ODR bit */
 245:Libraries/STM32F10x_StdPeriph_Driver/src/stm32f10x_gpio.c ****         if (GPIO_InitStruct->GPIO_Mode == GPIO_Mode_IPD)
 390              		.loc 1 245 0
 391 013e 282A     		cmp	r2, #40	@ D.5742,
 243:Libraries/STM32F10x_StdPeriph_Driver/src/stm32f10x_gpio.c ****         /* Reset the corresponding ODR bit */
 392              		.loc 1 243 0
 393 0140 03FA0EF6 		lsl	r6, r3, lr	@ D.5746, currentmode, D.5745
 394              	.LVL48:
 395 0144 41EA0601 		orr	r1, r1, r6	@ tmpreg, tmpreg, D.5746
 396              	.LVL49:
 397              		.loc 1 245 0
 398 0148 01D1     		bne	.L23	@,
 246:Libraries/STM32F10x_StdPeriph_Driver/src/stm32f10x_gpio.c ****         {
 247:Libraries/STM32F10x_StdPeriph_Driver/src/stm32f10x_gpio.c ****           GPIOx->BRR = (((uint32_t)0x01) << (pinpos + 0x08));
 399              		.loc 1 247 0
 400 014a 4761     		str	r7, [r0, #20]	@ currentpin, GPIOx_27(D)->BRR
 401 014c 02E0     		b	.L22	@
 402              	.L23:
 248:Libraries/STM32F10x_StdPeriph_Driver/src/stm32f10x_gpio.c ****         }
 249:Libraries/STM32F10x_StdPeriph_Driver/src/stm32f10x_gpio.c ****         /* Set the corresponding ODR bit */
 250:Libraries/STM32F10x_StdPeriph_Driver/src/stm32f10x_gpio.c ****         if (GPIO_InitStruct->GPIO_Mode == GPIO_Mode_IPU)
 403              		.loc 1 250 0
 404 014e 482A     		cmp	r2, #72	@ D.5742,
 251:Libraries/STM32F10x_StdPeriph_Driver/src/stm32f10x_gpio.c ****         {
 252:Libraries/STM32F10x_StdPeriph_Driver/src/stm32f10x_gpio.c ****           GPIOx->BSRR = (((uint32_t)0x01) << (pinpos + 0x08));
 405              		.loc 1 252 0
 406 0150 08BF     		it	eq
 407 0152 0761     		streq	r7, [r0, #16]	@ currentpin, GPIOx_27(D)->BSRR
 408              	.LVL50:
 409              	.L22:
 231:Libraries/STM32F10x_StdPeriph_Driver/src/stm32f10x_gpio.c ****     {
 410              		.loc 1 231 0 discriminator 2
 411 0154 0134     		adds	r4, r4, #1	@ pinpos, pinpos,
 412              	.LVL51:
 413 0156 082C     		cmp	r4, #8	@ pinpos,
 414 0158 E2D1     		bne	.L24	@,
 253:Libraries/STM32F10x_StdPeriph_Driver/src/stm32f10x_gpio.c ****         }
 254:Libraries/STM32F10x_StdPeriph_Driver/src/stm32f10x_gpio.c ****       }
 255:Libraries/STM32F10x_StdPeriph_Driver/src/stm32f10x_gpio.c ****     }
 256:Libraries/STM32F10x_StdPeriph_Driver/src/stm32f10x_gpio.c ****     GPIOx->CRH = tmpreg;
 415              		.loc 1 256 0
 416 015a 4160     		str	r1, [r0, #4]	@ tmpreg, GPIOx_27(D)->CRH
 417              	.LVL52:
 418              	.L14:
 419 015c F0BD     		pop	{r4, r5, r6, r7, pc}	@
ARM GAS  /var/folders/yt/6z6x8bjn5sjf5fbb45bk5m4c0000gn/T//ccOwc6J1.s 			page 13


 420              		.cfi_endproc
 421              	.LFE31:
 422              		.size	GPIO_Init, .-GPIO_Init
 423              		.align	1
 424              		.global	GPIO_StructInit
 425              		.thumb
 426              		.thumb_func
 427              		.type	GPIO_StructInit, %function
 428              	GPIO_StructInit:
 429              	.LFB32:
 257:Libraries/STM32F10x_StdPeriph_Driver/src/stm32f10x_gpio.c ****   }
 258:Libraries/STM32F10x_StdPeriph_Driver/src/stm32f10x_gpio.c **** }
 259:Libraries/STM32F10x_StdPeriph_Driver/src/stm32f10x_gpio.c **** 
 260:Libraries/STM32F10x_StdPeriph_Driver/src/stm32f10x_gpio.c **** /**
 261:Libraries/STM32F10x_StdPeriph_Driver/src/stm32f10x_gpio.c ****   * @brief  Fills each GPIO_InitStruct member with its default value.
 262:Libraries/STM32F10x_StdPeriph_Driver/src/stm32f10x_gpio.c ****   * @param  GPIO_InitStruct : pointer to a GPIO_InitTypeDef structure which will
 263:Libraries/STM32F10x_StdPeriph_Driver/src/stm32f10x_gpio.c ****   *         be initialized.
 264:Libraries/STM32F10x_StdPeriph_Driver/src/stm32f10x_gpio.c ****   * @retval None
 265:Libraries/STM32F10x_StdPeriph_Driver/src/stm32f10x_gpio.c ****   */
 266:Libraries/STM32F10x_StdPeriph_Driver/src/stm32f10x_gpio.c **** void GPIO_StructInit(GPIO_InitTypeDef* GPIO_InitStruct)
 267:Libraries/STM32F10x_StdPeriph_Driver/src/stm32f10x_gpio.c **** {
 430              		.loc 1 267 0
 431              		.cfi_startproc
 432              		@ args = 0, pretend = 0, frame = 0
 433              		@ frame_needed = 0, uses_anonymous_args = 0
 434              		@ link register save eliminated.
 435              	.LVL53:
 268:Libraries/STM32F10x_StdPeriph_Driver/src/stm32f10x_gpio.c ****   /* Reset GPIO init structure parameters values */
 269:Libraries/STM32F10x_StdPeriph_Driver/src/stm32f10x_gpio.c ****   GPIO_InitStruct->GPIO_Pin  = GPIO_Pin_All;
 436              		.loc 1 269 0
 437 015e 4FF6FF73 		movw	r3, #65535	@ tmp112,
 438 0162 0380     		strh	r3, [r0]	@ movhi	@ tmp112, GPIO_InitStruct_2(D)->GPIO_Pin
 270:Libraries/STM32F10x_StdPeriph_Driver/src/stm32f10x_gpio.c ****   GPIO_InitStruct->GPIO_Speed = GPIO_Speed_2MHz;
 439              		.loc 1 270 0
 440 0164 0223     		movs	r3, #2	@ tmp113,
 441 0166 8370     		strb	r3, [r0, #2]	@ tmp113, GPIO_InitStruct_2(D)->GPIO_Speed
 271:Libraries/STM32F10x_StdPeriph_Driver/src/stm32f10x_gpio.c ****   GPIO_InitStruct->GPIO_Mode = GPIO_Mode_IN_FLOATING;
 442              		.loc 1 271 0
 443 0168 0423     		movs	r3, #4	@ tmp115,
 444 016a C370     		strb	r3, [r0, #3]	@ tmp115, GPIO_InitStruct_2(D)->GPIO_Mode
 445 016c 7047     		bx	lr	@
 446              		.cfi_endproc
 447              	.LFE32:
 448              		.size	GPIO_StructInit, .-GPIO_StructInit
 449              		.align	1
 450              		.global	GPIO_ReadInputDataBit
 451              		.thumb
 452              		.thumb_func
 453              		.type	GPIO_ReadInputDataBit, %function
 454              	GPIO_ReadInputDataBit:
 455              	.LFB33:
 272:Libraries/STM32F10x_StdPeriph_Driver/src/stm32f10x_gpio.c **** }
 273:Libraries/STM32F10x_StdPeriph_Driver/src/stm32f10x_gpio.c **** 
 274:Libraries/STM32F10x_StdPeriph_Driver/src/stm32f10x_gpio.c **** /**
 275:Libraries/STM32F10x_StdPeriph_Driver/src/stm32f10x_gpio.c ****   * @brief  Reads the specified input port pin.
 276:Libraries/STM32F10x_StdPeriph_Driver/src/stm32f10x_gpio.c ****   * @param  GPIOx: where x can be (A..G) to select the GPIO peripheral.
 277:Libraries/STM32F10x_StdPeriph_Driver/src/stm32f10x_gpio.c ****   * @param  GPIO_Pin:  specifies the port bit to read.
ARM GAS  /var/folders/yt/6z6x8bjn5sjf5fbb45bk5m4c0000gn/T//ccOwc6J1.s 			page 14


 278:Libraries/STM32F10x_StdPeriph_Driver/src/stm32f10x_gpio.c ****   *   This parameter can be GPIO_Pin_x where x can be (0..15).
 279:Libraries/STM32F10x_StdPeriph_Driver/src/stm32f10x_gpio.c ****   * @retval The input port pin value.
 280:Libraries/STM32F10x_StdPeriph_Driver/src/stm32f10x_gpio.c ****   */
 281:Libraries/STM32F10x_StdPeriph_Driver/src/stm32f10x_gpio.c **** uint8_t GPIO_ReadInputDataBit(GPIO_TypeDef* GPIOx, uint16_t GPIO_Pin)
 282:Libraries/STM32F10x_StdPeriph_Driver/src/stm32f10x_gpio.c **** {
 456              		.loc 1 282 0
 457              		.cfi_startproc
 458              		@ args = 0, pretend = 0, frame = 0
 459              		@ frame_needed = 0, uses_anonymous_args = 0
 460              		@ link register save eliminated.
 461              	.LVL54:
 283:Libraries/STM32F10x_StdPeriph_Driver/src/stm32f10x_gpio.c ****   uint8_t bitstatus = 0x00;
 284:Libraries/STM32F10x_StdPeriph_Driver/src/stm32f10x_gpio.c ****   
 285:Libraries/STM32F10x_StdPeriph_Driver/src/stm32f10x_gpio.c ****   /* Check the parameters */
 286:Libraries/STM32F10x_StdPeriph_Driver/src/stm32f10x_gpio.c ****   assert_param(IS_GPIO_ALL_PERIPH(GPIOx));
 287:Libraries/STM32F10x_StdPeriph_Driver/src/stm32f10x_gpio.c ****   assert_param(IS_GET_GPIO_PIN(GPIO_Pin)); 
 288:Libraries/STM32F10x_StdPeriph_Driver/src/stm32f10x_gpio.c ****   
 289:Libraries/STM32F10x_StdPeriph_Driver/src/stm32f10x_gpio.c ****   if ((GPIOx->IDR & GPIO_Pin) != (uint32_t)Bit_RESET)
 462              		.loc 1 289 0
 463 016e 8368     		ldr	r3, [r0, #8]	@ D.5751, GPIOx_3(D)->IDR
 464              	.LVL55:
 465 0170 1942     		tst	r1, r3	@ GPIO_Pin, D.5751
 290:Libraries/STM32F10x_StdPeriph_Driver/src/stm32f10x_gpio.c ****   {
 291:Libraries/STM32F10x_StdPeriph_Driver/src/stm32f10x_gpio.c ****     bitstatus = (uint8_t)Bit_SET;
 292:Libraries/STM32F10x_StdPeriph_Driver/src/stm32f10x_gpio.c ****   }
 293:Libraries/STM32F10x_StdPeriph_Driver/src/stm32f10x_gpio.c ****   else
 294:Libraries/STM32F10x_StdPeriph_Driver/src/stm32f10x_gpio.c ****   {
 295:Libraries/STM32F10x_StdPeriph_Driver/src/stm32f10x_gpio.c ****     bitstatus = (uint8_t)Bit_RESET;
 296:Libraries/STM32F10x_StdPeriph_Driver/src/stm32f10x_gpio.c ****   }
 297:Libraries/STM32F10x_StdPeriph_Driver/src/stm32f10x_gpio.c ****   return bitstatus;
 298:Libraries/STM32F10x_StdPeriph_Driver/src/stm32f10x_gpio.c **** }
 466              		.loc 1 298 0
 467 0172 14BF     		ite	ne
 468 0174 0120     		movne	r0, #1	@,
 469              	.LVL56:
 470 0176 0020     		moveq	r0, #0	@,
 471 0178 7047     		bx	lr	@
 472              		.cfi_endproc
 473              	.LFE33:
 474              		.size	GPIO_ReadInputDataBit, .-GPIO_ReadInputDataBit
 475              		.align	1
 476              		.global	GPIO_ReadInputData
 477              		.thumb
 478              		.thumb_func
 479              		.type	GPIO_ReadInputData, %function
 480              	GPIO_ReadInputData:
 481              	.LFB34:
 299:Libraries/STM32F10x_StdPeriph_Driver/src/stm32f10x_gpio.c **** 
 300:Libraries/STM32F10x_StdPeriph_Driver/src/stm32f10x_gpio.c **** /**
 301:Libraries/STM32F10x_StdPeriph_Driver/src/stm32f10x_gpio.c ****   * @brief  Reads the specified GPIO input data port.
 302:Libraries/STM32F10x_StdPeriph_Driver/src/stm32f10x_gpio.c ****   * @param  GPIOx: where x can be (A..G) to select the GPIO peripheral.
 303:Libraries/STM32F10x_StdPeriph_Driver/src/stm32f10x_gpio.c ****   * @retval GPIO input data port value.
 304:Libraries/STM32F10x_StdPeriph_Driver/src/stm32f10x_gpio.c ****   */
 305:Libraries/STM32F10x_StdPeriph_Driver/src/stm32f10x_gpio.c **** uint16_t GPIO_ReadInputData(GPIO_TypeDef* GPIOx)
 306:Libraries/STM32F10x_StdPeriph_Driver/src/stm32f10x_gpio.c **** {
 482              		.loc 1 306 0
 483              		.cfi_startproc
ARM GAS  /var/folders/yt/6z6x8bjn5sjf5fbb45bk5m4c0000gn/T//ccOwc6J1.s 			page 15


 484              		@ args = 0, pretend = 0, frame = 0
 485              		@ frame_needed = 0, uses_anonymous_args = 0
 486              		@ link register save eliminated.
 487              	.LVL57:
 307:Libraries/STM32F10x_StdPeriph_Driver/src/stm32f10x_gpio.c ****   /* Check the parameters */
 308:Libraries/STM32F10x_StdPeriph_Driver/src/stm32f10x_gpio.c ****   assert_param(IS_GPIO_ALL_PERIPH(GPIOx));
 309:Libraries/STM32F10x_StdPeriph_Driver/src/stm32f10x_gpio.c ****   
 310:Libraries/STM32F10x_StdPeriph_Driver/src/stm32f10x_gpio.c ****   return ((uint16_t)GPIOx->IDR);
 488              		.loc 1 310 0
 489 017a 8068     		ldr	r0, [r0, #8]	@ D.5756, GPIOx_2(D)->IDR
 490              	.LVL58:
 311:Libraries/STM32F10x_StdPeriph_Driver/src/stm32f10x_gpio.c **** }
 491              		.loc 1 311 0
 492 017c 80B2     		uxth	r0, r0	@, D.5756
 493 017e 7047     		bx	lr	@
 494              		.cfi_endproc
 495              	.LFE34:
 496              		.size	GPIO_ReadInputData, .-GPIO_ReadInputData
 497              		.align	1
 498              		.global	GPIO_ReadOutputDataBit
 499              		.thumb
 500              		.thumb_func
 501              		.type	GPIO_ReadOutputDataBit, %function
 502              	GPIO_ReadOutputDataBit:
 503              	.LFB35:
 312:Libraries/STM32F10x_StdPeriph_Driver/src/stm32f10x_gpio.c **** 
 313:Libraries/STM32F10x_StdPeriph_Driver/src/stm32f10x_gpio.c **** /**
 314:Libraries/STM32F10x_StdPeriph_Driver/src/stm32f10x_gpio.c ****   * @brief  Reads the specified output data port bit.
 315:Libraries/STM32F10x_StdPeriph_Driver/src/stm32f10x_gpio.c ****   * @param  GPIOx: where x can be (A..G) to select the GPIO peripheral.
 316:Libraries/STM32F10x_StdPeriph_Driver/src/stm32f10x_gpio.c ****   * @param  GPIO_Pin:  specifies the port bit to read.
 317:Libraries/STM32F10x_StdPeriph_Driver/src/stm32f10x_gpio.c ****   *   This parameter can be GPIO_Pin_x where x can be (0..15).
 318:Libraries/STM32F10x_StdPeriph_Driver/src/stm32f10x_gpio.c ****   * @retval The output port pin value.
 319:Libraries/STM32F10x_StdPeriph_Driver/src/stm32f10x_gpio.c ****   */
 320:Libraries/STM32F10x_StdPeriph_Driver/src/stm32f10x_gpio.c **** uint8_t GPIO_ReadOutputDataBit(GPIO_TypeDef* GPIOx, uint16_t GPIO_Pin)
 321:Libraries/STM32F10x_StdPeriph_Driver/src/stm32f10x_gpio.c **** {
 504              		.loc 1 321 0
 505              		.cfi_startproc
 506              		@ args = 0, pretend = 0, frame = 0
 507              		@ frame_needed = 0, uses_anonymous_args = 0
 508              		@ link register save eliminated.
 509              	.LVL59:
 322:Libraries/STM32F10x_StdPeriph_Driver/src/stm32f10x_gpio.c ****   uint8_t bitstatus = 0x00;
 323:Libraries/STM32F10x_StdPeriph_Driver/src/stm32f10x_gpio.c ****   /* Check the parameters */
 324:Libraries/STM32F10x_StdPeriph_Driver/src/stm32f10x_gpio.c ****   assert_param(IS_GPIO_ALL_PERIPH(GPIOx));
 325:Libraries/STM32F10x_StdPeriph_Driver/src/stm32f10x_gpio.c ****   assert_param(IS_GET_GPIO_PIN(GPIO_Pin)); 
 326:Libraries/STM32F10x_StdPeriph_Driver/src/stm32f10x_gpio.c ****   
 327:Libraries/STM32F10x_StdPeriph_Driver/src/stm32f10x_gpio.c ****   if ((GPIOx->ODR & GPIO_Pin) != (uint32_t)Bit_RESET)
 510              		.loc 1 327 0
 511 0180 C368     		ldr	r3, [r0, #12]	@ D.5760, GPIOx_3(D)->ODR
 512              	.LVL60:
 513 0182 1942     		tst	r1, r3	@ GPIO_Pin, D.5760
 328:Libraries/STM32F10x_StdPeriph_Driver/src/stm32f10x_gpio.c ****   {
 329:Libraries/STM32F10x_StdPeriph_Driver/src/stm32f10x_gpio.c ****     bitstatus = (uint8_t)Bit_SET;
 330:Libraries/STM32F10x_StdPeriph_Driver/src/stm32f10x_gpio.c ****   }
 331:Libraries/STM32F10x_StdPeriph_Driver/src/stm32f10x_gpio.c ****   else
 332:Libraries/STM32F10x_StdPeriph_Driver/src/stm32f10x_gpio.c ****   {
 333:Libraries/STM32F10x_StdPeriph_Driver/src/stm32f10x_gpio.c ****     bitstatus = (uint8_t)Bit_RESET;
ARM GAS  /var/folders/yt/6z6x8bjn5sjf5fbb45bk5m4c0000gn/T//ccOwc6J1.s 			page 16


 334:Libraries/STM32F10x_StdPeriph_Driver/src/stm32f10x_gpio.c ****   }
 335:Libraries/STM32F10x_StdPeriph_Driver/src/stm32f10x_gpio.c ****   return bitstatus;
 336:Libraries/STM32F10x_StdPeriph_Driver/src/stm32f10x_gpio.c **** }
 514              		.loc 1 336 0
 515 0184 14BF     		ite	ne
 516 0186 0120     		movne	r0, #1	@,
 517              	.LVL61:
 518 0188 0020     		moveq	r0, #0	@,
 519 018a 7047     		bx	lr	@
 520              		.cfi_endproc
 521              	.LFE35:
 522              		.size	GPIO_ReadOutputDataBit, .-GPIO_ReadOutputDataBit
 523              		.align	1
 524              		.global	GPIO_ReadOutputData
 525              		.thumb
 526              		.thumb_func
 527              		.type	GPIO_ReadOutputData, %function
 528              	GPIO_ReadOutputData:
 529              	.LFB36:
 337:Libraries/STM32F10x_StdPeriph_Driver/src/stm32f10x_gpio.c **** 
 338:Libraries/STM32F10x_StdPeriph_Driver/src/stm32f10x_gpio.c **** /**
 339:Libraries/STM32F10x_StdPeriph_Driver/src/stm32f10x_gpio.c ****   * @brief  Reads the specified GPIO output data port.
 340:Libraries/STM32F10x_StdPeriph_Driver/src/stm32f10x_gpio.c ****   * @param  GPIOx: where x can be (A..G) to select the GPIO peripheral.
 341:Libraries/STM32F10x_StdPeriph_Driver/src/stm32f10x_gpio.c ****   * @retval GPIO output data port value.
 342:Libraries/STM32F10x_StdPeriph_Driver/src/stm32f10x_gpio.c ****   */
 343:Libraries/STM32F10x_StdPeriph_Driver/src/stm32f10x_gpio.c **** uint16_t GPIO_ReadOutputData(GPIO_TypeDef* GPIOx)
 344:Libraries/STM32F10x_StdPeriph_Driver/src/stm32f10x_gpio.c **** {
 530              		.loc 1 344 0
 531              		.cfi_startproc
 532              		@ args = 0, pretend = 0, frame = 0
 533              		@ frame_needed = 0, uses_anonymous_args = 0
 534              		@ link register save eliminated.
 535              	.LVL62:
 345:Libraries/STM32F10x_StdPeriph_Driver/src/stm32f10x_gpio.c ****   /* Check the parameters */
 346:Libraries/STM32F10x_StdPeriph_Driver/src/stm32f10x_gpio.c ****   assert_param(IS_GPIO_ALL_PERIPH(GPIOx));
 347:Libraries/STM32F10x_StdPeriph_Driver/src/stm32f10x_gpio.c ****     
 348:Libraries/STM32F10x_StdPeriph_Driver/src/stm32f10x_gpio.c ****   return ((uint16_t)GPIOx->ODR);
 536              		.loc 1 348 0
 537 018c C068     		ldr	r0, [r0, #12]	@ D.5765, GPIOx_2(D)->ODR
 538              	.LVL63:
 349:Libraries/STM32F10x_StdPeriph_Driver/src/stm32f10x_gpio.c **** }
 539              		.loc 1 349 0
 540 018e 80B2     		uxth	r0, r0	@, D.5765
 541 0190 7047     		bx	lr	@
 542              		.cfi_endproc
 543              	.LFE36:
 544              		.size	GPIO_ReadOutputData, .-GPIO_ReadOutputData
 545              		.align	1
 546              		.global	GPIO_SetBits
 547              		.thumb
 548              		.thumb_func
 549              		.type	GPIO_SetBits, %function
 550              	GPIO_SetBits:
 551              	.LFB37:
 350:Libraries/STM32F10x_StdPeriph_Driver/src/stm32f10x_gpio.c **** 
 351:Libraries/STM32F10x_StdPeriph_Driver/src/stm32f10x_gpio.c **** /**
 352:Libraries/STM32F10x_StdPeriph_Driver/src/stm32f10x_gpio.c ****   * @brief  Sets the selected data port bits.
ARM GAS  /var/folders/yt/6z6x8bjn5sjf5fbb45bk5m4c0000gn/T//ccOwc6J1.s 			page 17


 353:Libraries/STM32F10x_StdPeriph_Driver/src/stm32f10x_gpio.c ****   * @param  GPIOx: where x can be (A..G) to select the GPIO peripheral.
 354:Libraries/STM32F10x_StdPeriph_Driver/src/stm32f10x_gpio.c ****   * @param  GPIO_Pin: specifies the port bits to be written.
 355:Libraries/STM32F10x_StdPeriph_Driver/src/stm32f10x_gpio.c ****   *   This parameter can be any combination of GPIO_Pin_x where x can be (0..15).
 356:Libraries/STM32F10x_StdPeriph_Driver/src/stm32f10x_gpio.c ****   * @retval None
 357:Libraries/STM32F10x_StdPeriph_Driver/src/stm32f10x_gpio.c ****   */
 358:Libraries/STM32F10x_StdPeriph_Driver/src/stm32f10x_gpio.c **** void GPIO_SetBits(GPIO_TypeDef* GPIOx, uint16_t GPIO_Pin)
 359:Libraries/STM32F10x_StdPeriph_Driver/src/stm32f10x_gpio.c **** {
 552              		.loc 1 359 0
 553              		.cfi_startproc
 554              		@ args = 0, pretend = 0, frame = 0
 555              		@ frame_needed = 0, uses_anonymous_args = 0
 556              		@ link register save eliminated.
 557              	.LVL64:
 360:Libraries/STM32F10x_StdPeriph_Driver/src/stm32f10x_gpio.c ****   /* Check the parameters */
 361:Libraries/STM32F10x_StdPeriph_Driver/src/stm32f10x_gpio.c ****   assert_param(IS_GPIO_ALL_PERIPH(GPIOx));
 362:Libraries/STM32F10x_StdPeriph_Driver/src/stm32f10x_gpio.c ****   assert_param(IS_GPIO_PIN(GPIO_Pin));
 363:Libraries/STM32F10x_StdPeriph_Driver/src/stm32f10x_gpio.c ****   
 364:Libraries/STM32F10x_StdPeriph_Driver/src/stm32f10x_gpio.c ****   GPIOx->BSRR = GPIO_Pin;
 558              		.loc 1 364 0
 559 0192 0161     		str	r1, [r0, #16]	@ GPIO_Pin, GPIOx_4(D)->BSRR
 560 0194 7047     		bx	lr	@
 561              		.cfi_endproc
 562              	.LFE37:
 563              		.size	GPIO_SetBits, .-GPIO_SetBits
 564              		.align	1
 565              		.global	GPIO_ResetBits
 566              		.thumb
 567              		.thumb_func
 568              		.type	GPIO_ResetBits, %function
 569              	GPIO_ResetBits:
 570              	.LFB38:
 365:Libraries/STM32F10x_StdPeriph_Driver/src/stm32f10x_gpio.c **** }
 366:Libraries/STM32F10x_StdPeriph_Driver/src/stm32f10x_gpio.c **** 
 367:Libraries/STM32F10x_StdPeriph_Driver/src/stm32f10x_gpio.c **** /**
 368:Libraries/STM32F10x_StdPeriph_Driver/src/stm32f10x_gpio.c ****   * @brief  Clears the selected data port bits.
 369:Libraries/STM32F10x_StdPeriph_Driver/src/stm32f10x_gpio.c ****   * @param  GPIOx: where x can be (A..G) to select the GPIO peripheral.
 370:Libraries/STM32F10x_StdPeriph_Driver/src/stm32f10x_gpio.c ****   * @param  GPIO_Pin: specifies the port bits to be written.
 371:Libraries/STM32F10x_StdPeriph_Driver/src/stm32f10x_gpio.c ****   *   This parameter can be any combination of GPIO_Pin_x where x can be (0..15).
 372:Libraries/STM32F10x_StdPeriph_Driver/src/stm32f10x_gpio.c ****   * @retval None
 373:Libraries/STM32F10x_StdPeriph_Driver/src/stm32f10x_gpio.c ****   */
 374:Libraries/STM32F10x_StdPeriph_Driver/src/stm32f10x_gpio.c **** void GPIO_ResetBits(GPIO_TypeDef* GPIOx, uint16_t GPIO_Pin)
 375:Libraries/STM32F10x_StdPeriph_Driver/src/stm32f10x_gpio.c **** {
 571              		.loc 1 375 0
 572              		.cfi_startproc
 573              		@ args = 0, pretend = 0, frame = 0
 574              		@ frame_needed = 0, uses_anonymous_args = 0
 575              		@ link register save eliminated.
 576              	.LVL65:
 376:Libraries/STM32F10x_StdPeriph_Driver/src/stm32f10x_gpio.c ****   /* Check the parameters */
 377:Libraries/STM32F10x_StdPeriph_Driver/src/stm32f10x_gpio.c ****   assert_param(IS_GPIO_ALL_PERIPH(GPIOx));
 378:Libraries/STM32F10x_StdPeriph_Driver/src/stm32f10x_gpio.c ****   assert_param(IS_GPIO_PIN(GPIO_Pin));
 379:Libraries/STM32F10x_StdPeriph_Driver/src/stm32f10x_gpio.c ****   
 380:Libraries/STM32F10x_StdPeriph_Driver/src/stm32f10x_gpio.c ****   GPIOx->BRR = GPIO_Pin;
 577              		.loc 1 380 0
 578 0196 4161     		str	r1, [r0, #20]	@ GPIO_Pin, GPIOx_4(D)->BRR
 579 0198 7047     		bx	lr	@
 580              		.cfi_endproc
ARM GAS  /var/folders/yt/6z6x8bjn5sjf5fbb45bk5m4c0000gn/T//ccOwc6J1.s 			page 18


 581              	.LFE38:
 582              		.size	GPIO_ResetBits, .-GPIO_ResetBits
 583              		.align	1
 584              		.global	GPIO_WriteBit
 585              		.thumb
 586              		.thumb_func
 587              		.type	GPIO_WriteBit, %function
 588              	GPIO_WriteBit:
 589              	.LFB39:
 381:Libraries/STM32F10x_StdPeriph_Driver/src/stm32f10x_gpio.c **** }
 382:Libraries/STM32F10x_StdPeriph_Driver/src/stm32f10x_gpio.c **** 
 383:Libraries/STM32F10x_StdPeriph_Driver/src/stm32f10x_gpio.c **** /**
 384:Libraries/STM32F10x_StdPeriph_Driver/src/stm32f10x_gpio.c ****   * @brief  Sets or clears the selected data port bit.
 385:Libraries/STM32F10x_StdPeriph_Driver/src/stm32f10x_gpio.c ****   * @param  GPIOx: where x can be (A..G) to select the GPIO peripheral.
 386:Libraries/STM32F10x_StdPeriph_Driver/src/stm32f10x_gpio.c ****   * @param  GPIO_Pin: specifies the port bit to be written.
 387:Libraries/STM32F10x_StdPeriph_Driver/src/stm32f10x_gpio.c ****   *   This parameter can be one of GPIO_Pin_x where x can be (0..15).
 388:Libraries/STM32F10x_StdPeriph_Driver/src/stm32f10x_gpio.c ****   * @param  BitVal: specifies the value to be written to the selected bit.
 389:Libraries/STM32F10x_StdPeriph_Driver/src/stm32f10x_gpio.c ****   *   This parameter can be one of the BitAction enum values:
 390:Libraries/STM32F10x_StdPeriph_Driver/src/stm32f10x_gpio.c ****   *     @arg Bit_RESET: to clear the port pin
 391:Libraries/STM32F10x_StdPeriph_Driver/src/stm32f10x_gpio.c ****   *     @arg Bit_SET: to set the port pin
 392:Libraries/STM32F10x_StdPeriph_Driver/src/stm32f10x_gpio.c ****   * @retval None
 393:Libraries/STM32F10x_StdPeriph_Driver/src/stm32f10x_gpio.c ****   */
 394:Libraries/STM32F10x_StdPeriph_Driver/src/stm32f10x_gpio.c **** void GPIO_WriteBit(GPIO_TypeDef* GPIOx, uint16_t GPIO_Pin, BitAction BitVal)
 395:Libraries/STM32F10x_StdPeriph_Driver/src/stm32f10x_gpio.c **** {
 590              		.loc 1 395 0
 591              		.cfi_startproc
 592              		@ args = 0, pretend = 0, frame = 0
 593              		@ frame_needed = 0, uses_anonymous_args = 0
 594              		@ link register save eliminated.
 595              	.LVL66:
 396:Libraries/STM32F10x_StdPeriph_Driver/src/stm32f10x_gpio.c ****   /* Check the parameters */
 397:Libraries/STM32F10x_StdPeriph_Driver/src/stm32f10x_gpio.c ****   assert_param(IS_GPIO_ALL_PERIPH(GPIOx));
 398:Libraries/STM32F10x_StdPeriph_Driver/src/stm32f10x_gpio.c ****   assert_param(IS_GET_GPIO_PIN(GPIO_Pin));
 399:Libraries/STM32F10x_StdPeriph_Driver/src/stm32f10x_gpio.c ****   assert_param(IS_GPIO_BIT_ACTION(BitVal)); 
 400:Libraries/STM32F10x_StdPeriph_Driver/src/stm32f10x_gpio.c ****   
 401:Libraries/STM32F10x_StdPeriph_Driver/src/stm32f10x_gpio.c ****   if (BitVal != Bit_RESET)
 596              		.loc 1 401 0
 597 019a 0AB1     		cbz	r2, .L38	@ BitVal,
 402:Libraries/STM32F10x_StdPeriph_Driver/src/stm32f10x_gpio.c ****   {
 403:Libraries/STM32F10x_StdPeriph_Driver/src/stm32f10x_gpio.c ****     GPIOx->BSRR = GPIO_Pin;
 598              		.loc 1 403 0
 599 019c 0161     		str	r1, [r0, #16]	@ GPIO_Pin, GPIOx_6(D)->BSRR
 600 019e 7047     		bx	lr	@
 601              	.L38:
 404:Libraries/STM32F10x_StdPeriph_Driver/src/stm32f10x_gpio.c ****   }
 405:Libraries/STM32F10x_StdPeriph_Driver/src/stm32f10x_gpio.c ****   else
 406:Libraries/STM32F10x_StdPeriph_Driver/src/stm32f10x_gpio.c ****   {
 407:Libraries/STM32F10x_StdPeriph_Driver/src/stm32f10x_gpio.c ****     GPIOx->BRR = GPIO_Pin;
 602              		.loc 1 407 0
 603 01a0 4161     		str	r1, [r0, #20]	@ GPIO_Pin, GPIOx_6(D)->BRR
 604 01a2 7047     		bx	lr	@
 605              		.cfi_endproc
 606              	.LFE39:
 607              		.size	GPIO_WriteBit, .-GPIO_WriteBit
 608              		.align	1
 609              		.global	GPIO_Write
 610              		.thumb
ARM GAS  /var/folders/yt/6z6x8bjn5sjf5fbb45bk5m4c0000gn/T//ccOwc6J1.s 			page 19


 611              		.thumb_func
 612              		.type	GPIO_Write, %function
 613              	GPIO_Write:
 614              	.LFB40:
 408:Libraries/STM32F10x_StdPeriph_Driver/src/stm32f10x_gpio.c ****   }
 409:Libraries/STM32F10x_StdPeriph_Driver/src/stm32f10x_gpio.c **** }
 410:Libraries/STM32F10x_StdPeriph_Driver/src/stm32f10x_gpio.c **** 
 411:Libraries/STM32F10x_StdPeriph_Driver/src/stm32f10x_gpio.c **** /**
 412:Libraries/STM32F10x_StdPeriph_Driver/src/stm32f10x_gpio.c ****   * @brief  Writes data to the specified GPIO data port.
 413:Libraries/STM32F10x_StdPeriph_Driver/src/stm32f10x_gpio.c ****   * @param  GPIOx: where x can be (A..G) to select the GPIO peripheral.
 414:Libraries/STM32F10x_StdPeriph_Driver/src/stm32f10x_gpio.c ****   * @param  PortVal: specifies the value to be written to the port output data register.
 415:Libraries/STM32F10x_StdPeriph_Driver/src/stm32f10x_gpio.c ****   * @retval None
 416:Libraries/STM32F10x_StdPeriph_Driver/src/stm32f10x_gpio.c ****   */
 417:Libraries/STM32F10x_StdPeriph_Driver/src/stm32f10x_gpio.c **** void GPIO_Write(GPIO_TypeDef* GPIOx, uint16_t PortVal)
 418:Libraries/STM32F10x_StdPeriph_Driver/src/stm32f10x_gpio.c **** {
 615              		.loc 1 418 0
 616              		.cfi_startproc
 617              		@ args = 0, pretend = 0, frame = 0
 618              		@ frame_needed = 0, uses_anonymous_args = 0
 619              		@ link register save eliminated.
 620              	.LVL67:
 419:Libraries/STM32F10x_StdPeriph_Driver/src/stm32f10x_gpio.c ****   /* Check the parameters */
 420:Libraries/STM32F10x_StdPeriph_Driver/src/stm32f10x_gpio.c ****   assert_param(IS_GPIO_ALL_PERIPH(GPIOx));
 421:Libraries/STM32F10x_StdPeriph_Driver/src/stm32f10x_gpio.c ****   
 422:Libraries/STM32F10x_StdPeriph_Driver/src/stm32f10x_gpio.c ****   GPIOx->ODR = PortVal;
 621              		.loc 1 422 0
 622 01a4 C160     		str	r1, [r0, #12]	@ PortVal, GPIOx_4(D)->ODR
 623 01a6 7047     		bx	lr	@
 624              		.cfi_endproc
 625              	.LFE40:
 626              		.size	GPIO_Write, .-GPIO_Write
 627              		.align	1
 628              		.global	GPIO_PinLockConfig
 629              		.thumb
 630              		.thumb_func
 631              		.type	GPIO_PinLockConfig, %function
 632              	GPIO_PinLockConfig:
 633              	.LFB41:
 423:Libraries/STM32F10x_StdPeriph_Driver/src/stm32f10x_gpio.c **** }
 424:Libraries/STM32F10x_StdPeriph_Driver/src/stm32f10x_gpio.c **** 
 425:Libraries/STM32F10x_StdPeriph_Driver/src/stm32f10x_gpio.c **** /**
 426:Libraries/STM32F10x_StdPeriph_Driver/src/stm32f10x_gpio.c ****   * @brief  Locks GPIO Pins configuration registers.
 427:Libraries/STM32F10x_StdPeriph_Driver/src/stm32f10x_gpio.c ****   * @param  GPIOx: where x can be (A..G) to select the GPIO peripheral.
 428:Libraries/STM32F10x_StdPeriph_Driver/src/stm32f10x_gpio.c ****   * @param  GPIO_Pin: specifies the port bit to be written.
 429:Libraries/STM32F10x_StdPeriph_Driver/src/stm32f10x_gpio.c ****   *   This parameter can be any combination of GPIO_Pin_x where x can be (0..15).
 430:Libraries/STM32F10x_StdPeriph_Driver/src/stm32f10x_gpio.c ****   * @retval None
 431:Libraries/STM32F10x_StdPeriph_Driver/src/stm32f10x_gpio.c ****   */
 432:Libraries/STM32F10x_StdPeriph_Driver/src/stm32f10x_gpio.c **** void GPIO_PinLockConfig(GPIO_TypeDef* GPIOx, uint16_t GPIO_Pin)
 433:Libraries/STM32F10x_StdPeriph_Driver/src/stm32f10x_gpio.c **** {
 634              		.loc 1 433 0
 635              		.cfi_startproc
 636              		@ args = 0, pretend = 0, frame = 0
 637              		@ frame_needed = 0, uses_anonymous_args = 0
 638              		@ link register save eliminated.
 639              	.LVL68:
 434:Libraries/STM32F10x_StdPeriph_Driver/src/stm32f10x_gpio.c ****   uint32_t tmp = 0x00010000;
 435:Libraries/STM32F10x_StdPeriph_Driver/src/stm32f10x_gpio.c ****   
ARM GAS  /var/folders/yt/6z6x8bjn5sjf5fbb45bk5m4c0000gn/T//ccOwc6J1.s 			page 20


 436:Libraries/STM32F10x_StdPeriph_Driver/src/stm32f10x_gpio.c ****   /* Check the parameters */
 437:Libraries/STM32F10x_StdPeriph_Driver/src/stm32f10x_gpio.c ****   assert_param(IS_GPIO_ALL_PERIPH(GPIOx));
 438:Libraries/STM32F10x_StdPeriph_Driver/src/stm32f10x_gpio.c ****   assert_param(IS_GPIO_PIN(GPIO_Pin));
 439:Libraries/STM32F10x_StdPeriph_Driver/src/stm32f10x_gpio.c ****   
 440:Libraries/STM32F10x_StdPeriph_Driver/src/stm32f10x_gpio.c ****   tmp |= GPIO_Pin;
 640              		.loc 1 440 0
 641 01a8 41F48033 		orr	r3, r1, #65536	@ tmp, GPIO_Pin,
 642              	.LVL69:
 441:Libraries/STM32F10x_StdPeriph_Driver/src/stm32f10x_gpio.c ****   /* Set LCKK bit */
 442:Libraries/STM32F10x_StdPeriph_Driver/src/stm32f10x_gpio.c ****   GPIOx->LCKR = tmp;
 643              		.loc 1 442 0
 644 01ac 8361     		str	r3, [r0, #24]	@ tmp, GPIOx_5(D)->LCKR
 443:Libraries/STM32F10x_StdPeriph_Driver/src/stm32f10x_gpio.c ****   /* Reset LCKK bit */
 444:Libraries/STM32F10x_StdPeriph_Driver/src/stm32f10x_gpio.c ****   GPIOx->LCKR =  GPIO_Pin;
 645              		.loc 1 444 0
 646 01ae 8161     		str	r1, [r0, #24]	@ GPIO_Pin, GPIOx_5(D)->LCKR
 445:Libraries/STM32F10x_StdPeriph_Driver/src/stm32f10x_gpio.c ****   /* Set LCKK bit */
 446:Libraries/STM32F10x_StdPeriph_Driver/src/stm32f10x_gpio.c ****   GPIOx->LCKR = tmp;
 647              		.loc 1 446 0
 648 01b0 8361     		str	r3, [r0, #24]	@ tmp, GPIOx_5(D)->LCKR
 447:Libraries/STM32F10x_StdPeriph_Driver/src/stm32f10x_gpio.c ****   /* Read LCKK bit*/
 448:Libraries/STM32F10x_StdPeriph_Driver/src/stm32f10x_gpio.c ****   tmp = GPIOx->LCKR;
 649              		.loc 1 448 0
 650 01b2 8369     		ldr	r3, [r0, #24]	@ tmp, GPIOx_5(D)->LCKR
 651              	.LVL70:
 449:Libraries/STM32F10x_StdPeriph_Driver/src/stm32f10x_gpio.c ****   /* Read LCKK bit*/
 450:Libraries/STM32F10x_StdPeriph_Driver/src/stm32f10x_gpio.c ****   tmp = GPIOx->LCKR;
 652              		.loc 1 450 0
 653 01b4 8369     		ldr	r3, [r0, #24]	@ tmp, GPIOx_5(D)->LCKR
 654 01b6 7047     		bx	lr	@
 655              		.cfi_endproc
 656              	.LFE41:
 657              		.size	GPIO_PinLockConfig, .-GPIO_PinLockConfig
 658              		.align	1
 659              		.global	GPIO_EventOutputConfig
 660              		.thumb
 661              		.thumb_func
 662              		.type	GPIO_EventOutputConfig, %function
 663              	GPIO_EventOutputConfig:
 664              	.LFB42:
 451:Libraries/STM32F10x_StdPeriph_Driver/src/stm32f10x_gpio.c **** }
 452:Libraries/STM32F10x_StdPeriph_Driver/src/stm32f10x_gpio.c **** 
 453:Libraries/STM32F10x_StdPeriph_Driver/src/stm32f10x_gpio.c **** /**
 454:Libraries/STM32F10x_StdPeriph_Driver/src/stm32f10x_gpio.c ****   * @brief  Selects the GPIO pin used as Event output.
 455:Libraries/STM32F10x_StdPeriph_Driver/src/stm32f10x_gpio.c ****   * @param  GPIO_PortSource: selects the GPIO port to be used as source
 456:Libraries/STM32F10x_StdPeriph_Driver/src/stm32f10x_gpio.c ****   *   for Event output.
 457:Libraries/STM32F10x_StdPeriph_Driver/src/stm32f10x_gpio.c ****   *   This parameter can be GPIO_PortSourceGPIOx where x can be (A..E).
 458:Libraries/STM32F10x_StdPeriph_Driver/src/stm32f10x_gpio.c ****   * @param  GPIO_PinSource: specifies the pin for the Event output.
 459:Libraries/STM32F10x_StdPeriph_Driver/src/stm32f10x_gpio.c ****   *   This parameter can be GPIO_PinSourcex where x can be (0..15).
 460:Libraries/STM32F10x_StdPeriph_Driver/src/stm32f10x_gpio.c ****   * @retval None
 461:Libraries/STM32F10x_StdPeriph_Driver/src/stm32f10x_gpio.c ****   */
 462:Libraries/STM32F10x_StdPeriph_Driver/src/stm32f10x_gpio.c **** void GPIO_EventOutputConfig(uint8_t GPIO_PortSource, uint8_t GPIO_PinSource)
 463:Libraries/STM32F10x_StdPeriph_Driver/src/stm32f10x_gpio.c **** {
 665              		.loc 1 463 0
 666              		.cfi_startproc
 667              		@ args = 0, pretend = 0, frame = 0
 668              		@ frame_needed = 0, uses_anonymous_args = 0
ARM GAS  /var/folders/yt/6z6x8bjn5sjf5fbb45bk5m4c0000gn/T//ccOwc6J1.s 			page 21


 669              		@ link register save eliminated.
 670              	.LVL71:
 464:Libraries/STM32F10x_StdPeriph_Driver/src/stm32f10x_gpio.c ****   uint32_t tmpreg = 0x00;
 465:Libraries/STM32F10x_StdPeriph_Driver/src/stm32f10x_gpio.c ****   /* Check the parameters */
 466:Libraries/STM32F10x_StdPeriph_Driver/src/stm32f10x_gpio.c ****   assert_param(IS_GPIO_EVENTOUT_PORT_SOURCE(GPIO_PortSource));
 467:Libraries/STM32F10x_StdPeriph_Driver/src/stm32f10x_gpio.c ****   assert_param(IS_GPIO_PIN_SOURCE(GPIO_PinSource));
 468:Libraries/STM32F10x_StdPeriph_Driver/src/stm32f10x_gpio.c ****     
 469:Libraries/STM32F10x_StdPeriph_Driver/src/stm32f10x_gpio.c ****   tmpreg = AFIO->EVCR;
 671              		.loc 1 469 0
 672 01b8 054A     		ldr	r2, .L43	@ tmp119,
 673 01ba 1368     		ldr	r3, [r2]	@ tmpreg, MEM[(struct AFIO_TypeDef *)1073807360B].EVCR
 674              	.LVL72:
 470:Libraries/STM32F10x_StdPeriph_Driver/src/stm32f10x_gpio.c ****   /* Clear the PORT[6:4] and PIN[3:0] bits */
 471:Libraries/STM32F10x_StdPeriph_Driver/src/stm32f10x_gpio.c ****   tmpreg &= EVCR_PORTPINCONFIG_MASK;
 675              		.loc 1 471 0
 676 01bc 23F07F03 		bic	r3, r3, #127	@ tmpreg, tmpreg,
 677              	.LVL73:
 678 01c0 1B04     		lsls	r3, r3, #16	@ tmpreg, tmpreg,
 679 01c2 1B0C     		lsrs	r3, r3, #16	@ tmpreg, tmpreg,
 680 01c4 1943     		orrs	r1, r1, r3	@, D.5785, GPIO_PinSource, tmpreg
 681              	.LVL74:
 472:Libraries/STM32F10x_StdPeriph_Driver/src/stm32f10x_gpio.c ****   tmpreg |= (uint32_t)GPIO_PortSource << 0x04;
 473:Libraries/STM32F10x_StdPeriph_Driver/src/stm32f10x_gpio.c ****   tmpreg |= GPIO_PinSource;
 682              		.loc 1 473 0
 683 01c6 41EA0010 		orr	r0, r1, r0, lsl #4	@, tmpreg, D.5785, GPIO_PortSource,
 684              	.LVL75:
 474:Libraries/STM32F10x_StdPeriph_Driver/src/stm32f10x_gpio.c ****   AFIO->EVCR = tmpreg;
 685              		.loc 1 474 0
 686 01ca 1060     		str	r0, [r2]	@ tmpreg, MEM[(struct AFIO_TypeDef *)1073807360B].EVCR
 687 01cc 7047     		bx	lr	@
 688              	.L44:
 689 01ce 00BF     		.align	2
 690              	.L43:
 691 01d0 00000140 		.word	1073807360
 692              		.cfi_endproc
 693              	.LFE42:
 694              		.size	GPIO_EventOutputConfig, .-GPIO_EventOutputConfig
 695              		.align	1
 696              		.global	GPIO_EventOutputCmd
 697              		.thumb
 698              		.thumb_func
 699              		.type	GPIO_EventOutputCmd, %function
 700              	GPIO_EventOutputCmd:
 701              	.LFB43:
 475:Libraries/STM32F10x_StdPeriph_Driver/src/stm32f10x_gpio.c **** }
 476:Libraries/STM32F10x_StdPeriph_Driver/src/stm32f10x_gpio.c **** 
 477:Libraries/STM32F10x_StdPeriph_Driver/src/stm32f10x_gpio.c **** /**
 478:Libraries/STM32F10x_StdPeriph_Driver/src/stm32f10x_gpio.c ****   * @brief  Enables or disables the Event Output.
 479:Libraries/STM32F10x_StdPeriph_Driver/src/stm32f10x_gpio.c ****   * @param  NewState: new state of the Event output.
 480:Libraries/STM32F10x_StdPeriph_Driver/src/stm32f10x_gpio.c ****   *   This parameter can be: ENABLE or DISABLE.
 481:Libraries/STM32F10x_StdPeriph_Driver/src/stm32f10x_gpio.c ****   * @retval None
 482:Libraries/STM32F10x_StdPeriph_Driver/src/stm32f10x_gpio.c ****   */
 483:Libraries/STM32F10x_StdPeriph_Driver/src/stm32f10x_gpio.c **** void GPIO_EventOutputCmd(FunctionalState NewState)
 484:Libraries/STM32F10x_StdPeriph_Driver/src/stm32f10x_gpio.c **** {
 702              		.loc 1 484 0
 703              		.cfi_startproc
 704              		@ args = 0, pretend = 0, frame = 0
ARM GAS  /var/folders/yt/6z6x8bjn5sjf5fbb45bk5m4c0000gn/T//ccOwc6J1.s 			page 22


 705              		@ frame_needed = 0, uses_anonymous_args = 0
 706              		@ link register save eliminated.
 707              	.LVL76:
 485:Libraries/STM32F10x_StdPeriph_Driver/src/stm32f10x_gpio.c ****   /* Check the parameters */
 486:Libraries/STM32F10x_StdPeriph_Driver/src/stm32f10x_gpio.c ****   assert_param(IS_FUNCTIONAL_STATE(NewState));
 487:Libraries/STM32F10x_StdPeriph_Driver/src/stm32f10x_gpio.c ****   
 488:Libraries/STM32F10x_StdPeriph_Driver/src/stm32f10x_gpio.c ****   *(__IO uint32_t *) EVCR_EVOE_BB = (uint32_t)NewState;
 708              		.loc 1 488 0
 709 01d4 014B     		ldr	r3, .L46	@ tmp112,
 710 01d6 1860     		str	r0, [r3]	@ NewState, MEM[(volatile uint32_t *)1109393436B]
 711 01d8 7047     		bx	lr	@
 712              	.L47:
 713 01da 00BF     		.align	2
 714              	.L46:
 715 01dc 1C002042 		.word	1109393436
 716              		.cfi_endproc
 717              	.LFE43:
 718              		.size	GPIO_EventOutputCmd, .-GPIO_EventOutputCmd
 719              		.align	1
 720              		.global	GPIO_PinRemapConfig
 721              		.thumb
 722              		.thumb_func
 723              		.type	GPIO_PinRemapConfig, %function
 724              	GPIO_PinRemapConfig:
 725              	.LFB44:
 489:Libraries/STM32F10x_StdPeriph_Driver/src/stm32f10x_gpio.c **** }
 490:Libraries/STM32F10x_StdPeriph_Driver/src/stm32f10x_gpio.c **** 
 491:Libraries/STM32F10x_StdPeriph_Driver/src/stm32f10x_gpio.c **** /**
 492:Libraries/STM32F10x_StdPeriph_Driver/src/stm32f10x_gpio.c ****   * @brief  Changes the mapping of the specified pin.
 493:Libraries/STM32F10x_StdPeriph_Driver/src/stm32f10x_gpio.c ****   * @param  GPIO_Remap: selects the pin to remap.
 494:Libraries/STM32F10x_StdPeriph_Driver/src/stm32f10x_gpio.c ****   *   This parameter can be one of the following values:
 495:Libraries/STM32F10x_StdPeriph_Driver/src/stm32f10x_gpio.c ****   *     @arg GPIO_Remap_SPI1             : SPI1 Alternate Function mapping
 496:Libraries/STM32F10x_StdPeriph_Driver/src/stm32f10x_gpio.c ****   *     @arg GPIO_Remap_I2C1             : I2C1 Alternate Function mapping
 497:Libraries/STM32F10x_StdPeriph_Driver/src/stm32f10x_gpio.c ****   *     @arg GPIO_Remap_USART1           : USART1 Alternate Function mapping
 498:Libraries/STM32F10x_StdPeriph_Driver/src/stm32f10x_gpio.c ****   *     @arg GPIO_Remap_USART2           : USART2 Alternate Function mapping
 499:Libraries/STM32F10x_StdPeriph_Driver/src/stm32f10x_gpio.c ****   *     @arg GPIO_PartialRemap_USART3    : USART3 Partial Alternate Function mapping
 500:Libraries/STM32F10x_StdPeriph_Driver/src/stm32f10x_gpio.c ****   *     @arg GPIO_FullRemap_USART3       : USART3 Full Alternate Function mapping
 501:Libraries/STM32F10x_StdPeriph_Driver/src/stm32f10x_gpio.c ****   *     @arg GPIO_PartialRemap_TIM1      : TIM1 Partial Alternate Function mapping
 502:Libraries/STM32F10x_StdPeriph_Driver/src/stm32f10x_gpio.c ****   *     @arg GPIO_FullRemap_TIM1         : TIM1 Full Alternate Function mapping
 503:Libraries/STM32F10x_StdPeriph_Driver/src/stm32f10x_gpio.c ****   *     @arg GPIO_PartialRemap1_TIM2     : TIM2 Partial1 Alternate Function mapping
 504:Libraries/STM32F10x_StdPeriph_Driver/src/stm32f10x_gpio.c ****   *     @arg GPIO_PartialRemap2_TIM2     : TIM2 Partial2 Alternate Function mapping
 505:Libraries/STM32F10x_StdPeriph_Driver/src/stm32f10x_gpio.c ****   *     @arg GPIO_FullRemap_TIM2         : TIM2 Full Alternate Function mapping
 506:Libraries/STM32F10x_StdPeriph_Driver/src/stm32f10x_gpio.c ****   *     @arg GPIO_PartialRemap_TIM3      : TIM3 Partial Alternate Function mapping
 507:Libraries/STM32F10x_StdPeriph_Driver/src/stm32f10x_gpio.c ****   *     @arg GPIO_FullRemap_TIM3         : TIM3 Full Alternate Function mapping
 508:Libraries/STM32F10x_StdPeriph_Driver/src/stm32f10x_gpio.c ****   *     @arg GPIO_Remap_TIM4             : TIM4 Alternate Function mapping
 509:Libraries/STM32F10x_StdPeriph_Driver/src/stm32f10x_gpio.c ****   *     @arg GPIO_Remap1_CAN1            : CAN1 Alternate Function mapping
 510:Libraries/STM32F10x_StdPeriph_Driver/src/stm32f10x_gpio.c ****   *     @arg GPIO_Remap2_CAN1            : CAN1 Alternate Function mapping
 511:Libraries/STM32F10x_StdPeriph_Driver/src/stm32f10x_gpio.c ****   *     @arg GPIO_Remap_PD01             : PD01 Alternate Function mapping
 512:Libraries/STM32F10x_StdPeriph_Driver/src/stm32f10x_gpio.c ****   *     @arg GPIO_Remap_TIM5CH4_LSI      : LSI connected to TIM5 Channel4 input capture for calibra
 513:Libraries/STM32F10x_StdPeriph_Driver/src/stm32f10x_gpio.c ****   *     @arg GPIO_Remap_ADC1_ETRGINJ     : ADC1 External Trigger Injected Conversion remapping
 514:Libraries/STM32F10x_StdPeriph_Driver/src/stm32f10x_gpio.c ****   *     @arg GPIO_Remap_ADC1_ETRGREG     : ADC1 External Trigger Regular Conversion remapping
 515:Libraries/STM32F10x_StdPeriph_Driver/src/stm32f10x_gpio.c ****   *     @arg GPIO_Remap_ADC2_ETRGINJ     : ADC2 External Trigger Injected Conversion remapping
 516:Libraries/STM32F10x_StdPeriph_Driver/src/stm32f10x_gpio.c ****   *     @arg GPIO_Remap_ADC2_ETRGREG     : ADC2 External Trigger Regular Conversion remapping
 517:Libraries/STM32F10x_StdPeriph_Driver/src/stm32f10x_gpio.c ****   *     @arg GPIO_Remap_ETH              : Ethernet remapping (only for Connectivity line devices)
 518:Libraries/STM32F10x_StdPeriph_Driver/src/stm32f10x_gpio.c ****   *     @arg GPIO_Remap_CAN2             : CAN2 remapping (only for Connectivity line devices)
 519:Libraries/STM32F10x_StdPeriph_Driver/src/stm32f10x_gpio.c ****   *     @arg GPIO_Remap_SWJ_NoJTRST      : Full SWJ Enabled (JTAG-DP + SW-DP) but without JTRST
 520:Libraries/STM32F10x_StdPeriph_Driver/src/stm32f10x_gpio.c ****   *     @arg GPIO_Remap_SWJ_JTAGDisable  : JTAG-DP Disabled and SW-DP Enabled
ARM GAS  /var/folders/yt/6z6x8bjn5sjf5fbb45bk5m4c0000gn/T//ccOwc6J1.s 			page 23


 521:Libraries/STM32F10x_StdPeriph_Driver/src/stm32f10x_gpio.c ****   *     @arg GPIO_Remap_SWJ_Disable      : Full SWJ Disabled (JTAG-DP + SW-DP)
 522:Libraries/STM32F10x_StdPeriph_Driver/src/stm32f10x_gpio.c ****   *     @arg GPIO_Remap_SPI3             : SPI3/I2S3 Alternate Function mapping (only for Connectiv
 523:Libraries/STM32F10x_StdPeriph_Driver/src/stm32f10x_gpio.c ****   *                                        When the SPI3/I2S3 is remapped using this function, the 
 524:Libraries/STM32F10x_StdPeriph_Driver/src/stm32f10x_gpio.c ****   *                                        to Full SWJ Enabled (JTAG-DP + SW-DP) but without JTRST.
 525:Libraries/STM32F10x_StdPeriph_Driver/src/stm32f10x_gpio.c ****   *     @arg GPIO_Remap_TIM2ITR1_PTP_SOF : Ethernet PTP output or USB OTG SOF (Start of Frame) conn
 526:Libraries/STM32F10x_StdPeriph_Driver/src/stm32f10x_gpio.c ****   *                                        to TIM2 Internal Trigger 1 for calibration (only for Con
 527:Libraries/STM32F10x_StdPeriph_Driver/src/stm32f10x_gpio.c ****   *                                        If the GPIO_Remap_TIM2ITR1_PTP_SOF is enabled the TIM2 I
 528:Libraries/STM32F10x_StdPeriph_Driver/src/stm32f10x_gpio.c ****   *                                        Ethernet PTP output. When Reset TIM2 ITR1 is connected t
 529:Libraries/STM32F10x_StdPeriph_Driver/src/stm32f10x_gpio.c ****   *     @arg GPIO_Remap_PTP_PPS          : Ethernet MAC PPS_PTS output on PB05 (only for Connectivi
 530:Libraries/STM32F10x_StdPeriph_Driver/src/stm32f10x_gpio.c ****   *     @arg GPIO_Remap_TIM15            : TIM15 Alternate Function mapping (only for Value line de
 531:Libraries/STM32F10x_StdPeriph_Driver/src/stm32f10x_gpio.c ****   *     @arg GPIO_Remap_TIM16            : TIM16 Alternate Function mapping (only for Value line de
 532:Libraries/STM32F10x_StdPeriph_Driver/src/stm32f10x_gpio.c ****   *     @arg GPIO_Remap_TIM17            : TIM17 Alternate Function mapping (only for Value line de
 533:Libraries/STM32F10x_StdPeriph_Driver/src/stm32f10x_gpio.c ****   *     @arg GPIO_Remap_CEC              : CEC Alternate Function mapping (only for Value line devi
 534:Libraries/STM32F10x_StdPeriph_Driver/src/stm32f10x_gpio.c ****   *     @arg GPIO_Remap_TIM1_DMA         : TIM1 DMA requests mapping (only for Value line devices)
 535:Libraries/STM32F10x_StdPeriph_Driver/src/stm32f10x_gpio.c ****   *     @arg GPIO_Remap_TIM9             : TIM9 Alternate Function mapping (only for XL-density dev
 536:Libraries/STM32F10x_StdPeriph_Driver/src/stm32f10x_gpio.c ****   *     @arg GPIO_Remap_TIM10            : TIM10 Alternate Function mapping (only for XL-density de
 537:Libraries/STM32F10x_StdPeriph_Driver/src/stm32f10x_gpio.c ****   *     @arg GPIO_Remap_TIM11            : TIM11 Alternate Function mapping (only for XL-density de
 538:Libraries/STM32F10x_StdPeriph_Driver/src/stm32f10x_gpio.c ****   *     @arg GPIO_Remap_TIM13            : TIM13 Alternate Function mapping (only for High density 
 539:Libraries/STM32F10x_StdPeriph_Driver/src/stm32f10x_gpio.c ****   *     @arg GPIO_Remap_TIM14            : TIM14 Alternate Function mapping (only for High density 
 540:Libraries/STM32F10x_StdPeriph_Driver/src/stm32f10x_gpio.c ****   *     @arg GPIO_Remap_FSMC_NADV        : FSMC_NADV Alternate Function mapping (only for High dens
 541:Libraries/STM32F10x_StdPeriph_Driver/src/stm32f10x_gpio.c ****   *     @arg GPIO_Remap_TIM67_DAC_DMA    : TIM6/TIM7 and DAC DMA requests remapping (only for High 
 542:Libraries/STM32F10x_StdPeriph_Driver/src/stm32f10x_gpio.c ****   *     @arg GPIO_Remap_TIM12            : TIM12 Alternate Function mapping (only for High density 
 543:Libraries/STM32F10x_StdPeriph_Driver/src/stm32f10x_gpio.c ****   *     @arg GPIO_Remap_MISC             : Miscellaneous Remap (DMA2 Channel5 Position and DAC Trig
 544:Libraries/STM32F10x_StdPeriph_Driver/src/stm32f10x_gpio.c ****   *                                        only for High density Value line devices)     
 545:Libraries/STM32F10x_StdPeriph_Driver/src/stm32f10x_gpio.c ****   * @param  NewState: new state of the port pin remapping.
 546:Libraries/STM32F10x_StdPeriph_Driver/src/stm32f10x_gpio.c ****   *   This parameter can be: ENABLE or DISABLE.
 547:Libraries/STM32F10x_StdPeriph_Driver/src/stm32f10x_gpio.c ****   * @retval None
 548:Libraries/STM32F10x_StdPeriph_Driver/src/stm32f10x_gpio.c ****   */
 549:Libraries/STM32F10x_StdPeriph_Driver/src/stm32f10x_gpio.c **** void GPIO_PinRemapConfig(uint32_t GPIO_Remap, FunctionalState NewState)
 550:Libraries/STM32F10x_StdPeriph_Driver/src/stm32f10x_gpio.c **** {
 726              		.loc 1 550 0
 727              		.cfi_startproc
 728              		@ args = 0, pretend = 0, frame = 0
 729              		@ frame_needed = 0, uses_anonymous_args = 0
 730              	.LVL77:
 551:Libraries/STM32F10x_StdPeriph_Driver/src/stm32f10x_gpio.c ****   uint32_t tmp = 0x00, tmp1 = 0x00, tmpreg = 0x00, tmpmask = 0x00;
 552:Libraries/STM32F10x_StdPeriph_Driver/src/stm32f10x_gpio.c **** 
 553:Libraries/STM32F10x_StdPeriph_Driver/src/stm32f10x_gpio.c ****   /* Check the parameters */
 554:Libraries/STM32F10x_StdPeriph_Driver/src/stm32f10x_gpio.c ****   assert_param(IS_GPIO_REMAP(GPIO_Remap));
 555:Libraries/STM32F10x_StdPeriph_Driver/src/stm32f10x_gpio.c ****   assert_param(IS_FUNCTIONAL_STATE(NewState));  
 556:Libraries/STM32F10x_StdPeriph_Driver/src/stm32f10x_gpio.c ****   
 557:Libraries/STM32F10x_StdPeriph_Driver/src/stm32f10x_gpio.c ****   if((GPIO_Remap & 0x80000000) == 0x80000000)
 731              		.loc 1 557 0
 732 01e0 0028     		cmp	r0, #0	@ GPIO_Remap
 550:Libraries/STM32F10x_StdPeriph_Driver/src/stm32f10x_gpio.c ****   uint32_t tmp = 0x00, tmp1 = 0x00, tmpreg = 0x00, tmpmask = 0x00;
 733              		.loc 1 550 0
 734 01e2 30B5     		push	{r4, r5, lr}	@
 735              	.LCFI6:
 736              		.cfi_def_cfa_offset 12
 737              		.cfi_offset 4, -12
 738              		.cfi_offset 5, -8
 739              		.cfi_offset 14, -4
 740 01e4 154C     		ldr	r4, .L61	@ tmp156,
 558:Libraries/STM32F10x_StdPeriph_Driver/src/stm32f10x_gpio.c ****   {
 559:Libraries/STM32F10x_StdPeriph_Driver/src/stm32f10x_gpio.c ****     tmpreg = AFIO->MAPR2;
 560:Libraries/STM32F10x_StdPeriph_Driver/src/stm32f10x_gpio.c ****   }
 561:Libraries/STM32F10x_StdPeriph_Driver/src/stm32f10x_gpio.c ****   else
ARM GAS  /var/folders/yt/6z6x8bjn5sjf5fbb45bk5m4c0000gn/T//ccOwc6J1.s 			page 24


 562:Libraries/STM32F10x_StdPeriph_Driver/src/stm32f10x_gpio.c ****   {
 563:Libraries/STM32F10x_StdPeriph_Driver/src/stm32f10x_gpio.c ****     tmpreg = AFIO->MAPR;
 564:Libraries/STM32F10x_StdPeriph_Driver/src/stm32f10x_gpio.c ****   }
 565:Libraries/STM32F10x_StdPeriph_Driver/src/stm32f10x_gpio.c **** 
 566:Libraries/STM32F10x_StdPeriph_Driver/src/stm32f10x_gpio.c ****   tmpmask = (GPIO_Remap & DBGAFR_POSITION_MASK) >> 0x10;
 567:Libraries/STM32F10x_StdPeriph_Driver/src/stm32f10x_gpio.c ****   tmp = GPIO_Remap & LSB_MASK;
 568:Libraries/STM32F10x_StdPeriph_Driver/src/stm32f10x_gpio.c **** 
 569:Libraries/STM32F10x_StdPeriph_Driver/src/stm32f10x_gpio.c ****   if ((GPIO_Remap & (DBGAFR_LOCATION_MASK | DBGAFR_NUMBITS_MASK)) == (DBGAFR_LOCATION_MASK | DBGAFR
 741              		.loc 1 569 0
 742 01e6 00F44015 		and	r5, r0, #3145728	@ D.5792, GPIO_Remap,
 559:Libraries/STM32F10x_StdPeriph_Driver/src/stm32f10x_gpio.c ****   }
 743              		.loc 1 559 0
 744 01ea B4BF     		ite	lt
 745 01ec E369     		ldrlt	r3, [r4, #28]	@ tmpreg, MEM[(struct AFIO_TypeDef *)1073807360B].MAPR2
 746              	.LVL78:
 563:Libraries/STM32F10x_StdPeriph_Driver/src/stm32f10x_gpio.c ****   }
 747              		.loc 1 563 0
 748 01ee 6368     		ldrge	r3, [r4, #4]	@ tmpreg, MEM[(struct AFIO_TypeDef *)1073807360B].MAPR
 749              	.LVL79:
 750              		.loc 1 569 0
 751 01f0 B5F5401F 		cmp	r5, #3145728	@ D.5792,
 567:Libraries/STM32F10x_StdPeriph_Driver/src/stm32f10x_gpio.c **** 
 752              		.loc 1 567 0
 753 01f4 82B2     		uxth	r2, r0	@ tmp, GPIO_Remap
 754              	.LVL80:
 755              		.loc 1 569 0
 756 01f6 06D1     		bne	.L51	@,
 570:Libraries/STM32F10x_StdPeriph_Driver/src/stm32f10x_gpio.c ****   {
 571:Libraries/STM32F10x_StdPeriph_Driver/src/stm32f10x_gpio.c ****     tmpreg &= DBGAFR_SWJCFG_MASK;
 572:Libraries/STM32F10x_StdPeriph_Driver/src/stm32f10x_gpio.c ****     AFIO->MAPR &= DBGAFR_SWJCFG_MASK;
 757              		.loc 1 572 0
 758 01f8 6568     		ldr	r5, [r4, #4]	@ D.5792, MEM[(struct AFIO_TypeDef *)1073807360B].MAPR
 571:Libraries/STM32F10x_StdPeriph_Driver/src/stm32f10x_gpio.c ****     AFIO->MAPR &= DBGAFR_SWJCFG_MASK;
 759              		.loc 1 571 0
 760 01fa 23F07063 		bic	r3, r3, #251658240	@ tmpreg, tmpreg,
 761              	.LVL81:
 762              		.loc 1 572 0
 763 01fe 25F07065 		bic	r5, r5, #251658240	@ D.5792, D.5792,
 764 0202 6560     		str	r5, [r4, #4]	@ D.5792, MEM[(struct AFIO_TypeDef *)1073807360B].MAPR
 765 0204 0EE0     		b	.L52	@
 766              	.L51:
 573:Libraries/STM32F10x_StdPeriph_Driver/src/stm32f10x_gpio.c ****   }
 574:Libraries/STM32F10x_StdPeriph_Driver/src/stm32f10x_gpio.c ****   else if ((GPIO_Remap & DBGAFR_NUMBITS_MASK) == DBGAFR_NUMBITS_MASK)
 767              		.loc 1 574 0
 768 0206 C402     		lsls	r4, r0, #11	@, GPIO_Remap,
 769              	.LVL82:
 575:Libraries/STM32F10x_StdPeriph_Driver/src/stm32f10x_gpio.c ****   {
 576:Libraries/STM32F10x_StdPeriph_Driver/src/stm32f10x_gpio.c ****     tmp1 = ((uint32_t)0x03) << tmpmask;
 577:Libraries/STM32F10x_StdPeriph_Driver/src/stm32f10x_gpio.c ****     tmpreg &= ~tmp1;
 578:Libraries/STM32F10x_StdPeriph_Driver/src/stm32f10x_gpio.c ****     tmpreg |= ~DBGAFR_SWJCFG_MASK;
 579:Libraries/STM32F10x_StdPeriph_Driver/src/stm32f10x_gpio.c ****   }
 580:Libraries/STM32F10x_StdPeriph_Driver/src/stm32f10x_gpio.c ****   else
 581:Libraries/STM32F10x_StdPeriph_Driver/src/stm32f10x_gpio.c ****   {
 582:Libraries/STM32F10x_StdPeriph_Driver/src/stm32f10x_gpio.c ****     tmpreg &= ~(tmp << ((GPIO_Remap >> 0x15)*0x10));
 770              		.loc 1 582 0
 771 0208 55BF     		itete	pl
 772 020a 440D     		lsrpl	r4, r0, #21	@ D.5792, GPIO_Remap,
ARM GAS  /var/folders/yt/6z6x8bjn5sjf5fbb45bk5m4c0000gn/T//ccOwc6J1.s 			page 25


 576:Libraries/STM32F10x_StdPeriph_Driver/src/stm32f10x_gpio.c ****     tmpreg &= ~tmp1;
 773              		.loc 1 576 0
 774 020c 0324     		movmi	r4, #3	@ tmp145,
 775              		.loc 1 582 0
 776 020e 2401     		lslpl	r4, r4, #4	@ D.5792, D.5792,
 566:Libraries/STM32F10x_StdPeriph_Driver/src/stm32f10x_gpio.c ****   tmp = GPIO_Remap & LSB_MASK;
 777              		.loc 1 566 0
 778 0210 C0F30345 		ubfxmi	r5, r0, #16, #4	@ tmpmask, GPIO_Remap,,
 576:Libraries/STM32F10x_StdPeriph_Driver/src/stm32f10x_gpio.c ****     tmpreg &= ~tmp1;
 779              		.loc 1 576 0
 780 0214 4CBF     		ite	mi
 781 0216 AC40     		lslmi	r4, r4, r5	@ tmp1, tmp145, tmpmask
 782              		.loc 1 582 0
 783 0218 02FA04F4 		lslpl	r4, r2, r4	@ D.5792, tmp, D.5792
 784 021c 23EA0403 		bic	r3, r3, r4	@ tmpreg, tmpreg, D.5792
 785              	.LVL83:
 583:Libraries/STM32F10x_StdPeriph_Driver/src/stm32f10x_gpio.c ****     tmpreg |= ~DBGAFR_SWJCFG_MASK;
 786              		.loc 1 583 0
 787 0220 43F07063 		orr	r3, r3, #251658240	@ tmpreg, tmpreg,
 788              	.LVL84:
 789              	.L52:
 584:Libraries/STM32F10x_StdPeriph_Driver/src/stm32f10x_gpio.c ****   }
 585:Libraries/STM32F10x_StdPeriph_Driver/src/stm32f10x_gpio.c **** 
 586:Libraries/STM32F10x_StdPeriph_Driver/src/stm32f10x_gpio.c ****   if (NewState != DISABLE)
 790              		.loc 1 586 0
 791 0224 19B1     		cbz	r1, .L54	@ NewState,
 587:Libraries/STM32F10x_StdPeriph_Driver/src/stm32f10x_gpio.c ****   {
 588:Libraries/STM32F10x_StdPeriph_Driver/src/stm32f10x_gpio.c ****     tmpreg |= (tmp << ((GPIO_Remap >> 0x15)*0x10));
 792              		.loc 1 588 0
 793 0226 410D     		lsrs	r1, r0, #21	@ D.5792, GPIO_Remap,
 794              	.LVL85:
 795 0228 0901     		lsls	r1, r1, #4	@ D.5792, D.5792,
 796 022a 8A40     		lsls	r2, r2, r1	@ D.5792, tmp, D.5792
 797              	.LVL86:
 798 022c 1343     		orrs	r3, r3, r2	@, tmpreg, tmpreg, D.5792
 799              	.LVL87:
 800              	.L54:
 801 022e 034A     		ldr	r2, .L61	@ tmp157,
 589:Libraries/STM32F10x_StdPeriph_Driver/src/stm32f10x_gpio.c ****   }
 590:Libraries/STM32F10x_StdPeriph_Driver/src/stm32f10x_gpio.c **** 
 591:Libraries/STM32F10x_StdPeriph_Driver/src/stm32f10x_gpio.c ****   if((GPIO_Remap & 0x80000000) == 0x80000000)
 802              		.loc 1 591 0
 803 0230 0028     		cmp	r0, #0	@ GPIO_Remap,
 592:Libraries/STM32F10x_StdPeriph_Driver/src/stm32f10x_gpio.c ****   {
 593:Libraries/STM32F10x_StdPeriph_Driver/src/stm32f10x_gpio.c ****     AFIO->MAPR2 = tmpreg;
 804              		.loc 1 593 0
 805 0232 B4BF     		ite	lt
 806 0234 D361     		strlt	r3, [r2, #28]	@ tmpreg, MEM[(struct AFIO_TypeDef *)1073807360B].MAPR2
 594:Libraries/STM32F10x_StdPeriph_Driver/src/stm32f10x_gpio.c ****   }
 595:Libraries/STM32F10x_StdPeriph_Driver/src/stm32f10x_gpio.c ****   else
 596:Libraries/STM32F10x_StdPeriph_Driver/src/stm32f10x_gpio.c ****   {
 597:Libraries/STM32F10x_StdPeriph_Driver/src/stm32f10x_gpio.c ****     AFIO->MAPR = tmpreg;
 807              		.loc 1 597 0
 808 0236 5360     		strge	r3, [r2, #4]	@ tmpreg, MEM[(struct AFIO_TypeDef *)1073807360B].MAPR
 809 0238 30BD     		pop	{r4, r5, pc}	@
 810              	.L62:
 811 023a 00BF     		.align	2
ARM GAS  /var/folders/yt/6z6x8bjn5sjf5fbb45bk5m4c0000gn/T//ccOwc6J1.s 			page 26


 812              	.L61:
 813 023c 00000140 		.word	1073807360
 814              		.cfi_endproc
 815              	.LFE44:
 816              		.size	GPIO_PinRemapConfig, .-GPIO_PinRemapConfig
 817              		.align	1
 818              		.global	GPIO_EXTILineConfig
 819              		.thumb
 820              		.thumb_func
 821              		.type	GPIO_EXTILineConfig, %function
 822              	GPIO_EXTILineConfig:
 823              	.LFB45:
 598:Libraries/STM32F10x_StdPeriph_Driver/src/stm32f10x_gpio.c ****   }  
 599:Libraries/STM32F10x_StdPeriph_Driver/src/stm32f10x_gpio.c **** }
 600:Libraries/STM32F10x_StdPeriph_Driver/src/stm32f10x_gpio.c **** 
 601:Libraries/STM32F10x_StdPeriph_Driver/src/stm32f10x_gpio.c **** /**
 602:Libraries/STM32F10x_StdPeriph_Driver/src/stm32f10x_gpio.c ****   * @brief  Selects the GPIO pin used as EXTI Line.
 603:Libraries/STM32F10x_StdPeriph_Driver/src/stm32f10x_gpio.c ****   * @param  GPIO_PortSource: selects the GPIO port to be used as source for EXTI lines.
 604:Libraries/STM32F10x_StdPeriph_Driver/src/stm32f10x_gpio.c ****   *   This parameter can be GPIO_PortSourceGPIOx where x can be (A..G).
 605:Libraries/STM32F10x_StdPeriph_Driver/src/stm32f10x_gpio.c ****   * @param  GPIO_PinSource: specifies the EXTI line to be configured.
 606:Libraries/STM32F10x_StdPeriph_Driver/src/stm32f10x_gpio.c ****   *   This parameter can be GPIO_PinSourcex where x can be (0..15).
 607:Libraries/STM32F10x_StdPeriph_Driver/src/stm32f10x_gpio.c ****   * @retval None
 608:Libraries/STM32F10x_StdPeriph_Driver/src/stm32f10x_gpio.c ****   */
 609:Libraries/STM32F10x_StdPeriph_Driver/src/stm32f10x_gpio.c **** void GPIO_EXTILineConfig(uint8_t GPIO_PortSource, uint8_t GPIO_PinSource)
 610:Libraries/STM32F10x_StdPeriph_Driver/src/stm32f10x_gpio.c **** {
 824              		.loc 1 610 0
 825              		.cfi_startproc
 826              		@ args = 0, pretend = 0, frame = 0
 827              		@ frame_needed = 0, uses_anonymous_args = 0
 828              	.LVL88:
 611:Libraries/STM32F10x_StdPeriph_Driver/src/stm32f10x_gpio.c ****   uint32_t tmp = 0x00;
 612:Libraries/STM32F10x_StdPeriph_Driver/src/stm32f10x_gpio.c ****   /* Check the parameters */
 613:Libraries/STM32F10x_StdPeriph_Driver/src/stm32f10x_gpio.c ****   assert_param(IS_GPIO_EXTI_PORT_SOURCE(GPIO_PortSource));
 614:Libraries/STM32F10x_StdPeriph_Driver/src/stm32f10x_gpio.c ****   assert_param(IS_GPIO_PIN_SOURCE(GPIO_PinSource));
 615:Libraries/STM32F10x_StdPeriph_Driver/src/stm32f10x_gpio.c ****   
 616:Libraries/STM32F10x_StdPeriph_Driver/src/stm32f10x_gpio.c ****   tmp = ((uint32_t)0x0F) << (0x04 * (GPIO_PinSource & (uint8_t)0x03));
 829              		.loc 1 616 0
 830 0240 01F00303 		and	r3, r1, #3	@ D.5797, GPIO_PinSource,
 831 0244 01F0FC01 		and	r1, r1, #252	@ D.5800, GPIO_PinSource,
 832              	.LVL89:
 833 0248 01F18041 		add	r1, r1, #1073741824	@ D.5801, D.5800,
 834 024c 01F58031 		add	r1, r1, #65536	@ D.5801, D.5801,
 610:Libraries/STM32F10x_StdPeriph_Driver/src/stm32f10x_gpio.c ****   uint32_t tmp = 0x00;
 835              		.loc 1 610 0
 836 0250 10B5     		push	{r4, lr}	@
 837              	.LCFI7:
 838              		.cfi_def_cfa_offset 8
 839              		.cfi_offset 4, -8
 840              		.cfi_offset 14, -4
 841              		.loc 1 616 0
 842 0252 9B00     		lsls	r3, r3, #2	@ D.5797, D.5797,
 843              	.LVL90:
 617:Libraries/STM32F10x_StdPeriph_Driver/src/stm32f10x_gpio.c ****   AFIO->EXTICR[GPIO_PinSource >> 0x02] &= ~tmp;
 844              		.loc 1 617 0
 845 0254 8C68     		ldr	r4, [r1, #8]	@ D.5799, MEM[(struct AFIO_TypeDef *)_21 + 8B]
 616:Libraries/STM32F10x_StdPeriph_Driver/src/stm32f10x_gpio.c ****   AFIO->EXTICR[GPIO_PinSource >> 0x02] &= ~tmp;
 846              		.loc 1 616 0
ARM GAS  /var/folders/yt/6z6x8bjn5sjf5fbb45bk5m4c0000gn/T//ccOwc6J1.s 			page 27


 847 0256 0F22     		movs	r2, #15	@ tmp134,
 848 0258 9A40     		lsls	r2, r2, r3	@ tmp, tmp134, D.5797
 849              	.LVL91:
 850              		.loc 1 617 0
 851 025a 24EA0202 		bic	r2, r4, r2	@ D.5799, D.5799, tmp
 852              	.LVL92:
 853 025e 8A60     		str	r2, [r1, #8]	@ D.5799, MEM[(struct AFIO_TypeDef *)_21 + 8B]
 618:Libraries/STM32F10x_StdPeriph_Driver/src/stm32f10x_gpio.c ****   AFIO->EXTICR[GPIO_PinSource >> 0x02] |= (((uint32_t)GPIO_PortSource) << (0x04 * (GPIO_PinSource &
 854              		.loc 1 618 0
 855 0260 8A68     		ldr	r2, [r1, #8]	@ D.5799, MEM[(struct AFIO_TypeDef *)_21 + 8B]
 856 0262 9840     		lsls	r0, r0, r3	@ D.5799, GPIO_PortSource, D.5797
 857              	.LVL93:
 858 0264 0243     		orrs	r2, r2, r0	@, D.5799, D.5799, D.5799
 859 0266 8A60     		str	r2, [r1, #8]	@ D.5799, MEM[(struct AFIO_TypeDef *)_21 + 8B]
 860 0268 10BD     		pop	{r4, pc}	@
 861              		.cfi_endproc
 862              	.LFE45:
 863              		.size	GPIO_EXTILineConfig, .-GPIO_EXTILineConfig
 864              		.align	1
 865              		.global	GPIO_ETH_MediaInterfaceConfig
 866              		.thumb
 867              		.thumb_func
 868              		.type	GPIO_ETH_MediaInterfaceConfig, %function
 869              	GPIO_ETH_MediaInterfaceConfig:
 870              	.LFB46:
 619:Libraries/STM32F10x_StdPeriph_Driver/src/stm32f10x_gpio.c **** }
 620:Libraries/STM32F10x_StdPeriph_Driver/src/stm32f10x_gpio.c **** 
 621:Libraries/STM32F10x_StdPeriph_Driver/src/stm32f10x_gpio.c **** /**
 622:Libraries/STM32F10x_StdPeriph_Driver/src/stm32f10x_gpio.c ****   * @brief  Selects the Ethernet media interface.
 623:Libraries/STM32F10x_StdPeriph_Driver/src/stm32f10x_gpio.c ****   * @note   This function applies only to STM32 Connectivity line devices.  
 624:Libraries/STM32F10x_StdPeriph_Driver/src/stm32f10x_gpio.c ****   * @param  GPIO_ETH_MediaInterface: specifies the Media Interface mode.
 625:Libraries/STM32F10x_StdPeriph_Driver/src/stm32f10x_gpio.c ****   *   This parameter can be one of the following values:
 626:Libraries/STM32F10x_StdPeriph_Driver/src/stm32f10x_gpio.c ****   *     @arg GPIO_ETH_MediaInterface_MII: MII mode
 627:Libraries/STM32F10x_StdPeriph_Driver/src/stm32f10x_gpio.c ****   *     @arg GPIO_ETH_MediaInterface_RMII: RMII mode    
 628:Libraries/STM32F10x_StdPeriph_Driver/src/stm32f10x_gpio.c ****   * @retval None
 629:Libraries/STM32F10x_StdPeriph_Driver/src/stm32f10x_gpio.c ****   */
 630:Libraries/STM32F10x_StdPeriph_Driver/src/stm32f10x_gpio.c **** void GPIO_ETH_MediaInterfaceConfig(uint32_t GPIO_ETH_MediaInterface) 
 631:Libraries/STM32F10x_StdPeriph_Driver/src/stm32f10x_gpio.c **** { 
 871              		.loc 1 631 0
 872              		.cfi_startproc
 873              		@ args = 0, pretend = 0, frame = 0
 874              		@ frame_needed = 0, uses_anonymous_args = 0
 875              		@ link register save eliminated.
 876              	.LVL94:
 632:Libraries/STM32F10x_StdPeriph_Driver/src/stm32f10x_gpio.c ****   assert_param(IS_GPIO_ETH_MEDIA_INTERFACE(GPIO_ETH_MediaInterface)); 
 633:Libraries/STM32F10x_StdPeriph_Driver/src/stm32f10x_gpio.c **** 
 634:Libraries/STM32F10x_StdPeriph_Driver/src/stm32f10x_gpio.c ****   /* Configure MII_RMII selection bit */ 
 635:Libraries/STM32F10x_StdPeriph_Driver/src/stm32f10x_gpio.c ****   *(__IO uint32_t *) MAPR_MII_RMII_SEL_BB = GPIO_ETH_MediaInterface; 
 877              		.loc 1 635 0
 878 026a 014B     		ldr	r3, .L65	@ tmp111,
 879 026c 1860     		str	r0, [r3]	@ GPIO_ETH_MediaInterface, MEM[(volatile uint32_t *)1109393628B]
 880 026e 7047     		bx	lr	@
 881              	.L66:
 882              		.align	2
 883              	.L65:
 884 0270 DC002042 		.word	1109393628
 885              		.cfi_endproc
ARM GAS  /var/folders/yt/6z6x8bjn5sjf5fbb45bk5m4c0000gn/T//ccOwc6J1.s 			page 28


 886              	.LFE46:
 887              		.size	GPIO_ETH_MediaInterfaceConfig, .-GPIO_ETH_MediaInterfaceConfig
 888              	.Letext0:
 889              		.file 2 "/usr/local/Cellar/arm-none-eabi-gcc/20150921/arm-none-eabi/include/machine/_default_types
 890              		.file 3 "/usr/local/Cellar/arm-none-eabi-gcc/20150921/arm-none-eabi/include/sys/_stdint.h"
 891              		.file 4 "./Libraries/CMSIS/CM3/DeviceSupport/ST/STM32F10x/stm32f10x.h"
 892              		.file 5 "./Libraries/STM32F10x_StdPeriph_Driver/inc/stm32f10x_gpio.h"
 893              		.file 6 "./Libraries/CMSIS/CM3/CoreSupport/core_cm3.h"
 894              		.file 7 "./Libraries/STM32F10x_StdPeriph_Driver/inc/stm32f10x_rcc.h"