ARM GAS  /var/folders/yt/6z6x8bjn5sjf5fbb45bk5m4c0000gn/T//ccljikg8.s 			page 1


   1              		.syntax unified
   2              		.cpu cortex-m3
   3              		.fpu softvfp
   4              		.eabi_attribute 20, 1	@ Tag_ABI_FP_denormal
   5              		.eabi_attribute 21, 1	@ Tag_ABI_FP_exceptions
   6              		.eabi_attribute 23, 3	@ Tag_ABI_FP_number_model
   7              		.eabi_attribute 24, 1	@ Tag_ABI_align8_needed
   8              		.eabi_attribute 25, 1	@ Tag_ABI_align8_preserved
   9              		.eabi_attribute 26, 1	@ Tag_ABI_enum_size
  10              		.eabi_attribute 30, 4	@ Tag_ABI_optimization_goals
  11              		.eabi_attribute 34, 1	@ Tag_CPU_unaligned_access
  12              		.eabi_attribute 18, 4	@ Tag_ABI_PCS_wchar_t
  13              		.file	"stm32f10x_exti.c"
  14              	@ GNU C (GNU Tools for ARM Embedded Processors) version 4.9.3 20150529 (release) [ARM/embedded-4_9-
  15              	@	compiled by GNU C version 4.2.1 (Based on Apple Inc. build 5658) (LLVM build 2336.9.00), GMP vers
  16              	@ GGC heuristics: --param ggc-min-expand=100 --param ggc-min-heapsize=131072
  17              	@ options passed:  -I . -I ./Libraries/CMSIS/CM3/CoreSupport
  18              	@ -I ./Libraries/CMSIS/CM3/DeviceSupport/ST/STM32F10x
  19              	@ -I ./Libraries/STM32F10x_StdPeriph_Driver/inc -I ./Libraries/Drivers/Leds
  20              	@ -I ./Libraries/Drivers/Buttons -I ./Libraries/Drivers/Usart
  21              	@ -I ./Libraries/Drivers/i2c -I ./Libraries/Drivers/BH1750
  22              	@ -I ./Libraries/Drivers/Utilities -I ./FreeRTOS/Source/include
  23              	@ -I ./FreeRTOS/Source/portable/GCC/ARM_CM3 -imultilib armv7-m
  24              	@ -iprefix /usr/local/Cellar/arm-none-eabi-gcc/20150921/bin/../lib/gcc/arm-none-eabi/4.9.3/
  25              	@ -isysroot /usr/local/Cellar/arm-none-eabi-gcc/20150921/bin/../arm-none-eabi
  26              	@ -MD Libraries/STM32F10x_StdPeriph_Driver/src/stm32f10x_exti.d
  27              	@ -MF .dep/stm32f10x_exti.o.d -MP
  28              	@ -MQ Libraries/STM32F10x_StdPeriph_Driver/src/stm32f10x_exti.o
  29              	@ -D__USES_INITFINI__ -D STM32F10X_MD -D USE_STDPERIPH_DRIVER -D GCC_ARMCM3
  30              	@ -D RUN_FROM_FLASH=1
  31              	@ Libraries/STM32F10x_StdPeriph_Driver/src/stm32f10x_exti.c -mcpu=cortex-m3
  32              	@ -mthumb
  33              	@ -auxbase-strip Libraries/STM32F10x_StdPeriph_Driver/src/stm32f10x_exti.o
  34              	@ -gdwarf-2 -Os -Wall -Wstrict-prototypes -fomit-frame-pointer
  35              	@ -fverbose-asm
  36              	@ options enabled:  -faggressive-loop-optimizations -fauto-inc-dec
  37              	@ -fbranch-count-reg -fcaller-saves -fcombine-stack-adjustments -fcommon
  38              	@ -fcompare-elim -fcprop-registers -fcrossjumping -fcse-follow-jumps
  39              	@ -fdefer-pop -fdelete-null-pointer-checks -fdevirtualize
  40              	@ -fdevirtualize-speculatively -fdwarf2-cfi-asm -fearly-inlining
  41              	@ -feliminate-unused-debug-types -fexpensive-optimizations
  42              	@ -fforward-propagate -ffunction-cse -fgcse -fgcse-lm -fgnu-runtime
  43              	@ -fgnu-unique -fguess-branch-probability -fhoist-adjacent-loads -fident
  44              	@ -fif-conversion -fif-conversion2 -findirect-inlining -finline
  45              	@ -finline-atomics -finline-functions -finline-functions-called-once
  46              	@ -finline-small-functions -fipa-cp -fipa-profile -fipa-pure-const
  47              	@ -fipa-reference -fipa-sra -fira-hoist-pressure -fira-share-save-slots
  48              	@ -fira-share-spill-slots -fisolate-erroneous-paths-dereference -fivopts
  49              	@ -fkeep-static-consts -fleading-underscore -flifetime-dse -fmath-errno
  50              	@ -fmerge-constants -fmerge-debug-strings -fomit-frame-pointer
  51              	@ -foptimize-sibling-calls -fpartial-inlining -fpeephole -fpeephole2
  52              	@ -fprefetch-loop-arrays -freg-struct-return -freorder-blocks
  53              	@ -freorder-functions -frerun-cse-after-loop
  54              	@ -fsched-critical-path-heuristic -fsched-dep-count-heuristic
  55              	@ -fsched-group-heuristic -fsched-interblock -fsched-last-insn-heuristic
  56              	@ -fsched-pressure -fsched-rank-heuristic -fsched-spec
  57              	@ -fsched-spec-insn-heuristic -fsched-stalled-insns-dep -fschedule-insns2
ARM GAS  /var/folders/yt/6z6x8bjn5sjf5fbb45bk5m4c0000gn/T//ccljikg8.s 			page 2


  58              	@ -fsection-anchors -fshow-column -fsigned-zeros -fsplit-ivs-in-unroller
  59              	@ -fsplit-wide-types -fstrict-aliasing -fstrict-overflow
  60              	@ -fstrict-volatile-bitfields -fsync-libcalls -fthread-jumps
  61              	@ -ftoplevel-reorder -ftrapping-math -ftree-bit-ccp -ftree-builtin-call-dce
  62              	@ -ftree-ccp -ftree-ch -ftree-coalesce-vars -ftree-copy-prop
  63              	@ -ftree-copyrename -ftree-cselim -ftree-dce -ftree-dominator-opts
  64              	@ -ftree-dse -ftree-forwprop -ftree-fre -ftree-loop-if-convert
  65              	@ -ftree-loop-im -ftree-loop-ivcanon -ftree-loop-optimize
  66              	@ -ftree-parallelize-loops= -ftree-phiprop -ftree-pre -ftree-pta
  67              	@ -ftree-reassoc -ftree-scev-cprop -ftree-sink -ftree-slsr -ftree-sra
  68              	@ -ftree-switch-conversion -ftree-tail-merge -ftree-ter -ftree-vrp
  69              	@ -funit-at-a-time -fvar-tracking -fvar-tracking-assignments -fverbose-asm
  70              	@ -fzero-initialized-in-bss -mfix-cortex-m3-ldrd -mlittle-endian -mlra
  71              	@ -mpic-data-is-text-relative -msched-prolog -mthumb -munaligned-access
  72              	@ -mvectorize-with-neon-quad
  73              	
  74              		.text
  75              	.Ltext0:
  76              		.cfi_sections	.debug_frame
  77              		.align	1
  78              		.global	EXTI_DeInit
  79              		.thumb
  80              		.thumb_func
  81              		.type	EXTI_DeInit, %function
  82              	EXTI_DeInit:
  83              	.LFB29:
  84              		.file 1 "Libraries/STM32F10x_StdPeriph_Driver/src/stm32f10x_exti.c"
   1:Libraries/STM32F10x_StdPeriph_Driver/src/stm32f10x_exti.c **** /**
   2:Libraries/STM32F10x_StdPeriph_Driver/src/stm32f10x_exti.c ****   ******************************************************************************
   3:Libraries/STM32F10x_StdPeriph_Driver/src/stm32f10x_exti.c ****   * @file    stm32f10x_exti.c
   4:Libraries/STM32F10x_StdPeriph_Driver/src/stm32f10x_exti.c ****   * @author  MCD Application Team
   5:Libraries/STM32F10x_StdPeriph_Driver/src/stm32f10x_exti.c ****   * @version V3.5.0
   6:Libraries/STM32F10x_StdPeriph_Driver/src/stm32f10x_exti.c ****   * @date    11-March-2011
   7:Libraries/STM32F10x_StdPeriph_Driver/src/stm32f10x_exti.c ****   * @brief   This file provides all the EXTI firmware functions.
   8:Libraries/STM32F10x_StdPeriph_Driver/src/stm32f10x_exti.c ****   ******************************************************************************
   9:Libraries/STM32F10x_StdPeriph_Driver/src/stm32f10x_exti.c ****   * @attention
  10:Libraries/STM32F10x_StdPeriph_Driver/src/stm32f10x_exti.c ****   *
  11:Libraries/STM32F10x_StdPeriph_Driver/src/stm32f10x_exti.c ****   * THE PRESENT FIRMWARE WHICH IS FOR GUIDANCE ONLY AIMS AT PROVIDING CUSTOMERS
  12:Libraries/STM32F10x_StdPeriph_Driver/src/stm32f10x_exti.c ****   * WITH CODING INFORMATION REGARDING THEIR PRODUCTS IN ORDER FOR THEM TO SAVE
  13:Libraries/STM32F10x_StdPeriph_Driver/src/stm32f10x_exti.c ****   * TIME. AS A RESULT, STMICROELECTRONICS SHALL NOT BE HELD LIABLE FOR ANY
  14:Libraries/STM32F10x_StdPeriph_Driver/src/stm32f10x_exti.c ****   * DIRECT, INDIRECT OR CONSEQUENTIAL DAMAGES WITH RESPECT TO ANY CLAIMS ARISING
  15:Libraries/STM32F10x_StdPeriph_Driver/src/stm32f10x_exti.c ****   * FROM THE CONTENT OF SUCH FIRMWARE AND/OR THE USE MADE BY CUSTOMERS OF THE
  16:Libraries/STM32F10x_StdPeriph_Driver/src/stm32f10x_exti.c ****   * CODING INFORMATION CONTAINED HEREIN IN CONNECTION WITH THEIR PRODUCTS.
  17:Libraries/STM32F10x_StdPeriph_Driver/src/stm32f10x_exti.c ****   *
  18:Libraries/STM32F10x_StdPeriph_Driver/src/stm32f10x_exti.c ****   * <h2><center>&copy; COPYRIGHT 2011 STMicroelectronics</center></h2>
  19:Libraries/STM32F10x_StdPeriph_Driver/src/stm32f10x_exti.c ****   ******************************************************************************
  20:Libraries/STM32F10x_StdPeriph_Driver/src/stm32f10x_exti.c ****   */
  21:Libraries/STM32F10x_StdPeriph_Driver/src/stm32f10x_exti.c **** 
  22:Libraries/STM32F10x_StdPeriph_Driver/src/stm32f10x_exti.c **** /* Includes ------------------------------------------------------------------*/
  23:Libraries/STM32F10x_StdPeriph_Driver/src/stm32f10x_exti.c **** #include "stm32f10x_exti.h"
  24:Libraries/STM32F10x_StdPeriph_Driver/src/stm32f10x_exti.c **** 
  25:Libraries/STM32F10x_StdPeriph_Driver/src/stm32f10x_exti.c **** /** @addtogroup STM32F10x_StdPeriph_Driver
  26:Libraries/STM32F10x_StdPeriph_Driver/src/stm32f10x_exti.c ****   * @{
  27:Libraries/STM32F10x_StdPeriph_Driver/src/stm32f10x_exti.c ****   */
  28:Libraries/STM32F10x_StdPeriph_Driver/src/stm32f10x_exti.c **** 
  29:Libraries/STM32F10x_StdPeriph_Driver/src/stm32f10x_exti.c **** /** @defgroup EXTI 
  30:Libraries/STM32F10x_StdPeriph_Driver/src/stm32f10x_exti.c ****   * @brief EXTI driver modules
ARM GAS  /var/folders/yt/6z6x8bjn5sjf5fbb45bk5m4c0000gn/T//ccljikg8.s 			page 3


  31:Libraries/STM32F10x_StdPeriph_Driver/src/stm32f10x_exti.c ****   * @{
  32:Libraries/STM32F10x_StdPeriph_Driver/src/stm32f10x_exti.c ****   */
  33:Libraries/STM32F10x_StdPeriph_Driver/src/stm32f10x_exti.c **** 
  34:Libraries/STM32F10x_StdPeriph_Driver/src/stm32f10x_exti.c **** /** @defgroup EXTI_Private_TypesDefinitions
  35:Libraries/STM32F10x_StdPeriph_Driver/src/stm32f10x_exti.c ****   * @{
  36:Libraries/STM32F10x_StdPeriph_Driver/src/stm32f10x_exti.c ****   */
  37:Libraries/STM32F10x_StdPeriph_Driver/src/stm32f10x_exti.c **** 
  38:Libraries/STM32F10x_StdPeriph_Driver/src/stm32f10x_exti.c **** /**
  39:Libraries/STM32F10x_StdPeriph_Driver/src/stm32f10x_exti.c ****   * @}
  40:Libraries/STM32F10x_StdPeriph_Driver/src/stm32f10x_exti.c ****   */
  41:Libraries/STM32F10x_StdPeriph_Driver/src/stm32f10x_exti.c **** 
  42:Libraries/STM32F10x_StdPeriph_Driver/src/stm32f10x_exti.c **** /** @defgroup EXTI_Private_Defines
  43:Libraries/STM32F10x_StdPeriph_Driver/src/stm32f10x_exti.c ****   * @{
  44:Libraries/STM32F10x_StdPeriph_Driver/src/stm32f10x_exti.c ****   */
  45:Libraries/STM32F10x_StdPeriph_Driver/src/stm32f10x_exti.c **** 
  46:Libraries/STM32F10x_StdPeriph_Driver/src/stm32f10x_exti.c **** #define EXTI_LINENONE    ((uint32_t)0x00000)  /* No interrupt selected */
  47:Libraries/STM32F10x_StdPeriph_Driver/src/stm32f10x_exti.c **** 
  48:Libraries/STM32F10x_StdPeriph_Driver/src/stm32f10x_exti.c **** /**
  49:Libraries/STM32F10x_StdPeriph_Driver/src/stm32f10x_exti.c ****   * @}
  50:Libraries/STM32F10x_StdPeriph_Driver/src/stm32f10x_exti.c ****   */
  51:Libraries/STM32F10x_StdPeriph_Driver/src/stm32f10x_exti.c **** 
  52:Libraries/STM32F10x_StdPeriph_Driver/src/stm32f10x_exti.c **** /** @defgroup EXTI_Private_Macros
  53:Libraries/STM32F10x_StdPeriph_Driver/src/stm32f10x_exti.c ****   * @{
  54:Libraries/STM32F10x_StdPeriph_Driver/src/stm32f10x_exti.c ****   */
  55:Libraries/STM32F10x_StdPeriph_Driver/src/stm32f10x_exti.c **** 
  56:Libraries/STM32F10x_StdPeriph_Driver/src/stm32f10x_exti.c **** /**
  57:Libraries/STM32F10x_StdPeriph_Driver/src/stm32f10x_exti.c ****   * @}
  58:Libraries/STM32F10x_StdPeriph_Driver/src/stm32f10x_exti.c ****   */
  59:Libraries/STM32F10x_StdPeriph_Driver/src/stm32f10x_exti.c **** 
  60:Libraries/STM32F10x_StdPeriph_Driver/src/stm32f10x_exti.c **** /** @defgroup EXTI_Private_Variables
  61:Libraries/STM32F10x_StdPeriph_Driver/src/stm32f10x_exti.c ****   * @{
  62:Libraries/STM32F10x_StdPeriph_Driver/src/stm32f10x_exti.c ****   */
  63:Libraries/STM32F10x_StdPeriph_Driver/src/stm32f10x_exti.c **** 
  64:Libraries/STM32F10x_StdPeriph_Driver/src/stm32f10x_exti.c **** /**
  65:Libraries/STM32F10x_StdPeriph_Driver/src/stm32f10x_exti.c ****   * @}
  66:Libraries/STM32F10x_StdPeriph_Driver/src/stm32f10x_exti.c ****   */
  67:Libraries/STM32F10x_StdPeriph_Driver/src/stm32f10x_exti.c **** 
  68:Libraries/STM32F10x_StdPeriph_Driver/src/stm32f10x_exti.c **** /** @defgroup EXTI_Private_FunctionPrototypes
  69:Libraries/STM32F10x_StdPeriph_Driver/src/stm32f10x_exti.c ****   * @{
  70:Libraries/STM32F10x_StdPeriph_Driver/src/stm32f10x_exti.c ****   */
  71:Libraries/STM32F10x_StdPeriph_Driver/src/stm32f10x_exti.c **** 
  72:Libraries/STM32F10x_StdPeriph_Driver/src/stm32f10x_exti.c **** /**
  73:Libraries/STM32F10x_StdPeriph_Driver/src/stm32f10x_exti.c ****   * @}
  74:Libraries/STM32F10x_StdPeriph_Driver/src/stm32f10x_exti.c ****   */
  75:Libraries/STM32F10x_StdPeriph_Driver/src/stm32f10x_exti.c **** 
  76:Libraries/STM32F10x_StdPeriph_Driver/src/stm32f10x_exti.c **** /** @defgroup EXTI_Private_Functions
  77:Libraries/STM32F10x_StdPeriph_Driver/src/stm32f10x_exti.c ****   * @{
  78:Libraries/STM32F10x_StdPeriph_Driver/src/stm32f10x_exti.c ****   */
  79:Libraries/STM32F10x_StdPeriph_Driver/src/stm32f10x_exti.c **** 
  80:Libraries/STM32F10x_StdPeriph_Driver/src/stm32f10x_exti.c **** /**
  81:Libraries/STM32F10x_StdPeriph_Driver/src/stm32f10x_exti.c ****   * @brief  Deinitializes the EXTI peripheral registers to their default reset values.
  82:Libraries/STM32F10x_StdPeriph_Driver/src/stm32f10x_exti.c ****   * @param  None
  83:Libraries/STM32F10x_StdPeriph_Driver/src/stm32f10x_exti.c ****   * @retval None
  84:Libraries/STM32F10x_StdPeriph_Driver/src/stm32f10x_exti.c ****   */
  85:Libraries/STM32F10x_StdPeriph_Driver/src/stm32f10x_exti.c **** void EXTI_DeInit(void)
  86:Libraries/STM32F10x_StdPeriph_Driver/src/stm32f10x_exti.c **** {
  85              		.loc 1 86 0
ARM GAS  /var/folders/yt/6z6x8bjn5sjf5fbb45bk5m4c0000gn/T//ccljikg8.s 			page 4


  86              		.cfi_startproc
  87              		@ args = 0, pretend = 0, frame = 0
  88              		@ frame_needed = 0, uses_anonymous_args = 0
  89              		@ link register save eliminated.
  87:Libraries/STM32F10x_StdPeriph_Driver/src/stm32f10x_exti.c ****   EXTI->IMR = 0x00000000;
  90              		.loc 1 87 0
  91 0000 044B     		ldr	r3, .L2	@ tmp110,
  92 0002 0022     		movs	r2, #0	@ tmp111,
  93 0004 1A60     		str	r2, [r3]	@ tmp111, MEM[(struct EXTI_TypeDef *)1073808384B].IMR
  88:Libraries/STM32F10x_StdPeriph_Driver/src/stm32f10x_exti.c ****   EXTI->EMR = 0x00000000;
  94              		.loc 1 88 0
  95 0006 5A60     		str	r2, [r3, #4]	@ tmp111, MEM[(struct EXTI_TypeDef *)1073808384B].EMR
  89:Libraries/STM32F10x_StdPeriph_Driver/src/stm32f10x_exti.c ****   EXTI->RTSR = 0x00000000; 
  96              		.loc 1 89 0
  97 0008 9A60     		str	r2, [r3, #8]	@ tmp111, MEM[(struct EXTI_TypeDef *)1073808384B].RTSR
  90:Libraries/STM32F10x_StdPeriph_Driver/src/stm32f10x_exti.c ****   EXTI->FTSR = 0x00000000; 
  98              		.loc 1 90 0
  99 000a DA60     		str	r2, [r3, #12]	@ tmp111, MEM[(struct EXTI_TypeDef *)1073808384B].FTSR
  91:Libraries/STM32F10x_StdPeriph_Driver/src/stm32f10x_exti.c ****   EXTI->PR = 0x000FFFFF;
 100              		.loc 1 91 0
 101 000c 024A     		ldr	r2, .L2+4	@ tmp119,
 102 000e 5A61     		str	r2, [r3, #20]	@ tmp119, MEM[(struct EXTI_TypeDef *)1073808384B].PR
 103 0010 7047     		bx	lr	@
 104              	.L3:
 105 0012 00BF     		.align	2
 106              	.L2:
 107 0014 00040140 		.word	1073808384
 108 0018 FFFF0F00 		.word	1048575
 109              		.cfi_endproc
 110              	.LFE29:
 111              		.size	EXTI_DeInit, .-EXTI_DeInit
 112              		.align	1
 113              		.global	EXTI_Init
 114              		.thumb
 115              		.thumb_func
 116              		.type	EXTI_Init, %function
 117              	EXTI_Init:
 118              	.LFB30:
  92:Libraries/STM32F10x_StdPeriph_Driver/src/stm32f10x_exti.c **** }
  93:Libraries/STM32F10x_StdPeriph_Driver/src/stm32f10x_exti.c **** 
  94:Libraries/STM32F10x_StdPeriph_Driver/src/stm32f10x_exti.c **** /**
  95:Libraries/STM32F10x_StdPeriph_Driver/src/stm32f10x_exti.c ****   * @brief  Initializes the EXTI peripheral according to the specified
  96:Libraries/STM32F10x_StdPeriph_Driver/src/stm32f10x_exti.c ****   *         parameters in the EXTI_InitStruct.
  97:Libraries/STM32F10x_StdPeriph_Driver/src/stm32f10x_exti.c ****   * @param  EXTI_InitStruct: pointer to a EXTI_InitTypeDef structure
  98:Libraries/STM32F10x_StdPeriph_Driver/src/stm32f10x_exti.c ****   *         that contains the configuration information for the EXTI peripheral.
  99:Libraries/STM32F10x_StdPeriph_Driver/src/stm32f10x_exti.c ****   * @retval None
 100:Libraries/STM32F10x_StdPeriph_Driver/src/stm32f10x_exti.c ****   */
 101:Libraries/STM32F10x_StdPeriph_Driver/src/stm32f10x_exti.c **** void EXTI_Init(EXTI_InitTypeDef* EXTI_InitStruct)
 102:Libraries/STM32F10x_StdPeriph_Driver/src/stm32f10x_exti.c **** {
 119              		.loc 1 102 0
 120              		.cfi_startproc
 121              		@ args = 0, pretend = 0, frame = 0
 122              		@ frame_needed = 0, uses_anonymous_args = 0
 123              	.LVL0:
 103:Libraries/STM32F10x_StdPeriph_Driver/src/stm32f10x_exti.c ****   uint32_t tmp = 0;
 104:Libraries/STM32F10x_StdPeriph_Driver/src/stm32f10x_exti.c **** 
 105:Libraries/STM32F10x_StdPeriph_Driver/src/stm32f10x_exti.c ****   /* Check the parameters */
ARM GAS  /var/folders/yt/6z6x8bjn5sjf5fbb45bk5m4c0000gn/T//ccljikg8.s 			page 5


 106:Libraries/STM32F10x_StdPeriph_Driver/src/stm32f10x_exti.c ****   assert_param(IS_EXTI_MODE(EXTI_InitStruct->EXTI_Mode));
 107:Libraries/STM32F10x_StdPeriph_Driver/src/stm32f10x_exti.c ****   assert_param(IS_EXTI_TRIGGER(EXTI_InitStruct->EXTI_Trigger));
 108:Libraries/STM32F10x_StdPeriph_Driver/src/stm32f10x_exti.c ****   assert_param(IS_EXTI_LINE(EXTI_InitStruct->EXTI_Line));  
 109:Libraries/STM32F10x_StdPeriph_Driver/src/stm32f10x_exti.c ****   assert_param(IS_FUNCTIONAL_STATE(EXTI_InitStruct->EXTI_LineCmd));
 110:Libraries/STM32F10x_StdPeriph_Driver/src/stm32f10x_exti.c **** 
 111:Libraries/STM32F10x_StdPeriph_Driver/src/stm32f10x_exti.c ****   tmp = (uint32_t)EXTI_BASE;
 112:Libraries/STM32F10x_StdPeriph_Driver/src/stm32f10x_exti.c ****      
 113:Libraries/STM32F10x_StdPeriph_Driver/src/stm32f10x_exti.c ****   if (EXTI_InitStruct->EXTI_LineCmd != DISABLE)
 124              		.loc 1 113 0
 125 001c 8279     		ldrb	r2, [r0, #6]	@ zero_extendqisi2	@ EXTI_InitStruct_3(D)->EXTI_LineCmd, EXTI_InitStruct_3(D)->E
 102:Libraries/STM32F10x_StdPeriph_Driver/src/stm32f10x_exti.c ****   uint32_t tmp = 0;
 126              		.loc 1 102 0
 127 001e 70B5     		push	{r4, r5, r6, lr}	@
 128              	.LCFI0:
 129              		.cfi_def_cfa_offset 16
 130              		.cfi_offset 4, -16
 131              		.cfi_offset 5, -12
 132              		.cfi_offset 6, -8
 133              		.cfi_offset 14, -4
 134 0020 0168     		ldr	r1, [r0]	@ EXTI_InitStruct_3(D)->EXTI_Line, EXTI_InitStruct_3(D)->EXTI_Line
 135 0022 0379     		ldrb	r3, [r0, #4]	@ zero_extendqisi2	@ D.5572, EXTI_InitStruct_3(D)->EXTI_Mode
 136              		.loc 1 113 0
 137 0024 002A     		cmp	r2, #0	@ EXTI_InitStruct_3(D)->EXTI_LineCmd
 138 0026 29D0     		beq	.L5	@
 114:Libraries/STM32F10x_StdPeriph_Driver/src/stm32f10x_exti.c ****   {
 115:Libraries/STM32F10x_StdPeriph_Driver/src/stm32f10x_exti.c ****     /* Clear EXTI line configuration */
 116:Libraries/STM32F10x_StdPeriph_Driver/src/stm32f10x_exti.c ****     EXTI->IMR &= ~EXTI_InitStruct->EXTI_Line;
 139              		.loc 1 116 0
 140 0028 CE43     		mvns	r6, r1	@ D.5572, EXTI_InitStruct_3(D)->EXTI_Line
 141 002a 194A     		ldr	r2, .L9	@ tmp149,
 117:Libraries/STM32F10x_StdPeriph_Driver/src/stm32f10x_exti.c ****     EXTI->EMR &= ~EXTI_InitStruct->EXTI_Line;
 118:Libraries/STM32F10x_StdPeriph_Driver/src/stm32f10x_exti.c ****     
 119:Libraries/STM32F10x_StdPeriph_Driver/src/stm32f10x_exti.c ****     tmp += EXTI_InitStruct->EXTI_Mode;
 142              		.loc 1 119 0
 143 002c 03F18043 		add	r3, r3, #1073741824	@ D.5574, D.5572,
 116:Libraries/STM32F10x_StdPeriph_Driver/src/stm32f10x_exti.c ****     EXTI->EMR &= ~EXTI_InitStruct->EXTI_Line;
 144              		.loc 1 116 0
 145 0030 1568     		ldr	r5, [r2]	@ D.5572, MEM[(struct EXTI_TypeDef *)1073808384B].IMR
 146              		.loc 1 119 0
 147 0032 03F58233 		add	r3, r3, #66560	@ D.5574, D.5574,
 116:Libraries/STM32F10x_StdPeriph_Driver/src/stm32f10x_exti.c ****     EXTI->EMR &= ~EXTI_InitStruct->EXTI_Line;
 148              		.loc 1 116 0
 149 0036 3540     		ands	r5, r5, r6	@, D.5572, D.5572, D.5572
 150 0038 1560     		str	r5, [r2]	@ D.5572, MEM[(struct EXTI_TypeDef *)1073808384B].IMR
 117:Libraries/STM32F10x_StdPeriph_Driver/src/stm32f10x_exti.c ****     EXTI->EMR &= ~EXTI_InitStruct->EXTI_Line;
 151              		.loc 1 117 0
 152 003a 5468     		ldr	r4, [r2, #4]	@ D.5572, MEM[(struct EXTI_TypeDef *)1073808384B].EMR
 153 003c 3440     		ands	r4, r4, r6	@, D.5572, D.5572, D.5572
 154 003e 5460     		str	r4, [r2, #4]	@ D.5572, MEM[(struct EXTI_TypeDef *)1073808384B].EMR
 155              	.LVL1:
 120:Libraries/STM32F10x_StdPeriph_Driver/src/stm32f10x_exti.c **** 
 121:Libraries/STM32F10x_StdPeriph_Driver/src/stm32f10x_exti.c ****     *(__IO uint32_t *) tmp |= EXTI_InitStruct->EXTI_Line;
 156              		.loc 1 121 0
 157 0040 1C68     		ldr	r4, [r3]	@ D.5572, *_16
 158 0042 2143     		orrs	r1, r1, r4	@, D.5572, EXTI_InitStruct_3(D)->EXTI_Line, D.5572
 159 0044 1960     		str	r1, [r3]	@ D.5572, *_16
 160              	.LVL2:
ARM GAS  /var/folders/yt/6z6x8bjn5sjf5fbb45bk5m4c0000gn/T//ccljikg8.s 			page 6


 122:Libraries/STM32F10x_StdPeriph_Driver/src/stm32f10x_exti.c **** 
 123:Libraries/STM32F10x_StdPeriph_Driver/src/stm32f10x_exti.c ****     /* Clear Rising Falling edge configuration */
 124:Libraries/STM32F10x_StdPeriph_Driver/src/stm32f10x_exti.c ****     EXTI->RTSR &= ~EXTI_InitStruct->EXTI_Line;
 161              		.loc 1 124 0
 162 0046 0368     		ldr	r3, [r0]	@ D.5572, EXTI_InitStruct_3(D)->EXTI_Line
 163 0048 9468     		ldr	r4, [r2, #8]	@ D.5572, MEM[(struct EXTI_TypeDef *)1073808384B].RTSR
 164 004a DD43     		mvns	r5, r3	@ D.5572, D.5572
 165 004c 2C40     		ands	r4, r4, r5	@, D.5572, D.5572, D.5572
 166 004e 9460     		str	r4, [r2, #8]	@ D.5572, MEM[(struct EXTI_TypeDef *)1073808384B].RTSR
 125:Libraries/STM32F10x_StdPeriph_Driver/src/stm32f10x_exti.c ****     EXTI->FTSR &= ~EXTI_InitStruct->EXTI_Line;
 167              		.loc 1 125 0
 168 0050 D168     		ldr	r1, [r2, #12]	@ D.5572, MEM[(struct EXTI_TypeDef *)1073808384B].FTSR
 169 0052 2940     		ands	r1, r1, r5	@, D.5572, D.5572, D.5572
 170 0054 D160     		str	r1, [r2, #12]	@ D.5572, MEM[(struct EXTI_TypeDef *)1073808384B].FTSR
 126:Libraries/STM32F10x_StdPeriph_Driver/src/stm32f10x_exti.c ****     
 127:Libraries/STM32F10x_StdPeriph_Driver/src/stm32f10x_exti.c ****     /* Select the trigger for the selected external interrupts */
 128:Libraries/STM32F10x_StdPeriph_Driver/src/stm32f10x_exti.c ****     if (EXTI_InitStruct->EXTI_Trigger == EXTI_Trigger_Rising_Falling)
 171              		.loc 1 128 0
 172 0056 4179     		ldrb	r1, [r0, #5]	@ zero_extendqisi2	@ D.5575, EXTI_InitStruct_3(D)->EXTI_Trigger
 173 0058 1029     		cmp	r1, #16	@ D.5575,
 129:Libraries/STM32F10x_StdPeriph_Driver/src/stm32f10x_exti.c ****     {
 130:Libraries/STM32F10x_StdPeriph_Driver/src/stm32f10x_exti.c ****       /* Rising Falling edge */
 131:Libraries/STM32F10x_StdPeriph_Driver/src/stm32f10x_exti.c ****       EXTI->RTSR |= EXTI_InitStruct->EXTI_Line;
 174              		.loc 1 131 0
 175 005a 09BF     		itett	eq
 176 005c 9168     		ldreq	r1, [r2, #8]	@ D.5572, MEM[(struct EXTI_TypeDef *)1073808384B].RTSR
 132:Libraries/STM32F10x_StdPeriph_Driver/src/stm32f10x_exti.c ****       EXTI->FTSR |= EXTI_InitStruct->EXTI_Line;
 133:Libraries/STM32F10x_StdPeriph_Driver/src/stm32f10x_exti.c ****     }
 134:Libraries/STM32F10x_StdPeriph_Driver/src/stm32f10x_exti.c ****     else
 135:Libraries/STM32F10x_StdPeriph_Driver/src/stm32f10x_exti.c ****     {
 136:Libraries/STM32F10x_StdPeriph_Driver/src/stm32f10x_exti.c ****       tmp = (uint32_t)EXTI_BASE;
 137:Libraries/STM32F10x_StdPeriph_Driver/src/stm32f10x_exti.c ****       tmp += EXTI_InitStruct->EXTI_Trigger;
 177              		.loc 1 137 0
 178 005e 01F18042 		addne	r2, r1, #1073741824	@ D.5574, D.5575,
 131:Libraries/STM32F10x_StdPeriph_Driver/src/stm32f10x_exti.c ****       EXTI->FTSR |= EXTI_InitStruct->EXTI_Line;
 179              		.loc 1 131 0
 180 0062 1943     		orreq	r1, r1, r3	@ D.5572, D.5572, D.5572
 181 0064 9160     		streq	r1, [r2, #8]	@ D.5572, MEM[(struct EXTI_TypeDef *)1073808384B].RTSR
 182              		.loc 1 137 0
 183 0066 15BF     		itete	ne
 184 0068 02F58232 		addne	r2, r2, #66560	@ D.5574, D.5574,
 132:Libraries/STM32F10x_StdPeriph_Driver/src/stm32f10x_exti.c ****       EXTI->FTSR |= EXTI_InitStruct->EXTI_Line;
 185              		.loc 1 132 0
 186 006c D168     		ldreq	r1, [r2, #12]	@ D.5572, MEM[(struct EXTI_TypeDef *)1073808384B].FTSR
 138:Libraries/STM32F10x_StdPeriph_Driver/src/stm32f10x_exti.c **** 
 139:Libraries/STM32F10x_StdPeriph_Driver/src/stm32f10x_exti.c ****       *(__IO uint32_t *) tmp |= EXTI_InitStruct->EXTI_Line;
 187              		.loc 1 139 0
 188 006e 1168     		ldrne	r1, [r2]	@ D.5572, *_31
 132:Libraries/STM32F10x_StdPeriph_Driver/src/stm32f10x_exti.c ****     }
 189              		.loc 1 132 0
 190 0070 0B43     		orreq	r3, r3, r1	@ D.5572, D.5572, D.5572
 191              		.loc 1 139 0
 192 0072 16BF     		itet	ne
 193 0074 0B43     		orrne	r3, r3, r1	@ D.5572, D.5572, D.5572
 132:Libraries/STM32F10x_StdPeriph_Driver/src/stm32f10x_exti.c ****     }
 194              		.loc 1 132 0
 195 0076 D360     		streq	r3, [r2, #12]	@ D.5572, MEM[(struct EXTI_TypeDef *)1073808384B].FTSR
ARM GAS  /var/folders/yt/6z6x8bjn5sjf5fbb45bk5m4c0000gn/T//ccljikg8.s 			page 7


 196              		.loc 1 139 0
 197 0078 1360     		strne	r3, [r2]	@ D.5572, *_31
 198 007a 70BD     		pop	{r4, r5, r6, pc}	@
 199              	.LVL3:
 200              	.L5:
 140:Libraries/STM32F10x_StdPeriph_Driver/src/stm32f10x_exti.c ****     }
 141:Libraries/STM32F10x_StdPeriph_Driver/src/stm32f10x_exti.c ****   }
 142:Libraries/STM32F10x_StdPeriph_Driver/src/stm32f10x_exti.c ****   else
 143:Libraries/STM32F10x_StdPeriph_Driver/src/stm32f10x_exti.c ****   {
 144:Libraries/STM32F10x_StdPeriph_Driver/src/stm32f10x_exti.c ****     tmp += EXTI_InitStruct->EXTI_Mode;
 201              		.loc 1 144 0
 202 007c 03F18043 		add	r3, r3, #1073741824	@ D.5574, D.5572,
 203 0080 03F58233 		add	r3, r3, #66560	@ D.5574, D.5574,
 145:Libraries/STM32F10x_StdPeriph_Driver/src/stm32f10x_exti.c **** 
 146:Libraries/STM32F10x_StdPeriph_Driver/src/stm32f10x_exti.c ****     /* Disable the selected external lines */
 147:Libraries/STM32F10x_StdPeriph_Driver/src/stm32f10x_exti.c ****     *(__IO uint32_t *) tmp &= ~EXTI_InitStruct->EXTI_Line;
 204              		.loc 1 147 0
 205 0084 1A68     		ldr	r2, [r3]	@ D.5572, *_44
 206 0086 22EA0101 		bic	r1, r2, r1	@ D.5572, D.5572, EXTI_InitStruct_3(D)->EXTI_Line
 207 008a 1960     		str	r1, [r3]	@ D.5572, *_44
 208              	.LVL4:
 209 008c 70BD     		pop	{r4, r5, r6, pc}	@
 210              	.L10:
 211 008e 00BF     		.align	2
 212              	.L9:
 213 0090 00040140 		.word	1073808384
 214              		.cfi_endproc
 215              	.LFE30:
 216              		.size	EXTI_Init, .-EXTI_Init
 217              		.align	1
 218              		.global	EXTI_StructInit
 219              		.thumb
 220              		.thumb_func
 221              		.type	EXTI_StructInit, %function
 222              	EXTI_StructInit:
 223              	.LFB31:
 148:Libraries/STM32F10x_StdPeriph_Driver/src/stm32f10x_exti.c ****   }
 149:Libraries/STM32F10x_StdPeriph_Driver/src/stm32f10x_exti.c **** }
 150:Libraries/STM32F10x_StdPeriph_Driver/src/stm32f10x_exti.c **** 
 151:Libraries/STM32F10x_StdPeriph_Driver/src/stm32f10x_exti.c **** /**
 152:Libraries/STM32F10x_StdPeriph_Driver/src/stm32f10x_exti.c ****   * @brief  Fills each EXTI_InitStruct member with its reset value.
 153:Libraries/STM32F10x_StdPeriph_Driver/src/stm32f10x_exti.c ****   * @param  EXTI_InitStruct: pointer to a EXTI_InitTypeDef structure which will
 154:Libraries/STM32F10x_StdPeriph_Driver/src/stm32f10x_exti.c ****   *         be initialized.
 155:Libraries/STM32F10x_StdPeriph_Driver/src/stm32f10x_exti.c ****   * @retval None
 156:Libraries/STM32F10x_StdPeriph_Driver/src/stm32f10x_exti.c ****   */
 157:Libraries/STM32F10x_StdPeriph_Driver/src/stm32f10x_exti.c **** void EXTI_StructInit(EXTI_InitTypeDef* EXTI_InitStruct)
 158:Libraries/STM32F10x_StdPeriph_Driver/src/stm32f10x_exti.c **** {
 224              		.loc 1 158 0
 225              		.cfi_startproc
 226              		@ args = 0, pretend = 0, frame = 0
 227              		@ frame_needed = 0, uses_anonymous_args = 0
 228              		@ link register save eliminated.
 229              	.LVL5:
 159:Libraries/STM32F10x_StdPeriph_Driver/src/stm32f10x_exti.c ****   EXTI_InitStruct->EXTI_Line = EXTI_LINENONE;
 230              		.loc 1 159 0
 231 0094 0023     		movs	r3, #0	@ tmp111,
 160:Libraries/STM32F10x_StdPeriph_Driver/src/stm32f10x_exti.c ****   EXTI_InitStruct->EXTI_Mode = EXTI_Mode_Interrupt;
ARM GAS  /var/folders/yt/6z6x8bjn5sjf5fbb45bk5m4c0000gn/T//ccljikg8.s 			page 8


 161:Libraries/STM32F10x_StdPeriph_Driver/src/stm32f10x_exti.c ****   EXTI_InitStruct->EXTI_Trigger = EXTI_Trigger_Falling;
 232              		.loc 1 161 0
 233 0096 0C22     		movs	r2, #12	@ tmp114,
 159:Libraries/STM32F10x_StdPeriph_Driver/src/stm32f10x_exti.c ****   EXTI_InitStruct->EXTI_Line = EXTI_LINENONE;
 234              		.loc 1 159 0
 235 0098 0360     		str	r3, [r0]	@ tmp111, EXTI_InitStruct_2(D)->EXTI_Line
 160:Libraries/STM32F10x_StdPeriph_Driver/src/stm32f10x_exti.c ****   EXTI_InitStruct->EXTI_Mode = EXTI_Mode_Interrupt;
 236              		.loc 1 160 0
 237 009a 0371     		strb	r3, [r0, #4]	@ tmp111, EXTI_InitStruct_2(D)->EXTI_Mode
 238              		.loc 1 161 0
 239 009c 4271     		strb	r2, [r0, #5]	@ tmp114, EXTI_InitStruct_2(D)->EXTI_Trigger
 162:Libraries/STM32F10x_StdPeriph_Driver/src/stm32f10x_exti.c ****   EXTI_InitStruct->EXTI_LineCmd = DISABLE;
 240              		.loc 1 162 0
 241 009e 8371     		strb	r3, [r0, #6]	@ tmp111, EXTI_InitStruct_2(D)->EXTI_LineCmd
 242 00a0 7047     		bx	lr	@
 243              		.cfi_endproc
 244              	.LFE31:
 245              		.size	EXTI_StructInit, .-EXTI_StructInit
 246              		.align	1
 247              		.global	EXTI_GenerateSWInterrupt
 248              		.thumb
 249              		.thumb_func
 250              		.type	EXTI_GenerateSWInterrupt, %function
 251              	EXTI_GenerateSWInterrupt:
 252              	.LFB32:
 163:Libraries/STM32F10x_StdPeriph_Driver/src/stm32f10x_exti.c **** }
 164:Libraries/STM32F10x_StdPeriph_Driver/src/stm32f10x_exti.c **** 
 165:Libraries/STM32F10x_StdPeriph_Driver/src/stm32f10x_exti.c **** /**
 166:Libraries/STM32F10x_StdPeriph_Driver/src/stm32f10x_exti.c ****   * @brief  Generates a Software interrupt.
 167:Libraries/STM32F10x_StdPeriph_Driver/src/stm32f10x_exti.c ****   * @param  EXTI_Line: specifies the EXTI lines to be enabled or disabled.
 168:Libraries/STM32F10x_StdPeriph_Driver/src/stm32f10x_exti.c ****   *   This parameter can be any combination of EXTI_Linex where x can be (0..19).
 169:Libraries/STM32F10x_StdPeriph_Driver/src/stm32f10x_exti.c ****   * @retval None
 170:Libraries/STM32F10x_StdPeriph_Driver/src/stm32f10x_exti.c ****   */
 171:Libraries/STM32F10x_StdPeriph_Driver/src/stm32f10x_exti.c **** void EXTI_GenerateSWInterrupt(uint32_t EXTI_Line)
 172:Libraries/STM32F10x_StdPeriph_Driver/src/stm32f10x_exti.c **** {
 253              		.loc 1 172 0
 254              		.cfi_startproc
 255              		@ args = 0, pretend = 0, frame = 0
 256              		@ frame_needed = 0, uses_anonymous_args = 0
 257              		@ link register save eliminated.
 258              	.LVL6:
 173:Libraries/STM32F10x_StdPeriph_Driver/src/stm32f10x_exti.c ****   /* Check the parameters */
 174:Libraries/STM32F10x_StdPeriph_Driver/src/stm32f10x_exti.c ****   assert_param(IS_EXTI_LINE(EXTI_Line));
 175:Libraries/STM32F10x_StdPeriph_Driver/src/stm32f10x_exti.c ****   
 176:Libraries/STM32F10x_StdPeriph_Driver/src/stm32f10x_exti.c ****   EXTI->SWIER |= EXTI_Line;
 259              		.loc 1 176 0
 260 00a2 024A     		ldr	r2, .L13	@ tmp113,
 261 00a4 1369     		ldr	r3, [r2, #16]	@ D.5580, MEM[(struct EXTI_TypeDef *)1073808384B].SWIER
 262 00a6 1843     		orrs	r0, r0, r3	@, D.5580, EXTI_Line, D.5580
 263              	.LVL7:
 264 00a8 1061     		str	r0, [r2, #16]	@ D.5580, MEM[(struct EXTI_TypeDef *)1073808384B].SWIER
 265 00aa 7047     		bx	lr	@
 266              	.L14:
 267              		.align	2
 268              	.L13:
 269 00ac 00040140 		.word	1073808384
 270              		.cfi_endproc
ARM GAS  /var/folders/yt/6z6x8bjn5sjf5fbb45bk5m4c0000gn/T//ccljikg8.s 			page 9


 271              	.LFE32:
 272              		.size	EXTI_GenerateSWInterrupt, .-EXTI_GenerateSWInterrupt
 273              		.align	1
 274              		.global	EXTI_GetFlagStatus
 275              		.thumb
 276              		.thumb_func
 277              		.type	EXTI_GetFlagStatus, %function
 278              	EXTI_GetFlagStatus:
 279              	.LFB33:
 177:Libraries/STM32F10x_StdPeriph_Driver/src/stm32f10x_exti.c **** }
 178:Libraries/STM32F10x_StdPeriph_Driver/src/stm32f10x_exti.c **** 
 179:Libraries/STM32F10x_StdPeriph_Driver/src/stm32f10x_exti.c **** /**
 180:Libraries/STM32F10x_StdPeriph_Driver/src/stm32f10x_exti.c ****   * @brief  Checks whether the specified EXTI line flag is set or not.
 181:Libraries/STM32F10x_StdPeriph_Driver/src/stm32f10x_exti.c ****   * @param  EXTI_Line: specifies the EXTI line flag to check.
 182:Libraries/STM32F10x_StdPeriph_Driver/src/stm32f10x_exti.c ****   *   This parameter can be:
 183:Libraries/STM32F10x_StdPeriph_Driver/src/stm32f10x_exti.c ****   *     @arg EXTI_Linex: External interrupt line x where x(0..19)
 184:Libraries/STM32F10x_StdPeriph_Driver/src/stm32f10x_exti.c ****   * @retval The new state of EXTI_Line (SET or RESET).
 185:Libraries/STM32F10x_StdPeriph_Driver/src/stm32f10x_exti.c ****   */
 186:Libraries/STM32F10x_StdPeriph_Driver/src/stm32f10x_exti.c **** FlagStatus EXTI_GetFlagStatus(uint32_t EXTI_Line)
 187:Libraries/STM32F10x_StdPeriph_Driver/src/stm32f10x_exti.c **** {
 280              		.loc 1 187 0
 281              		.cfi_startproc
 282              		@ args = 0, pretend = 0, frame = 0
 283              		@ frame_needed = 0, uses_anonymous_args = 0
 284              		@ link register save eliminated.
 285              	.LVL8:
 188:Libraries/STM32F10x_StdPeriph_Driver/src/stm32f10x_exti.c ****   FlagStatus bitstatus = RESET;
 189:Libraries/STM32F10x_StdPeriph_Driver/src/stm32f10x_exti.c ****   /* Check the parameters */
 190:Libraries/STM32F10x_StdPeriph_Driver/src/stm32f10x_exti.c ****   assert_param(IS_GET_EXTI_LINE(EXTI_Line));
 191:Libraries/STM32F10x_StdPeriph_Driver/src/stm32f10x_exti.c ****   
 192:Libraries/STM32F10x_StdPeriph_Driver/src/stm32f10x_exti.c ****   if ((EXTI->PR & EXTI_Line) != (uint32_t)RESET)
 286              		.loc 1 192 0
 287 00b0 034B     		ldr	r3, .L16	@ tmp116,
 288 00b2 5B69     		ldr	r3, [r3, #20]	@ D.5583, MEM[(struct EXTI_TypeDef *)1073808384B].PR
 289              	.LVL9:
 290 00b4 1842     		tst	r0, r3	@ EXTI_Line, D.5583
 193:Libraries/STM32F10x_StdPeriph_Driver/src/stm32f10x_exti.c ****   {
 194:Libraries/STM32F10x_StdPeriph_Driver/src/stm32f10x_exti.c ****     bitstatus = SET;
 195:Libraries/STM32F10x_StdPeriph_Driver/src/stm32f10x_exti.c ****   }
 196:Libraries/STM32F10x_StdPeriph_Driver/src/stm32f10x_exti.c ****   else
 197:Libraries/STM32F10x_StdPeriph_Driver/src/stm32f10x_exti.c ****   {
 198:Libraries/STM32F10x_StdPeriph_Driver/src/stm32f10x_exti.c ****     bitstatus = RESET;
 199:Libraries/STM32F10x_StdPeriph_Driver/src/stm32f10x_exti.c ****   }
 200:Libraries/STM32F10x_StdPeriph_Driver/src/stm32f10x_exti.c ****   return bitstatus;
 201:Libraries/STM32F10x_StdPeriph_Driver/src/stm32f10x_exti.c **** }
 291              		.loc 1 201 0
 292 00b6 14BF     		ite	ne
 293 00b8 0120     		movne	r0, #1	@,
 294              	.LVL10:
 295 00ba 0020     		moveq	r0, #0	@,
 296 00bc 7047     		bx	lr	@
 297              	.L17:
 298 00be 00BF     		.align	2
 299              	.L16:
 300 00c0 00040140 		.word	1073808384
 301              		.cfi_endproc
 302              	.LFE33:
ARM GAS  /var/folders/yt/6z6x8bjn5sjf5fbb45bk5m4c0000gn/T//ccljikg8.s 			page 10


 303              		.size	EXTI_GetFlagStatus, .-EXTI_GetFlagStatus
 304              		.align	1
 305              		.global	EXTI_ClearFlag
 306              		.thumb
 307              		.thumb_func
 308              		.type	EXTI_ClearFlag, %function
 309              	EXTI_ClearFlag:
 310              	.LFB34:
 202:Libraries/STM32F10x_StdPeriph_Driver/src/stm32f10x_exti.c **** 
 203:Libraries/STM32F10x_StdPeriph_Driver/src/stm32f10x_exti.c **** /**
 204:Libraries/STM32F10x_StdPeriph_Driver/src/stm32f10x_exti.c ****   * @brief  Clears the EXTI's line pending flags.
 205:Libraries/STM32F10x_StdPeriph_Driver/src/stm32f10x_exti.c ****   * @param  EXTI_Line: specifies the EXTI lines flags to clear.
 206:Libraries/STM32F10x_StdPeriph_Driver/src/stm32f10x_exti.c ****   *   This parameter can be any combination of EXTI_Linex where x can be (0..19).
 207:Libraries/STM32F10x_StdPeriph_Driver/src/stm32f10x_exti.c ****   * @retval None
 208:Libraries/STM32F10x_StdPeriph_Driver/src/stm32f10x_exti.c ****   */
 209:Libraries/STM32F10x_StdPeriph_Driver/src/stm32f10x_exti.c **** void EXTI_ClearFlag(uint32_t EXTI_Line)
 210:Libraries/STM32F10x_StdPeriph_Driver/src/stm32f10x_exti.c **** {
 311              		.loc 1 210 0
 312              		.cfi_startproc
 313              		@ args = 0, pretend = 0, frame = 0
 314              		@ frame_needed = 0, uses_anonymous_args = 0
 315              		@ link register save eliminated.
 316              	.LVL11:
 211:Libraries/STM32F10x_StdPeriph_Driver/src/stm32f10x_exti.c ****   /* Check the parameters */
 212:Libraries/STM32F10x_StdPeriph_Driver/src/stm32f10x_exti.c ****   assert_param(IS_EXTI_LINE(EXTI_Line));
 213:Libraries/STM32F10x_StdPeriph_Driver/src/stm32f10x_exti.c ****   
 214:Libraries/STM32F10x_StdPeriph_Driver/src/stm32f10x_exti.c ****   EXTI->PR = EXTI_Line;
 317              		.loc 1 214 0
 318 00c4 014B     		ldr	r3, .L19	@ tmp111,
 319 00c6 5861     		str	r0, [r3, #20]	@ EXTI_Line, MEM[(struct EXTI_TypeDef *)1073808384B].PR
 320 00c8 7047     		bx	lr	@
 321              	.L20:
 322 00ca 00BF     		.align	2
 323              	.L19:
 324 00cc 00040140 		.word	1073808384
 325              		.cfi_endproc
 326              	.LFE34:
 327              		.size	EXTI_ClearFlag, .-EXTI_ClearFlag
 328              		.align	1
 329              		.global	EXTI_GetITStatus
 330              		.thumb
 331              		.thumb_func
 332              		.type	EXTI_GetITStatus, %function
 333              	EXTI_GetITStatus:
 334              	.LFB35:
 215:Libraries/STM32F10x_StdPeriph_Driver/src/stm32f10x_exti.c **** }
 216:Libraries/STM32F10x_StdPeriph_Driver/src/stm32f10x_exti.c **** 
 217:Libraries/STM32F10x_StdPeriph_Driver/src/stm32f10x_exti.c **** /**
 218:Libraries/STM32F10x_StdPeriph_Driver/src/stm32f10x_exti.c ****   * @brief  Checks whether the specified EXTI line is asserted or not.
 219:Libraries/STM32F10x_StdPeriph_Driver/src/stm32f10x_exti.c ****   * @param  EXTI_Line: specifies the EXTI line to check.
 220:Libraries/STM32F10x_StdPeriph_Driver/src/stm32f10x_exti.c ****   *   This parameter can be:
 221:Libraries/STM32F10x_StdPeriph_Driver/src/stm32f10x_exti.c ****   *     @arg EXTI_Linex: External interrupt line x where x(0..19)
 222:Libraries/STM32F10x_StdPeriph_Driver/src/stm32f10x_exti.c ****   * @retval The new state of EXTI_Line (SET or RESET).
 223:Libraries/STM32F10x_StdPeriph_Driver/src/stm32f10x_exti.c ****   */
 224:Libraries/STM32F10x_StdPeriph_Driver/src/stm32f10x_exti.c **** ITStatus EXTI_GetITStatus(uint32_t EXTI_Line)
 225:Libraries/STM32F10x_StdPeriph_Driver/src/stm32f10x_exti.c **** {
 335              		.loc 1 225 0
ARM GAS  /var/folders/yt/6z6x8bjn5sjf5fbb45bk5m4c0000gn/T//ccljikg8.s 			page 11


 336              		.cfi_startproc
 337              		@ args = 0, pretend = 0, frame = 0
 338              		@ frame_needed = 0, uses_anonymous_args = 0
 339              		@ link register save eliminated.
 340              	.LVL12:
 226:Libraries/STM32F10x_StdPeriph_Driver/src/stm32f10x_exti.c ****   ITStatus bitstatus = RESET;
 227:Libraries/STM32F10x_StdPeriph_Driver/src/stm32f10x_exti.c ****   uint32_t enablestatus = 0;
 228:Libraries/STM32F10x_StdPeriph_Driver/src/stm32f10x_exti.c ****   /* Check the parameters */
 229:Libraries/STM32F10x_StdPeriph_Driver/src/stm32f10x_exti.c ****   assert_param(IS_GET_EXTI_LINE(EXTI_Line));
 230:Libraries/STM32F10x_StdPeriph_Driver/src/stm32f10x_exti.c ****   
 231:Libraries/STM32F10x_StdPeriph_Driver/src/stm32f10x_exti.c ****   enablestatus =  EXTI->IMR & EXTI_Line;
 341              		.loc 1 231 0
 342 00d0 054B     		ldr	r3, .L24	@ tmp118,
 343 00d2 1A68     		ldr	r2, [r3]	@ D.5590, MEM[(struct EXTI_TypeDef *)1073808384B].IMR
 344              	.LVL13:
 232:Libraries/STM32F10x_StdPeriph_Driver/src/stm32f10x_exti.c ****   if (((EXTI->PR & EXTI_Line) != (uint32_t)RESET) && (enablestatus != (uint32_t)RESET))
 345              		.loc 1 232 0
 346 00d4 5B69     		ldr	r3, [r3, #20]	@ D.5590, MEM[(struct EXTI_TypeDef *)1073808384B].PR
 347 00d6 0340     		ands	r3, r0, r3	@ D.5590, EXTI_Line, D.5590
 348 00d8 04D0     		beq	.L23	@,
 349              		.loc 1 232 0 is_stmt 0 discriminator 1
 350 00da 1042     		tst	r0, r2	@ EXTI_Line, D.5590
 233:Libraries/STM32F10x_StdPeriph_Driver/src/stm32f10x_exti.c ****   {
 234:Libraries/STM32F10x_StdPeriph_Driver/src/stm32f10x_exti.c ****     bitstatus = SET;
 351              		.loc 1 234 0 is_stmt 1 discriminator 1
 352 00dc 14BF     		ite	ne
 353 00de 0120     		movne	r0, #1	@ bitstatus,
 354              	.LVL14:
 355 00e0 0020     		moveq	r0, #0	@ bitstatus,
 356 00e2 7047     		bx	lr	@
 357              	.LVL15:
 358              	.L23:
 235:Libraries/STM32F10x_StdPeriph_Driver/src/stm32f10x_exti.c ****   }
 236:Libraries/STM32F10x_StdPeriph_Driver/src/stm32f10x_exti.c ****   else
 237:Libraries/STM32F10x_StdPeriph_Driver/src/stm32f10x_exti.c ****   {
 238:Libraries/STM32F10x_StdPeriph_Driver/src/stm32f10x_exti.c ****     bitstatus = RESET;
 359              		.loc 1 238 0
 360 00e4 1846     		mov	r0, r3	@ bitstatus, D.5590
 361              	.LVL16:
 239:Libraries/STM32F10x_StdPeriph_Driver/src/stm32f10x_exti.c ****   }
 240:Libraries/STM32F10x_StdPeriph_Driver/src/stm32f10x_exti.c ****   return bitstatus;
 241:Libraries/STM32F10x_StdPeriph_Driver/src/stm32f10x_exti.c **** }
 362              		.loc 1 241 0
 363 00e6 7047     		bx	lr	@
 364              	.L25:
 365              		.align	2
 366              	.L24:
 367 00e8 00040140 		.word	1073808384
 368              		.cfi_endproc
 369              	.LFE35:
 370              		.size	EXTI_GetITStatus, .-EXTI_GetITStatus
 371              		.align	1
 372              		.global	EXTI_ClearITPendingBit
 373              		.thumb
 374              		.thumb_func
 375              		.type	EXTI_ClearITPendingBit, %function
 376              	EXTI_ClearITPendingBit:
ARM GAS  /var/folders/yt/6z6x8bjn5sjf5fbb45bk5m4c0000gn/T//ccljikg8.s 			page 12


 377              	.LFB36:
 242:Libraries/STM32F10x_StdPeriph_Driver/src/stm32f10x_exti.c **** 
 243:Libraries/STM32F10x_StdPeriph_Driver/src/stm32f10x_exti.c **** /**
 244:Libraries/STM32F10x_StdPeriph_Driver/src/stm32f10x_exti.c ****   * @brief  Clears the EXTI's line pending bits.
 245:Libraries/STM32F10x_StdPeriph_Driver/src/stm32f10x_exti.c ****   * @param  EXTI_Line: specifies the EXTI lines to clear.
 246:Libraries/STM32F10x_StdPeriph_Driver/src/stm32f10x_exti.c ****   *   This parameter can be any combination of EXTI_Linex where x can be (0..19).
 247:Libraries/STM32F10x_StdPeriph_Driver/src/stm32f10x_exti.c ****   * @retval None
 248:Libraries/STM32F10x_StdPeriph_Driver/src/stm32f10x_exti.c ****   */
 249:Libraries/STM32F10x_StdPeriph_Driver/src/stm32f10x_exti.c **** void EXTI_ClearITPendingBit(uint32_t EXTI_Line)
 250:Libraries/STM32F10x_StdPeriph_Driver/src/stm32f10x_exti.c **** {
 378              		.loc 1 250 0
 379              		.cfi_startproc
 380              		@ args = 0, pretend = 0, frame = 0
 381              		@ frame_needed = 0, uses_anonymous_args = 0
 382              		@ link register save eliminated.
 383              	.LVL17:
 251:Libraries/STM32F10x_StdPeriph_Driver/src/stm32f10x_exti.c ****   /* Check the parameters */
 252:Libraries/STM32F10x_StdPeriph_Driver/src/stm32f10x_exti.c ****   assert_param(IS_EXTI_LINE(EXTI_Line));
 253:Libraries/STM32F10x_StdPeriph_Driver/src/stm32f10x_exti.c ****   
 254:Libraries/STM32F10x_StdPeriph_Driver/src/stm32f10x_exti.c ****   EXTI->PR = EXTI_Line;
 384              		.loc 1 254 0
 385 00ec 014B     		ldr	r3, .L27	@ tmp111,
 386 00ee 5861     		str	r0, [r3, #20]	@ EXTI_Line, MEM[(struct EXTI_TypeDef *)1073808384B].PR
 387 00f0 7047     		bx	lr	@
 388              	.L28:
 389 00f2 00BF     		.align	2
 390              	.L27:
 391 00f4 00040140 		.word	1073808384
 392              		.cfi_endproc
 393              	.LFE36:
 394              		.size	EXTI_ClearITPendingBit, .-EXTI_ClearITPendingBit
 395              	.Letext0:
 396              		.file 2 "/usr/local/Cellar/arm-none-eabi-gcc/20150921/arm-none-eabi/include/machine/_default_types
 397              		.file 3 "/usr/local/Cellar/arm-none-eabi-gcc/20150921/arm-none-eabi/include/sys/_stdint.h"
 398              		.file 4 "./Libraries/CMSIS/CM3/DeviceSupport/ST/STM32F10x/stm32f10x.h"
 399              		.file 5 "./Libraries/STM32F10x_StdPeriph_Driver/inc/stm32f10x_exti.h"
 400              		.file 6 "./Libraries/CMSIS/CM3/CoreSupport/core_cm3.h"
 401              		.section	.debug_info,"",%progbits
 402              	.Ldebug_info0:
 403 0000 65030000 		.4byte	0x365
 404 0004 0200     		.2byte	0x2
 405 0006 00000000 		.4byte	.Ldebug_abbrev0
 406 000a 04       		.byte	0x4
 407 000b 01       		.uleb128 0x1
 408 000c 91010000 		.4byte	.LASF44
 409 0010 01       		.byte	0x1
 410 0011 56020000 		.4byte	.LASF45
 411 0015 14030000 		.4byte	.LASF46
 412 0019 00000000 		.4byte	.Ltext0
 413 001d F8000000 		.4byte	.Letext0
 414 0021 00000000 		.4byte	.Ldebug_line0
 415 0025 02       		.uleb128 0x2
 416 0026 01       		.byte	0x1
 417 0027 06       		.byte	0x6
 418 0028 90020000 		.4byte	.LASF0
 419 002c 02       		.uleb128 0x2
 420 002d 01       		.byte	0x1
ARM GAS  /var/folders/yt/6z6x8bjn5sjf5fbb45bk5m4c0000gn/T//ccljikg8.s 			page 13


 421 002e 08       		.byte	0x8
 422 002f E6000000 		.4byte	.LASF1
 423 0033 02       		.uleb128 0x2
 424 0034 02       		.byte	0x2
 425 0035 05       		.byte	0x5
 426 0036 F0020000 		.4byte	.LASF2
 427 003a 02       		.uleb128 0x2
 428 003b 02       		.byte	0x2
 429 003c 07       		.byte	0x7
 430 003d 64000000 		.4byte	.LASF3
 431 0041 02       		.uleb128 0x2
 432 0042 04       		.byte	0x4
 433 0043 05       		.byte	0x5
 434 0044 03030000 		.4byte	.LASF4
 435 0048 03       		.uleb128 0x3
 436 0049 56010000 		.4byte	.LASF9
 437 004d 02       		.byte	0x2
 438 004e 41       		.byte	0x41
 439 004f 53000000 		.4byte	0x53
 440 0053 02       		.uleb128 0x2
 441 0054 04       		.byte	0x4
 442 0055 07       		.byte	0x7
 443 0056 0E010000 		.4byte	.LASF5
 444 005a 02       		.uleb128 0x2
 445 005b 08       		.byte	0x8
 446 005c 05       		.byte	0x5
 447 005d BA020000 		.4byte	.LASF6
 448 0061 02       		.uleb128 0x2
 449 0062 08       		.byte	0x8
 450 0063 07       		.byte	0x7
 451 0064 3F020000 		.4byte	.LASF7
 452 0068 04       		.uleb128 0x4
 453 0069 04       		.byte	0x4
 454 006a 05       		.byte	0x5
 455 006b 696E7400 		.ascii	"int\000"
 456 006f 02       		.uleb128 0x2
 457 0070 04       		.byte	0x4
 458 0071 07       		.byte	0x7
 459 0072 15020000 		.4byte	.LASF8
 460 0076 03       		.uleb128 0x3
 461 0077 FA020000 		.4byte	.LASF10
 462 007b 03       		.byte	0x3
 463 007c 20       		.byte	0x20
 464 007d 48000000 		.4byte	0x48
 465 0081 02       		.uleb128 0x2
 466 0082 04       		.byte	0x4
 467 0083 07       		.byte	0x7
 468 0084 B1020000 		.4byte	.LASF11
 469 0088 05       		.uleb128 0x5
 470 0089 76000000 		.4byte	0x76
 471 008d 06       		.uleb128 0x6
 472 008e 01       		.byte	0x1
 473 008f 04       		.byte	0x4
 474 0090 0702     		.2byte	0x207
 475 0092 A3000000 		.4byte	0xa3
 476 0096 07       		.uleb128 0x7
 477 0097 20010000 		.4byte	.LASF12
ARM GAS  /var/folders/yt/6z6x8bjn5sjf5fbb45bk5m4c0000gn/T//ccljikg8.s 			page 14


 478 009b 00       		.sleb128 0
 479 009c 08       		.uleb128 0x8
 480 009d 53455400 		.ascii	"SET\000"
 481 00a1 01       		.sleb128 1
 482 00a2 00       		.byte	0
 483 00a3 09       		.uleb128 0x9
 484 00a4 F4000000 		.4byte	.LASF13
 485 00a8 04       		.byte	0x4
 486 00a9 0702     		.2byte	0x207
 487 00ab 8D000000 		.4byte	0x8d
 488 00af 09       		.uleb128 0x9
 489 00b0 14000000 		.4byte	.LASF14
 490 00b4 04       		.byte	0x4
 491 00b5 0702     		.2byte	0x207
 492 00b7 8D000000 		.4byte	0x8d
 493 00bb 06       		.uleb128 0x6
 494 00bc 01       		.byte	0x1
 495 00bd 04       		.byte	0x4
 496 00be 0902     		.2byte	0x209
 497 00c0 D1000000 		.4byte	0xd1
 498 00c4 07       		.uleb128 0x7
 499 00c5 0C030000 		.4byte	.LASF15
 500 00c9 00       		.sleb128 0
 501 00ca 07       		.uleb128 0x7
 502 00cb DF000000 		.4byte	.LASF16
 503 00cf 01       		.sleb128 1
 504 00d0 00       		.byte	0
 505 00d1 09       		.uleb128 0x9
 506 00d2 8B000000 		.4byte	.LASF17
 507 00d6 04       		.byte	0x4
 508 00d7 0902     		.2byte	0x209
 509 00d9 BB000000 		.4byte	0xbb
 510 00dd 0A       		.uleb128 0xa
 511 00de 18       		.byte	0x18
 512 00df 04       		.byte	0x4
 513 00e0 7703     		.2byte	0x377
 514 00e2 40010000 		.4byte	0x140
 515 00e6 0B       		.uleb128 0xb
 516 00e7 494D5200 		.ascii	"IMR\000"
 517 00eb 04       		.byte	0x4
 518 00ec 7903     		.2byte	0x379
 519 00ee 88000000 		.4byte	0x88
 520 00f2 02       		.byte	0x2
 521 00f3 23       		.byte	0x23
 522 00f4 00       		.uleb128 0
 523 00f5 0B       		.uleb128 0xb
 524 00f6 454D5200 		.ascii	"EMR\000"
 525 00fa 04       		.byte	0x4
 526 00fb 7A03     		.2byte	0x37a
 527 00fd 88000000 		.4byte	0x88
 528 0101 02       		.byte	0x2
 529 0102 23       		.byte	0x23
 530 0103 04       		.uleb128 0x4
 531 0104 0C       		.uleb128 0xc
 532 0105 51010000 		.4byte	.LASF18
 533 0109 04       		.byte	0x4
 534 010a 7B03     		.2byte	0x37b
ARM GAS  /var/folders/yt/6z6x8bjn5sjf5fbb45bk5m4c0000gn/T//ccljikg8.s 			page 15


 535 010c 88000000 		.4byte	0x88
 536 0110 02       		.byte	0x2
 537 0111 23       		.byte	0x23
 538 0112 08       		.uleb128 0x8
 539 0113 0C       		.uleb128 0xc
 540 0114 6B030000 		.4byte	.LASF19
 541 0118 04       		.byte	0x4
 542 0119 7C03     		.2byte	0x37c
 543 011b 88000000 		.4byte	0x88
 544 011f 02       		.byte	0x2
 545 0120 23       		.byte	0x23
 546 0121 0C       		.uleb128 0xc
 547 0122 0C       		.uleb128 0xc
 548 0123 59030000 		.4byte	.LASF20
 549 0127 04       		.byte	0x4
 550 0128 7D03     		.2byte	0x37d
 551 012a 88000000 		.4byte	0x88
 552 012e 02       		.byte	0x2
 553 012f 23       		.byte	0x23
 554 0130 10       		.uleb128 0x10
 555 0131 0B       		.uleb128 0xb
 556 0132 505200   		.ascii	"PR\000"
 557 0135 04       		.byte	0x4
 558 0136 7E03     		.2byte	0x37e
 559 0138 88000000 		.4byte	0x88
 560 013c 02       		.byte	0x2
 561 013d 23       		.byte	0x23
 562 013e 14       		.uleb128 0x14
 563 013f 00       		.byte	0
 564 0140 09       		.uleb128 0x9
 565 0141 37010000 		.4byte	.LASF21
 566 0145 04       		.byte	0x4
 567 0146 7F03     		.2byte	0x37f
 568 0148 DD000000 		.4byte	0xdd
 569 014c 0D       		.uleb128 0xd
 570 014d 01       		.byte	0x1
 571 014e 05       		.byte	0x5
 572 014f 33       		.byte	0x33
 573 0150 61010000 		.4byte	0x161
 574 0154 07       		.uleb128 0x7
 575 0155 77000000 		.4byte	.LASF22
 576 0159 00       		.sleb128 0
 577 015a 07       		.uleb128 0x7
 578 015b 54000000 		.4byte	.LASF23
 579 015f 04       		.sleb128 4
 580 0160 00       		.byte	0
 581 0161 03       		.uleb128 0x3
 582 0162 26010000 		.4byte	.LASF24
 583 0166 05       		.byte	0x5
 584 0167 36       		.byte	0x36
 585 0168 4C010000 		.4byte	0x14c
 586 016c 0D       		.uleb128 0xd
 587 016d 01       		.byte	0x1
 588 016e 05       		.byte	0x5
 589 016f 3F       		.byte	0x3f
 590 0170 87010000 		.4byte	0x187
 591 0174 07       		.uleb128 0x7
ARM GAS  /var/folders/yt/6z6x8bjn5sjf5fbb45bk5m4c0000gn/T//ccljikg8.s 			page 16


 592 0175 61010000 		.4byte	.LASF25
 593 0179 08       		.sleb128 8
 594 017a 07       		.uleb128 0x7
 595 017b 9C020000 		.4byte	.LASF26
 596 017f 0C       		.sleb128 12
 597 0180 07       		.uleb128 0x7
 598 0181 75010000 		.4byte	.LASF27
 599 0185 10       		.sleb128 16
 600 0186 00       		.byte	0
 601 0187 03       		.uleb128 0x3
 602 0188 45030000 		.4byte	.LASF28
 603 018c 05       		.byte	0x5
 604 018d 43       		.byte	0x43
 605 018e 6C010000 		.4byte	0x16c
 606 0192 0E       		.uleb128 0xe
 607 0193 08       		.byte	0x8
 608 0194 05       		.byte	0x5
 609 0195 4C       		.byte	0x4c
 610 0196 D3010000 		.4byte	0x1d3
 611 019a 0F       		.uleb128 0xf
 612 019b 00000000 		.4byte	.LASF29
 613 019f 05       		.byte	0x5
 614 01a0 4E       		.byte	0x4e
 615 01a1 76000000 		.4byte	0x76
 616 01a5 02       		.byte	0x2
 617 01a6 23       		.byte	0x23
 618 01a7 00       		.uleb128 0
 619 01a8 0F       		.uleb128 0xf
 620 01a9 0A000000 		.4byte	.LASF30
 621 01ad 05       		.byte	0x5
 622 01ae 51       		.byte	0x51
 623 01af 61010000 		.4byte	0x161
 624 01b3 02       		.byte	0x2
 625 01b4 23       		.byte	0x23
 626 01b5 04       		.uleb128 0x4
 627 01b6 0F       		.uleb128 0xf
 628 01b7 37000000 		.4byte	.LASF31
 629 01bb 05       		.byte	0x5
 630 01bc 54       		.byte	0x54
 631 01bd 87010000 		.4byte	0x187
 632 01c1 02       		.byte	0x2
 633 01c2 23       		.byte	0x23
 634 01c3 05       		.uleb128 0x5
 635 01c4 0F       		.uleb128 0xf
 636 01c5 2A000000 		.4byte	.LASF32
 637 01c9 05       		.byte	0x5
 638 01ca 57       		.byte	0x57
 639 01cb D1000000 		.4byte	0xd1
 640 01cf 02       		.byte	0x2
 641 01d0 23       		.byte	0x23
 642 01d1 06       		.uleb128 0x6
 643 01d2 00       		.byte	0
 644 01d3 03       		.uleb128 0x3
 645 01d4 BE000000 		.4byte	.LASF33
 646 01d8 05       		.byte	0x5
 647 01d9 59       		.byte	0x59
 648 01da 92010000 		.4byte	0x192
ARM GAS  /var/folders/yt/6z6x8bjn5sjf5fbb45bk5m4c0000gn/T//ccljikg8.s 			page 17


 649 01de 10       		.uleb128 0x10
 650 01df 01       		.byte	0x1
 651 01e0 5F030000 		.4byte	.LASF47
 652 01e4 01       		.byte	0x1
 653 01e5 55       		.byte	0x55
 654 01e6 01       		.byte	0x1
 655 01e7 00000000 		.4byte	.LFB29
 656 01eb 1C000000 		.4byte	.LFE29
 657 01ef 02       		.byte	0x2
 658 01f0 7D       		.byte	0x7d
 659 01f1 00       		.sleb128 0
 660 01f2 01       		.byte	0x1
 661 01f3 11       		.uleb128 0x11
 662 01f4 01       		.byte	0x1
 663 01f5 22020000 		.4byte	.LASF34
 664 01f9 01       		.byte	0x1
 665 01fa 65       		.byte	0x65
 666 01fb 01       		.byte	0x1
 667 01fc 1C000000 		.4byte	.LFB30
 668 0200 94000000 		.4byte	.LFE30
 669 0204 00000000 		.4byte	.LLST0
 670 0208 01       		.byte	0x1
 671 0209 2A020000 		.4byte	0x22a
 672 020d 12       		.uleb128 0x12
 673 020e CF000000 		.4byte	.LASF36
 674 0212 01       		.byte	0x1
 675 0213 65       		.byte	0x65
 676 0214 2A020000 		.4byte	0x22a
 677 0218 01       		.byte	0x1
 678 0219 50       		.byte	0x50
 679 021a 13       		.uleb128 0x13
 680 021b 746D7000 		.ascii	"tmp\000"
 681 021f 01       		.byte	0x1
 682 0220 67       		.byte	0x67
 683 0221 76000000 		.4byte	0x76
 684 0225 20000000 		.4byte	.LLST1
 685 0229 00       		.byte	0
 686 022a 14       		.uleb128 0x14
 687 022b 04       		.byte	0x4
 688 022c D3010000 		.4byte	0x1d3
 689 0230 15       		.uleb128 0x15
 690 0231 01       		.byte	0x1
 691 0232 44000000 		.4byte	.LASF35
 692 0236 01       		.byte	0x1
 693 0237 9D       		.byte	0x9d
 694 0238 01       		.byte	0x1
 695 0239 94000000 		.4byte	.LFB31
 696 023d A2000000 		.4byte	.LFE31
 697 0241 02       		.byte	0x2
 698 0242 7D       		.byte	0x7d
 699 0243 00       		.sleb128 0
 700 0244 01       		.byte	0x1
 701 0245 57020000 		.4byte	0x257
 702 0249 12       		.uleb128 0x12
 703 024a CF000000 		.4byte	.LASF36
 704 024e 01       		.byte	0x1
 705 024f 9D       		.byte	0x9d
ARM GAS  /var/folders/yt/6z6x8bjn5sjf5fbb45bk5m4c0000gn/T//ccljikg8.s 			page 18


 706 0250 2A020000 		.4byte	0x22a
 707 0254 01       		.byte	0x1
 708 0255 50       		.byte	0x50
 709 0256 00       		.byte	0
 710 0257 15       		.uleb128 0x15
 711 0258 01       		.byte	0x1
 712 0259 A5000000 		.4byte	.LASF37
 713 025d 01       		.byte	0x1
 714 025e AB       		.byte	0xab
 715 025f 01       		.byte	0x1
 716 0260 A2000000 		.4byte	.LFB32
 717 0264 B0000000 		.4byte	.LFE32
 718 0268 02       		.byte	0x2
 719 0269 7D       		.byte	0x7d
 720 026a 00       		.sleb128 0
 721 026b 01       		.byte	0x1
 722 026c 80020000 		.4byte	0x280
 723 0270 16       		.uleb128 0x16
 724 0271 00000000 		.4byte	.LASF29
 725 0275 01       		.byte	0x1
 726 0276 AB       		.byte	0xab
 727 0277 76000000 		.4byte	0x76
 728 027b 68000000 		.4byte	.LLST2
 729 027f 00       		.byte	0
 730 0280 17       		.uleb128 0x17
 731 0281 01       		.byte	0x1
 732 0282 2C020000 		.4byte	.LASF40
 733 0286 01       		.byte	0x1
 734 0287 BA       		.byte	0xba
 735 0288 01       		.byte	0x1
 736 0289 A3000000 		.4byte	0xa3
 737 028d B0000000 		.4byte	.LFB33
 738 0291 C4000000 		.4byte	.LFE33
 739 0295 02       		.byte	0x2
 740 0296 7D       		.byte	0x7d
 741 0297 00       		.sleb128 0
 742 0298 01       		.byte	0x1
 743 0299 BC020000 		.4byte	0x2bc
 744 029d 16       		.uleb128 0x16
 745 029e 00000000 		.4byte	.LASF29
 746 02a2 01       		.byte	0x1
 747 02a3 BA       		.byte	0xba
 748 02a4 76000000 		.4byte	0x76
 749 02a8 89000000 		.4byte	.LLST3
 750 02ac 18       		.uleb128 0x18
 751 02ad 9B000000 		.4byte	.LASF38
 752 02b1 01       		.byte	0x1
 753 02b2 BC       		.byte	0xbc
 754 02b3 A3000000 		.4byte	0xa3
 755 02b7 AA000000 		.4byte	.LLST4
 756 02bb 00       		.byte	0
 757 02bc 15       		.uleb128 0x15
 758 02bd 01       		.byte	0x1
 759 02be FF000000 		.4byte	.LASF39
 760 02c2 01       		.byte	0x1
 761 02c3 D1       		.byte	0xd1
 762 02c4 01       		.byte	0x1
ARM GAS  /var/folders/yt/6z6x8bjn5sjf5fbb45bk5m4c0000gn/T//ccljikg8.s 			page 19


 763 02c5 C4000000 		.4byte	.LFB34
 764 02c9 D0000000 		.4byte	.LFE34
 765 02cd 02       		.byte	0x2
 766 02ce 7D       		.byte	0x7d
 767 02cf 00       		.sleb128 0
 768 02d0 01       		.byte	0x1
 769 02d1 E3020000 		.4byte	0x2e3
 770 02d5 12       		.uleb128 0x12
 771 02d6 00000000 		.4byte	.LASF29
 772 02da 01       		.byte	0x1
 773 02db D1       		.byte	0xd1
 774 02dc 76000000 		.4byte	0x76
 775 02e0 01       		.byte	0x1
 776 02e1 50       		.byte	0x50
 777 02e2 00       		.byte	0
 778 02e3 17       		.uleb128 0x17
 779 02e4 01       		.byte	0x1
 780 02e5 C8020000 		.4byte	.LASF41
 781 02e9 01       		.byte	0x1
 782 02ea E0       		.byte	0xe0
 783 02eb 01       		.byte	0x1
 784 02ec AF000000 		.4byte	0xaf
 785 02f0 D0000000 		.4byte	.LFB35
 786 02f4 EC000000 		.4byte	.LFE35
 787 02f8 02       		.byte	0x2
 788 02f9 7D       		.byte	0x7d
 789 02fa 00       		.sleb128 0
 790 02fb 01       		.byte	0x1
 791 02fc 2E030000 		.4byte	0x32e
 792 0300 16       		.uleb128 0x16
 793 0301 00000000 		.4byte	.LASF29
 794 0305 01       		.byte	0x1
 795 0306 E0       		.byte	0xe0
 796 0307 76000000 		.4byte	0x76
 797 030b E3000000 		.4byte	.LLST5
 798 030f 18       		.uleb128 0x18
 799 0310 9B000000 		.4byte	.LASF38
 800 0314 01       		.byte	0x1
 801 0315 E2       		.byte	0xe2
 802 0316 AF000000 		.4byte	0xaf
 803 031a 1D010000 		.4byte	.LLST6
 804 031e 18       		.uleb128 0x18
 805 031f 1D000000 		.4byte	.LASF42
 806 0323 01       		.byte	0x1
 807 0324 E3       		.byte	0xe3
 808 0325 76000000 		.4byte	0x76
 809 0329 3C010000 		.4byte	.LLST7
 810 032d 00       		.byte	0
 811 032e 15       		.uleb128 0x15
 812 032f 01       		.byte	0x1
 813 0330 D9020000 		.4byte	.LASF43
 814 0334 01       		.byte	0x1
 815 0335 F9       		.byte	0xf9
 816 0336 01       		.byte	0x1
 817 0337 EC000000 		.4byte	.LFB36
 818 033b F8000000 		.4byte	.LFE36
 819 033f 02       		.byte	0x2
ARM GAS  /var/folders/yt/6z6x8bjn5sjf5fbb45bk5m4c0000gn/T//ccljikg8.s 			page 20


 820 0340 7D       		.byte	0x7d
 821 0341 00       		.sleb128 0
 822 0342 01       		.byte	0x1
 823 0343 55030000 		.4byte	0x355
 824 0347 12       		.uleb128 0x12
 825 0348 00000000 		.4byte	.LASF29
 826 034c 01       		.byte	0x1
 827 034d F9       		.byte	0xf9
 828 034e 76000000 		.4byte	0x76
 829 0352 01       		.byte	0x1
 830 0353 50       		.byte	0x50
 831 0354 00       		.byte	0
 832 0355 19       		.uleb128 0x19
 833 0356 44010000 		.4byte	.LASF48
 834 035a 06       		.byte	0x6
 835 035b CF06     		.2byte	0x6cf
 836 035d 63030000 		.4byte	0x363
 837 0361 01       		.byte	0x1
 838 0362 01       		.byte	0x1
 839 0363 05       		.uleb128 0x5
 840 0364 68000000 		.4byte	0x68
 841 0368 00       		.byte	0
 842              		.section	.debug_abbrev,"",%progbits
 843              	.Ldebug_abbrev0:
 844 0000 01       		.uleb128 0x1
 845 0001 11       		.uleb128 0x11
 846 0002 01       		.byte	0x1
 847 0003 25       		.uleb128 0x25
 848 0004 0E       		.uleb128 0xe
 849 0005 13       		.uleb128 0x13
 850 0006 0B       		.uleb128 0xb
 851 0007 03       		.uleb128 0x3
 852 0008 0E       		.uleb128 0xe
 853 0009 1B       		.uleb128 0x1b
 854 000a 0E       		.uleb128 0xe
 855 000b 11       		.uleb128 0x11
 856 000c 01       		.uleb128 0x1
 857 000d 12       		.uleb128 0x12
 858 000e 01       		.uleb128 0x1
 859 000f 10       		.uleb128 0x10
 860 0010 06       		.uleb128 0x6
 861 0011 00       		.byte	0
 862 0012 00       		.byte	0
 863 0013 02       		.uleb128 0x2
 864 0014 24       		.uleb128 0x24
 865 0015 00       		.byte	0
 866 0016 0B       		.uleb128 0xb
 867 0017 0B       		.uleb128 0xb
 868 0018 3E       		.uleb128 0x3e
 869 0019 0B       		.uleb128 0xb
 870 001a 03       		.uleb128 0x3
 871 001b 0E       		.uleb128 0xe
 872 001c 00       		.byte	0
 873 001d 00       		.byte	0
 874 001e 03       		.uleb128 0x3
 875 001f 16       		.uleb128 0x16
 876 0020 00       		.byte	0
ARM GAS  /var/folders/yt/6z6x8bjn5sjf5fbb45bk5m4c0000gn/T//ccljikg8.s 			page 21


 877 0021 03       		.uleb128 0x3
 878 0022 0E       		.uleb128 0xe
 879 0023 3A       		.uleb128 0x3a
 880 0024 0B       		.uleb128 0xb
 881 0025 3B       		.uleb128 0x3b
 882 0026 0B       		.uleb128 0xb
 883 0027 49       		.uleb128 0x49
 884 0028 13       		.uleb128 0x13
 885 0029 00       		.byte	0
 886 002a 00       		.byte	0
 887 002b 04       		.uleb128 0x4
 888 002c 24       		.uleb128 0x24
 889 002d 00       		.byte	0
 890 002e 0B       		.uleb128 0xb
 891 002f 0B       		.uleb128 0xb
 892 0030 3E       		.uleb128 0x3e
 893 0031 0B       		.uleb128 0xb
 894 0032 03       		.uleb128 0x3
 895 0033 08       		.uleb128 0x8
 896 0034 00       		.byte	0
 897 0035 00       		.byte	0
 898 0036 05       		.uleb128 0x5
 899 0037 35       		.uleb128 0x35
 900 0038 00       		.byte	0
 901 0039 49       		.uleb128 0x49
 902 003a 13       		.uleb128 0x13
 903 003b 00       		.byte	0
 904 003c 00       		.byte	0
 905 003d 06       		.uleb128 0x6
 906 003e 04       		.uleb128 0x4
 907 003f 01       		.byte	0x1
 908 0040 0B       		.uleb128 0xb
 909 0041 0B       		.uleb128 0xb
 910 0042 3A       		.uleb128 0x3a
 911 0043 0B       		.uleb128 0xb
 912 0044 3B       		.uleb128 0x3b
 913 0045 05       		.uleb128 0x5
 914 0046 01       		.uleb128 0x1
 915 0047 13       		.uleb128 0x13
 916 0048 00       		.byte	0
 917 0049 00       		.byte	0
 918 004a 07       		.uleb128 0x7
 919 004b 28       		.uleb128 0x28
 920 004c 00       		.byte	0
 921 004d 03       		.uleb128 0x3
 922 004e 0E       		.uleb128 0xe
 923 004f 1C       		.uleb128 0x1c
 924 0050 0D       		.uleb128 0xd
 925 0051 00       		.byte	0
 926 0052 00       		.byte	0
 927 0053 08       		.uleb128 0x8
 928 0054 28       		.uleb128 0x28
 929 0055 00       		.byte	0
 930 0056 03       		.uleb128 0x3
 931 0057 08       		.uleb128 0x8
 932 0058 1C       		.uleb128 0x1c
 933 0059 0D       		.uleb128 0xd
ARM GAS  /var/folders/yt/6z6x8bjn5sjf5fbb45bk5m4c0000gn/T//ccljikg8.s 			page 22


 934 005a 00       		.byte	0
 935 005b 00       		.byte	0
 936 005c 09       		.uleb128 0x9
 937 005d 16       		.uleb128 0x16
 938 005e 00       		.byte	0
 939 005f 03       		.uleb128 0x3
 940 0060 0E       		.uleb128 0xe
 941 0061 3A       		.uleb128 0x3a
 942 0062 0B       		.uleb128 0xb
 943 0063 3B       		.uleb128 0x3b
 944 0064 05       		.uleb128 0x5
 945 0065 49       		.uleb128 0x49
 946 0066 13       		.uleb128 0x13
 947 0067 00       		.byte	0
 948 0068 00       		.byte	0
 949 0069 0A       		.uleb128 0xa
 950 006a 13       		.uleb128 0x13
 951 006b 01       		.byte	0x1
 952 006c 0B       		.uleb128 0xb
 953 006d 0B       		.uleb128 0xb
 954 006e 3A       		.uleb128 0x3a
 955 006f 0B       		.uleb128 0xb
 956 0070 3B       		.uleb128 0x3b
 957 0071 05       		.uleb128 0x5
 958 0072 01       		.uleb128 0x1
 959 0073 13       		.uleb128 0x13
 960 0074 00       		.byte	0
 961 0075 00       		.byte	0
 962 0076 0B       		.uleb128 0xb
 963 0077 0D       		.uleb128 0xd
 964 0078 00       		.byte	0
 965 0079 03       		.uleb128 0x3
 966 007a 08       		.uleb128 0x8
 967 007b 3A       		.uleb128 0x3a
 968 007c 0B       		.uleb128 0xb
 969 007d 3B       		.uleb128 0x3b
 970 007e 05       		.uleb128 0x5
 971 007f 49       		.uleb128 0x49
 972 0080 13       		.uleb128 0x13
 973 0081 38       		.uleb128 0x38
 974 0082 0A       		.uleb128 0xa
 975 0083 00       		.byte	0
 976 0084 00       		.byte	0
 977 0085 0C       		.uleb128 0xc
 978 0086 0D       		.uleb128 0xd
 979 0087 00       		.byte	0
 980 0088 03       		.uleb128 0x3
 981 0089 0E       		.uleb128 0xe
 982 008a 3A       		.uleb128 0x3a
 983 008b 0B       		.uleb128 0xb
 984 008c 3B       		.uleb128 0x3b
 985 008d 05       		.uleb128 0x5
 986 008e 49       		.uleb128 0x49
 987 008f 13       		.uleb128 0x13
 988 0090 38       		.uleb128 0x38
 989 0091 0A       		.uleb128 0xa
 990 0092 00       		.byte	0
ARM GAS  /var/folders/yt/6z6x8bjn5sjf5fbb45bk5m4c0000gn/T//ccljikg8.s 			page 23


 991 0093 00       		.byte	0
 992 0094 0D       		.uleb128 0xd
 993 0095 04       		.uleb128 0x4
 994 0096 01       		.byte	0x1
 995 0097 0B       		.uleb128 0xb
 996 0098 0B       		.uleb128 0xb
 997 0099 3A       		.uleb128 0x3a
 998 009a 0B       		.uleb128 0xb
 999 009b 3B       		.uleb128 0x3b
 1000 009c 0B       		.uleb128 0xb
 1001 009d 01       		.uleb128 0x1
 1002 009e 13       		.uleb128 0x13
 1003 009f 00       		.byte	0
 1004 00a0 00       		.byte	0
 1005 00a1 0E       		.uleb128 0xe
 1006 00a2 13       		.uleb128 0x13
 1007 00a3 01       		.byte	0x1
 1008 00a4 0B       		.uleb128 0xb
 1009 00a5 0B       		.uleb128 0xb
 1010 00a6 3A       		.uleb128 0x3a
 1011 00a7 0B       		.uleb128 0xb
 1012 00a8 3B       		.uleb128 0x3b
 1013 00a9 0B       		.uleb128 0xb
 1014 00aa 01       		.uleb128 0x1
 1015 00ab 13       		.uleb128 0x13
 1016 00ac 00       		.byte	0
 1017 00ad 00       		.byte	0
 1018 00ae 0F       		.uleb128 0xf
 1019 00af 0D       		.uleb128 0xd
 1020 00b0 00       		.byte	0
 1021 00b1 03       		.uleb128 0x3
 1022 00b2 0E       		.uleb128 0xe
 1023 00b3 3A       		.uleb128 0x3a
 1024 00b4 0B       		.uleb128 0xb
 1025 00b5 3B       		.uleb128 0x3b
 1026 00b6 0B       		.uleb128 0xb
 1027 00b7 49       		.uleb128 0x49
 1028 00b8 13       		.uleb128 0x13
 1029 00b9 38       		.uleb128 0x38
 1030 00ba 0A       		.uleb128 0xa
 1031 00bb 00       		.byte	0
 1032 00bc 00       		.byte	0
 1033 00bd 10       		.uleb128 0x10
 1034 00be 2E       		.uleb128 0x2e
 1035 00bf 00       		.byte	0
 1036 00c0 3F       		.uleb128 0x3f
 1037 00c1 0C       		.uleb128 0xc
 1038 00c2 03       		.uleb128 0x3
 1039 00c3 0E       		.uleb128 0xe
 1040 00c4 3A       		.uleb128 0x3a
 1041 00c5 0B       		.uleb128 0xb
 1042 00c6 3B       		.uleb128 0x3b
 1043 00c7 0B       		.uleb128 0xb
 1044 00c8 27       		.uleb128 0x27
 1045 00c9 0C       		.uleb128 0xc
 1046 00ca 11       		.uleb128 0x11
 1047 00cb 01       		.uleb128 0x1
ARM GAS  /var/folders/yt/6z6x8bjn5sjf5fbb45bk5m4c0000gn/T//ccljikg8.s 			page 24


 1048 00cc 12       		.uleb128 0x12
 1049 00cd 01       		.uleb128 0x1
 1050 00ce 40       		.uleb128 0x40
 1051 00cf 0A       		.uleb128 0xa
 1052 00d0 9742     		.uleb128 0x2117
 1053 00d2 0C       		.uleb128 0xc
 1054 00d3 00       		.byte	0
 1055 00d4 00       		.byte	0
 1056 00d5 11       		.uleb128 0x11
 1057 00d6 2E       		.uleb128 0x2e
 1058 00d7 01       		.byte	0x1
 1059 00d8 3F       		.uleb128 0x3f
 1060 00d9 0C       		.uleb128 0xc
 1061 00da 03       		.uleb128 0x3
 1062 00db 0E       		.uleb128 0xe
 1063 00dc 3A       		.uleb128 0x3a
 1064 00dd 0B       		.uleb128 0xb
 1065 00de 3B       		.uleb128 0x3b
 1066 00df 0B       		.uleb128 0xb
 1067 00e0 27       		.uleb128 0x27
 1068 00e1 0C       		.uleb128 0xc
 1069 00e2 11       		.uleb128 0x11
 1070 00e3 01       		.uleb128 0x1
 1071 00e4 12       		.uleb128 0x12
 1072 00e5 01       		.uleb128 0x1
 1073 00e6 40       		.uleb128 0x40
 1074 00e7 06       		.uleb128 0x6
 1075 00e8 9742     		.uleb128 0x2117
 1076 00ea 0C       		.uleb128 0xc
 1077 00eb 01       		.uleb128 0x1
 1078 00ec 13       		.uleb128 0x13
 1079 00ed 00       		.byte	0
 1080 00ee 00       		.byte	0
 1081 00ef 12       		.uleb128 0x12
 1082 00f0 05       		.uleb128 0x5
 1083 00f1 00       		.byte	0
 1084 00f2 03       		.uleb128 0x3
 1085 00f3 0E       		.uleb128 0xe
 1086 00f4 3A       		.uleb128 0x3a
 1087 00f5 0B       		.uleb128 0xb
 1088 00f6 3B       		.uleb128 0x3b
 1089 00f7 0B       		.uleb128 0xb
 1090 00f8 49       		.uleb128 0x49
 1091 00f9 13       		.uleb128 0x13
 1092 00fa 02       		.uleb128 0x2
 1093 00fb 0A       		.uleb128 0xa
 1094 00fc 00       		.byte	0
 1095 00fd 00       		.byte	0
 1096 00fe 13       		.uleb128 0x13
 1097 00ff 34       		.uleb128 0x34
 1098 0100 00       		.byte	0
 1099 0101 03       		.uleb128 0x3
 1100 0102 08       		.uleb128 0x8
 1101 0103 3A       		.uleb128 0x3a
 1102 0104 0B       		.uleb128 0xb
 1103 0105 3B       		.uleb128 0x3b
 1104 0106 0B       		.uleb128 0xb
ARM GAS  /var/folders/yt/6z6x8bjn5sjf5fbb45bk5m4c0000gn/T//ccljikg8.s 			page 25


 1105 0107 49       		.uleb128 0x49
 1106 0108 13       		.uleb128 0x13
 1107 0109 02       		.uleb128 0x2
 1108 010a 06       		.uleb128 0x6
 1109 010b 00       		.byte	0
 1110 010c 00       		.byte	0
 1111 010d 14       		.uleb128 0x14
 1112 010e 0F       		.uleb128 0xf
 1113 010f 00       		.byte	0
 1114 0110 0B       		.uleb128 0xb
 1115 0111 0B       		.uleb128 0xb
 1116 0112 49       		.uleb128 0x49
 1117 0113 13       		.uleb128 0x13
 1118 0114 00       		.byte	0
 1119 0115 00       		.byte	0
 1120 0116 15       		.uleb128 0x15
 1121 0117 2E       		.uleb128 0x2e
 1122 0118 01       		.byte	0x1
 1123 0119 3F       		.uleb128 0x3f
 1124 011a 0C       		.uleb128 0xc
 1125 011b 03       		.uleb128 0x3
 1126 011c 0E       		.uleb128 0xe
 1127 011d 3A       		.uleb128 0x3a
 1128 011e 0B       		.uleb128 0xb
 1129 011f 3B       		.uleb128 0x3b
 1130 0120 0B       		.uleb128 0xb
 1131 0121 27       		.uleb128 0x27
 1132 0122 0C       		.uleb128 0xc
 1133 0123 11       		.uleb128 0x11
 1134 0124 01       		.uleb128 0x1
 1135 0125 12       		.uleb128 0x12
 1136 0126 01       		.uleb128 0x1
 1137 0127 40       		.uleb128 0x40
 1138 0128 0A       		.uleb128 0xa
 1139 0129 9742     		.uleb128 0x2117
 1140 012b 0C       		.uleb128 0xc
 1141 012c 01       		.uleb128 0x1
 1142 012d 13       		.uleb128 0x13
 1143 012e 00       		.byte	0
 1144 012f 00       		.byte	0
 1145 0130 16       		.uleb128 0x16
 1146 0131 05       		.uleb128 0x5
 1147 0132 00       		.byte	0
 1148 0133 03       		.uleb128 0x3
 1149 0134 0E       		.uleb128 0xe
 1150 0135 3A       		.uleb128 0x3a
 1151 0136 0B       		.uleb128 0xb
 1152 0137 3B       		.uleb128 0x3b
 1153 0138 0B       		.uleb128 0xb
 1154 0139 49       		.uleb128 0x49
 1155 013a 13       		.uleb128 0x13
 1156 013b 02       		.uleb128 0x2
 1157 013c 06       		.uleb128 0x6
 1158 013d 00       		.byte	0
 1159 013e 00       		.byte	0
 1160 013f 17       		.uleb128 0x17
 1161 0140 2E       		.uleb128 0x2e
ARM GAS  /var/folders/yt/6z6x8bjn5sjf5fbb45bk5m4c0000gn/T//ccljikg8.s 			page 26


 1162 0141 01       		.byte	0x1
 1163 0142 3F       		.uleb128 0x3f
 1164 0143 0C       		.uleb128 0xc
 1165 0144 03       		.uleb128 0x3
 1166 0145 0E       		.uleb128 0xe
 1167 0146 3A       		.uleb128 0x3a
 1168 0147 0B       		.uleb128 0xb
 1169 0148 3B       		.uleb128 0x3b
 1170 0149 0B       		.uleb128 0xb
 1171 014a 27       		.uleb128 0x27
 1172 014b 0C       		.uleb128 0xc
 1173 014c 49       		.uleb128 0x49
 1174 014d 13       		.uleb128 0x13
 1175 014e 11       		.uleb128 0x11
 1176 014f 01       		.uleb128 0x1
 1177 0150 12       		.uleb128 0x12
 1178 0151 01       		.uleb128 0x1
 1179 0152 40       		.uleb128 0x40
 1180 0153 0A       		.uleb128 0xa
 1181 0154 9742     		.uleb128 0x2117
 1182 0156 0C       		.uleb128 0xc
 1183 0157 01       		.uleb128 0x1
 1184 0158 13       		.uleb128 0x13
 1185 0159 00       		.byte	0
 1186 015a 00       		.byte	0
 1187 015b 18       		.uleb128 0x18
 1188 015c 34       		.uleb128 0x34
 1189 015d 00       		.byte	0
 1190 015e 03       		.uleb128 0x3
 1191 015f 0E       		.uleb128 0xe
 1192 0160 3A       		.uleb128 0x3a
 1193 0161 0B       		.uleb128 0xb
 1194 0162 3B       		.uleb128 0x3b
 1195 0163 0B       		.uleb128 0xb
 1196 0164 49       		.uleb128 0x49
 1197 0165 13       		.uleb128 0x13
 1198 0166 02       		.uleb128 0x2
 1199 0167 06       		.uleb128 0x6
 1200 0168 00       		.byte	0
 1201 0169 00       		.byte	0
 1202 016a 19       		.uleb128 0x19
 1203 016b 34       		.uleb128 0x34
 1204 016c 00       		.byte	0
 1205 016d 03       		.uleb128 0x3
 1206 016e 0E       		.uleb128 0xe
 1207 016f 3A       		.uleb128 0x3a
 1208 0170 0B       		.uleb128 0xb
 1209 0171 3B       		.uleb128 0x3b
 1210 0172 05       		.uleb128 0x5
 1211 0173 49       		.uleb128 0x49
 1212 0174 13       		.uleb128 0x13
 1213 0175 3F       		.uleb128 0x3f
 1214 0176 0C       		.uleb128 0xc
 1215 0177 3C       		.uleb128 0x3c
 1216 0178 0C       		.uleb128 0xc
 1217 0179 00       		.byte	0
 1218 017a 00       		.byte	0
ARM GAS  /var/folders/yt/6z6x8bjn5sjf5fbb45bk5m4c0000gn/T//ccljikg8.s 			page 27


 1219 017b 00       		.byte	0
 1220              		.section	.debug_loc,"",%progbits
 1221              	.Ldebug_loc0:
 1222              	.LLST0:
 1223 0000 1C000000 		.4byte	.LFB30-.Ltext0
 1224 0004 20000000 		.4byte	.LCFI0-.Ltext0
 1225 0008 0200     		.2byte	0x2
 1226 000a 7D       		.byte	0x7d
 1227 000b 00       		.sleb128 0
 1228 000c 20000000 		.4byte	.LCFI0-.Ltext0
 1229 0010 94000000 		.4byte	.LFE30-.Ltext0
 1230 0014 0200     		.2byte	0x2
 1231 0016 7D       		.byte	0x7d
 1232 0017 10       		.sleb128 16
 1233 0018 00000000 		.4byte	0
 1234 001c 00000000 		.4byte	0
 1235              	.LLST1:
 1236 0020 1C000000 		.4byte	.LVL0-.Ltext0
 1237 0024 40000000 		.4byte	.LVL1-.Ltext0
 1238 0028 0600     		.2byte	0x6
 1239 002a 0C       		.byte	0xc
 1240 002b 00040140 		.4byte	0x40010400
 1241 002f 9F       		.byte	0x9f
 1242 0030 40000000 		.4byte	.LVL1-.Ltext0
 1243 0034 46000000 		.4byte	.LVL2-.Ltext0
 1244 0038 0E00     		.2byte	0xe
 1245 003a 70       		.byte	0x70
 1246 003b 04       		.sleb128 4
 1247 003c 94       		.byte	0x94
 1248 003d 01       		.byte	0x1
 1249 003e 08       		.byte	0x8
 1250 003f FF       		.byte	0xff
 1251 0040 1A       		.byte	0x1a
 1252 0041 23       		.byte	0x23
 1253 0042 80888480 		.uleb128 0x40010400
 1253      04
 1254 0047 9F       		.byte	0x9f
 1255 0048 7C000000 		.4byte	.LVL3-.Ltext0
 1256 004c 8C000000 		.4byte	.LVL4-.Ltext0
 1257 0050 0E00     		.2byte	0xe
 1258 0052 70       		.byte	0x70
 1259 0053 04       		.sleb128 4
 1260 0054 94       		.byte	0x94
 1261 0055 01       		.byte	0x1
 1262 0056 08       		.byte	0x8
 1263 0057 FF       		.byte	0xff
 1264 0058 1A       		.byte	0x1a
 1265 0059 23       		.byte	0x23
 1266 005a 80888480 		.uleb128 0x40010400
 1266      04
 1267 005f 9F       		.byte	0x9f
 1268 0060 00000000 		.4byte	0
 1269 0064 00000000 		.4byte	0
 1270              	.LLST2:
 1271 0068 A2000000 		.4byte	.LVL6-.Ltext0
 1272 006c A8000000 		.4byte	.LVL7-.Ltext0
 1273 0070 0100     		.2byte	0x1
ARM GAS  /var/folders/yt/6z6x8bjn5sjf5fbb45bk5m4c0000gn/T//ccljikg8.s 			page 28


 1274 0072 50       		.byte	0x50
 1275 0073 A8000000 		.4byte	.LVL7-.Ltext0
 1276 0077 B0000000 		.4byte	.LFE32-.Ltext0
 1277 007b 0400     		.2byte	0x4
 1278 007d F3       		.byte	0xf3
 1279 007e 01       		.uleb128 0x1
 1280 007f 50       		.byte	0x50
 1281 0080 9F       		.byte	0x9f
 1282 0081 00000000 		.4byte	0
 1283 0085 00000000 		.4byte	0
 1284              	.LLST3:
 1285 0089 B0000000 		.4byte	.LVL8-.Ltext0
 1286 008d BA000000 		.4byte	.LVL10-.Ltext0
 1287 0091 0100     		.2byte	0x1
 1288 0093 50       		.byte	0x50
 1289 0094 BA000000 		.4byte	.LVL10-.Ltext0
 1290 0098 C4000000 		.4byte	.LFE33-.Ltext0
 1291 009c 0400     		.2byte	0x4
 1292 009e F3       		.byte	0xf3
 1293 009f 01       		.uleb128 0x1
 1294 00a0 50       		.byte	0x50
 1295 00a1 9F       		.byte	0x9f
 1296 00a2 00000000 		.4byte	0
 1297 00a6 00000000 		.4byte	0
 1298              	.LLST4:
 1299 00aa B0000000 		.4byte	.LVL8-.Ltext0
 1300 00ae B4000000 		.4byte	.LVL9-.Ltext0
 1301 00b2 0200     		.2byte	0x2
 1302 00b4 30       		.byte	0x30
 1303 00b5 9F       		.byte	0x9f
 1304 00b6 B4000000 		.4byte	.LVL9-.Ltext0
 1305 00ba BA000000 		.4byte	.LVL10-.Ltext0
 1306 00be 0800     		.2byte	0x8
 1307 00c0 70       		.byte	0x70
 1308 00c1 00       		.sleb128 0
 1309 00c2 73       		.byte	0x73
 1310 00c3 00       		.sleb128 0
 1311 00c4 1A       		.byte	0x1a
 1312 00c5 30       		.byte	0x30
 1313 00c6 2E       		.byte	0x2e
 1314 00c7 9F       		.byte	0x9f
 1315 00c8 BA000000 		.4byte	.LVL10-.Ltext0
 1316 00cc C4000000 		.4byte	.LFE33-.Ltext0
 1317 00d0 0900     		.2byte	0x9
 1318 00d2 F3       		.byte	0xf3
 1319 00d3 01       		.uleb128 0x1
 1320 00d4 50       		.byte	0x50
 1321 00d5 73       		.byte	0x73
 1322 00d6 00       		.sleb128 0
 1323 00d7 1A       		.byte	0x1a
 1324 00d8 30       		.byte	0x30
 1325 00d9 2E       		.byte	0x2e
 1326 00da 9F       		.byte	0x9f
 1327 00db 00000000 		.4byte	0
 1328 00df 00000000 		.4byte	0
 1329              	.LLST5:
 1330 00e3 D0000000 		.4byte	.LVL12-.Ltext0
ARM GAS  /var/folders/yt/6z6x8bjn5sjf5fbb45bk5m4c0000gn/T//ccljikg8.s 			page 29


 1331 00e7 E0000000 		.4byte	.LVL14-.Ltext0
 1332 00eb 0100     		.2byte	0x1
 1333 00ed 50       		.byte	0x50
 1334 00ee E0000000 		.4byte	.LVL14-.Ltext0
 1335 00f2 E4000000 		.4byte	.LVL15-.Ltext0
 1336 00f6 0400     		.2byte	0x4
 1337 00f8 F3       		.byte	0xf3
 1338 00f9 01       		.uleb128 0x1
 1339 00fa 50       		.byte	0x50
 1340 00fb 9F       		.byte	0x9f
 1341 00fc E4000000 		.4byte	.LVL15-.Ltext0
 1342 0100 E6000000 		.4byte	.LVL16-.Ltext0
 1343 0104 0100     		.2byte	0x1
 1344 0106 50       		.byte	0x50
 1345 0107 E6000000 		.4byte	.LVL16-.Ltext0
 1346 010b EC000000 		.4byte	.LFE35-.Ltext0
 1347 010f 0400     		.2byte	0x4
 1348 0111 F3       		.byte	0xf3
 1349 0112 01       		.uleb128 0x1
 1350 0113 50       		.byte	0x50
 1351 0114 9F       		.byte	0x9f
 1352 0115 00000000 		.4byte	0
 1353 0119 00000000 		.4byte	0
 1354              	.LLST6:
 1355 011d D0000000 		.4byte	.LVL12-.Ltext0
 1356 0121 E6000000 		.4byte	.LVL16-.Ltext0
 1357 0125 0200     		.2byte	0x2
 1358 0127 30       		.byte	0x30
 1359 0128 9F       		.byte	0x9f
 1360 0129 E6000000 		.4byte	.LVL16-.Ltext0
 1361 012d EC000000 		.4byte	.LFE35-.Ltext0
 1362 0131 0100     		.2byte	0x1
 1363 0133 50       		.byte	0x50
 1364 0134 00000000 		.4byte	0
 1365 0138 00000000 		.4byte	0
 1366              	.LLST7:
 1367 013c D0000000 		.4byte	.LVL12-.Ltext0
 1368 0140 D4000000 		.4byte	.LVL13-.Ltext0
 1369 0144 0200     		.2byte	0x2
 1370 0146 30       		.byte	0x30
 1371 0147 9F       		.byte	0x9f
 1372 0148 D4000000 		.4byte	.LVL13-.Ltext0
 1373 014c E0000000 		.4byte	.LVL14-.Ltext0
 1374 0150 0600     		.2byte	0x6
 1375 0152 70       		.byte	0x70
 1376 0153 00       		.sleb128 0
 1377 0154 72       		.byte	0x72
 1378 0155 00       		.sleb128 0
 1379 0156 1A       		.byte	0x1a
 1380 0157 9F       		.byte	0x9f
 1381 0158 E0000000 		.4byte	.LVL14-.Ltext0
 1382 015c E4000000 		.4byte	.LVL15-.Ltext0
 1383 0160 0700     		.2byte	0x7
 1384 0162 F3       		.byte	0xf3
 1385 0163 01       		.uleb128 0x1
 1386 0164 50       		.byte	0x50
 1387 0165 72       		.byte	0x72
ARM GAS  /var/folders/yt/6z6x8bjn5sjf5fbb45bk5m4c0000gn/T//ccljikg8.s 			page 30


 1388 0166 00       		.sleb128 0
 1389 0167 1A       		.byte	0x1a
 1390 0168 9F       		.byte	0x9f
 1391 0169 E4000000 		.4byte	.LVL15-.Ltext0
 1392 016d E6000000 		.4byte	.LVL16-.Ltext0
 1393 0171 0600     		.2byte	0x6
 1394 0173 70       		.byte	0x70
 1395 0174 00       		.sleb128 0
 1396 0175 72       		.byte	0x72
 1397 0176 00       		.sleb128 0
 1398 0177 1A       		.byte	0x1a
 1399 0178 9F       		.byte	0x9f
 1400 0179 E6000000 		.4byte	.LVL16-.Ltext0
 1401 017d EC000000 		.4byte	.LFE35-.Ltext0
 1402 0181 0700     		.2byte	0x7
 1403 0183 F3       		.byte	0xf3
 1404 0184 01       		.uleb128 0x1
 1405 0185 50       		.byte	0x50
 1406 0186 72       		.byte	0x72
 1407 0187 00       		.sleb128 0
 1408 0188 1A       		.byte	0x1a
 1409 0189 9F       		.byte	0x9f
 1410 018a 00000000 		.4byte	0
 1411 018e 00000000 		.4byte	0
 1412              		.section	.debug_aranges,"",%progbits
 1413 0000 1C000000 		.4byte	0x1c
 1414 0004 0200     		.2byte	0x2
 1415 0006 00000000 		.4byte	.Ldebug_info0
 1416 000a 04       		.byte	0x4
 1417 000b 00       		.byte	0
 1418 000c 0000     		.2byte	0
 1419 000e 0000     		.2byte	0
 1420 0010 00000000 		.4byte	.Ltext0
 1421 0014 F8000000 		.4byte	.Letext0-.Ltext0
 1422 0018 00000000 		.4byte	0
 1423 001c 00000000 		.4byte	0
 1424              		.section	.debug_line,"",%progbits
 1425              	.Ldebug_line0:
 1426 0000 24020000 		.section	.debug_str,"MS",%progbits,1
 1426      0200B201 
 1426      00000201 
 1426      FB0E0D00 
 1426      01010101 
 1427              	.LASF29:
 1428 0000 45585449 		.ascii	"EXTI_Line\000"
 1428      5F4C696E 
 1428      6500
 1429              	.LASF30:
 1430 000a 45585449 		.ascii	"EXTI_Mode\000"
 1430      5F4D6F64 
 1430      6500
 1431              	.LASF14:
 1432 0014 49545374 		.ascii	"ITStatus\000"
 1432      61747573 
 1432      00
 1433              	.LASF42:
 1434 001d 656E6162 		.ascii	"enablestatus\000"
ARM GAS  /var/folders/yt/6z6x8bjn5sjf5fbb45bk5m4c0000gn/T//ccljikg8.s 			page 31


 1434      6C657374 
 1434      61747573 
 1434      00
 1435              	.LASF32:
 1436 002a 45585449 		.ascii	"EXTI_LineCmd\000"
 1436      5F4C696E 
 1436      65436D64 
 1436      00
 1437              	.LASF31:
 1438 0037 45585449 		.ascii	"EXTI_Trigger\000"
 1438      5F547269 
 1438      67676572 
 1438      00
 1439              	.LASF35:
 1440 0044 45585449 		.ascii	"EXTI_StructInit\000"
 1440      5F537472 
 1440      75637449 
 1440      6E697400 
 1441              	.LASF23:
 1442 0054 45585449 		.ascii	"EXTI_Mode_Event\000"
 1442      5F4D6F64 
 1442      655F4576 
 1442      656E7400 
 1443              	.LASF3:
 1444 0064 73686F72 		.ascii	"short unsigned int\000"
 1444      7420756E 
 1444      7369676E 
 1444      65642069 
 1444      6E7400
 1445              	.LASF22:
 1446 0077 45585449 		.ascii	"EXTI_Mode_Interrupt\000"
 1446      5F4D6F64 
 1446      655F496E 
 1446      74657272 
 1446      75707400 
 1447              	.LASF17:
 1448 008b 46756E63 		.ascii	"FunctionalState\000"
 1448      74696F6E 
 1448      616C5374 
 1448      61746500 
 1449              	.LASF38:
 1450 009b 62697473 		.ascii	"bitstatus\000"
 1450      74617475 
 1450      7300
 1451              	.LASF37:
 1452 00a5 45585449 		.ascii	"EXTI_GenerateSWInterrupt\000"
 1452      5F47656E 
 1452      65726174 
 1452      65535749 
 1452      6E746572 
 1453              	.LASF33:
 1454 00be 45585449 		.ascii	"EXTI_InitTypeDef\000"
 1454      5F496E69 
 1454      74547970 
 1454      65446566 
 1454      00
 1455              	.LASF36:
ARM GAS  /var/folders/yt/6z6x8bjn5sjf5fbb45bk5m4c0000gn/T//ccljikg8.s 			page 32


 1456 00cf 45585449 		.ascii	"EXTI_InitStruct\000"
 1456      5F496E69 
 1456      74537472 
 1456      75637400 
 1457              	.LASF16:
 1458 00df 454E4142 		.ascii	"ENABLE\000"
 1458      4C4500
 1459              	.LASF1:
 1460 00e6 756E7369 		.ascii	"unsigned char\000"
 1460      676E6564 
 1460      20636861 
 1460      7200
 1461              	.LASF13:
 1462 00f4 466C6167 		.ascii	"FlagStatus\000"
 1462      53746174 
 1462      757300
 1463              	.LASF39:
 1464 00ff 45585449 		.ascii	"EXTI_ClearFlag\000"
 1464      5F436C65 
 1464      6172466C 
 1464      616700
 1465              	.LASF5:
 1466 010e 6C6F6E67 		.ascii	"long unsigned int\000"
 1466      20756E73 
 1466      69676E65 
 1466      6420696E 
 1466      7400
 1467              	.LASF12:
 1468 0120 52455345 		.ascii	"RESET\000"
 1468      5400
 1469              	.LASF24:
 1470 0126 45585449 		.ascii	"EXTIMode_TypeDef\000"
 1470      4D6F6465 
 1470      5F547970 
 1470      65446566 
 1470      00
 1471              	.LASF21:
 1472 0137 45585449 		.ascii	"EXTI_TypeDef\000"
 1472      5F547970 
 1472      65446566 
 1472      00
 1473              	.LASF48:
 1474 0144 49544D5F 		.ascii	"ITM_RxBuffer\000"
 1474      52784275 
 1474      66666572 
 1474      00
 1475              	.LASF18:
 1476 0151 52545352 		.ascii	"RTSR\000"
 1476      00
 1477              	.LASF9:
 1478 0156 5F5F7569 		.ascii	"__uint32_t\000"
 1478      6E743332 
 1478      5F7400
 1479              	.LASF25:
 1480 0161 45585449 		.ascii	"EXTI_Trigger_Rising\000"
 1480      5F547269 
 1480      67676572 
ARM GAS  /var/folders/yt/6z6x8bjn5sjf5fbb45bk5m4c0000gn/T//ccljikg8.s 			page 33


 1480      5F526973 
 1480      696E6700 
 1481              	.LASF27:
 1482 0175 45585449 		.ascii	"EXTI_Trigger_Rising_Falling\000"
 1482      5F547269 
 1482      67676572 
 1482      5F526973 
 1482      696E675F 
 1483              	.LASF44:
 1484 0191 474E5520 		.ascii	"GNU C 4.9.3 20150529 (release) [ARM/embedded-4_9-br"
 1484      4320342E 
 1484      392E3320 
 1484      32303135 
 1484      30353239 
 1485 01c4 616E6368 		.ascii	"anch revision 227977] -mcpu=cortex-m3 -mthumb -gdwa"
 1485      20726576 
 1485      6973696F 
 1485      6E203232 
 1485      37393737 
 1486 01f7 72662D32 		.ascii	"rf-2 -Os -fomit-frame-pointer\000"
 1486      202D4F73 
 1486      202D666F 
 1486      6D69742D 
 1486      6672616D 
 1487              	.LASF8:
 1488 0215 756E7369 		.ascii	"unsigned int\000"
 1488      676E6564 
 1488      20696E74 
 1488      00
 1489              	.LASF34:
 1490 0222 45585449 		.ascii	"EXTI_Init\000"
 1490      5F496E69 
 1490      7400
 1491              	.LASF40:
 1492 022c 45585449 		.ascii	"EXTI_GetFlagStatus\000"
 1492      5F476574 
 1492      466C6167 
 1492      53746174 
 1492      757300
 1493              	.LASF7:
 1494 023f 6C6F6E67 		.ascii	"long long unsigned int\000"
 1494      206C6F6E 
 1494      6720756E 
 1494      7369676E 
 1494      65642069 
 1495              	.LASF45:
 1496 0256 4C696272 		.ascii	"Libraries/STM32F10x_StdPeriph_Driver/src/stm32f10x_"
 1496      61726965 
 1496      732F5354 
 1496      4D333246 
 1496      3130785F 
 1497 0289 65787469 		.ascii	"exti.c\000"
 1497      2E6300
 1498              	.LASF0:
 1499 0290 7369676E 		.ascii	"signed char\000"
 1499      65642063 
 1499      68617200 
ARM GAS  /var/folders/yt/6z6x8bjn5sjf5fbb45bk5m4c0000gn/T//ccljikg8.s 			page 34


 1500              	.LASF26:
 1501 029c 45585449 		.ascii	"EXTI_Trigger_Falling\000"
 1501      5F547269 
 1501      67676572 
 1501      5F46616C 
 1501      6C696E67 
 1502              	.LASF11:
 1503 02b1 73697A65 		.ascii	"sizetype\000"
 1503      74797065 
 1503      00
 1504              	.LASF6:
 1505 02ba 6C6F6E67 		.ascii	"long long int\000"
 1505      206C6F6E 
 1505      6720696E 
 1505      7400
 1506              	.LASF41:
 1507 02c8 45585449 		.ascii	"EXTI_GetITStatus\000"
 1507      5F476574 
 1507      49545374 
 1507      61747573 
 1507      00
 1508              	.LASF43:
 1509 02d9 45585449 		.ascii	"EXTI_ClearITPendingBit\000"
 1509      5F436C65 
 1509      61724954 
 1509      50656E64 
 1509      696E6742 
 1510              	.LASF2:
 1511 02f0 73686F72 		.ascii	"short int\000"
 1511      7420696E 
 1511      7400
 1512              	.LASF10:
 1513 02fa 75696E74 		.ascii	"uint32_t\000"
 1513      33325F74 
 1513      00
 1514              	.LASF4:
 1515 0303 6C6F6E67 		.ascii	"long int\000"
 1515      20696E74 
 1515      00
 1516              	.LASF15:
 1517 030c 44495341 		.ascii	"DISABLE\000"
 1517      424C4500 
 1518              	.LASF46:
 1519 0314 2F557365 		.ascii	"/Users/ingamedeo/Downloads/STM32F103RBT6FreeRTOS\000"
 1519      72732F69 
 1519      6E67616D 
 1519      6564656F 
 1519      2F446F77 
 1520              	.LASF28:
 1521 0345 45585449 		.ascii	"EXTITrigger_TypeDef\000"
 1521      54726967 
 1521      6765725F 
 1521      54797065 
 1521      44656600 
 1522              	.LASF20:
 1523 0359 53574945 		.ascii	"SWIER\000"
 1523      5200
ARM GAS  /var/folders/yt/6z6x8bjn5sjf5fbb45bk5m4c0000gn/T//ccljikg8.s 			page 35


 1524              	.LASF47:
 1525 035f 45585449 		.ascii	"EXTI_DeInit\000"
 1525      5F446549 
 1525      6E697400 
 1526              	.LASF19:
 1527 036b 46545352 		.ascii	"FTSR\000"
 1527      00
 1528              		.ident	"GCC: (GNU Tools for ARM Embedded Processors) 4.9.3 20150529 (release) [ARM/embedded-4_9-br
ARM GAS  /var/folders/yt/6z6x8bjn5sjf5fbb45bk5m4c0000gn/T//ccljikg8.s 			page 36


DEFINED SYMBOLS
                            *ABS*:0000000000000000 stm32f10x_exti.c
/var/folders/yt/6z6x8bjn5sjf5fbb45bk5m4c0000gn/T//ccljikg8.s:77     .text:0000000000000000 $t
/var/folders/yt/6z6x8bjn5sjf5fbb45bk5m4c0000gn/T//ccljikg8.s:82     .text:0000000000000000 EXTI_DeInit
/var/folders/yt/6z6x8bjn5sjf5fbb45bk5m4c0000gn/T//ccljikg8.s:107    .text:0000000000000014 $d
/var/folders/yt/6z6x8bjn5sjf5fbb45bk5m4c0000gn/T//ccljikg8.s:112    .text:000000000000001c $t
/var/folders/yt/6z6x8bjn5sjf5fbb45bk5m4c0000gn/T//ccljikg8.s:117    .text:000000000000001c EXTI_Init
/var/folders/yt/6z6x8bjn5sjf5fbb45bk5m4c0000gn/T//ccljikg8.s:213    .text:0000000000000090 $d
/var/folders/yt/6z6x8bjn5sjf5fbb45bk5m4c0000gn/T//ccljikg8.s:217    .text:0000000000000094 $t
/var/folders/yt/6z6x8bjn5sjf5fbb45bk5m4c0000gn/T//ccljikg8.s:222    .text:0000000000000094 EXTI_StructInit
/var/folders/yt/6z6x8bjn5sjf5fbb45bk5m4c0000gn/T//ccljikg8.s:251    .text:00000000000000a2 EXTI_GenerateSWInterrupt
/var/folders/yt/6z6x8bjn5sjf5fbb45bk5m4c0000gn/T//ccljikg8.s:269    .text:00000000000000ac $d
/var/folders/yt/6z6x8bjn5sjf5fbb45bk5m4c0000gn/T//ccljikg8.s:273    .text:00000000000000b0 $t
/var/folders/yt/6z6x8bjn5sjf5fbb45bk5m4c0000gn/T//ccljikg8.s:278    .text:00000000000000b0 EXTI_GetFlagStatus
/var/folders/yt/6z6x8bjn5sjf5fbb45bk5m4c0000gn/T//ccljikg8.s:300    .text:00000000000000c0 $d
/var/folders/yt/6z6x8bjn5sjf5fbb45bk5m4c0000gn/T//ccljikg8.s:304    .text:00000000000000c4 $t
/var/folders/yt/6z6x8bjn5sjf5fbb45bk5m4c0000gn/T//ccljikg8.s:309    .text:00000000000000c4 EXTI_ClearFlag
/var/folders/yt/6z6x8bjn5sjf5fbb45bk5m4c0000gn/T//ccljikg8.s:324    .text:00000000000000cc $d
/var/folders/yt/6z6x8bjn5sjf5fbb45bk5m4c0000gn/T//ccljikg8.s:328    .text:00000000000000d0 $t
/var/folders/yt/6z6x8bjn5sjf5fbb45bk5m4c0000gn/T//ccljikg8.s:333    .text:00000000000000d0 EXTI_GetITStatus
/var/folders/yt/6z6x8bjn5sjf5fbb45bk5m4c0000gn/T//ccljikg8.s:367    .text:00000000000000e8 $d
/var/folders/yt/6z6x8bjn5sjf5fbb45bk5m4c0000gn/T//ccljikg8.s:371    .text:00000000000000ec $t
/var/folders/yt/6z6x8bjn5sjf5fbb45bk5m4c0000gn/T//ccljikg8.s:376    .text:00000000000000ec EXTI_ClearITPendingBit
/var/folders/yt/6z6x8bjn5sjf5fbb45bk5m4c0000gn/T//ccljikg8.s:391    .text:00000000000000f4 $d
                     .debug_frame:0000000000000010 $d

NO UNDEFINED SYMBOLS
