ARM GAS  /var/folders/yt/6z6x8bjn5sjf5fbb45bk5m4c0000gn/T//ccljikg8.s 			page 1


   1              		.syntax unified
   2              		.cpu cortex-m3
   3              		.fpu softvfp
   4              		.eabi_attribute 20, 1	@ Tag_ABI_FP_denormal
   5              		.eabi_attribute 21, 1	@ Tag_ABI_FP_exceptions
   6              		.eabi_attribute 23, 3	@ Tag_ABI_FP_number_model
   7              		.eabi_attribute 24, 1	@ Tag_ABI_align8_needed
   8              		.eabi_attribute 25, 1	@ Tag_ABI_align8_preserved
   9              		.eabi_attribute 26, 1	@ Tag_ABI_enum_size
  10              		.eabi_attribute 30, 4	@ Tag_ABI_optimization_goals
  11              		.eabi_attribute 34, 1	@ Tag_CPU_unaligned_access
  12              		.eabi_attribute 18, 4	@ Tag_ABI_PCS_wchar_t
  13              		.file	"stm32f10x_exti.c"
  14              	@ GNU C (GNU Tools for ARM Embedded Processors) version 4.9.3 20150529 (release) [ARM/embedded-4_9-
  15              	@	compiled by GNU C version 4.2.1 (Based on Apple Inc. build 5658) (LLVM build 2336.9.00), GMP vers
  16              	@ GGC heuristics: --param ggc-min-expand=100 --param ggc-min-heapsize=131072
  17              	@ options passed:  -I . -I ./Libraries/CMSIS/CM3/CoreSupport
  18              	@ -I ./Libraries/CMSIS/CM3/DeviceSupport/ST/STM32F10x
  19              	@ -I ./Libraries/STM32F10x_StdPeriph_Driver/inc -I ./Libraries/Drivers/Leds
  20              	@ -I ./Libraries/Drivers/Buttons -I ./Libraries/Drivers/Usart
  21              	@ -I ./Libraries/Drivers/i2c -I ./Libraries/Drivers/BH1750
  22              	@ -I ./Libraries/Drivers/Utilities -I ./FreeRTOS/Source/include
  23              	@ -I ./FreeRTOS/Source/portable/GCC/ARM_CM3 -imultilib armv7-m
  24              	@ -iprefix /usr/local/Cellar/arm-none-eabi-gcc/20150921/bin/../lib/gcc/arm-none-eabi/4.9.3/
  25              	@ -isysroot /usr/local/Cellar/arm-none-eabi-gcc/20150921/bin/../arm-none-eabi
  26              	@ -MD Libraries/STM32F10x_StdPeriph_Driver/src/stm32f10x_exti.d
  27              	@ -MF .dep/stm32f10x_exti.o.d -MP
  28              	@ -MQ Libraries/STM32F10x_StdPeriph_Driver/src/stm32f10x_exti.o
  29              	@ -D__USES_INITFINI__ -D STM32F10X_MD -D USE_STDPERIPH_DRIVER -D GCC_ARMCM3
  30              	@ -D RUN_FROM_FLASH=1
  31              	@ Libraries/STM32F10x_StdPeriph_Driver/src/stm32f10x_exti.c -mcpu=cortex-m3
  32              	@ -mthumb
  33              	@ -auxbase-strip Libraries/STM32F10x_StdPeriph_Driver/src/stm32f10x_exti.o
  34              	@ -gdwarf-2 -Os -Wall -Wstrict-prototypes -fomit-frame-pointer
  35              	@ -fverbose-asm
  36              	@ options enabled:  -faggressive-loop-optimizations -fauto-inc-dec
  37              	@ -fbranch-count-reg -fcaller-saves -fcombine-stack-adjustments -fcommon
  38              	@ -fcompare-elim -fcprop-registers -fcrossjumping -fcse-follow-jumps
  39              	@ -fdefer-pop -fdelete-null-pointer-checks -fdevirtualize
  40              	@ -fdevirtualize-speculatively -fdwarf2-cfi-asm -fearly-inlining
  41              	@ -feliminate-unused-debug-types -fexpensive-optimizations
  42              	@ -fforward-propagate -ffunction-cse -fgcse -fgcse-lm -fgnu-runtime
  43              	@ -fgnu-unique -fguess-branch-probability -fhoist-adjacent-loads -fident
  44              	@ -fif-conversion -fif-conversion2 -findirect-inlining -finline
  45              	@ -finline-atomics -finline-functions -finline-functions-called-once
  46              	@ -finline-small-functions -fipa-cp -fipa-profile -fipa-pure-const
  47              	@ -fipa-reference -fipa-sra -fira-hoist-pressure -fira-share-save-slots
  48              	@ -fira-share-spill-slots -fisolate-erroneous-paths-dereference -fivopts
  49              	@ -fkeep-static-consts -fleading-underscore -flifetime-dse -fmath-errno
  50              	@ -fmerge-constants -fmerge-debug-strings -fomit-frame-pointer
  51              	@ -foptimize-sibling-calls -fpartial-inlining -fpeephole -fpeephole2
  52              	@ -fprefetch-loop-arrays -freg-struct-return -freorder-blocks
  53              	@ -freorder-functions -frerun-cse-after-loop
  54              	@ -fsched-critical-path-heuristic -fsched-dep-count-heuristic
  55              	@ -fsched-group-heuristic -fsched-interblock -fsched-last-insn-heuristic
  56              	@ -fsched-pressure -fsched-rank-heuristic -fsched-spec
  57              	@ -fsched-spec-insn-heuristic -fsched-stalled-insns-dep -fschedule-insns2
ARM GAS  /var/folders/yt/6z6x8bjn5sjf5fbb45bk5m4c0000gn/T//ccljikg8.s 			page 2


  58              	@ -fsection-anchors -fshow-column -fsigned-zeros -fsplit-ivs-in-unroller
  59              	@ -fsplit-wide-types -fstrict-aliasing -fstrict-overflow
  60              	@ -fstrict-volatile-bitfields -fsync-libcalls -fthread-jumps
  61              	@ -ftoplevel-reorder -ftrapping-math -ftree-bit-ccp -ftree-builtin-call-dce
  62              	@ -ftree-ccp -ftree-ch -ftree-coalesce-vars -ftree-copy-prop
  63              	@ -ftree-copyrename -ftree-cselim -ftree-dce -ftree-dominator-opts
  64              	@ -ftree-dse -ftree-forwprop -ftree-fre -ftree-loop-if-convert
  65              	@ -ftree-loop-im -ftree-loop-ivcanon -ftree-loop-optimize
  66              	@ -ftree-parallelize-loops= -ftree-phiprop -ftree-pre -ftree-pta
  67              	@ -ftree-reassoc -ftree-scev-cprop -ftree-sink -ftree-slsr -ftree-sra
  68              	@ -ftree-switch-conversion -ftree-tail-merge -ftree-ter -ftree-vrp
  69              	@ -funit-at-a-time -fvar-tracking -fvar-tracking-assignments -fverbose-asm
  70              	@ -fzero-initialized-in-bss -mfix-cortex-m3-ldrd -mlittle-endian -mlra
  71              	@ -mpic-data-is-text-relative -msched-prolog -mthumb -munaligned-access
  72              	@ -mvectorize-with-neon-quad
  73              	
  74              		.text
  75              	.Ltext0:
  76              		.cfi_sections	.debug_frame
  77              		.align	1
  78              		.global	EXTI_DeInit
  79              		.thumb
  80              		.thumb_func
  81              		.type	EXTI_DeInit, %function
  82              	EXTI_DeInit:
  83              	.LFB29:
  84              		.file 1 "Libraries/STM32F10x_StdPeriph_Driver/src/stm32f10x_exti.c"
   1:Libraries/STM32F10x_StdPeriph_Driver/src/stm32f10x_exti.c **** /**
   2:Libraries/STM32F10x_StdPeriph_Driver/src/stm32f10x_exti.c ****   ******************************************************************************
   3:Libraries/STM32F10x_StdPeriph_Driver/src/stm32f10x_exti.c ****   * @file    stm32f10x_exti.c
   4:Libraries/STM32F10x_StdPeriph_Driver/src/stm32f10x_exti.c ****   * @author  MCD Application Team
   5:Libraries/STM32F10x_StdPeriph_Driver/src/stm32f10x_exti.c ****   * @version V3.5.0
   6:Libraries/STM32F10x_StdPeriph_Driver/src/stm32f10x_exti.c ****   * @date    11-March-2011
   7:Libraries/STM32F10x_StdPeriph_Driver/src/stm32f10x_exti.c ****   * @brief   This file provides all the EXTI firmware functions.
   8:Libraries/STM32F10x_StdPeriph_Driver/src/stm32f10x_exti.c ****   ******************************************************************************
   9:Libraries/STM32F10x_StdPeriph_Driver/src/stm32f10x_exti.c ****   * @attention
  10:Libraries/STM32F10x_StdPeriph_Driver/src/stm32f10x_exti.c ****   *
  11:Libraries/STM32F10x_StdPeriph_Driver/src/stm32f10x_exti.c ****   * THE PRESENT FIRMWARE WHICH IS FOR GUIDANCE ONLY AIMS AT PROVIDING CUSTOMERS
  12:Libraries/STM32F10x_StdPeriph_Driver/src/stm32f10x_exti.c ****   * WITH CODING INFORMATION REGARDING THEIR PRODUCTS IN ORDER FOR THEM TO SAVE
  13:Libraries/STM32F10x_StdPeriph_Driver/src/stm32f10x_exti.c ****   * TIME. AS A RESULT, STMICROELECTRONICS SHALL NOT BE HELD LIABLE FOR ANY
  14:Libraries/STM32F10x_StdPeriph_Driver/src/stm32f10x_exti.c ****   * DIRECT, INDIRECT OR CONSEQUENTIAL DAMAGES WITH RESPECT TO ANY CLAIMS ARISING
  15:Libraries/STM32F10x_StdPeriph_Driver/src/stm32f10x_exti.c ****   * FROM THE CONTENT OF SUCH FIRMWARE AND/OR THE USE MADE BY CUSTOMERS OF THE
  16:Libraries/STM32F10x_StdPeriph_Driver/src/stm32f10x_exti.c ****   * CODING INFORMATION CONTAINED HEREIN IN CONNECTION WITH THEIR PRODUCTS.
  17:Libraries/STM32F10x_StdPeriph_Driver/src/stm32f10x_exti.c ****   *
  18:Libraries/STM32F10x_StdPeriph_Driver/src/stm32f10x_exti.c ****   * <h2><center>&copy; COPYRIGHT 2011 STMicroelectronics</center></h2>
  19:Libraries/STM32F10x_StdPeriph_Driver/src/stm32f10x_exti.c ****   ******************************************************************************
  20:Libraries/STM32F10x_StdPeriph_Driver/src/stm32f10x_exti.c ****   */
  21:Libraries/STM32F10x_StdPeriph_Driver/src/stm32f10x_exti.c **** 
  22:Libraries/STM32F10x_StdPeriph_Driver/src/stm32f10x_exti.c **** /* Includes ------------------------------------------------------------------*/
  23:Libraries/STM32F10x_StdPeriph_Driver/src/stm32f10x_exti.c **** #include "stm32f10x_exti.h"
  24:Libraries/STM32F10x_StdPeriph_Driver/src/stm32f10x_exti.c **** 
  25:Libraries/STM32F10x_StdPeriph_Driver/src/stm32f10x_exti.c **** /** @addtogroup STM32F10x_StdPeriph_Driver
  26:Libraries/STM32F10x_StdPeriph_Driver/src/stm32f10x_exti.c ****   * @{
  27:Libraries/STM32F10x_StdPeriph_Driver/src/stm32f10x_exti.c ****   */
  28:Libraries/STM32F10x_StdPeriph_Driver/src/stm32f10x_exti.c **** 
  29:Libraries/STM32F10x_StdPeriph_Driver/src/stm32f10x_exti.c **** /** @defgroup EXTI 
  30:Libraries/STM32F10x_StdPeriph_Driver/src/stm32f10x_exti.c ****   * @brief EXTI driver modules
ARM GAS  /var/folders/yt/6z6x8bjn5sjf5fbb45bk5m4c0000gn/T//ccljikg8.s 			page 3


  31:Libraries/STM32F10x_StdPeriph_Driver/src/stm32f10x_exti.c ****   * @{
  32:Libraries/STM32F10x_StdPeriph_Driver/src/stm32f10x_exti.c ****   */
  33:Libraries/STM32F10x_StdPeriph_Driver/src/stm32f10x_exti.c **** 
  34:Libraries/STM32F10x_StdPeriph_Driver/src/stm32f10x_exti.c **** /** @defgroup EXTI_Private_TypesDefinitions
  35:Libraries/STM32F10x_StdPeriph_Driver/src/stm32f10x_exti.c ****   * @{
  36:Libraries/STM32F10x_StdPeriph_Driver/src/stm32f10x_exti.c ****   */
  37:Libraries/STM32F10x_StdPeriph_Driver/src/stm32f10x_exti.c **** 
  38:Libraries/STM32F10x_StdPeriph_Driver/src/stm32f10x_exti.c **** /**
  39:Libraries/STM32F10x_StdPeriph_Driver/src/stm32f10x_exti.c ****   * @}
  40:Libraries/STM32F10x_StdPeriph_Driver/src/stm32f10x_exti.c ****   */
  41:Libraries/STM32F10x_StdPeriph_Driver/src/stm32f10x_exti.c **** 
  42:Libraries/STM32F10x_StdPeriph_Driver/src/stm32f10x_exti.c **** /** @defgroup EXTI_Private_Defines
  43:Libraries/STM32F10x_StdPeriph_Driver/src/stm32f10x_exti.c ****   * @{
  44:Libraries/STM32F10x_StdPeriph_Driver/src/stm32f10x_exti.c ****   */
  45:Libraries/STM32F10x_StdPeriph_Driver/src/stm32f10x_exti.c **** 
  46:Libraries/STM32F10x_StdPeriph_Driver/src/stm32f10x_exti.c **** #define EXTI_LINENONE    ((uint32_t)0x00000)  /* No interrupt selected */
  47:Libraries/STM32F10x_StdPeriph_Driver/src/stm32f10x_exti.c **** 
  48:Libraries/STM32F10x_StdPeriph_Driver/src/stm32f10x_exti.c **** /**
  49:Libraries/STM32F10x_StdPeriph_Driver/src/stm32f10x_exti.c ****   * @}
  50:Libraries/STM32F10x_StdPeriph_Driver/src/stm32f10x_exti.c ****   */
  51:Libraries/STM32F10x_StdPeriph_Driver/src/stm32f10x_exti.c **** 
  52:Libraries/STM32F10x_StdPeriph_Driver/src/stm32f10x_exti.c **** /** @defgroup EXTI_Private_Macros
  53:Libraries/STM32F10x_StdPeriph_Driver/src/stm32f10x_exti.c ****   * @{
  54:Libraries/STM32F10x_StdPeriph_Driver/src/stm32f10x_exti.c ****   */
  55:Libraries/STM32F10x_StdPeriph_Driver/src/stm32f10x_exti.c **** 
  56:Libraries/STM32F10x_StdPeriph_Driver/src/stm32f10x_exti.c **** /**
  57:Libraries/STM32F10x_StdPeriph_Driver/src/stm32f10x_exti.c ****   * @}
  58:Libraries/STM32F10x_StdPeriph_Driver/src/stm32f10x_exti.c ****   */
  59:Libraries/STM32F10x_StdPeriph_Driver/src/stm32f10x_exti.c **** 
  60:Libraries/STM32F10x_StdPeriph_Driver/src/stm32f10x_exti.c **** /** @defgroup EXTI_Private_Variables
  61:Libraries/STM32F10x_StdPeriph_Driver/src/stm32f10x_exti.c ****   * @{
  62:Libraries/STM32F10x_StdPeriph_Driver/src/stm32f10x_exti.c ****   */
  63:Libraries/STM32F10x_StdPeriph_Driver/src/stm32f10x_exti.c **** 
  64:Libraries/STM32F10x_StdPeriph_Driver/src/stm32f10x_exti.c **** /**
  65:Libraries/STM32F10x_StdPeriph_Driver/src/stm32f10x_exti.c ****   * @}
  66:Libraries/STM32F10x_StdPeriph_Driver/src/stm32f10x_exti.c ****   */
  67:Libraries/STM32F10x_StdPeriph_Driver/src/stm32f10x_exti.c **** 
  68:Libraries/STM32F10x_StdPeriph_Driver/src/stm32f10x_exti.c **** /** @defgroup EXTI_Private_FunctionPrototypes
  69:Libraries/STM32F10x_StdPeriph_Driver/src/stm32f10x_exti.c ****   * @{
  70:Libraries/STM32F10x_StdPeriph_Driver/src/stm32f10x_exti.c ****   */
  71:Libraries/STM32F10x_StdPeriph_Driver/src/stm32f10x_exti.c **** 
  72:Libraries/STM32F10x_StdPeriph_Driver/src/stm32f10x_exti.c **** /**
  73:Libraries/STM32F10x_StdPeriph_Driver/src/stm32f10x_exti.c ****   * @}
  74:Libraries/STM32F10x_StdPeriph_Driver/src/stm32f10x_exti.c ****   */
  75:Libraries/STM32F10x_StdPeriph_Driver/src/stm32f10x_exti.c **** 
  76:Libraries/STM32F10x_StdPeriph_Driver/src/stm32f10x_exti.c **** /** @defgroup EXTI_Private_Functions
  77:Libraries/STM32F10x_StdPeriph_Driver/src/stm32f10x_exti.c ****   * @{
  78:Libraries/STM32F10x_StdPeriph_Driver/src/stm32f10x_exti.c ****   */
  79:Libraries/STM32F10x_StdPeriph_Driver/src/stm32f10x_exti.c **** 
  80:Libraries/STM32F10x_StdPeriph_Driver/src/stm32f10x_exti.c **** /**
  81:Libraries/STM32F10x_StdPeriph_Driver/src/stm32f10x_exti.c ****   * @brief  Deinitializes the EXTI peripheral registers to their default reset values.
  82:Libraries/STM32F10x_StdPeriph_Driver/src/stm32f10x_exti.c ****   * @param  None
  83:Libraries/STM32F10x_StdPeriph_Driver/src/stm32f10x_exti.c ****   * @retval None
  84:Libraries/STM32F10x_StdPeriph_Driver/src/stm32f10x_exti.c ****   */
  85:Libraries/STM32F10x_StdPeriph_Driver/src/stm32f10x_exti.c **** void EXTI_DeInit(void)
  86:Libraries/STM32F10x_StdPeriph_Driver/src/stm32f10x_exti.c **** {
  85              		.loc 1 86 0
ARM GAS  /var/folders/yt/6z6x8bjn5sjf5fbb45bk5m4c0000gn/T//ccljikg8.s 			page 4


  86              		.cfi_startproc
  87              		@ args = 0, pretend = 0, frame = 0
  88              		@ frame_needed = 0, uses_anonymous_args = 0
  89              		@ link register save eliminated.
  87:Libraries/STM32F10x_StdPeriph_Driver/src/stm32f10x_exti.c ****   EXTI->IMR = 0x00000000;
  90              		.loc 1 87 0
  91 0000 044B     		ldr	r3, .L2	@ tmp110,
  92 0002 0022     		movs	r2, #0	@ tmp111,
  93 0004 1A60     		str	r2, [r3]	@ tmp111, MEM[(struct EXTI_TypeDef *)1073808384B].IMR
  88:Libraries/STM32F10x_StdPeriph_Driver/src/stm32f10x_exti.c ****   EXTI->EMR = 0x00000000;
  94              		.loc 1 88 0
  95 0006 5A60     		str	r2, [r3, #4]	@ tmp111, MEM[(struct EXTI_TypeDef *)1073808384B].EMR
  89:Libraries/STM32F10x_StdPeriph_Driver/src/stm32f10x_exti.c ****   EXTI->RTSR = 0x00000000; 
  96              		.loc 1 89 0
  97 0008 9A60     		str	r2, [r3, #8]	@ tmp111, MEM[(struct EXTI_TypeDef *)1073808384B].RTSR
  90:Libraries/STM32F10x_StdPeriph_Driver/src/stm32f10x_exti.c ****   EXTI->FTSR = 0x00000000; 
  98              		.loc 1 90 0
  99 000a DA60     		str	r2, [r3, #12]	@ tmp111, MEM[(struct EXTI_TypeDef *)1073808384B].FTSR
  91:Libraries/STM32F10x_StdPeriph_Driver/src/stm32f10x_exti.c ****   EXTI->PR = 0x000FFFFF;
 100              		.loc 1 91 0
 101 000c 024A     		ldr	r2, .L2+4	@ tmp119,
 102 000e 5A61     		str	r2, [r3, #20]	@ tmp119, MEM[(struct EXTI_TypeDef *)1073808384B].PR
 103 0010 7047     		bx	lr	@
 104              	.L3:
 105 0012 00BF     		.align	2
 106              	.L2:
 107 0014 00040140 		.word	1073808384
 108 0018 FFFF0F00 		.word	1048575
 109              		.cfi_endproc
 110              	.LFE29:
 111              		.size	EXTI_DeInit, .-EXTI_DeInit
 112              		.align	1
 113              		.global	EXTI_Init
 114              		.thumb
 115              		.thumb_func
 116              		.type	EXTI_Init, %function
 117              	EXTI_Init:
 118              	.LFB30:
  92:Libraries/STM32F10x_StdPeriph_Driver/src/stm32f10x_exti.c **** }
  93:Libraries/STM32F10x_StdPeriph_Driver/src/stm32f10x_exti.c **** 
  94:Libraries/STM32F10x_StdPeriph_Driver/src/stm32f10x_exti.c **** /**
  95:Libraries/STM32F10x_StdPeriph_Driver/src/stm32f10x_exti.c ****   * @brief  Initializes the EXTI peripheral according to the specified
  96:Libraries/STM32F10x_StdPeriph_Driver/src/stm32f10x_exti.c ****   *         parameters in the EXTI_InitStruct.
  97:Libraries/STM32F10x_StdPeriph_Driver/src/stm32f10x_exti.c ****   * @param  EXTI_InitStruct: pointer to a EXTI_InitTypeDef structure
  98:Libraries/STM32F10x_StdPeriph_Driver/src/stm32f10x_exti.c ****   *         that contains the configuration information for the EXTI peripheral.
  99:Libraries/STM32F10x_StdPeriph_Driver/src/stm32f10x_exti.c ****   * @retval None
 100:Libraries/STM32F10x_StdPeriph_Driver/src/stm32f10x_exti.c ****   */
 101:Libraries/STM32F10x_StdPeriph_Driver/src/stm32f10x_exti.c **** void EXTI_Init(EXTI_InitTypeDef* EXTI_InitStruct)
 102:Libraries/STM32F10x_StdPeriph_Driver/src/stm32f10x_exti.c **** {
 119              		.loc 1 102 0
 120              		.cfi_startproc
 121              		@ args = 0, pretend = 0, frame = 0
 122              		@ frame_needed = 0, uses_anonymous_args = 0
 123              	.LVL0:
 103:Libraries/STM32F10x_StdPeriph_Driver/src/stm32f10x_exti.c ****   uint32_t tmp = 0;
 104:Libraries/STM32F10x_StdPeriph_Driver/src/stm32f10x_exti.c **** 
 105:Libraries/STM32F10x_StdPeriph_Driver/src/stm32f10x_exti.c ****   /* Check the parameters */
ARM GAS  /var/folders/yt/6z6x8bjn5sjf5fbb45bk5m4c0000gn/T//ccljikg8.s 			page 5


 106:Libraries/STM32F10x_StdPeriph_Driver/src/stm32f10x_exti.c ****   assert_param(IS_EXTI_MODE(EXTI_InitStruct->EXTI_Mode));
 107:Libraries/STM32F10x_StdPeriph_Driver/src/stm32f10x_exti.c ****   assert_param(IS_EXTI_TRIGGER(EXTI_InitStruct->EXTI_Trigger));
 108:Libraries/STM32F10x_StdPeriph_Driver/src/stm32f10x_exti.c ****   assert_param(IS_EXTI_LINE(EXTI_InitStruct->EXTI_Line));  
 109:Libraries/STM32F10x_StdPeriph_Driver/src/stm32f10x_exti.c ****   assert_param(IS_FUNCTIONAL_STATE(EXTI_InitStruct->EXTI_LineCmd));
 110:Libraries/STM32F10x_StdPeriph_Driver/src/stm32f10x_exti.c **** 
 111:Libraries/STM32F10x_StdPeriph_Driver/src/stm32f10x_exti.c ****   tmp = (uint32_t)EXTI_BASE;
 112:Libraries/STM32F10x_StdPeriph_Driver/src/stm32f10x_exti.c ****      
 113:Libraries/STM32F10x_StdPeriph_Driver/src/stm32f10x_exti.c ****   if (EXTI_InitStruct->EXTI_LineCmd != DISABLE)
 124              		.loc 1 113 0
 125 001c 8279     		ldrb	r2, [r0, #6]	@ zero_extendqisi2	@ EXTI_InitStruct_3(D)->EXTI_LineCmd, EXTI_InitStruct_3(D)->E
 102:Libraries/STM32F10x_StdPeriph_Driver/src/stm32f10x_exti.c ****   uint32_t tmp = 0;
 126              		.loc 1 102 0
 127 001e 70B5     		push	{r4, r5, r6, lr}	@
 128              	.LCFI0:
 129              		.cfi_def_cfa_offset 16
 130              		.cfi_offset 4, -16
 131              		.cfi_offset 5, -12
 132              		.cfi_offset 6, -8
 133              		.cfi_offset 14, -4
 134 0020 0168     		ldr	r1, [r0]	@ EXTI_InitStruct_3(D)->EXTI_Line, EXTI_InitStruct_3(D)->EXTI_Line
 135 0022 0379     		ldrb	r3, [r0, #4]	@ zero_extendqisi2	@ D.5572, EXTI_InitStruct_3(D)->EXTI_Mode
 136              		.loc 1 113 0
 137 0024 002A     		cmp	r2, #0	@ EXTI_InitStruct_3(D)->EXTI_LineCmd
 138 0026 29D0     		beq	.L5	@
 114:Libraries/STM32F10x_StdPeriph_Driver/src/stm32f10x_exti.c ****   {
 115:Libraries/STM32F10x_StdPeriph_Driver/src/stm32f10x_exti.c ****     /* Clear EXTI line configuration */
 116:Libraries/STM32F10x_StdPeriph_Driver/src/stm32f10x_exti.c ****     EXTI->IMR &= ~EXTI_InitStruct->EXTI_Line;
 139              		.loc 1 116 0
 140 0028 CE43     		mvns	r6, r1	@ D.5572, EXTI_InitStruct_3(D)->EXTI_Line
 141 002a 194A     		ldr	r2, .L9	@ tmp149,
 117:Libraries/STM32F10x_StdPeriph_Driver/src/stm32f10x_exti.c ****     EXTI->EMR &= ~EXTI_InitStruct->EXTI_Line;
 118:Libraries/STM32F10x_StdPeriph_Driver/src/stm32f10x_exti.c ****     
 119:Libraries/STM32F10x_StdPeriph_Driver/src/stm32f10x_exti.c ****     tmp += EXTI_InitStruct->EXTI_Mode;
 142              		.loc 1 119 0
 143 002c 03F18043 		add	r3, r3, #1073741824	@ D.5574, D.5572,
 116:Libraries/STM32F10x_StdPeriph_Driver/src/stm32f10x_exti.c ****     EXTI->EMR &= ~EXTI_InitStruct->EXTI_Line;
 144              		.loc 1 116 0
 145 0030 1568     		ldr	r5, [r2]	@ D.5572, MEM[(struct EXTI_TypeDef *)1073808384B].IMR
 146              		.loc 1 119 0
 147 0032 03F58233 		add	r3, r3, #66560	@ D.5574, D.5574,
 116:Libraries/STM32F10x_StdPeriph_Driver/src/stm32f10x_exti.c ****     EXTI->EMR &= ~EXTI_InitStruct->EXTI_Line;
 148              		.loc 1 116 0
 149 0036 3540     		ands	r5, r5, r6	@, D.5572, D.5572, D.5572
 150 0038 1560     		str	r5, [r2]	@ D.5572, MEM[(struct EXTI_TypeDef *)1073808384B].IMR
 117:Libraries/STM32F10x_StdPeriph_Driver/src/stm32f10x_exti.c ****     EXTI->EMR &= ~EXTI_InitStruct->EXTI_Line;
 151              		.loc 1 117 0
 152 003a 5468     		ldr	r4, [r2, #4]	@ D.5572, MEM[(struct EXTI_TypeDef *)1073808384B].EMR
 153 003c 3440     		ands	r4, r4, r6	@, D.5572, D.5572, D.5572
 154 003e 5460     		str	r4, [r2, #4]	@ D.5572, MEM[(struct EXTI_TypeDef *)1073808384B].EMR
 155              	.LVL1:
 120:Libraries/STM32F10x_StdPeriph_Driver/src/stm32f10x_exti.c **** 
 121:Libraries/STM32F10x_StdPeriph_Driver/src/stm32f10x_exti.c ****     *(__IO uint32_t *) tmp |= EXTI_InitStruct->EXTI_Line;
 156              		.loc 1 121 0
 157 0040 1C68     		ldr	r4, [r3]	@ D.5572, *_16
 158 0042 2143     		orrs	r1, r1, r4	@, D.5572, EXTI_InitStruct_3(D)->EXTI_Line, D.5572
 159 0044 1960     		str	r1, [r3]	@ D.5572, *_16
 160              	.LVL2:
ARM GAS  /var/folders/yt/6z6x8bjn5sjf5fbb45bk5m4c0000gn/T//ccljikg8.s 			page 6


 122:Libraries/STM32F10x_StdPeriph_Driver/src/stm32f10x_exti.c **** 
 123:Libraries/STM32F10x_StdPeriph_Driver/src/stm32f10x_exti.c ****     /* Clear Rising Falling edge configuration */
 124:Libraries/STM32F10x_StdPeriph_Driver/src/stm32f10x_exti.c ****     EXTI->RTSR &= ~EXTI_InitStruct->EXTI_Line;
 161              		.loc 1 124 0
 162 0046 0368     		ldr	r3, [r0]	@ D.5572, EXTI_InitStruct_3(D)->EXTI_Line
 163 0048 9468     		ldr	r4, [r2, #8]	@ D.5572, MEM[(struct EXTI_TypeDef *)1073808384B].RTSR
 164 004a DD43     		mvns	r5, r3	@ D.5572, D.5572
 165 004c 2C40     		ands	r4, r4, r5	@, D.5572, D.5572, D.5572
 166 004e 9460     		str	r4, [r2, #8]	@ D.5572, MEM[(struct EXTI_TypeDef *)1073808384B].RTSR
 125:Libraries/STM32F10x_StdPeriph_Driver/src/stm32f10x_exti.c ****     EXTI->FTSR &= ~EXTI_InitStruct->EXTI_Line;
 167              		.loc 1 125 0
 168 0050 D168     		ldr	r1, [r2, #12]	@ D.5572, MEM[(struct EXTI_TypeDef *)1073808384B].FTSR
 169 0052 2940     		ands	r1, r1, r5	@, D.5572, D.5572, D.5572
 170 0054 D160     		str	r1, [r2, #12]	@ D.5572, MEM[(struct EXTI_TypeDef *)1073808384B].FTSR
 126:Libraries/STM32F10x_StdPeriph_Driver/src/stm32f10x_exti.c ****     
 127:Libraries/STM32F10x_StdPeriph_Driver/src/stm32f10x_exti.c ****     /* Select the trigger for the selected external interrupts */
 128:Libraries/STM32F10x_StdPeriph_Driver/src/stm32f10x_exti.c ****     if (EXTI_InitStruct->EXTI_Trigger == EXTI_Trigger_Rising_Falling)
 171              		.loc 1 128 0
 172 0056 4179     		ldrb	r1, [r0, #5]	@ zero_extendqisi2	@ D.5575, EXTI_InitStruct_3(D)->EXTI_Trigger
 173 0058 1029     		cmp	r1, #16	@ D.5575,
 129:Libraries/STM32F10x_StdPeriph_Driver/src/stm32f10x_exti.c ****     {
 130:Libraries/STM32F10x_StdPeriph_Driver/src/stm32f10x_exti.c ****       /* Rising Falling edge */
 131:Libraries/STM32F10x_StdPeriph_Driver/src/stm32f10x_exti.c ****       EXTI->RTSR |= EXTI_InitStruct->EXTI_Line;
 174              		.loc 1 131 0
 175 005a 09BF     		itett	eq
 176 005c 9168     		ldreq	r1, [r2, #8]	@ D.5572, MEM[(struct EXTI_TypeDef *)1073808384B].RTSR
 132:Libraries/STM32F10x_StdPeriph_Driver/src/stm32f10x_exti.c ****       EXTI->FTSR |= EXTI_InitStruct->EXTI_Line;
 133:Libraries/STM32F10x_StdPeriph_Driver/src/stm32f10x_exti.c ****     }
 134:Libraries/STM32F10x_StdPeriph_Driver/src/stm32f10x_exti.c ****     else
 135:Libraries/STM32F10x_StdPeriph_Driver/src/stm32f10x_exti.c ****     {
 136:Libraries/STM32F10x_StdPeriph_Driver/src/stm32f10x_exti.c ****       tmp = (uint32_t)EXTI_BASE;
 137:Libraries/STM32F10x_StdPeriph_Driver/src/stm32f10x_exti.c ****       tmp += EXTI_InitStruct->EXTI_Trigger;
 177              		.loc 1 137 0
 178 005e 01F18042 		addne	r2, r1, #1073741824	@ D.5574, D.5575,
 131:Libraries/STM32F10x_StdPeriph_Driver/src/stm32f10x_exti.c ****       EXTI->FTSR |= EXTI_InitStruct->EXTI_Line;
 179              		.loc 1 131 0
 180 0062 1943     		orreq	r1, r1, r3	@ D.5572, D.5572, D.5572
 181 0064 9160     		streq	r1, [r2, #8]	@ D.5572, MEM[(struct EXTI_TypeDef *)1073808384B].RTSR
 182              		.loc 1 137 0
 183 0066 15BF     		itete	ne
 184 0068 02F58232 		addne	r2, r2, #66560	@ D.5574, D.5574,
 132:Libraries/STM32F10x_StdPeriph_Driver/src/stm32f10x_exti.c ****       EXTI->FTSR |= EXTI_InitStruct->EXTI_Line;
 185              		.loc 1 132 0
 186 006c D168     		ldreq	r1, [r2, #12]	@ D.5572, MEM[(struct EXTI_TypeDef *)1073808384B].FTSR
 138:Libraries/STM32F10x_StdPeriph_Driver/src/stm32f10x_exti.c **** 
 139:Libraries/STM32F10x_StdPeriph_Driver/src/stm32f10x_exti.c ****       *(__IO uint32_t *) tmp |= EXTI_InitStruct->EXTI_Line;
 187              		.loc 1 139 0
 188 006e 1168     		ldrne	r1, [r2]	@ D.5572, *_31
 132:Libraries/STM32F10x_StdPeriph_Driver/src/stm32f10x_exti.c ****     }
 189              		.loc 1 132 0
 190 0070 0B43     		orreq	r3, r3, r1	@ D.5572, D.5572, D.5572
 191              		.loc 1 139 0
 192 0072 16BF     		itet	ne
 193 0074 0B43     		orrne	r3, r3, r1	@ D.5572, D.5572, D.5572
 132:Libraries/STM32F10x_StdPeriph_Driver/src/stm32f10x_exti.c ****     }
 194              		.loc 1 132 0
 195 0076 D360     		streq	r3, [r2, #12]	@ D.5572, MEM[(struct EXTI_TypeDef *)1073808384B].FTSR
ARM GAS  /var/folders/yt/6z6x8bjn5sjf5fbb45bk5m4c0000gn/T//ccljikg8.s 			page 7


 196              		.loc 1 139 0
 197 0078 1360     		strne	r3, [r2]	@ D.5572, *_31
 198 007a 70BD     		pop	{r4, r5, r6, pc}	@
 199              	.LVL3:
 200              	.L5:
 140:Libraries/STM32F10x_StdPeriph_Driver/src/stm32f10x_exti.c ****     }
 141:Libraries/STM32F10x_StdPeriph_Driver/src/stm32f10x_exti.c ****   }
 142:Libraries/STM32F10x_StdPeriph_Driver/src/stm32f10x_exti.c ****   else
 143:Libraries/STM32F10x_StdPeriph_Driver/src/stm32f10x_exti.c ****   {
 144:Libraries/STM32F10x_StdPeriph_Driver/src/stm32f10x_exti.c ****     tmp += EXTI_InitStruct->EXTI_Mode;
 201              		.loc 1 144 0
 202 007c 03F18043 		add	r3, r3, #1073741824	@ D.5574, D.5572,
 203 0080 03F58233 		add	r3, r3, #66560	@ D.5574, D.5574,
 145:Libraries/STM32F10x_StdPeriph_Driver/src/stm32f10x_exti.c **** 
 146:Libraries/STM32F10x_StdPeriph_Driver/src/stm32f10x_exti.c ****     /* Disable the selected external lines */
 147:Libraries/STM32F10x_StdPeriph_Driver/src/stm32f10x_exti.c ****     *(__IO uint32_t *) tmp &= ~EXTI_InitStruct->EXTI_Line;
 204              		.loc 1 147 0
 205 0084 1A68     		ldr	r2, [r3]	@ D.5572, *_44
 206 0086 22EA0101 		bic	r1, r2, r1	@ D.5572, D.5572, EXTI_InitStruct_3(D)->EXTI_Line
 207 008a 1960     		str	r1, [r3]	@ D.5572, *_44
 208              	.LVL4:
 209 008c 70BD     		pop	{r4, r5, r6, pc}	@
 210              	.L10:
 211 008e 00BF     		.align	2
 212              	.L9:
 213 0090 00040140 		.word	1073808384
 214              		.cfi_endproc
 215              	.LFE30:
 216              		.size	EXTI_Init, .-EXTI_Init
 217              		.align	1
 218              		.global	EXTI_StructInit
 219              		.thumb
 220              		.thumb_func
 221              		.type	EXTI_StructInit, %function
 222              	EXTI_StructInit:
 223              	.LFB31:
 148:Libraries/STM32F10x_StdPeriph_Driver/src/stm32f10x_exti.c ****   }
 149:Libraries/STM32F10x_StdPeriph_Driver/src/stm32f10x_exti.c **** }
 150:Libraries/STM32F10x_StdPeriph_Driver/src/stm32f10x_exti.c **** 
 151:Libraries/STM32F10x_StdPeriph_Driver/src/stm32f10x_exti.c **** /**
 152:Libraries/STM32F10x_StdPeriph_Driver/src/stm32f10x_exti.c ****   * @brief  Fills each EXTI_InitStruct member with its reset value.
 153:Libraries/STM32F10x_StdPeriph_Driver/src/stm32f10x_exti.c ****   * @param  EXTI_InitStruct: pointer to a EXTI_InitTypeDef structure which will
 154:Libraries/STM32F10x_StdPeriph_Driver/src/stm32f10x_exti.c ****   *         be initialized.
 155:Libraries/STM32F10x_StdPeriph_Driver/src/stm32f10x_exti.c ****   * @retval None
 156:Libraries/STM32F10x_StdPeriph_Driver/src/stm32f10x_exti.c ****   */
 157:Libraries/STM32F10x_StdPeriph_Driver/src/stm32f10x_exti.c **** void EXTI_StructInit(EXTI_InitTypeDef* EXTI_InitStruct)
 158:Libraries/STM32F10x_StdPeriph_Driver/src/stm32f10x_exti.c **** {
 224              		.loc 1 158 0
 225              		.cfi_startproc
 226              		@ args = 0, pretend = 0, frame = 0
 227              		@ frame_needed = 0, uses_anonymous_args = 0
 228              		@ link register save eliminated.
 229              	.LVL5:
 159:Libraries/STM32F10x_StdPeriph_Driver/src/stm32f10x_exti.c ****   EXTI_InitStruct->EXTI_Line = EXTI_LINENONE;
 230              		.loc 1 159 0
 231 0094 0023     		movs	r3, #0	@ tmp111,
 160:Libraries/STM32F10x_StdPeriph_Driver/src/stm32f10x_exti.c ****   EXTI_InitStruct->EXTI_Mode = EXTI_Mode_Interrupt;
ARM GAS  /var/folders/yt/6z6x8bjn5sjf5fbb45bk5m4c0000gn/T//ccljikg8.s 			page 8


 161:Libraries/STM32F10x_StdPeriph_Driver/src/stm32f10x_exti.c ****   EXTI_InitStruct->EXTI_Trigger = EXTI_Trigger_Falling;
 232              		.loc 1 161 0
 233 0096 0C22     		movs	r2, #12	@ tmp114,
 159:Libraries/STM32F10x_StdPeriph_Driver/src/stm32f10x_exti.c ****   EXTI_InitStruct->EXTI_Line = EXTI_LINENONE;
 234              		.loc 1 159 0
 235 0098 0360     		str	r3, [r0]	@ tmp111, EXTI_InitStruct_2(D)->EXTI_Line
 160:Libraries/STM32F10x_StdPeriph_Driver/src/stm32f10x_exti.c ****   EXTI_InitStruct->EXTI_Mode = EXTI_Mode_Interrupt;
 236              		.loc 1 160 0
 237 009a 0371     		strb	r3, [r0, #4]	@ tmp111, EXTI_InitStruct_2(D)->EXTI_Mode
 238              		.loc 1 161 0
 239 009c 4271     		strb	r2, [r0, #5]	@ tmp114, EXTI_InitStruct_2(D)->EXTI_Trigger
 162:Libraries/STM32F10x_StdPeriph_Driver/src/stm32f10x_exti.c ****   EXTI_InitStruct->EXTI_LineCmd = DISABLE;
 240              		.loc 1 162 0
 241 009e 8371     		strb	r3, [r0, #6]	@ tmp111, EXTI_InitStruct_2(D)->EXTI_LineCmd
 242 00a0 7047     		bx	lr	@
 243              		.cfi_endproc
 244              	.LFE31:
 245              		.size	EXTI_StructInit, .-EXTI_StructInit
 246              		.align	1
 247              		.global	EXTI_GenerateSWInterrupt
 248              		.thumb
 249              		.thumb_func
 250              		.type	EXTI_GenerateSWInterrupt, %function
 251              	EXTI_GenerateSWInterrupt:
 252              	.LFB32:
 163:Libraries/STM32F10x_StdPeriph_Driver/src/stm32f10x_exti.c **** }
 164:Libraries/STM32F10x_StdPeriph_Driver/src/stm32f10x_exti.c **** 
 165:Libraries/STM32F10x_StdPeriph_Driver/src/stm32f10x_exti.c **** /**
 166:Libraries/STM32F10x_StdPeriph_Driver/src/stm32f10x_exti.c ****   * @brief  Generates a Software interrupt.
 167:Libraries/STM32F10x_StdPeriph_Driver/src/stm32f10x_exti.c ****   * @param  EXTI_Line: specifies the EXTI lines to be enabled or disabled.
 168:Libraries/STM32F10x_StdPeriph_Driver/src/stm32f10x_exti.c ****   *   This parameter can be any combination of EXTI_Linex where x can be (0..19).
 169:Libraries/STM32F10x_StdPeriph_Driver/src/stm32f10x_exti.c ****   * @retval None
 170:Libraries/STM32F10x_StdPeriph_Driver/src/stm32f10x_exti.c ****   */
 171:Libraries/STM32F10x_StdPeriph_Driver/src/stm32f10x_exti.c **** void EXTI_GenerateSWInterrupt(uint32_t EXTI_Line)
 172:Libraries/STM32F10x_StdPeriph_Driver/src/stm32f10x_exti.c **** {
 253              		.loc 1 172 0
 254              		.cfi_startproc
 255              		@ args = 0, pretend = 0, frame = 0
 256              		@ frame_needed = 0, uses_anonymous_args = 0
 257              		@ link register save eliminated.
 258              	.LVL6:
 173:Libraries/STM32F10x_StdPeriph_Driver/src/stm32f10x_exti.c ****   /* Check the parameters */
 174:Libraries/STM32F10x_StdPeriph_Driver/src/stm32f10x_exti.c ****   assert_param(IS_EXTI_LINE(EXTI_Line));
 175:Libraries/STM32F10x_StdPeriph_Driver/src/stm32f10x_exti.c ****   
 176:Libraries/STM32F10x_StdPeriph_Driver/src/stm32f10x_exti.c ****   EXTI->SWIER |= EXTI_Line;
 259              		.loc 1 176 0
 260 00a2 024A     		ldr	r2, .L13	@ tmp113,
 261 00a4 1369     		ldr	r3, [r2, #16]	@ D.5580, MEM[(struct EXTI_TypeDef *)1073808384B].SWIER
 262 00a6 1843     		orrs	r0, r0, r3	@, D.5580, EXTI_Line, D.5580
 263              	.LVL7:
 264 00a8 1061     		str	r0, [r2, #16]	@ D.5580, MEM[(struct EXTI_TypeDef *)1073808384B].SWIER
 265 00aa 7047     		bx	lr	@
 266              	.L14:
 267              		.align	2
 268              	.L13:
 269 00ac 00040140 		.word	1073808384
 270              		.cfi_endproc
ARM GAS  /var/folders/yt/6z6x8bjn5sjf5fbb45bk5m4c0000gn/T//ccljikg8.s 			page 9


 271              	.LFE32:
 272              		.size	EXTI_GenerateSWInterrupt, .-EXTI_GenerateSWInterrupt
 273              		.align	1
 274              		.global	EXTI_GetFlagStatus
 275              		.thumb
 276              		.thumb_func
 277              		.type	EXTI_GetFlagStatus, %function
 278              	EXTI_GetFlagStatus:
 279              	.LFB33:
 177:Libraries/STM32F10x_StdPeriph_Driver/src/stm32f10x_exti.c **** }
 178:Libraries/STM32F10x_StdPeriph_Driver/src/stm32f10x_exti.c **** 
 179:Libraries/STM32F10x_StdPeriph_Driver/src/stm32f10x_exti.c **** /**
 180:Libraries/STM32F10x_StdPeriph_Driver/src/stm32f10x_exti.c ****   * @brief  Checks whether the specified EXTI line flag is set or not.
 181:Libraries/STM32F10x_StdPeriph_Driver/src/stm32f10x_exti.c ****   * @param  EXTI_Line: specifies the EXTI line flag to check.
 182:Libraries/STM32F10x_StdPeriph_Driver/src/stm32f10x_exti.c ****   *   This parameter can be:
 183:Libraries/STM32F10x_StdPeriph_Driver/src/stm32f10x_exti.c ****   *     @arg EXTI_Linex: External interrupt line x where x(0..19)
 184:Libraries/STM32F10x_StdPeriph_Driver/src/stm32f10x_exti.c ****   * @retval The new state of EXTI_Line (SET or RESET).
 185:Libraries/STM32F10x_StdPeriph_Driver/src/stm32f10x_exti.c ****   */
 186:Libraries/STM32F10x_StdPeriph_Driver/src/stm32f10x_exti.c **** FlagStatus EXTI_GetFlagStatus(uint32_t EXTI_Line)
 187:Libraries/STM32F10x_StdPeriph_Driver/src/stm32f10x_exti.c **** {
 280              		.loc 1 187 0
 281              		.cfi_startproc
 282              		@ args = 0, pretend = 0, frame = 0
 283              		@ frame_needed = 0, uses_anonymous_args = 0
 284              		@ link register save eliminated.
 285              	.LVL8:
 188:Libraries/STM32F10x_StdPeriph_Driver/src/stm32f10x_exti.c ****   FlagStatus bitstatus = RESET;
 189:Libraries/STM32F10x_StdPeriph_Driver/src/stm32f10x_exti.c ****   /* Check the parameters */
 190:Libraries/STM32F10x_StdPeriph_Driver/src/stm32f10x_exti.c ****   assert_param(IS_GET_EXTI_LINE(EXTI_Line));
 191:Libraries/STM32F10x_StdPeriph_Driver/src/stm32f10x_exti.c ****   
 192:Libraries/STM32F10x_StdPeriph_Driver/src/stm32f10x_exti.c ****   if ((EXTI->PR & EXTI_Line) != (uint32_t)RESET)
 286              		.loc 1 192 0
 287 00b0 034B     		ldr	r3, .L16	@ tmp116,
 288 00b2 5B69     		ldr	r3, [r3, #20]	@ D.5583, MEM[(struct EXTI_TypeDef *)1073808384B].PR
 289              	.LVL9:
 290 00b4 1842     		tst	r0, r3	@ EXTI_Line, D.5583
 193:Libraries/STM32F10x_StdPeriph_Driver/src/stm32f10x_exti.c ****   {
 194:Libraries/STM32F10x_StdPeriph_Driver/src/stm32f10x_exti.c ****     bitstatus = SET;
 195:Libraries/STM32F10x_StdPeriph_Driver/src/stm32f10x_exti.c ****   }
 196:Libraries/STM32F10x_StdPeriph_Driver/src/stm32f10x_exti.c ****   else
 197:Libraries/STM32F10x_StdPeriph_Driver/src/stm32f10x_exti.c ****   {
 198:Libraries/STM32F10x_StdPeriph_Driver/src/stm32f10x_exti.c ****     bitstatus = RESET;
 199:Libraries/STM32F10x_StdPeriph_Driver/src/stm32f10x_exti.c ****   }
 200:Libraries/STM32F10x_StdPeriph_Driver/src/stm32f10x_exti.c ****   return bitstatus;
 201:Libraries/STM32F10x_StdPeriph_Driver/src/stm32f10x_exti.c **** }
 291              		.loc 1 201 0
 292 00b6 14BF     		ite	ne
 293 00b8 0120     		movne	r0, #1	@,
 294              	.LVL10:
 295 00ba 0020     		moveq	r0, #0	@,
 296 00bc 7047     		bx	lr	@
 297              	.L17:
 298 00be 00BF     		.align	2
 299              	.L16:
 300 00c0 00040140 		.word	1073808384
 301              		.cfi_endproc
 302              	.LFE33:
ARM GAS  /var/folders/yt/6z6x8bjn5sjf5fbb45bk5m4c0000gn/T//ccljikg8.s 			page 10


 303              		.size	EXTI_GetFlagStatus, .-EXTI_GetFlagStatus
 304              		.align	1
 305              		.global	EXTI_ClearFlag
 306              		.thumb
 307              		.thumb_func
 308              		.type	EXTI_ClearFlag, %function
 309              	EXTI_ClearFlag:
 310              	.LFB34:
 202:Libraries/STM32F10x_StdPeriph_Driver/src/stm32f10x_exti.c **** 
 203:Libraries/STM32F10x_StdPeriph_Driver/src/stm32f10x_exti.c **** /**
 204:Libraries/STM32F10x_StdPeriph_Driver/src/stm32f10x_exti.c ****   * @brief  Clears the EXTI's line pending flags.
 205:Libraries/STM32F10x_StdPeriph_Driver/src/stm32f10x_exti.c ****   * @param  EXTI_Line: specifies the EXTI lines flags to clear.
 206:Libraries/STM32F10x_StdPeriph_Driver/src/stm32f10x_exti.c ****   *   This parameter can be any combination of EXTI_Linex where x can be (0..19).
 207:Libraries/STM32F10x_StdPeriph_Driver/src/stm32f10x_exti.c ****   * @retval None
 208:Libraries/STM32F10x_StdPeriph_Driver/src/stm32f10x_exti.c ****   */
 209:Libraries/STM32F10x_StdPeriph_Driver/src/stm32f10x_exti.c **** void EXTI_ClearFlag(uint32_t EXTI_Line)
 210:Libraries/STM32F10x_StdPeriph_Driver/src/stm32f10x_exti.c **** {
 311              		.loc 1 210 0
 312              		.cfi_startproc
 313              		@ args = 0, pretend = 0, frame = 0
 314              		@ frame_needed = 0, uses_anonymous_args = 0
 315              		@ link register save eliminated.
 316              	.LVL11:
 211:Libraries/STM32F10x_StdPeriph_Driver/src/stm32f10x_exti.c ****   /* Check the parameters */
 212:Libraries/STM32F10x_StdPeriph_Driver/src/stm32f10x_exti.c ****   assert_param(IS_EXTI_LINE(EXTI_Line));
 213:Libraries/STM32F10x_StdPeriph_Driver/src/stm32f10x_exti.c ****   
 214:Libraries/STM32F10x_StdPeriph_Driver/src/stm32f10x_exti.c ****   EXTI->PR = EXTI_Line;
 317              		.loc 1 214 0
 318 00c4 014B     		ldr	r3, .L19	@ tmp111,
 319 00c6 5861     		str	r0, [r3, #20]	@ EXTI_Line, MEM[(struct EXTI_TypeDef *)1073808384B].PR
 320 00c8 7047     		bx	lr	@
 321              	.L20:
 322 00ca 00BF     		.align	2
 323              	.L19:
 324 00cc 00040140 		.word	1073808384
 325              		.cfi_endproc
 326              	.LFE34:
 327              		.size	EXTI_ClearFlag, .-EXTI_ClearFlag
 328              		.align	1
 329              		.global	EXTI_GetITStatus
 330              		.thumb
 331              		.thumb_func
 332              		.type	EXTI_GetITStatus, %function
 333              	EXTI_GetITStatus:
 334              	.LFB35:
 215:Libraries/STM32F10x_StdPeriph_Driver/src/stm32f10x_exti.c **** }
 216:Libraries/STM32F10x_StdPeriph_Driver/src/stm32f10x_exti.c **** 
 217:Libraries/STM32F10x_StdPeriph_Driver/src/stm32f10x_exti.c **** /**
 218:Libraries/STM32F10x_StdPeriph_Driver/src/stm32f10x_exti.c ****   * @brief  Checks whether the specified EXTI line is asserted or not.
 219:Libraries/STM32F10x_StdPeriph_Driver/src/stm32f10x_exti.c ****   * @param  EXTI_Line: specifies the EXTI line to check.
 220:Libraries/STM32F10x_StdPeriph_Driver/src/stm32f10x_exti.c ****   *   This parameter can be:
 221:Libraries/STM32F10x_StdPeriph_Driver/src/stm32f10x_exti.c ****   *     @arg EXTI_Linex: External interrupt line x where x(0..19)
 222:Libraries/STM32F10x_StdPeriph_Driver/src/stm32f10x_exti.c ****   * @retval The new state of EXTI_Line (SET or RESET).
 223:Libraries/STM32F10x_StdPeriph_Driver/src/stm32f10x_exti.c ****   */
 224:Libraries/STM32F10x_StdPeriph_Driver/src/stm32f10x_exti.c **** ITStatus EXTI_GetITStatus(uint32_t EXTI_Line)
 225:Libraries/STM32F10x_StdPeriph_Driver/src/stm32f10x_exti.c **** {
 335              		.loc 1 225 0
ARM GAS  /var/folders/yt/6z6x8bjn5sjf5fbb45bk5m4c0000gn/T//ccljikg8.s 			page 11


 336              		.cfi_startproc
 337              		@ args = 0, pretend = 0, frame = 0
 338              		@ frame_needed = 0, uses_anonymous_args = 0
 339              		@ link register save eliminated.
 340              	.LVL12:
 226:Libraries/STM32F10x_StdPeriph_Driver/src/stm32f10x_exti.c ****   ITStatus bitstatus = RESET;
 227:Libraries/STM32F10x_StdPeriph_Driver/src/stm32f10x_exti.c ****   uint32_t enablestatus = 0;
 228:Libraries/STM32F10x_StdPeriph_Driver/src/stm32f10x_exti.c ****   /* Check the parameters */
 229:Libraries/STM32F10x_StdPeriph_Driver/src/stm32f10x_exti.c ****   assert_param(IS_GET_EXTI_LINE(EXTI_Line));
 230:Libraries/STM32F10x_StdPeriph_Driver/src/stm32f10x_exti.c ****   
 231:Libraries/STM32F10x_StdPeriph_Driver/src/stm32f10x_exti.c ****   enablestatus =  EXTI->IMR & EXTI_Line;
 341              		.loc 1 231 0
 342 00d0 054B     		ldr	r3, .L24	@ tmp118,
 343 00d2 1A68     		ldr	r2, [r3]	@ D.5590, MEM[(struct EXTI_TypeDef *)1073808384B].IMR
 344              	.LVL13:
 232:Libraries/STM32F10x_StdPeriph_Driver/src/stm32f10x_exti.c ****   if (((EXTI->PR & EXTI_Line) != (uint32_t)RESET) && (enablestatus != (uint32_t)RESET))
 345              		.loc 1 232 0
 346 00d4 5B69     		ldr	r3, [r3, #20]	@ D.5590, MEM[(struct EXTI_TypeDef *)1073808384B].PR
 347 00d6 0340     		ands	r3, r0, r3	@ D.5590, EXTI_Line, D.5590
 348 00d8 04D0     		beq	.L23	@,
 349              		.loc 1 232 0 is_stmt 0 discriminator 1
 350 00da 1042     		tst	r0, r2	@ EXTI_Line, D.5590
 233:Libraries/STM32F10x_StdPeriph_Driver/src/stm32f10x_exti.c ****   {
 234:Libraries/STM32F10x_StdPeriph_Driver/src/stm32f10x_exti.c ****     bitstatus = SET;
 351              		.loc 1 234 0 is_stmt 1 discriminator 1
 352 00dc 14BF     		ite	ne
 353 00de 0120     		movne	r0, #1	@ bitstatus,
 354              	.LVL14:
 355 00e0 0020     		moveq	r0, #0	@ bitstatus,
 356 00e2 7047     		bx	lr	@
 357              	.LVL15:
 358              	.L23:
 235:Libraries/STM32F10x_StdPeriph_Driver/src/stm32f10x_exti.c ****   }
 236:Libraries/STM32F10x_StdPeriph_Driver/src/stm32f10x_exti.c ****   else
 237:Libraries/STM32F10x_StdPeriph_Driver/src/stm32f10x_exti.c ****   {
 238:Libraries/STM32F10x_StdPeriph_Driver/src/stm32f10x_exti.c ****     bitstatus = RESET;
 359              		.loc 1 238 0
 360 00e4 1846     		mov	r0, r3	@ bitstatus, D.5590
 361              	.LVL16:
 239:Libraries/STM32F10x_StdPeriph_Driver/src/stm32f10x_exti.c ****   }
 240:Libraries/STM32F10x_StdPeriph_Driver/src/stm32f10x_exti.c ****   return bitstatus;
 241:Libraries/STM32F10x_StdPeriph_Driver/src/stm32f10x_exti.c **** }
 362              		.loc 1 241 0
 363 00e6 7047     		bx	lr	@
 364              	.L25:
 365              		.align	2
 366              	.L24:
 367 00e8 00040140 		.word	1073808384
 368              		.cfi_endproc
 369              	.LFE35:
 370              		.size	EXTI_GetITStatus, .-EXTI_GetITStatus
 371              		.align	1
 372              		.global	EXTI_ClearITPendingBit
 373              		.thumb
 374              		.thumb_func
 375              		.type	EXTI_ClearITPendingBit, %function
 376              	EXTI_ClearITPendingBit:
ARM GAS  /var/folders/yt/6z6x8bjn5sjf5fbb45bk5m4c0000gn/T//ccljikg8.s 			page 12


 377              	.LFB36:
 242:Libraries/STM32F10x_StdPeriph_Driver/src/stm32f10x_exti.c **** 
 243:Libraries/STM32F10x_StdPeriph_Driver/src/stm32f10x_exti.c **** /**
 244:Libraries/STM32F10x_StdPeriph_Driver/src/stm32f10x_exti.c ****   * @brief  Clears the EXTI's line pending bits.
 245:Libraries/STM32F10x_StdPeriph_Driver/src/stm32f10x_exti.c ****   * @param  EXTI_Line: specifies the EXTI lines to clear.
 246:Libraries/STM32F10x_StdPeriph_Driver/src/stm32f10x_exti.c ****   *   This parameter can be any combination of EXTI_Linex where x can be (0..19).
 247:Libraries/STM32F10x_StdPeriph_Driver/src/stm32f10x_exti.c ****   * @retval None
 248:Libraries/STM32F10x_StdPeriph_Driver/src/stm32f10x_exti.c ****   */
 249:Libraries/STM32F10x_StdPeriph_Driver/src/stm32f10x_exti.c **** void EXTI_ClearITPendingBit(uint32_t EXTI_Line)
 250:Libraries/STM32F10x_StdPeriph_Driver/src/stm32f10x_exti.c **** {
 378              		.loc 1 250 0
 379              		.cfi_startproc
 380              		@ args = 0, pretend = 0, frame = 0
 381              		@ frame_needed = 0, uses_anonymous_args = 0
 382              		@ link register save eliminated.
 383              	.LVL17:
 251:Libraries/STM32F10x_StdPeriph_Driver/src/stm32f10x_exti.c ****   /* Check the parameters */
 252:Libraries/STM32F10x_StdPeriph_Driver/src/stm32f10x_exti.c ****   assert_param(IS_EXTI_LINE(EXTI_Line));
 253:Libraries/STM32F10x_StdPeriph_Driver/src/stm32f10x_exti.c ****   
 254:Libraries/STM32F10x_StdPeriph_Driver/src/stm32f10x_exti.c ****   EXTI->PR = EXTI_Line;
 384              		.loc 1 254 0
 385 00ec 014B     		ldr	r3, .L27	@ tmp111,
 386 00ee 5861     		str	r0, [r3, #20]	@ EXTI_Line, MEM[(struct EXTI_TypeDef *)1073808384B].PR
 387 00f0 7047     		bx	lr	@
 388              	.L28:
 389 00f2 00BF     		.align	2
 390              	.L27:
 391 00f4 00040140 		.word	1073808384
 392              		.cfi_endproc
 393              	.LFE36:
 394              		.size	EXTI_ClearITPendingBit, .-EXTI_ClearITPendingBit
 395              	.Letext0:
 396              		.file 2 "/usr/local/Cellar/arm-none-eabi-gcc/20150921/arm-none-eabi/include/machine/_default_types
 397              		.file 3 "/usr/local/Cellar/arm-none-eabi-gcc/20150921/arm-none-eabi/include/sys/_stdint.h"
 398              		.file 4 "./Libraries/CMSIS/CM3/DeviceSupport/ST/STM32F10x/stm32f10x.h"
 399              		.file 5 "./Libraries/STM32F10x_StdPeriph_Driver/inc/stm32f10x_exti.h"
 400              		.file 6 "./Libraries/CMSIS/CM3/CoreSupport/core_cm3.h"