ARM GAS  /var/folders/yt/6z6x8bjn5sjf5fbb45bk5m4c0000gn/T//ccRqGMl0.s 			page 1


   1              		.syntax unified
   2              		.cpu cortex-m3
   3              		.fpu softvfp
   4              		.eabi_attribute 20, 1	@ Tag_ABI_FP_denormal
   5              		.eabi_attribute 21, 1	@ Tag_ABI_FP_exceptions
   6              		.eabi_attribute 23, 3	@ Tag_ABI_FP_number_model
   7              		.eabi_attribute 24, 1	@ Tag_ABI_align8_needed
   8              		.eabi_attribute 25, 1	@ Tag_ABI_align8_preserved
   9              		.eabi_attribute 26, 1	@ Tag_ABI_enum_size
  10              		.eabi_attribute 30, 4	@ Tag_ABI_optimization_goals
  11              		.eabi_attribute 34, 1	@ Tag_CPU_unaligned_access
  12              		.eabi_attribute 18, 4	@ Tag_ABI_PCS_wchar_t
  13              		.file	"stm32f10x_fsmc.c"
  14              	@ GNU C (GNU Tools for ARM Embedded Processors) version 4.9.3 20150529 (release) [ARM/embedded-4_9-
  15              	@	compiled by GNU C version 4.2.1 (Based on Apple Inc. build 5658) (LLVM build 2336.9.00), GMP vers
  16              	@ GGC heuristics: --param ggc-min-expand=100 --param ggc-min-heapsize=131072
  17              	@ options passed:  -I . -I ./Libraries/CMSIS/CM3/CoreSupport
  18              	@ -I ./Libraries/CMSIS/CM3/DeviceSupport/ST/STM32F10x
  19              	@ -I ./Libraries/STM32F10x_StdPeriph_Driver/inc -I ./Libraries/Drivers/Leds
  20              	@ -I ./Libraries/Drivers/Buttons -I ./Libraries/Drivers/Usart
  21              	@ -I ./Libraries/Drivers/i2c -I ./Libraries/Drivers/BH1750
  22              	@ -I ./Libraries/Drivers/Utilities -I ./FreeRTOS/Source/include
  23              	@ -I ./FreeRTOS/Source/portable/GCC/ARM_CM3 -imultilib armv7-m
  24              	@ -iprefix /usr/local/Cellar/arm-none-eabi-gcc/20150921/bin/../lib/gcc/arm-none-eabi/4.9.3/
  25              	@ -isysroot /usr/local/Cellar/arm-none-eabi-gcc/20150921/bin/../arm-none-eabi
  26              	@ -MD Libraries/STM32F10x_StdPeriph_Driver/src/stm32f10x_fsmc.d
  27              	@ -MF .dep/stm32f10x_fsmc.o.d -MP
  28              	@ -MQ Libraries/STM32F10x_StdPeriph_Driver/src/stm32f10x_fsmc.o
  29              	@ -D__USES_INITFINI__ -D STM32F10X_MD -D USE_STDPERIPH_DRIVER -D GCC_ARMCM3
  30              	@ -D RUN_FROM_FLASH=1
  31              	@ Libraries/STM32F10x_StdPeriph_Driver/src/stm32f10x_fsmc.c -mcpu=cortex-m3
  32              	@ -mthumb
  33              	@ -auxbase-strip Libraries/STM32F10x_StdPeriph_Driver/src/stm32f10x_fsmc.o
  34              	@ -gdwarf-2 -Os -Wall -Wstrict-prototypes -fomit-frame-pointer
  35              	@ -fverbose-asm
  36              	@ options enabled:  -faggressive-loop-optimizations -fauto-inc-dec
  37              	@ -fbranch-count-reg -fcaller-saves -fcombine-stack-adjustments -fcommon
  38              	@ -fcompare-elim -fcprop-registers -fcrossjumping -fcse-follow-jumps
  39              	@ -fdefer-pop -fdelete-null-pointer-checks -fdevirtualize
  40              	@ -fdevirtualize-speculatively -fdwarf2-cfi-asm -fearly-inlining
  41              	@ -feliminate-unused-debug-types -fexpensive-optimizations
  42              	@ -fforward-propagate -ffunction-cse -fgcse -fgcse-lm -fgnu-runtime
  43              	@ -fgnu-unique -fguess-branch-probability -fhoist-adjacent-loads -fident
  44              	@ -fif-conversion -fif-conversion2 -findirect-inlining -finline
  45              	@ -finline-atomics -finline-functions -finline-functions-called-once
  46              	@ -finline-small-functions -fipa-cp -fipa-profile -fipa-pure-const
  47              	@ -fipa-reference -fipa-sra -fira-hoist-pressure -fira-share-save-slots
  48              	@ -fira-share-spill-slots -fisolate-erroneous-paths-dereference -fivopts
  49              	@ -fkeep-static-consts -fleading-underscore -flifetime-dse -fmath-errno
  50              	@ -fmerge-constants -fmerge-debug-strings -fomit-frame-pointer
  51              	@ -foptimize-sibling-calls -fpartial-inlining -fpeephole -fpeephole2
  52              	@ -fprefetch-loop-arrays -freg-struct-return -freorder-blocks
  53              	@ -freorder-functions -frerun-cse-after-loop
  54              	@ -fsched-critical-path-heuristic -fsched-dep-count-heuristic
  55              	@ -fsched-group-heuristic -fsched-interblock -fsched-last-insn-heuristic
  56              	@ -fsched-pressure -fsched-rank-heuristic -fsched-spec
  57              	@ -fsched-spec-insn-heuristic -fsched-stalled-insns-dep -fschedule-insns2
ARM GAS  /var/folders/yt/6z6x8bjn5sjf5fbb45bk5m4c0000gn/T//ccRqGMl0.s 			page 2


  58              	@ -fsection-anchors -fshow-column -fsigned-zeros -fsplit-ivs-in-unroller
  59              	@ -fsplit-wide-types -fstrict-aliasing -fstrict-overflow
  60              	@ -fstrict-volatile-bitfields -fsync-libcalls -fthread-jumps
  61              	@ -ftoplevel-reorder -ftrapping-math -ftree-bit-ccp -ftree-builtin-call-dce
  62              	@ -ftree-ccp -ftree-ch -ftree-coalesce-vars -ftree-copy-prop
  63              	@ -ftree-copyrename -ftree-cselim -ftree-dce -ftree-dominator-opts
  64              	@ -ftree-dse -ftree-forwprop -ftree-fre -ftree-loop-if-convert
  65              	@ -ftree-loop-im -ftree-loop-ivcanon -ftree-loop-optimize
  66              	@ -ftree-parallelize-loops= -ftree-phiprop -ftree-pre -ftree-pta
  67              	@ -ftree-reassoc -ftree-scev-cprop -ftree-sink -ftree-slsr -ftree-sra
  68              	@ -ftree-switch-conversion -ftree-tail-merge -ftree-ter -ftree-vrp
  69              	@ -funit-at-a-time -fvar-tracking -fvar-tracking-assignments -fverbose-asm
  70              	@ -fzero-initialized-in-bss -mfix-cortex-m3-ldrd -mlittle-endian -mlra
  71              	@ -mpic-data-is-text-relative -msched-prolog -mthumb -munaligned-access
  72              	@ -mvectorize-with-neon-quad
  73              	
  74              		.text
  75              	.Ltext0:
  76              		.cfi_sections	.debug_frame
  77              		.align	1
  78              		.global	FSMC_NORSRAMDeInit
  79              		.thumb
  80              		.thumb_func
  81              		.type	FSMC_NORSRAMDeInit, %function
  82              	FSMC_NORSRAMDeInit:
  83              	.LFB29:
  84              		.file 1 "Libraries/STM32F10x_StdPeriph_Driver/src/stm32f10x_fsmc.c"
   1:Libraries/STM32F10x_StdPeriph_Driver/src/stm32f10x_fsmc.c **** /**
   2:Libraries/STM32F10x_StdPeriph_Driver/src/stm32f10x_fsmc.c ****   ******************************************************************************
   3:Libraries/STM32F10x_StdPeriph_Driver/src/stm32f10x_fsmc.c ****   * @file    stm32f10x_fsmc.c
   4:Libraries/STM32F10x_StdPeriph_Driver/src/stm32f10x_fsmc.c ****   * @author  MCD Application Team
   5:Libraries/STM32F10x_StdPeriph_Driver/src/stm32f10x_fsmc.c ****   * @version V3.5.0
   6:Libraries/STM32F10x_StdPeriph_Driver/src/stm32f10x_fsmc.c ****   * @date    11-March-2011
   7:Libraries/STM32F10x_StdPeriph_Driver/src/stm32f10x_fsmc.c ****   * @brief   This file provides all the FSMC firmware functions.
   8:Libraries/STM32F10x_StdPeriph_Driver/src/stm32f10x_fsmc.c ****   ******************************************************************************
   9:Libraries/STM32F10x_StdPeriph_Driver/src/stm32f10x_fsmc.c ****   * @attention
  10:Libraries/STM32F10x_StdPeriph_Driver/src/stm32f10x_fsmc.c ****   *
  11:Libraries/STM32F10x_StdPeriph_Driver/src/stm32f10x_fsmc.c ****   * THE PRESENT FIRMWARE WHICH IS FOR GUIDANCE ONLY AIMS AT PROVIDING CUSTOMERS
  12:Libraries/STM32F10x_StdPeriph_Driver/src/stm32f10x_fsmc.c ****   * WITH CODING INFORMATION REGARDING THEIR PRODUCTS IN ORDER FOR THEM TO SAVE
  13:Libraries/STM32F10x_StdPeriph_Driver/src/stm32f10x_fsmc.c ****   * TIME. AS A RESULT, STMICROELECTRONICS SHALL NOT BE HELD LIABLE FOR ANY
  14:Libraries/STM32F10x_StdPeriph_Driver/src/stm32f10x_fsmc.c ****   * DIRECT, INDIRECT OR CONSEQUENTIAL DAMAGES WITH RESPECT TO ANY CLAIMS ARISING
  15:Libraries/STM32F10x_StdPeriph_Driver/src/stm32f10x_fsmc.c ****   * FROM THE CONTENT OF SUCH FIRMWARE AND/OR THE USE MADE BY CUSTOMERS OF THE
  16:Libraries/STM32F10x_StdPeriph_Driver/src/stm32f10x_fsmc.c ****   * CODING INFORMATION CONTAINED HEREIN IN CONNECTION WITH THEIR PRODUCTS.
  17:Libraries/STM32F10x_StdPeriph_Driver/src/stm32f10x_fsmc.c ****   *
  18:Libraries/STM32F10x_StdPeriph_Driver/src/stm32f10x_fsmc.c ****   * <h2><center>&copy; COPYRIGHT 2011 STMicroelectronics</center></h2>
  19:Libraries/STM32F10x_StdPeriph_Driver/src/stm32f10x_fsmc.c ****   ******************************************************************************
  20:Libraries/STM32F10x_StdPeriph_Driver/src/stm32f10x_fsmc.c ****   */
  21:Libraries/STM32F10x_StdPeriph_Driver/src/stm32f10x_fsmc.c **** 
  22:Libraries/STM32F10x_StdPeriph_Driver/src/stm32f10x_fsmc.c **** /* Includes ------------------------------------------------------------------*/
  23:Libraries/STM32F10x_StdPeriph_Driver/src/stm32f10x_fsmc.c **** #include "stm32f10x_fsmc.h"
  24:Libraries/STM32F10x_StdPeriph_Driver/src/stm32f10x_fsmc.c **** #include "stm32f10x_rcc.h"
  25:Libraries/STM32F10x_StdPeriph_Driver/src/stm32f10x_fsmc.c **** 
  26:Libraries/STM32F10x_StdPeriph_Driver/src/stm32f10x_fsmc.c **** /** @addtogroup STM32F10x_StdPeriph_Driver
  27:Libraries/STM32F10x_StdPeriph_Driver/src/stm32f10x_fsmc.c ****   * @{
  28:Libraries/STM32F10x_StdPeriph_Driver/src/stm32f10x_fsmc.c ****   */
  29:Libraries/STM32F10x_StdPeriph_Driver/src/stm32f10x_fsmc.c **** 
  30:Libraries/STM32F10x_StdPeriph_Driver/src/stm32f10x_fsmc.c **** /** @defgroup FSMC 
ARM GAS  /var/folders/yt/6z6x8bjn5sjf5fbb45bk5m4c0000gn/T//ccRqGMl0.s 			page 3


  31:Libraries/STM32F10x_StdPeriph_Driver/src/stm32f10x_fsmc.c ****   * @brief FSMC driver modules
  32:Libraries/STM32F10x_StdPeriph_Driver/src/stm32f10x_fsmc.c ****   * @{
  33:Libraries/STM32F10x_StdPeriph_Driver/src/stm32f10x_fsmc.c ****   */ 
  34:Libraries/STM32F10x_StdPeriph_Driver/src/stm32f10x_fsmc.c **** 
  35:Libraries/STM32F10x_StdPeriph_Driver/src/stm32f10x_fsmc.c **** /** @defgroup FSMC_Private_TypesDefinitions
  36:Libraries/STM32F10x_StdPeriph_Driver/src/stm32f10x_fsmc.c ****   * @{
  37:Libraries/STM32F10x_StdPeriph_Driver/src/stm32f10x_fsmc.c ****   */ 
  38:Libraries/STM32F10x_StdPeriph_Driver/src/stm32f10x_fsmc.c **** /**
  39:Libraries/STM32F10x_StdPeriph_Driver/src/stm32f10x_fsmc.c ****   * @}
  40:Libraries/STM32F10x_StdPeriph_Driver/src/stm32f10x_fsmc.c ****   */
  41:Libraries/STM32F10x_StdPeriph_Driver/src/stm32f10x_fsmc.c **** 
  42:Libraries/STM32F10x_StdPeriph_Driver/src/stm32f10x_fsmc.c **** /** @defgroup FSMC_Private_Defines
  43:Libraries/STM32F10x_StdPeriph_Driver/src/stm32f10x_fsmc.c ****   * @{
  44:Libraries/STM32F10x_StdPeriph_Driver/src/stm32f10x_fsmc.c ****   */
  45:Libraries/STM32F10x_StdPeriph_Driver/src/stm32f10x_fsmc.c **** 
  46:Libraries/STM32F10x_StdPeriph_Driver/src/stm32f10x_fsmc.c **** /* --------------------- FSMC registers bit mask ---------------------------- */
  47:Libraries/STM32F10x_StdPeriph_Driver/src/stm32f10x_fsmc.c **** 
  48:Libraries/STM32F10x_StdPeriph_Driver/src/stm32f10x_fsmc.c **** /* FSMC BCRx Mask */
  49:Libraries/STM32F10x_StdPeriph_Driver/src/stm32f10x_fsmc.c **** #define BCR_MBKEN_Set                       ((uint32_t)0x00000001)
  50:Libraries/STM32F10x_StdPeriph_Driver/src/stm32f10x_fsmc.c **** #define BCR_MBKEN_Reset                     ((uint32_t)0x000FFFFE)
  51:Libraries/STM32F10x_StdPeriph_Driver/src/stm32f10x_fsmc.c **** #define BCR_FACCEN_Set                      ((uint32_t)0x00000040)
  52:Libraries/STM32F10x_StdPeriph_Driver/src/stm32f10x_fsmc.c **** 
  53:Libraries/STM32F10x_StdPeriph_Driver/src/stm32f10x_fsmc.c **** /* FSMC PCRx Mask */
  54:Libraries/STM32F10x_StdPeriph_Driver/src/stm32f10x_fsmc.c **** #define PCR_PBKEN_Set                       ((uint32_t)0x00000004)
  55:Libraries/STM32F10x_StdPeriph_Driver/src/stm32f10x_fsmc.c **** #define PCR_PBKEN_Reset                     ((uint32_t)0x000FFFFB)
  56:Libraries/STM32F10x_StdPeriph_Driver/src/stm32f10x_fsmc.c **** #define PCR_ECCEN_Set                       ((uint32_t)0x00000040)
  57:Libraries/STM32F10x_StdPeriph_Driver/src/stm32f10x_fsmc.c **** #define PCR_ECCEN_Reset                     ((uint32_t)0x000FFFBF)
  58:Libraries/STM32F10x_StdPeriph_Driver/src/stm32f10x_fsmc.c **** #define PCR_MemoryType_NAND                 ((uint32_t)0x00000008)
  59:Libraries/STM32F10x_StdPeriph_Driver/src/stm32f10x_fsmc.c **** /**
  60:Libraries/STM32F10x_StdPeriph_Driver/src/stm32f10x_fsmc.c ****   * @}
  61:Libraries/STM32F10x_StdPeriph_Driver/src/stm32f10x_fsmc.c ****   */
  62:Libraries/STM32F10x_StdPeriph_Driver/src/stm32f10x_fsmc.c **** 
  63:Libraries/STM32F10x_StdPeriph_Driver/src/stm32f10x_fsmc.c **** /** @defgroup FSMC_Private_Macros
  64:Libraries/STM32F10x_StdPeriph_Driver/src/stm32f10x_fsmc.c ****   * @{
  65:Libraries/STM32F10x_StdPeriph_Driver/src/stm32f10x_fsmc.c ****   */
  66:Libraries/STM32F10x_StdPeriph_Driver/src/stm32f10x_fsmc.c **** 
  67:Libraries/STM32F10x_StdPeriph_Driver/src/stm32f10x_fsmc.c **** /**
  68:Libraries/STM32F10x_StdPeriph_Driver/src/stm32f10x_fsmc.c ****   * @}
  69:Libraries/STM32F10x_StdPeriph_Driver/src/stm32f10x_fsmc.c ****   */
  70:Libraries/STM32F10x_StdPeriph_Driver/src/stm32f10x_fsmc.c **** 
  71:Libraries/STM32F10x_StdPeriph_Driver/src/stm32f10x_fsmc.c **** /** @defgroup FSMC_Private_Variables
  72:Libraries/STM32F10x_StdPeriph_Driver/src/stm32f10x_fsmc.c ****   * @{
  73:Libraries/STM32F10x_StdPeriph_Driver/src/stm32f10x_fsmc.c ****   */
  74:Libraries/STM32F10x_StdPeriph_Driver/src/stm32f10x_fsmc.c **** 
  75:Libraries/STM32F10x_StdPeriph_Driver/src/stm32f10x_fsmc.c **** /**
  76:Libraries/STM32F10x_StdPeriph_Driver/src/stm32f10x_fsmc.c ****   * @}
  77:Libraries/STM32F10x_StdPeriph_Driver/src/stm32f10x_fsmc.c ****   */
  78:Libraries/STM32F10x_StdPeriph_Driver/src/stm32f10x_fsmc.c **** 
  79:Libraries/STM32F10x_StdPeriph_Driver/src/stm32f10x_fsmc.c **** /** @defgroup FSMC_Private_FunctionPrototypes
  80:Libraries/STM32F10x_StdPeriph_Driver/src/stm32f10x_fsmc.c ****   * @{
  81:Libraries/STM32F10x_StdPeriph_Driver/src/stm32f10x_fsmc.c ****   */
  82:Libraries/STM32F10x_StdPeriph_Driver/src/stm32f10x_fsmc.c **** 
  83:Libraries/STM32F10x_StdPeriph_Driver/src/stm32f10x_fsmc.c **** /**
  84:Libraries/STM32F10x_StdPeriph_Driver/src/stm32f10x_fsmc.c ****   * @}
  85:Libraries/STM32F10x_StdPeriph_Driver/src/stm32f10x_fsmc.c ****   */
  86:Libraries/STM32F10x_StdPeriph_Driver/src/stm32f10x_fsmc.c **** 
  87:Libraries/STM32F10x_StdPeriph_Driver/src/stm32f10x_fsmc.c **** /** @defgroup FSMC_Private_Functions
ARM GAS  /var/folders/yt/6z6x8bjn5sjf5fbb45bk5m4c0000gn/T//ccRqGMl0.s 			page 4


  88:Libraries/STM32F10x_StdPeriph_Driver/src/stm32f10x_fsmc.c ****   * @{
  89:Libraries/STM32F10x_StdPeriph_Driver/src/stm32f10x_fsmc.c ****   */
  90:Libraries/STM32F10x_StdPeriph_Driver/src/stm32f10x_fsmc.c **** 
  91:Libraries/STM32F10x_StdPeriph_Driver/src/stm32f10x_fsmc.c **** /**
  92:Libraries/STM32F10x_StdPeriph_Driver/src/stm32f10x_fsmc.c ****   * @brief  Deinitializes the FSMC NOR/SRAM Banks registers to their default 
  93:Libraries/STM32F10x_StdPeriph_Driver/src/stm32f10x_fsmc.c ****   *         reset values.
  94:Libraries/STM32F10x_StdPeriph_Driver/src/stm32f10x_fsmc.c ****   * @param  FSMC_Bank: specifies the FSMC Bank to be used
  95:Libraries/STM32F10x_StdPeriph_Driver/src/stm32f10x_fsmc.c ****   *   This parameter can be one of the following values:
  96:Libraries/STM32F10x_StdPeriph_Driver/src/stm32f10x_fsmc.c ****   *     @arg FSMC_Bank1_NORSRAM1: FSMC Bank1 NOR/SRAM1  
  97:Libraries/STM32F10x_StdPeriph_Driver/src/stm32f10x_fsmc.c ****   *     @arg FSMC_Bank1_NORSRAM2: FSMC Bank1 NOR/SRAM2 
  98:Libraries/STM32F10x_StdPeriph_Driver/src/stm32f10x_fsmc.c ****   *     @arg FSMC_Bank1_NORSRAM3: FSMC Bank1 NOR/SRAM3 
  99:Libraries/STM32F10x_StdPeriph_Driver/src/stm32f10x_fsmc.c ****   *     @arg FSMC_Bank1_NORSRAM4: FSMC Bank1 NOR/SRAM4 
 100:Libraries/STM32F10x_StdPeriph_Driver/src/stm32f10x_fsmc.c ****   * @retval None
 101:Libraries/STM32F10x_StdPeriph_Driver/src/stm32f10x_fsmc.c ****   */
 102:Libraries/STM32F10x_StdPeriph_Driver/src/stm32f10x_fsmc.c **** void FSMC_NORSRAMDeInit(uint32_t FSMC_Bank)
 103:Libraries/STM32F10x_StdPeriph_Driver/src/stm32f10x_fsmc.c **** {
  85              		.loc 1 103 0
  86              		.cfi_startproc
  87              		@ args = 0, pretend = 0, frame = 0
  88              		@ frame_needed = 0, uses_anonymous_args = 0
  89              		@ link register save eliminated.
  90              	.LVL0:
  91 0000 4FF02043 		mov	r3, #-1610612736	@ tmp121,
 104:Libraries/STM32F10x_StdPeriph_Driver/src/stm32f10x_fsmc.c ****   /* Check the parameter */
 105:Libraries/STM32F10x_StdPeriph_Driver/src/stm32f10x_fsmc.c ****   assert_param(IS_FSMC_NORSRAM_BANK(FSMC_Bank));
 106:Libraries/STM32F10x_StdPeriph_Driver/src/stm32f10x_fsmc.c ****   
 107:Libraries/STM32F10x_StdPeriph_Driver/src/stm32f10x_fsmc.c ****   /* FSMC_Bank1_NORSRAM1 */
 108:Libraries/STM32F10x_StdPeriph_Driver/src/stm32f10x_fsmc.c ****   if(FSMC_Bank == FSMC_Bank1_NORSRAM1)
  92              		.loc 1 108 0
  93 0004 18B9     		cbnz	r0, .L2	@ FSMC_Bank,
 109:Libraries/STM32F10x_StdPeriph_Driver/src/stm32f10x_fsmc.c ****   {
 110:Libraries/STM32F10x_StdPeriph_Driver/src/stm32f10x_fsmc.c ****     FSMC_Bank1->BTCR[FSMC_Bank] = 0x000030DB;    
  94              		.loc 1 110 0
  95 0006 43F2DB02 		movw	r2, #12507	@ tmp115,
  96 000a 1A60     		str	r2, [r3]	@ tmp115, MEM[(struct FSMC_Bank1_TypeDef *)2684354560B].BTCR
  97 000c 03E0     		b	.L3	@
  98              	.L2:
 111:Libraries/STM32F10x_StdPeriph_Driver/src/stm32f10x_fsmc.c ****   }
 112:Libraries/STM32F10x_StdPeriph_Driver/src/stm32f10x_fsmc.c ****   /* FSMC_Bank1_NORSRAM2,  FSMC_Bank1_NORSRAM3 or FSMC_Bank1_NORSRAM4 */
 113:Libraries/STM32F10x_StdPeriph_Driver/src/stm32f10x_fsmc.c ****   else
 114:Libraries/STM32F10x_StdPeriph_Driver/src/stm32f10x_fsmc.c ****   {   
 115:Libraries/STM32F10x_StdPeriph_Driver/src/stm32f10x_fsmc.c ****     FSMC_Bank1->BTCR[FSMC_Bank] = 0x000030D2; 
  99              		.loc 1 115 0
 100 000e 43F2D202 		movw	r2, #12498	@ tmp117,
 101 0012 43F82020 		str	r2, [r3, r0, lsl #2]	@ tmp117, MEM[(struct FSMC_Bank1_TypeDef *)2684354560B].BTCR
 102              	.L3:
 103 0016 8000     		lsls	r0, r0, #2	@ D.5908, FSMC_Bank,
 104              	.LVL1:
 105 0018 00F12040 		add	r0, r0, #-1610612736	@ D.5907, D.5908,
 116:Libraries/STM32F10x_StdPeriph_Driver/src/stm32f10x_fsmc.c ****   }
 117:Libraries/STM32F10x_StdPeriph_Driver/src/stm32f10x_fsmc.c ****   FSMC_Bank1->BTCR[FSMC_Bank + 1] = 0x0FFFFFFF;
 106              		.loc 1 117 0
 107 001c 6FF07043 		mvn	r3, #-268435456	@ tmp118,
 108 0020 4360     		str	r3, [r0, #4]	@ tmp118, MEM[(struct FSMC_Bank1_TypeDef *)_9 + 4B]
 118:Libraries/STM32F10x_StdPeriph_Driver/src/stm32f10x_fsmc.c ****   FSMC_Bank1E->BWTR[FSMC_Bank] = 0x0FFFFFFF;  
 109              		.loc 1 118 0
 110 0022 C0F80431 		str	r3, [r0, #260]	@ tmp118, MEM[(struct FSMC_Bank1E_TypeDef *)_12]
ARM GAS  /var/folders/yt/6z6x8bjn5sjf5fbb45bk5m4c0000gn/T//ccRqGMl0.s 			page 5


 111 0026 7047     		bx	lr	@
 112              		.cfi_endproc
 113              	.LFE29:
 114              		.size	FSMC_NORSRAMDeInit, .-FSMC_NORSRAMDeInit
 115              		.align	1
 116              		.global	FSMC_NANDDeInit
 117              		.thumb
 118              		.thumb_func
 119              		.type	FSMC_NANDDeInit, %function
 120              	FSMC_NANDDeInit:
 121              	.LFB30:
 119:Libraries/STM32F10x_StdPeriph_Driver/src/stm32f10x_fsmc.c **** }
 120:Libraries/STM32F10x_StdPeriph_Driver/src/stm32f10x_fsmc.c **** 
 121:Libraries/STM32F10x_StdPeriph_Driver/src/stm32f10x_fsmc.c **** /**
 122:Libraries/STM32F10x_StdPeriph_Driver/src/stm32f10x_fsmc.c ****   * @brief  Deinitializes the FSMC NAND Banks registers to their default reset values.
 123:Libraries/STM32F10x_StdPeriph_Driver/src/stm32f10x_fsmc.c ****   * @param  FSMC_Bank: specifies the FSMC Bank to be used
 124:Libraries/STM32F10x_StdPeriph_Driver/src/stm32f10x_fsmc.c ****   *   This parameter can be one of the following values:
 125:Libraries/STM32F10x_StdPeriph_Driver/src/stm32f10x_fsmc.c ****   *     @arg FSMC_Bank2_NAND: FSMC Bank2 NAND 
 126:Libraries/STM32F10x_StdPeriph_Driver/src/stm32f10x_fsmc.c ****   *     @arg FSMC_Bank3_NAND: FSMC Bank3 NAND 
 127:Libraries/STM32F10x_StdPeriph_Driver/src/stm32f10x_fsmc.c ****   * @retval None
 128:Libraries/STM32F10x_StdPeriph_Driver/src/stm32f10x_fsmc.c ****   */
 129:Libraries/STM32F10x_StdPeriph_Driver/src/stm32f10x_fsmc.c **** void FSMC_NANDDeInit(uint32_t FSMC_Bank)
 130:Libraries/STM32F10x_StdPeriph_Driver/src/stm32f10x_fsmc.c **** {
 122              		.loc 1 130 0
 123              		.cfi_startproc
 124              		@ args = 0, pretend = 0, frame = 0
 125              		@ frame_needed = 0, uses_anonymous_args = 0
 126              		@ link register save eliminated.
 127              	.LVL2:
 131:Libraries/STM32F10x_StdPeriph_Driver/src/stm32f10x_fsmc.c ****   /* Check the parameter */
 132:Libraries/STM32F10x_StdPeriph_Driver/src/stm32f10x_fsmc.c ****   assert_param(IS_FSMC_NAND_BANK(FSMC_Bank));
 133:Libraries/STM32F10x_StdPeriph_Driver/src/stm32f10x_fsmc.c ****   
 134:Libraries/STM32F10x_StdPeriph_Driver/src/stm32f10x_fsmc.c ****   if(FSMC_Bank == FSMC_Bank2_NAND)
 128              		.loc 1 134 0
 129 0028 1028     		cmp	r0, #16	@ FSMC_Bank,
 135:Libraries/STM32F10x_StdPeriph_Driver/src/stm32f10x_fsmc.c ****   {
 136:Libraries/STM32F10x_StdPeriph_Driver/src/stm32f10x_fsmc.c ****     /* Set the FSMC_Bank2 registers to their reset values */
 137:Libraries/STM32F10x_StdPeriph_Driver/src/stm32f10x_fsmc.c ****     FSMC_Bank2->PCR2 = 0x00000018;
 130              		.loc 1 137 0
 131 002a 0CBF     		ite	eq
 132 002c 054B     		ldreq	r3, .L9	@ tmp111,
 138:Libraries/STM32F10x_StdPeriph_Driver/src/stm32f10x_fsmc.c ****     FSMC_Bank2->SR2 = 0x00000040;
 139:Libraries/STM32F10x_StdPeriph_Driver/src/stm32f10x_fsmc.c ****     FSMC_Bank2->PMEM2 = 0xFCFCFCFC;
 140:Libraries/STM32F10x_StdPeriph_Driver/src/stm32f10x_fsmc.c ****     FSMC_Bank2->PATT2 = 0xFCFCFCFC;  
 141:Libraries/STM32F10x_StdPeriph_Driver/src/stm32f10x_fsmc.c ****   }
 142:Libraries/STM32F10x_StdPeriph_Driver/src/stm32f10x_fsmc.c ****   /* FSMC_Bank3_NAND */  
 143:Libraries/STM32F10x_StdPeriph_Driver/src/stm32f10x_fsmc.c ****   else
 144:Libraries/STM32F10x_StdPeriph_Driver/src/stm32f10x_fsmc.c ****   {
 145:Libraries/STM32F10x_StdPeriph_Driver/src/stm32f10x_fsmc.c ****     /* Set the FSMC_Bank3 registers to their reset values */
 146:Libraries/STM32F10x_StdPeriph_Driver/src/stm32f10x_fsmc.c ****     FSMC_Bank3->PCR3 = 0x00000018;
 133              		.loc 1 146 0
 134 002e 064B     		ldrne	r3, .L9+4	@ tmp119,
 135 0030 4022     		movs	r2, #64	@ tmp128,
 136 0032 1821     		movs	r1, #24	@ tmp127,
 137 0034 1960     		str	r1, [r3]	@ tmp127,
 147:Libraries/STM32F10x_StdPeriph_Driver/src/stm32f10x_fsmc.c ****     FSMC_Bank3->SR3 = 0x00000040;
 138              		.loc 1 147 0
ARM GAS  /var/folders/yt/6z6x8bjn5sjf5fbb45bk5m4c0000gn/T//ccRqGMl0.s 			page 6


 139 0036 5A60     		str	r2, [r3, #4]	@ tmp128,
 148:Libraries/STM32F10x_StdPeriph_Driver/src/stm32f10x_fsmc.c ****     FSMC_Bank3->PMEM3 = 0xFCFCFCFC;
 140              		.loc 1 148 0
 141 0038 4FF0FC32 		mov	r2, #-50529028	@ tmp124,
 142 003c 9A60     		str	r2, [r3, #8]	@ tmp124,
 149:Libraries/STM32F10x_StdPeriph_Driver/src/stm32f10x_fsmc.c ****     FSMC_Bank3->PATT3 = 0xFCFCFCFC; 
 143              		.loc 1 149 0
 144 003e DA60     		str	r2, [r3, #12]	@ tmp124,
 145 0040 7047     		bx	lr	@
 146              	.L10:
 147 0042 00BF     		.align	2
 148              	.L9:
 149 0044 600000A0 		.word	-1610612640
 150 0048 800000A0 		.word	-1610612608
 151              		.cfi_endproc
 152              	.LFE30:
 153              		.size	FSMC_NANDDeInit, .-FSMC_NANDDeInit
 154              		.align	1
 155              		.global	FSMC_PCCARDDeInit
 156              		.thumb
 157              		.thumb_func
 158              		.type	FSMC_PCCARDDeInit, %function
 159              	FSMC_PCCARDDeInit:
 160              	.LFB31:
 150:Libraries/STM32F10x_StdPeriph_Driver/src/stm32f10x_fsmc.c ****   }  
 151:Libraries/STM32F10x_StdPeriph_Driver/src/stm32f10x_fsmc.c **** }
 152:Libraries/STM32F10x_StdPeriph_Driver/src/stm32f10x_fsmc.c **** 
 153:Libraries/STM32F10x_StdPeriph_Driver/src/stm32f10x_fsmc.c **** /**
 154:Libraries/STM32F10x_StdPeriph_Driver/src/stm32f10x_fsmc.c ****   * @brief  Deinitializes the FSMC PCCARD Bank registers to their default reset values.
 155:Libraries/STM32F10x_StdPeriph_Driver/src/stm32f10x_fsmc.c ****   * @param  None                       
 156:Libraries/STM32F10x_StdPeriph_Driver/src/stm32f10x_fsmc.c ****   * @retval None
 157:Libraries/STM32F10x_StdPeriph_Driver/src/stm32f10x_fsmc.c ****   */
 158:Libraries/STM32F10x_StdPeriph_Driver/src/stm32f10x_fsmc.c **** void FSMC_PCCARDDeInit(void)
 159:Libraries/STM32F10x_StdPeriph_Driver/src/stm32f10x_fsmc.c **** {
 161              		.loc 1 159 0
 162              		.cfi_startproc
 163              		@ args = 0, pretend = 0, frame = 0
 164              		@ frame_needed = 0, uses_anonymous_args = 0
 165              		@ link register save eliminated.
 160:Libraries/STM32F10x_StdPeriph_Driver/src/stm32f10x_fsmc.c ****   /* Set the FSMC_Bank4 registers to their reset values */
 161:Libraries/STM32F10x_StdPeriph_Driver/src/stm32f10x_fsmc.c ****   FSMC_Bank4->PCR4 = 0x00000018; 
 166              		.loc 1 161 0
 167 004c 054B     		ldr	r3, .L12	@ tmp110,
 168 004e 1822     		movs	r2, #24	@ tmp111,
 169 0050 1A60     		str	r2, [r3]	@ tmp111, MEM[(struct FSMC_Bank4_TypeDef *)2684354720B].PCR4
 162:Libraries/STM32F10x_StdPeriph_Driver/src/stm32f10x_fsmc.c ****   FSMC_Bank4->SR4 = 0x00000000;	
 170              		.loc 1 162 0
 171 0052 0022     		movs	r2, #0	@ tmp113,
 172 0054 5A60     		str	r2, [r3, #4]	@ tmp113, MEM[(struct FSMC_Bank4_TypeDef *)2684354720B].SR4
 163:Libraries/STM32F10x_StdPeriph_Driver/src/stm32f10x_fsmc.c ****   FSMC_Bank4->PMEM4 = 0xFCFCFCFC;
 173              		.loc 1 163 0
 174 0056 4FF0FC32 		mov	r2, #-50529028	@ tmp115,
 175 005a 9A60     		str	r2, [r3, #8]	@ tmp115, MEM[(struct FSMC_Bank4_TypeDef *)2684354720B].PMEM4
 164:Libraries/STM32F10x_StdPeriph_Driver/src/stm32f10x_fsmc.c ****   FSMC_Bank4->PATT4 = 0xFCFCFCFC;
 176              		.loc 1 164 0
 177 005c DA60     		str	r2, [r3, #12]	@ tmp115, MEM[(struct FSMC_Bank4_TypeDef *)2684354720B].PATT4
 165:Libraries/STM32F10x_StdPeriph_Driver/src/stm32f10x_fsmc.c ****   FSMC_Bank4->PIO4 = 0xFCFCFCFC;
ARM GAS  /var/folders/yt/6z6x8bjn5sjf5fbb45bk5m4c0000gn/T//ccRqGMl0.s 			page 7


 178              		.loc 1 165 0
 179 005e 1A61     		str	r2, [r3, #16]	@ tmp115, MEM[(struct FSMC_Bank4_TypeDef *)2684354720B].PIO4
 180 0060 7047     		bx	lr	@
 181              	.L13:
 182 0062 00BF     		.align	2
 183              	.L12:
 184 0064 A00000A0 		.word	-1610612576
 185              		.cfi_endproc
 186              	.LFE31:
 187              		.size	FSMC_PCCARDDeInit, .-FSMC_PCCARDDeInit
 188              		.align	1
 189              		.global	FSMC_NORSRAMInit
 190              		.thumb
 191              		.thumb_func
 192              		.type	FSMC_NORSRAMInit, %function
 193              	FSMC_NORSRAMInit:
 194              	.LFB32:
 166:Libraries/STM32F10x_StdPeriph_Driver/src/stm32f10x_fsmc.c **** }
 167:Libraries/STM32F10x_StdPeriph_Driver/src/stm32f10x_fsmc.c **** 
 168:Libraries/STM32F10x_StdPeriph_Driver/src/stm32f10x_fsmc.c **** /**
 169:Libraries/STM32F10x_StdPeriph_Driver/src/stm32f10x_fsmc.c ****   * @brief  Initializes the FSMC NOR/SRAM Banks according to the specified
 170:Libraries/STM32F10x_StdPeriph_Driver/src/stm32f10x_fsmc.c ****   *         parameters in the FSMC_NORSRAMInitStruct.
 171:Libraries/STM32F10x_StdPeriph_Driver/src/stm32f10x_fsmc.c ****   * @param  FSMC_NORSRAMInitStruct : pointer to a FSMC_NORSRAMInitTypeDef
 172:Libraries/STM32F10x_StdPeriph_Driver/src/stm32f10x_fsmc.c ****   *         structure that contains the configuration information for 
 173:Libraries/STM32F10x_StdPeriph_Driver/src/stm32f10x_fsmc.c ****   *        the FSMC NOR/SRAM specified Banks.                       
 174:Libraries/STM32F10x_StdPeriph_Driver/src/stm32f10x_fsmc.c ****   * @retval None
 175:Libraries/STM32F10x_StdPeriph_Driver/src/stm32f10x_fsmc.c ****   */
 176:Libraries/STM32F10x_StdPeriph_Driver/src/stm32f10x_fsmc.c **** void FSMC_NORSRAMInit(FSMC_NORSRAMInitTypeDef* FSMC_NORSRAMInitStruct)
 177:Libraries/STM32F10x_StdPeriph_Driver/src/stm32f10x_fsmc.c **** { 
 195              		.loc 1 177 0
 196              		.cfi_startproc
 197              		@ args = 0, pretend = 0, frame = 0
 198              		@ frame_needed = 0, uses_anonymous_args = 0
 199              	.LVL3:
 178:Libraries/STM32F10x_StdPeriph_Driver/src/stm32f10x_fsmc.c ****   /* Check the parameters */
 179:Libraries/STM32F10x_StdPeriph_Driver/src/stm32f10x_fsmc.c ****   assert_param(IS_FSMC_NORSRAM_BANK(FSMC_NORSRAMInitStruct->FSMC_Bank));
 180:Libraries/STM32F10x_StdPeriph_Driver/src/stm32f10x_fsmc.c ****   assert_param(IS_FSMC_MUX(FSMC_NORSRAMInitStruct->FSMC_DataAddressMux));
 181:Libraries/STM32F10x_StdPeriph_Driver/src/stm32f10x_fsmc.c ****   assert_param(IS_FSMC_MEMORY(FSMC_NORSRAMInitStruct->FSMC_MemoryType));
 182:Libraries/STM32F10x_StdPeriph_Driver/src/stm32f10x_fsmc.c ****   assert_param(IS_FSMC_MEMORY_WIDTH(FSMC_NORSRAMInitStruct->FSMC_MemoryDataWidth));
 183:Libraries/STM32F10x_StdPeriph_Driver/src/stm32f10x_fsmc.c ****   assert_param(IS_FSMC_BURSTMODE(FSMC_NORSRAMInitStruct->FSMC_BurstAccessMode));
 184:Libraries/STM32F10x_StdPeriph_Driver/src/stm32f10x_fsmc.c ****   assert_param(IS_FSMC_ASYNWAIT(FSMC_NORSRAMInitStruct->FSMC_AsynchronousWait));
 185:Libraries/STM32F10x_StdPeriph_Driver/src/stm32f10x_fsmc.c ****   assert_param(IS_FSMC_WAIT_POLARITY(FSMC_NORSRAMInitStruct->FSMC_WaitSignalPolarity));
 186:Libraries/STM32F10x_StdPeriph_Driver/src/stm32f10x_fsmc.c ****   assert_param(IS_FSMC_WRAP_MODE(FSMC_NORSRAMInitStruct->FSMC_WrapMode));
 187:Libraries/STM32F10x_StdPeriph_Driver/src/stm32f10x_fsmc.c ****   assert_param(IS_FSMC_WAIT_SIGNAL_ACTIVE(FSMC_NORSRAMInitStruct->FSMC_WaitSignalActive));
 188:Libraries/STM32F10x_StdPeriph_Driver/src/stm32f10x_fsmc.c ****   assert_param(IS_FSMC_WRITE_OPERATION(FSMC_NORSRAMInitStruct->FSMC_WriteOperation));
 189:Libraries/STM32F10x_StdPeriph_Driver/src/stm32f10x_fsmc.c ****   assert_param(IS_FSMC_WAITE_SIGNAL(FSMC_NORSRAMInitStruct->FSMC_WaitSignal));
 190:Libraries/STM32F10x_StdPeriph_Driver/src/stm32f10x_fsmc.c ****   assert_param(IS_FSMC_EXTENDED_MODE(FSMC_NORSRAMInitStruct->FSMC_ExtendedMode));
 191:Libraries/STM32F10x_StdPeriph_Driver/src/stm32f10x_fsmc.c ****   assert_param(IS_FSMC_WRITE_BURST(FSMC_NORSRAMInitStruct->FSMC_WriteBurst));  
 192:Libraries/STM32F10x_StdPeriph_Driver/src/stm32f10x_fsmc.c ****   assert_param(IS_FSMC_ADDRESS_SETUP_TIME(FSMC_NORSRAMInitStruct->FSMC_ReadWriteTimingStruct->FSMC_
 193:Libraries/STM32F10x_StdPeriph_Driver/src/stm32f10x_fsmc.c ****   assert_param(IS_FSMC_ADDRESS_HOLD_TIME(FSMC_NORSRAMInitStruct->FSMC_ReadWriteTimingStruct->FSMC_A
 194:Libraries/STM32F10x_StdPeriph_Driver/src/stm32f10x_fsmc.c ****   assert_param(IS_FSMC_DATASETUP_TIME(FSMC_NORSRAMInitStruct->FSMC_ReadWriteTimingStruct->FSMC_Data
 195:Libraries/STM32F10x_StdPeriph_Driver/src/stm32f10x_fsmc.c ****   assert_param(IS_FSMC_TURNAROUND_TIME(FSMC_NORSRAMInitStruct->FSMC_ReadWriteTimingStruct->FSMC_Bus
 196:Libraries/STM32F10x_StdPeriph_Driver/src/stm32f10x_fsmc.c ****   assert_param(IS_FSMC_CLK_DIV(FSMC_NORSRAMInitStruct->FSMC_ReadWriteTimingStruct->FSMC_CLKDivision
 197:Libraries/STM32F10x_StdPeriph_Driver/src/stm32f10x_fsmc.c ****   assert_param(IS_FSMC_DATA_LATENCY(FSMC_NORSRAMInitStruct->FSMC_ReadWriteTimingStruct->FSMC_DataLa
 198:Libraries/STM32F10x_StdPeriph_Driver/src/stm32f10x_fsmc.c ****   assert_param(IS_FSMC_ACCESS_MODE(FSMC_NORSRAMInitStruct->FSMC_ReadWriteTimingStruct->FSMC_AccessM
 199:Libraries/STM32F10x_StdPeriph_Driver/src/stm32f10x_fsmc.c ****   
 200:Libraries/STM32F10x_StdPeriph_Driver/src/stm32f10x_fsmc.c ****   /* Bank1 NOR/SRAM control register configuration */ 
ARM GAS  /var/folders/yt/6z6x8bjn5sjf5fbb45bk5m4c0000gn/T//ccRqGMl0.s 			page 8


 201:Libraries/STM32F10x_StdPeriph_Driver/src/stm32f10x_fsmc.c ****   FSMC_Bank1->BTCR[FSMC_NORSRAMInitStruct->FSMC_Bank] = 
 202:Libraries/STM32F10x_StdPeriph_Driver/src/stm32f10x_fsmc.c ****             (uint32_t)FSMC_NORSRAMInitStruct->FSMC_DataAddressMux |
 203:Libraries/STM32F10x_StdPeriph_Driver/src/stm32f10x_fsmc.c ****             FSMC_NORSRAMInitStruct->FSMC_MemoryType |
 200              		.loc 1 203 0
 201 0068 8168     		ldr	r1, [r0, #8]	@ D.5916, FSMC_NORSRAMInitStruct_4(D)->FSMC_MemoryType
 202:Libraries/STM32F10x_StdPeriph_Driver/src/stm32f10x_fsmc.c ****             FSMC_NORSRAMInitStruct->FSMC_MemoryType |
 202              		.loc 1 202 0
 203 006a 4368     		ldr	r3, [r0, #4]	@ FSMC_NORSRAMInitStruct_4(D)->FSMC_DataAddressMux, FSMC_NORSRAMInitStruct_4(D)->
 177:Libraries/STM32F10x_StdPeriph_Driver/src/stm32f10x_fsmc.c ****   /* Check the parameters */
 204              		.loc 1 177 0
 205 006c 30B5     		push	{r4, r5, lr}	@
 206              	.LCFI0:
 207              		.cfi_def_cfa_offset 12
 208              		.cfi_offset 4, -12
 209              		.cfi_offset 5, -8
 210              		.cfi_offset 14, -4
 202:Libraries/STM32F10x_StdPeriph_Driver/src/stm32f10x_fsmc.c ****             FSMC_NORSRAMInitStruct->FSMC_MemoryType |
 211              		.loc 1 202 0
 212 006e 41EA0302 		orr	r2, r1, r3	@ D.5916, D.5916, FSMC_NORSRAMInitStruct_4(D)->FSMC_DataAddressMux
 213              		.loc 1 203 0
 214 0072 C368     		ldr	r3, [r0, #12]	@ FSMC_NORSRAMInitStruct_4(D)->FSMC_MemoryDataWidth, FSMC_NORSRAMInitStruct_4(D)
 204:Libraries/STM32F10x_StdPeriph_Driver/src/stm32f10x_fsmc.c ****             FSMC_NORSRAMInitStruct->FSMC_MemoryDataWidth |
 205:Libraries/STM32F10x_StdPeriph_Driver/src/stm32f10x_fsmc.c ****             FSMC_NORSRAMInitStruct->FSMC_BurstAccessMode |
 206:Libraries/STM32F10x_StdPeriph_Driver/src/stm32f10x_fsmc.c ****             FSMC_NORSRAMInitStruct->FSMC_AsynchronousWait |
 207:Libraries/STM32F10x_StdPeriph_Driver/src/stm32f10x_fsmc.c ****             FSMC_NORSRAMInitStruct->FSMC_WaitSignalPolarity |
 208:Libraries/STM32F10x_StdPeriph_Driver/src/stm32f10x_fsmc.c ****             FSMC_NORSRAMInitStruct->FSMC_WrapMode |
 209:Libraries/STM32F10x_StdPeriph_Driver/src/stm32f10x_fsmc.c ****             FSMC_NORSRAMInitStruct->FSMC_WaitSignalActive |
 210:Libraries/STM32F10x_StdPeriph_Driver/src/stm32f10x_fsmc.c ****             FSMC_NORSRAMInitStruct->FSMC_WriteOperation |
 211:Libraries/STM32F10x_StdPeriph_Driver/src/stm32f10x_fsmc.c ****             FSMC_NORSRAMInitStruct->FSMC_WaitSignal |
 212:Libraries/STM32F10x_StdPeriph_Driver/src/stm32f10x_fsmc.c ****             FSMC_NORSRAMInitStruct->FSMC_ExtendedMode |
 215              		.loc 1 212 0
 216 0074 C46A     		ldr	r4, [r0, #44]	@ D.5916, FSMC_NORSRAMInitStruct_4(D)->FSMC_ExtendedMode
 203:Libraries/STM32F10x_StdPeriph_Driver/src/stm32f10x_fsmc.c ****             FSMC_NORSRAMInitStruct->FSMC_MemoryDataWidth |
 217              		.loc 1 203 0
 218 0076 1A43     		orrs	r2, r2, r3	@, D.5916, D.5916, FSMC_NORSRAMInitStruct_4(D)->FSMC_MemoryDataWidth
 204:Libraries/STM32F10x_StdPeriph_Driver/src/stm32f10x_fsmc.c ****             FSMC_NORSRAMInitStruct->FSMC_MemoryDataWidth |
 219              		.loc 1 204 0
 220 0078 0369     		ldr	r3, [r0, #16]	@ FSMC_NORSRAMInitStruct_4(D)->FSMC_BurstAccessMode, FSMC_NORSRAMInitStruct_4(D)
 213:Libraries/STM32F10x_StdPeriph_Driver/src/stm32f10x_fsmc.c ****             FSMC_NORSRAMInitStruct->FSMC_WriteBurst;
 214:Libraries/STM32F10x_StdPeriph_Driver/src/stm32f10x_fsmc.c **** 
 215:Libraries/STM32F10x_StdPeriph_Driver/src/stm32f10x_fsmc.c ****   if(FSMC_NORSRAMInitStruct->FSMC_MemoryType == FSMC_MemoryType_NOR)
 221              		.loc 1 215 0
 222 007a 0829     		cmp	r1, #8	@ D.5916,
 204:Libraries/STM32F10x_StdPeriph_Driver/src/stm32f10x_fsmc.c ****             FSMC_NORSRAMInitStruct->FSMC_BurstAccessMode |
 223              		.loc 1 204 0
 224 007c 42EA0302 		orr	r2, r2, r3	@ D.5916, D.5916, FSMC_NORSRAMInitStruct_4(D)->FSMC_BurstAccessMode
 205:Libraries/STM32F10x_StdPeriph_Driver/src/stm32f10x_fsmc.c ****             FSMC_NORSRAMInitStruct->FSMC_AsynchronousWait |
 225              		.loc 1 205 0
 226 0080 4369     		ldr	r3, [r0, #20]	@ FSMC_NORSRAMInitStruct_4(D)->FSMC_AsynchronousWait, FSMC_NORSRAMInitStruct_4(D
 216:Libraries/STM32F10x_StdPeriph_Driver/src/stm32f10x_fsmc.c ****   {
 217:Libraries/STM32F10x_StdPeriph_Driver/src/stm32f10x_fsmc.c ****     FSMC_Bank1->BTCR[FSMC_NORSRAMInitStruct->FSMC_Bank] |= (uint32_t)BCR_FACCEN_Set;
 218:Libraries/STM32F10x_StdPeriph_Driver/src/stm32f10x_fsmc.c ****   }
 219:Libraries/STM32F10x_StdPeriph_Driver/src/stm32f10x_fsmc.c ****   
 220:Libraries/STM32F10x_StdPeriph_Driver/src/stm32f10x_fsmc.c ****   /* Bank1 NOR/SRAM timing register configuration */
 221:Libraries/STM32F10x_StdPeriph_Driver/src/stm32f10x_fsmc.c ****   FSMC_Bank1->BTCR[FSMC_NORSRAMInitStruct->FSMC_Bank+1] = 
 222:Libraries/STM32F10x_StdPeriph_Driver/src/stm32f10x_fsmc.c ****             (uint32_t)FSMC_NORSRAMInitStruct->FSMC_ReadWriteTimingStruct->FSMC_AddressSetupTime |
 227              		.loc 1 222 0
ARM GAS  /var/folders/yt/6z6x8bjn5sjf5fbb45bk5m4c0000gn/T//ccRqGMl0.s 			page 9


 228 0082 416B     		ldr	r1, [r0, #52]	@ D.5917, FSMC_NORSRAMInitStruct_4(D)->FSMC_ReadWriteTimingStruct
 205:Libraries/STM32F10x_StdPeriph_Driver/src/stm32f10x_fsmc.c ****             FSMC_NORSRAMInitStruct->FSMC_AsynchronousWait |
 229              		.loc 1 205 0
 230 0084 42EA0302 		orr	r2, r2, r3	@ D.5916, D.5916, FSMC_NORSRAMInitStruct_4(D)->FSMC_AsynchronousWait
 206:Libraries/STM32F10x_StdPeriph_Driver/src/stm32f10x_fsmc.c ****             FSMC_NORSRAMInitStruct->FSMC_WaitSignalPolarity |
 231              		.loc 1 206 0
 232 0088 8369     		ldr	r3, [r0, #24]	@ FSMC_NORSRAMInitStruct_4(D)->FSMC_WaitSignalPolarity, FSMC_NORSRAMInitStruct_4
 233 008a 8D69     		ldr	r5, [r1, #24]	@ _34->FSMC_AccessMode, _34->FSMC_AccessMode
 234 008c 42EA0302 		orr	r2, r2, r3	@ D.5916, D.5916, FSMC_NORSRAMInitStruct_4(D)->FSMC_WaitSignalPolarity
 207:Libraries/STM32F10x_StdPeriph_Driver/src/stm32f10x_fsmc.c ****             FSMC_NORSRAMInitStruct->FSMC_WrapMode |
 235              		.loc 1 207 0
 236 0090 C369     		ldr	r3, [r0, #28]	@ FSMC_NORSRAMInitStruct_4(D)->FSMC_WrapMode, FSMC_NORSRAMInitStruct_4(D)->FSMC_
 237 0092 42EA0302 		orr	r2, r2, r3	@ D.5916, D.5916, FSMC_NORSRAMInitStruct_4(D)->FSMC_WrapMode
 208:Libraries/STM32F10x_StdPeriph_Driver/src/stm32f10x_fsmc.c ****             FSMC_NORSRAMInitStruct->FSMC_WaitSignalActive |
 238              		.loc 1 208 0
 239 0096 036A     		ldr	r3, [r0, #32]	@ FSMC_NORSRAMInitStruct_4(D)->FSMC_WaitSignalActive, FSMC_NORSRAMInitStruct_4(D
 240 0098 42EA0302 		orr	r2, r2, r3	@ D.5916, D.5916, FSMC_NORSRAMInitStruct_4(D)->FSMC_WaitSignalActive
 209:Libraries/STM32F10x_StdPeriph_Driver/src/stm32f10x_fsmc.c ****             FSMC_NORSRAMInitStruct->FSMC_WriteOperation |
 241              		.loc 1 209 0
 242 009c 436A     		ldr	r3, [r0, #36]	@ FSMC_NORSRAMInitStruct_4(D)->FSMC_WriteOperation, FSMC_NORSRAMInitStruct_4(D)-
 243 009e 42EA0302 		orr	r2, r2, r3	@ D.5916, D.5916, FSMC_NORSRAMInitStruct_4(D)->FSMC_WriteOperation
 210:Libraries/STM32F10x_StdPeriph_Driver/src/stm32f10x_fsmc.c ****             FSMC_NORSRAMInitStruct->FSMC_WaitSignal |
 244              		.loc 1 210 0
 245 00a2 836A     		ldr	r3, [r0, #40]	@ FSMC_NORSRAMInitStruct_4(D)->FSMC_WaitSignal, FSMC_NORSRAMInitStruct_4(D)->FSM
 246 00a4 43EA0203 		orr	r3, r3, r2	@ D.5916, FSMC_NORSRAMInitStruct_4(D)->FSMC_WaitSignal, D.5916
 212:Libraries/STM32F10x_StdPeriph_Driver/src/stm32f10x_fsmc.c ****             FSMC_NORSRAMInitStruct->FSMC_WriteBurst;
 247              		.loc 1 212 0
 248 00a8 026B     		ldr	r2, [r0, #48]	@ FSMC_NORSRAMInitStruct_4(D)->FSMC_WriteBurst, FSMC_NORSRAMInitStruct_4(D)->FSM
 211:Libraries/STM32F10x_StdPeriph_Driver/src/stm32f10x_fsmc.c ****             FSMC_NORSRAMInitStruct->FSMC_ExtendedMode |
 249              		.loc 1 211 0
 250 00aa 43EA0403 		orr	r3, r3, r4	@ D.5916, D.5916, D.5916
 212:Libraries/STM32F10x_StdPeriph_Driver/src/stm32f10x_fsmc.c ****             FSMC_NORSRAMInitStruct->FSMC_WriteBurst;
 251              		.loc 1 212 0
 252 00ae 43EA0203 		orr	r3, r3, r2	@ D.5916, D.5916, FSMC_NORSRAMInitStruct_4(D)->FSMC_WriteBurst
 253 00b2 0268     		ldr	r2, [r0]	@ FSMC_NORSRAMInitStruct_4(D)->FSMC_Bank, FSMC_NORSRAMInitStruct_4(D)->FSMC_Bank
 254 00b4 4FEA8202 		lsl	r2, r2, #2	@ D.5918, FSMC_NORSRAMInitStruct_4(D)->FSMC_Bank,
 255 00b8 02F12042 		add	r2, r2, #-1610612736	@ D.5919, D.5918,
 201:Libraries/STM32F10x_StdPeriph_Driver/src/stm32f10x_fsmc.c ****             (uint32_t)FSMC_NORSRAMInitStruct->FSMC_DataAddressMux |
 256              		.loc 1 201 0
 257 00bc 1360     		str	r3, [r2]	@ D.5916, MEM[(struct FSMC_Bank1_TypeDef *)_41]
 217:Libraries/STM32F10x_StdPeriph_Driver/src/stm32f10x_fsmc.c ****   }
 258              		.loc 1 217 0
 259 00be 02BF     		ittt	eq
 260 00c0 1368     		ldreq	r3, [r2]	@ D.5916, MEM[(struct FSMC_Bank1_TypeDef *)_41]
 261 00c2 43F04003 		orreq	r3, r3, #64	@ D.5916, D.5916,
 262 00c6 1360     		streq	r3, [r2]	@ D.5916, MEM[(struct FSMC_Bank1_TypeDef *)_41]
 263 00c8 0B68     		ldr	r3, [r1]	@ _34->FSMC_AddressSetupTime, _34->FSMC_AddressSetupTime
 223:Libraries/STM32F10x_StdPeriph_Driver/src/stm32f10x_fsmc.c ****             (FSMC_NORSRAMInitStruct->FSMC_ReadWriteTimingStruct->FSMC_AddressHoldTime << 4) |
 224:Libraries/STM32F10x_StdPeriph_Driver/src/stm32f10x_fsmc.c ****             (FSMC_NORSRAMInitStruct->FSMC_ReadWriteTimingStruct->FSMC_DataSetupTime << 8) |
 225:Libraries/STM32F10x_StdPeriph_Driver/src/stm32f10x_fsmc.c ****             (FSMC_NORSRAMInitStruct->FSMC_ReadWriteTimingStruct->FSMC_BusTurnAroundDuration << 16) 
 226:Libraries/STM32F10x_StdPeriph_Driver/src/stm32f10x_fsmc.c ****             (FSMC_NORSRAMInitStruct->FSMC_ReadWriteTimingStruct->FSMC_CLKDivision << 20) |
 227:Libraries/STM32F10x_StdPeriph_Driver/src/stm32f10x_fsmc.c ****             (FSMC_NORSRAMInitStruct->FSMC_ReadWriteTimingStruct->FSMC_DataLatency << 24) |
 228:Libraries/STM32F10x_StdPeriph_Driver/src/stm32f10x_fsmc.c ****              FSMC_NORSRAMInitStruct->FSMC_ReadWriteTimingStruct->FSMC_AccessMode;
 229:Libraries/STM32F10x_StdPeriph_Driver/src/stm32f10x_fsmc.c ****             
 230:Libraries/STM32F10x_StdPeriph_Driver/src/stm32f10x_fsmc.c ****     
 231:Libraries/STM32F10x_StdPeriph_Driver/src/stm32f10x_fsmc.c ****   /* Bank1 NOR/SRAM timing register for write configuration, if extended mode is used */
 232:Libraries/STM32F10x_StdPeriph_Driver/src/stm32f10x_fsmc.c ****   if(FSMC_NORSRAMInitStruct->FSMC_ExtendedMode == FSMC_ExtendedMode_Enable)
ARM GAS  /var/folders/yt/6z6x8bjn5sjf5fbb45bk5m4c0000gn/T//ccRqGMl0.s 			page 10


 264              		.loc 1 232 0
 265 00ca B4F5804F 		cmp	r4, #16384	@ D.5916,
 266 00ce 43EA0503 		orr	r3, r3, r5	@ D.5916, _34->FSMC_AddressSetupTime, _34->FSMC_AccessMode
 223:Libraries/STM32F10x_StdPeriph_Driver/src/stm32f10x_fsmc.c ****             (FSMC_NORSRAMInitStruct->FSMC_ReadWriteTimingStruct->FSMC_AddressHoldTime << 4) |
 267              		.loc 1 223 0
 268 00d2 4D68     		ldr	r5, [r1, #4]	@ _34->FSMC_AddressHoldTime, _34->FSMC_AddressHoldTime
 269 00d4 43EA0513 		orr	r3, r3, r5, lsl #4	@, D.5916, D.5916, _34->FSMC_AddressHoldTime,
 224:Libraries/STM32F10x_StdPeriph_Driver/src/stm32f10x_fsmc.c ****             (FSMC_NORSRAMInitStruct->FSMC_ReadWriteTimingStruct->FSMC_BusTurnAroundDuration << 16) 
 270              		.loc 1 224 0
 271 00d8 8D68     		ldr	r5, [r1, #8]	@ _34->FSMC_DataSetupTime, _34->FSMC_DataSetupTime
 272 00da 43EA0523 		orr	r3, r3, r5, lsl #8	@, D.5916, D.5916, _34->FSMC_DataSetupTime,
 225:Libraries/STM32F10x_StdPeriph_Driver/src/stm32f10x_fsmc.c ****             (FSMC_NORSRAMInitStruct->FSMC_ReadWriteTimingStruct->FSMC_CLKDivision << 20) |
 273              		.loc 1 225 0
 274 00de CD68     		ldr	r5, [r1, #12]	@ _34->FSMC_BusTurnAroundDuration, _34->FSMC_BusTurnAroundDuration
 275 00e0 43EA0543 		orr	r3, r3, r5, lsl #16	@, D.5916, D.5916, _34->FSMC_BusTurnAroundDuration,
 226:Libraries/STM32F10x_StdPeriph_Driver/src/stm32f10x_fsmc.c ****             (FSMC_NORSRAMInitStruct->FSMC_ReadWriteTimingStruct->FSMC_DataLatency << 24) |
 276              		.loc 1 226 0
 277 00e4 0D69     		ldr	r5, [r1, #16]	@ _34->FSMC_CLKDivision, _34->FSMC_CLKDivision
 227:Libraries/STM32F10x_StdPeriph_Driver/src/stm32f10x_fsmc.c ****              FSMC_NORSRAMInitStruct->FSMC_ReadWriteTimingStruct->FSMC_AccessMode;
 278              		.loc 1 227 0
 279 00e6 4969     		ldr	r1, [r1, #20]	@ _34->FSMC_DataLatency, _34->FSMC_DataLatency
 280 00e8 43EA0553 		orr	r3, r3, r5, lsl #20	@, D.5916, D.5916, _34->FSMC_CLKDivision,
 281 00ec 43EA0163 		orr	r3, r3, r1, lsl #24	@, D.5916, D.5916, _34->FSMC_DataLatency,
 221:Libraries/STM32F10x_StdPeriph_Driver/src/stm32f10x_fsmc.c ****             (uint32_t)FSMC_NORSRAMInitStruct->FSMC_ReadWriteTimingStruct->FSMC_AddressSetupTime |
 282              		.loc 1 221 0
 283 00f0 5360     		str	r3, [r2, #4]	@ D.5916, MEM[(struct FSMC_Bank1_TypeDef *)_41 + 4B]
 284              		.loc 1 232 0
 285 00f2 10D1     		bne	.L16	@,
 233:Libraries/STM32F10x_StdPeriph_Driver/src/stm32f10x_fsmc.c ****   {
 234:Libraries/STM32F10x_StdPeriph_Driver/src/stm32f10x_fsmc.c ****     assert_param(IS_FSMC_ADDRESS_SETUP_TIME(FSMC_NORSRAMInitStruct->FSMC_WriteTimingStruct->FSMC_Ad
 235:Libraries/STM32F10x_StdPeriph_Driver/src/stm32f10x_fsmc.c ****     assert_param(IS_FSMC_ADDRESS_HOLD_TIME(FSMC_NORSRAMInitStruct->FSMC_WriteTimingStruct->FSMC_Add
 236:Libraries/STM32F10x_StdPeriph_Driver/src/stm32f10x_fsmc.c ****     assert_param(IS_FSMC_DATASETUP_TIME(FSMC_NORSRAMInitStruct->FSMC_WriteTimingStruct->FSMC_DataSe
 237:Libraries/STM32F10x_StdPeriph_Driver/src/stm32f10x_fsmc.c ****     assert_param(IS_FSMC_CLK_DIV(FSMC_NORSRAMInitStruct->FSMC_WriteTimingStruct->FSMC_CLKDivision))
 238:Libraries/STM32F10x_StdPeriph_Driver/src/stm32f10x_fsmc.c ****     assert_param(IS_FSMC_DATA_LATENCY(FSMC_NORSRAMInitStruct->FSMC_WriteTimingStruct->FSMC_DataLate
 239:Libraries/STM32F10x_StdPeriph_Driver/src/stm32f10x_fsmc.c ****     assert_param(IS_FSMC_ACCESS_MODE(FSMC_NORSRAMInitStruct->FSMC_WriteTimingStruct->FSMC_AccessMod
 240:Libraries/STM32F10x_StdPeriph_Driver/src/stm32f10x_fsmc.c ****     FSMC_Bank1E->BWTR[FSMC_NORSRAMInitStruct->FSMC_Bank] = 
 241:Libraries/STM32F10x_StdPeriph_Driver/src/stm32f10x_fsmc.c ****               (uint32_t)FSMC_NORSRAMInitStruct->FSMC_WriteTimingStruct->FSMC_AddressSetupTime |
 286              		.loc 1 241 0
 287 00f4 816B     		ldr	r1, [r0, #56]	@ D.5917, FSMC_NORSRAMInitStruct_4(D)->FSMC_WriteTimingStruct
 288 00f6 8869     		ldr	r0, [r1, #24]	@ _54->FSMC_AccessMode, _54->FSMC_AccessMode
 289              	.LVL4:
 290 00f8 0B68     		ldr	r3, [r1]	@ _54->FSMC_AddressSetupTime, _54->FSMC_AddressSetupTime
 291 00fa 0343     		orrs	r3, r3, r0	@, D.5916, _54->FSMC_AddressSetupTime, _54->FSMC_AccessMode
 242:Libraries/STM32F10x_StdPeriph_Driver/src/stm32f10x_fsmc.c ****               (FSMC_NORSRAMInitStruct->FSMC_WriteTimingStruct->FSMC_AddressHoldTime << 4 )|
 292              		.loc 1 242 0
 293 00fc 4868     		ldr	r0, [r1, #4]	@ _54->FSMC_AddressHoldTime, _54->FSMC_AddressHoldTime
 294 00fe 43EA0013 		orr	r3, r3, r0, lsl #4	@, D.5916, D.5916, _54->FSMC_AddressHoldTime,
 243:Libraries/STM32F10x_StdPeriph_Driver/src/stm32f10x_fsmc.c ****               (FSMC_NORSRAMInitStruct->FSMC_WriteTimingStruct->FSMC_DataSetupTime << 8) |
 295              		.loc 1 243 0
 296 0102 8868     		ldr	r0, [r1, #8]	@ _54->FSMC_DataSetupTime, _54->FSMC_DataSetupTime
 297 0104 43EA0023 		orr	r3, r3, r0, lsl #8	@, D.5916, D.5916, _54->FSMC_DataSetupTime,
 244:Libraries/STM32F10x_StdPeriph_Driver/src/stm32f10x_fsmc.c ****               (FSMC_NORSRAMInitStruct->FSMC_WriteTimingStruct->FSMC_CLKDivision << 20) |
 298              		.loc 1 244 0
 299 0108 0869     		ldr	r0, [r1, #16]	@ _54->FSMC_CLKDivision, _54->FSMC_CLKDivision
 245:Libraries/STM32F10x_StdPeriph_Driver/src/stm32f10x_fsmc.c ****               (FSMC_NORSRAMInitStruct->FSMC_WriteTimingStruct->FSMC_DataLatency << 24) |
 300              		.loc 1 245 0
 301 010a 4969     		ldr	r1, [r1, #20]	@ _54->FSMC_DataLatency, _54->FSMC_DataLatency
ARM GAS  /var/folders/yt/6z6x8bjn5sjf5fbb45bk5m4c0000gn/T//ccRqGMl0.s 			page 11


 302 010c 43EA0053 		orr	r3, r3, r0, lsl #20	@, D.5916, D.5916, _54->FSMC_CLKDivision,
 303 0110 43EA0163 		orr	r3, r3, r1, lsl #24	@, D.5916, D.5916, _54->FSMC_DataLatency,
 304 0114 01E0     		b	.L18	@
 305              	.LVL5:
 306              	.L16:
 246:Libraries/STM32F10x_StdPeriph_Driver/src/stm32f10x_fsmc.c ****                FSMC_NORSRAMInitStruct->FSMC_WriteTimingStruct->FSMC_AccessMode;
 247:Libraries/STM32F10x_StdPeriph_Driver/src/stm32f10x_fsmc.c ****   }
 248:Libraries/STM32F10x_StdPeriph_Driver/src/stm32f10x_fsmc.c ****   else
 249:Libraries/STM32F10x_StdPeriph_Driver/src/stm32f10x_fsmc.c ****   {
 250:Libraries/STM32F10x_StdPeriph_Driver/src/stm32f10x_fsmc.c ****     FSMC_Bank1E->BWTR[FSMC_NORSRAMInitStruct->FSMC_Bank] = 0x0FFFFFFF;
 307              		.loc 1 250 0
 308 0116 6FF07043 		mvn	r3, #-268435456	@ tmp230,
 309              	.LVL6:
 310              	.L18:
 311 011a C2F80431 		str	r3, [r2, #260]	@ tmp230,
 312 011e 30BD     		pop	{r4, r5, pc}	@
 313              		.cfi_endproc
 314              	.LFE32:
 315              		.size	FSMC_NORSRAMInit, .-FSMC_NORSRAMInit
 316              		.align	1
 317              		.global	FSMC_NANDInit
 318              		.thumb
 319              		.thumb_func
 320              		.type	FSMC_NANDInit, %function
 321              	FSMC_NANDInit:
 322              	.LFB33:
 251:Libraries/STM32F10x_StdPeriph_Driver/src/stm32f10x_fsmc.c ****   }
 252:Libraries/STM32F10x_StdPeriph_Driver/src/stm32f10x_fsmc.c **** }
 253:Libraries/STM32F10x_StdPeriph_Driver/src/stm32f10x_fsmc.c **** 
 254:Libraries/STM32F10x_StdPeriph_Driver/src/stm32f10x_fsmc.c **** /**
 255:Libraries/STM32F10x_StdPeriph_Driver/src/stm32f10x_fsmc.c ****   * @brief  Initializes the FSMC NAND Banks according to the specified 
 256:Libraries/STM32F10x_StdPeriph_Driver/src/stm32f10x_fsmc.c ****   *         parameters in the FSMC_NANDInitStruct.
 257:Libraries/STM32F10x_StdPeriph_Driver/src/stm32f10x_fsmc.c ****   * @param  FSMC_NANDInitStruct : pointer to a FSMC_NANDInitTypeDef 
 258:Libraries/STM32F10x_StdPeriph_Driver/src/stm32f10x_fsmc.c ****   *         structure that contains the configuration information for the FSMC 
 259:Libraries/STM32F10x_StdPeriph_Driver/src/stm32f10x_fsmc.c ****   *         NAND specified Banks.                       
 260:Libraries/STM32F10x_StdPeriph_Driver/src/stm32f10x_fsmc.c ****   * @retval None
 261:Libraries/STM32F10x_StdPeriph_Driver/src/stm32f10x_fsmc.c ****   */
 262:Libraries/STM32F10x_StdPeriph_Driver/src/stm32f10x_fsmc.c **** void FSMC_NANDInit(FSMC_NANDInitTypeDef* FSMC_NANDInitStruct)
 263:Libraries/STM32F10x_StdPeriph_Driver/src/stm32f10x_fsmc.c **** {
 323              		.loc 1 263 0
 324              		.cfi_startproc
 325              		@ args = 0, pretend = 0, frame = 0
 326              		@ frame_needed = 0, uses_anonymous_args = 0
 327              	.LVL7:
 264:Libraries/STM32F10x_StdPeriph_Driver/src/stm32f10x_fsmc.c ****   uint32_t tmppcr = 0x00000000, tmppmem = 0x00000000, tmppatt = 0x00000000; 
 265:Libraries/STM32F10x_StdPeriph_Driver/src/stm32f10x_fsmc.c ****     
 266:Libraries/STM32F10x_StdPeriph_Driver/src/stm32f10x_fsmc.c ****   /* Check the parameters */
 267:Libraries/STM32F10x_StdPeriph_Driver/src/stm32f10x_fsmc.c ****   assert_param( IS_FSMC_NAND_BANK(FSMC_NANDInitStruct->FSMC_Bank));
 268:Libraries/STM32F10x_StdPeriph_Driver/src/stm32f10x_fsmc.c ****   assert_param( IS_FSMC_WAIT_FEATURE(FSMC_NANDInitStruct->FSMC_Waitfeature));
 269:Libraries/STM32F10x_StdPeriph_Driver/src/stm32f10x_fsmc.c ****   assert_param( IS_FSMC_MEMORY_WIDTH(FSMC_NANDInitStruct->FSMC_MemoryDataWidth));
 270:Libraries/STM32F10x_StdPeriph_Driver/src/stm32f10x_fsmc.c ****   assert_param( IS_FSMC_ECC_STATE(FSMC_NANDInitStruct->FSMC_ECC));
 271:Libraries/STM32F10x_StdPeriph_Driver/src/stm32f10x_fsmc.c ****   assert_param( IS_FSMC_ECCPAGE_SIZE(FSMC_NANDInitStruct->FSMC_ECCPageSize));
 272:Libraries/STM32F10x_StdPeriph_Driver/src/stm32f10x_fsmc.c ****   assert_param( IS_FSMC_TCLR_TIME(FSMC_NANDInitStruct->FSMC_TCLRSetupTime));
 273:Libraries/STM32F10x_StdPeriph_Driver/src/stm32f10x_fsmc.c ****   assert_param( IS_FSMC_TAR_TIME(FSMC_NANDInitStruct->FSMC_TARSetupTime));
 274:Libraries/STM32F10x_StdPeriph_Driver/src/stm32f10x_fsmc.c ****   assert_param(IS_FSMC_SETUP_TIME(FSMC_NANDInitStruct->FSMC_CommonSpaceTimingStruct->FSMC_SetupTime
 275:Libraries/STM32F10x_StdPeriph_Driver/src/stm32f10x_fsmc.c ****   assert_param(IS_FSMC_WAIT_TIME(FSMC_NANDInitStruct->FSMC_CommonSpaceTimingStruct->FSMC_WaitSetupT
 276:Libraries/STM32F10x_StdPeriph_Driver/src/stm32f10x_fsmc.c ****   assert_param(IS_FSMC_HOLD_TIME(FSMC_NANDInitStruct->FSMC_CommonSpaceTimingStruct->FSMC_HoldSetupT
ARM GAS  /var/folders/yt/6z6x8bjn5sjf5fbb45bk5m4c0000gn/T//ccRqGMl0.s 			page 12


 277:Libraries/STM32F10x_StdPeriph_Driver/src/stm32f10x_fsmc.c ****   assert_param(IS_FSMC_HIZ_TIME(FSMC_NANDInitStruct->FSMC_CommonSpaceTimingStruct->FSMC_HiZSetupTim
 278:Libraries/STM32F10x_StdPeriph_Driver/src/stm32f10x_fsmc.c ****   assert_param(IS_FSMC_SETUP_TIME(FSMC_NANDInitStruct->FSMC_AttributeSpaceTimingStruct->FSMC_SetupT
 279:Libraries/STM32F10x_StdPeriph_Driver/src/stm32f10x_fsmc.c ****   assert_param(IS_FSMC_WAIT_TIME(FSMC_NANDInitStruct->FSMC_AttributeSpaceTimingStruct->FSMC_WaitSet
 280:Libraries/STM32F10x_StdPeriph_Driver/src/stm32f10x_fsmc.c ****   assert_param(IS_FSMC_HOLD_TIME(FSMC_NANDInitStruct->FSMC_AttributeSpaceTimingStruct->FSMC_HoldSet
 281:Libraries/STM32F10x_StdPeriph_Driver/src/stm32f10x_fsmc.c ****   assert_param(IS_FSMC_HIZ_TIME(FSMC_NANDInitStruct->FSMC_AttributeSpaceTimingStruct->FSMC_HiZSetup
 282:Libraries/STM32F10x_StdPeriph_Driver/src/stm32f10x_fsmc.c ****   
 283:Libraries/STM32F10x_StdPeriph_Driver/src/stm32f10x_fsmc.c ****   /* Set the tmppcr value according to FSMC_NANDInitStruct parameters */
 284:Libraries/STM32F10x_StdPeriph_Driver/src/stm32f10x_fsmc.c ****   tmppcr = (uint32_t)FSMC_NANDInitStruct->FSMC_Waitfeature |
 285:Libraries/STM32F10x_StdPeriph_Driver/src/stm32f10x_fsmc.c ****             PCR_MemoryType_NAND |
 328              		.loc 1 285 0
 329 0120 4268     		ldr	r2, [r0, #4]	@ FSMC_NANDInitStruct_3(D)->FSMC_Waitfeature, FSMC_NANDInitStruct_3(D)->FSMC_Wait
 330 0122 8368     		ldr	r3, [r0, #8]	@ FSMC_NANDInitStruct_3(D)->FSMC_MemoryDataWidth, FSMC_NANDInitStruct_3(D)->FSMC_
 263:Libraries/STM32F10x_StdPeriph_Driver/src/stm32f10x_fsmc.c ****   uint32_t tmppcr = 0x00000000, tmppmem = 0x00000000, tmppatt = 0x00000000; 
 331              		.loc 1 263 0
 332 0124 30B5     		push	{r4, r5, lr}	@
 333              	.LCFI1:
 334              		.cfi_def_cfa_offset 12
 335              		.cfi_offset 4, -12
 336              		.cfi_offset 5, -8
 337              		.cfi_offset 14, -4
 338              		.loc 1 285 0
 339 0126 1343     		orrs	r3, r3, r2	@, D.5923, FSMC_NANDInitStruct_3(D)->FSMC_MemoryDataWidth, FSMC_NANDInitStruct_3(D
 340 0128 C268     		ldr	r2, [r0, #12]	@ FSMC_NANDInitStruct_3(D)->FSMC_ECC, FSMC_NANDInitStruct_3(D)->FSMC_ECC
 341 012a 43F00803 		orr	r3, r3, #8	@ D.5923, D.5923,
 342 012e 1A43     		orrs	r2, r2, r3	@, D.5923, FSMC_NANDInitStruct_3(D)->FSMC_ECC, D.5923
 343 0130 0369     		ldr	r3, [r0, #16]	@ FSMC_NANDInitStruct_3(D)->FSMC_ECCPageSize, FSMC_NANDInitStruct_3(D)->FSMC_ECC
 286:Libraries/STM32F10x_StdPeriph_Driver/src/stm32f10x_fsmc.c ****             FSMC_NANDInitStruct->FSMC_MemoryDataWidth |
 287:Libraries/STM32F10x_StdPeriph_Driver/src/stm32f10x_fsmc.c ****             FSMC_NANDInitStruct->FSMC_ECC |
 288:Libraries/STM32F10x_StdPeriph_Driver/src/stm32f10x_fsmc.c ****             FSMC_NANDInitStruct->FSMC_ECCPageSize |
 289:Libraries/STM32F10x_StdPeriph_Driver/src/stm32f10x_fsmc.c ****             (FSMC_NANDInitStruct->FSMC_TCLRSetupTime << 9 )|
 290:Libraries/STM32F10x_StdPeriph_Driver/src/stm32f10x_fsmc.c ****             (FSMC_NANDInitStruct->FSMC_TARSetupTime << 13);
 291:Libraries/STM32F10x_StdPeriph_Driver/src/stm32f10x_fsmc.c ****             
 292:Libraries/STM32F10x_StdPeriph_Driver/src/stm32f10x_fsmc.c ****   /* Set tmppmem value according to FSMC_CommonSpaceTimingStructure parameters */
 293:Libraries/STM32F10x_StdPeriph_Driver/src/stm32f10x_fsmc.c ****   tmppmem = (uint32_t)FSMC_NANDInitStruct->FSMC_CommonSpaceTimingStruct->FSMC_SetupTime |
 344              		.loc 1 293 0
 345 0132 C469     		ldr	r4, [r0, #28]	@ D.5924, FSMC_NANDInitStruct_3(D)->FSMC_CommonSpaceTimingStruct
 346 0134 1343     		orrs	r3, r3, r2	@, D.5923, FSMC_NANDInitStruct_3(D)->FSMC_ECCPageSize, D.5923
 289:Libraries/STM32F10x_StdPeriph_Driver/src/stm32f10x_fsmc.c ****             (FSMC_NANDInitStruct->FSMC_TARSetupTime << 13);
 347              		.loc 1 289 0
 348 0136 4269     		ldr	r2, [r0, #20]	@ FSMC_NANDInitStruct_3(D)->FSMC_TCLRSetupTime, FSMC_NANDInitStruct_3(D)->FSMC_T
 294:Libraries/STM32F10x_StdPeriph_Driver/src/stm32f10x_fsmc.c ****             (FSMC_NANDInitStruct->FSMC_CommonSpaceTimingStruct->FSMC_WaitSetupTime << 8) |
 349              		.loc 1 294 0
 350 0138 6168     		ldr	r1, [r4, #4]	@ _18->FSMC_WaitSetupTime, _18->FSMC_WaitSetupTime
 351 013a 43EA4223 		orr	r3, r3, r2, lsl #9	@, D.5923, D.5923, FSMC_NANDInitStruct_3(D)->FSMC_TCLRSetupTime,
 290:Libraries/STM32F10x_StdPeriph_Driver/src/stm32f10x_fsmc.c ****             
 352              		.loc 1 290 0
 353 013e 8269     		ldr	r2, [r0, #24]	@ FSMC_NANDInitStruct_3(D)->FSMC_TARSetupTime, FSMC_NANDInitStruct_3(D)->FSMC_TA
 295:Libraries/STM32F10x_StdPeriph_Driver/src/stm32f10x_fsmc.c ****             (FSMC_NANDInitStruct->FSMC_CommonSpaceTimingStruct->FSMC_HoldSetupTime << 16)|
 296:Libraries/STM32F10x_StdPeriph_Driver/src/stm32f10x_fsmc.c ****             (FSMC_NANDInitStruct->FSMC_CommonSpaceTimingStruct->FSMC_HiZSetupTime << 24); 
 297:Libraries/STM32F10x_StdPeriph_Driver/src/stm32f10x_fsmc.c ****             
 298:Libraries/STM32F10x_StdPeriph_Driver/src/stm32f10x_fsmc.c ****   /* Set tmppatt value according to FSMC_AttributeSpaceTimingStructure parameters */
 299:Libraries/STM32F10x_StdPeriph_Driver/src/stm32f10x_fsmc.c ****   tmppatt = (uint32_t)FSMC_NANDInitStruct->FSMC_AttributeSpaceTimingStruct->FSMC_SetupTime |
 354              		.loc 1 299 0
 355 0140 056A     		ldr	r5, [r0, #32]	@ D.5924, FSMC_NANDInitStruct_3(D)->FSMC_AttributeSpaceTimingStruct
 284:Libraries/STM32F10x_StdPeriph_Driver/src/stm32f10x_fsmc.c ****             PCR_MemoryType_NAND |
 356              		.loc 1 284 0
 357 0142 43EA4233 		orr	r3, r3, r2, lsl #13	@, tmppcr, D.5923, FSMC_NANDInitStruct_3(D)->FSMC_TARSetupTime,
ARM GAS  /var/folders/yt/6z6x8bjn5sjf5fbb45bk5m4c0000gn/T//ccRqGMl0.s 			page 13


 358              	.LVL8:
 295:Libraries/STM32F10x_StdPeriph_Driver/src/stm32f10x_fsmc.c ****             (FSMC_NANDInitStruct->FSMC_CommonSpaceTimingStruct->FSMC_HoldSetupTime << 16)|
 359              		.loc 1 295 0
 360 0146 A268     		ldr	r2, [r4, #8]	@ _18->FSMC_HoldSetupTime, _18->FSMC_HoldSetupTime
 300:Libraries/STM32F10x_StdPeriph_Driver/src/stm32f10x_fsmc.c ****             (FSMC_NANDInitStruct->FSMC_AttributeSpaceTimingStruct->FSMC_WaitSetupTime << 8) |
 301:Libraries/STM32F10x_StdPeriph_Driver/src/stm32f10x_fsmc.c ****             (FSMC_NANDInitStruct->FSMC_AttributeSpaceTimingStruct->FSMC_HoldSetupTime << 16)|
 302:Libraries/STM32F10x_StdPeriph_Driver/src/stm32f10x_fsmc.c ****             (FSMC_NANDInitStruct->FSMC_AttributeSpaceTimingStruct->FSMC_HiZSetupTime << 24);
 303:Libraries/STM32F10x_StdPeriph_Driver/src/stm32f10x_fsmc.c ****   
 304:Libraries/STM32F10x_StdPeriph_Driver/src/stm32f10x_fsmc.c ****   if(FSMC_NANDInitStruct->FSMC_Bank == FSMC_Bank2_NAND)
 361              		.loc 1 304 0
 362 0148 0068     		ldr	r0, [r0]	@ FSMC_NANDInitStruct_3(D)->FSMC_Bank, FSMC_NANDInitStruct_3(D)->FSMC_Bank
 363              	.LVL9:
 295:Libraries/STM32F10x_StdPeriph_Driver/src/stm32f10x_fsmc.c ****             (FSMC_NANDInitStruct->FSMC_CommonSpaceTimingStruct->FSMC_HiZSetupTime << 24); 
 364              		.loc 1 295 0
 365 014a 1204     		lsls	r2, r2, #16	@ D.5923, _18->FSMC_HoldSetupTime,
 366 014c 42EA0122 		orr	r2, r2, r1, lsl #8	@, D.5923, D.5923, _18->FSMC_WaitSetupTime,
 294:Libraries/STM32F10x_StdPeriph_Driver/src/stm32f10x_fsmc.c ****             (FSMC_NANDInitStruct->FSMC_CommonSpaceTimingStruct->FSMC_HoldSetupTime << 16)|
 367              		.loc 1 294 0
 368 0150 2168     		ldr	r1, [r4]	@ _18->FSMC_SetupTime, _18->FSMC_SetupTime
 369              		.loc 1 304 0
 370 0152 1028     		cmp	r0, #16	@ FSMC_NANDInitStruct_3(D)->FSMC_Bank,
 294:Libraries/STM32F10x_StdPeriph_Driver/src/stm32f10x_fsmc.c ****             (FSMC_NANDInitStruct->FSMC_CommonSpaceTimingStruct->FSMC_HoldSetupTime << 16)|
 371              		.loc 1 294 0
 372 0154 42EA0102 		orr	r2, r2, r1	@ D.5923, D.5923, _18->FSMC_SetupTime
 296:Libraries/STM32F10x_StdPeriph_Driver/src/stm32f10x_fsmc.c ****             
 373              		.loc 1 296 0
 374 0158 E168     		ldr	r1, [r4, #12]	@ _18->FSMC_HiZSetupTime, _18->FSMC_HiZSetupTime
 301:Libraries/STM32F10x_StdPeriph_Driver/src/stm32f10x_fsmc.c ****             (FSMC_NANDInitStruct->FSMC_AttributeSpaceTimingStruct->FSMC_HiZSetupTime << 24);
 375              		.loc 1 301 0
 376 015a AC68     		ldr	r4, [r5, #8]	@ _29->FSMC_HoldSetupTime, _29->FSMC_HoldSetupTime
 293:Libraries/STM32F10x_StdPeriph_Driver/src/stm32f10x_fsmc.c ****             (FSMC_NANDInitStruct->FSMC_CommonSpaceTimingStruct->FSMC_WaitSetupTime << 8) |
 377              		.loc 1 293 0
 378 015c 42EA0161 		orr	r1, r2, r1, lsl #24	@, tmppmem, D.5923, _18->FSMC_HiZSetupTime,
 379              	.LVL10:
 300:Libraries/STM32F10x_StdPeriph_Driver/src/stm32f10x_fsmc.c ****             (FSMC_NANDInitStruct->FSMC_AttributeSpaceTimingStruct->FSMC_HoldSetupTime << 16)|
 380              		.loc 1 300 0
 381 0160 6A68     		ldr	r2, [r5, #4]	@ _29->FSMC_WaitSetupTime, _29->FSMC_WaitSetupTime
 301:Libraries/STM32F10x_StdPeriph_Driver/src/stm32f10x_fsmc.c ****             (FSMC_NANDInitStruct->FSMC_AttributeSpaceTimingStruct->FSMC_HiZSetupTime << 24);
 382              		.loc 1 301 0
 383 0162 4FEA0444 		lsl	r4, r4, #16	@ D.5923, _29->FSMC_HoldSetupTime,
 384 0166 44EA0224 		orr	r4, r4, r2, lsl #8	@, D.5923, D.5923, _29->FSMC_WaitSetupTime,
 300:Libraries/STM32F10x_StdPeriph_Driver/src/stm32f10x_fsmc.c ****             (FSMC_NANDInitStruct->FSMC_AttributeSpaceTimingStruct->FSMC_HoldSetupTime << 16)|
 385              		.loc 1 300 0
 386 016a 2A68     		ldr	r2, [r5]	@ _29->FSMC_SetupTime, _29->FSMC_SetupTime
 305:Libraries/STM32F10x_StdPeriph_Driver/src/stm32f10x_fsmc.c ****   {
 306:Libraries/STM32F10x_StdPeriph_Driver/src/stm32f10x_fsmc.c ****     /* FSMC_Bank2_NAND registers configuration */
 307:Libraries/STM32F10x_StdPeriph_Driver/src/stm32f10x_fsmc.c ****     FSMC_Bank2->PCR2 = tmppcr;
 387              		.loc 1 307 0
 388 016c 08BF     		it	eq
 389 016e 0648     		ldreq	r0, .L23	@ tmp180,
 300:Libraries/STM32F10x_StdPeriph_Driver/src/stm32f10x_fsmc.c ****             (FSMC_NANDInitStruct->FSMC_AttributeSpaceTimingStruct->FSMC_HoldSetupTime << 16)|
 390              		.loc 1 300 0
 391 0170 42EA0402 		orr	r2, r2, r4	@ D.5923, _29->FSMC_SetupTime, D.5923
 302:Libraries/STM32F10x_StdPeriph_Driver/src/stm32f10x_fsmc.c ****   
 392              		.loc 1 302 0
 393 0174 EC68     		ldr	r4, [r5, #12]	@ _29->FSMC_HiZSetupTime, _29->FSMC_HiZSetupTime
 308:Libraries/STM32F10x_StdPeriph_Driver/src/stm32f10x_fsmc.c ****     FSMC_Bank2->PMEM2 = tmppmem;
ARM GAS  /var/folders/yt/6z6x8bjn5sjf5fbb45bk5m4c0000gn/T//ccRqGMl0.s 			page 14


 309:Libraries/STM32F10x_StdPeriph_Driver/src/stm32f10x_fsmc.c ****     FSMC_Bank2->PATT2 = tmppatt;
 310:Libraries/STM32F10x_StdPeriph_Driver/src/stm32f10x_fsmc.c ****   }
 311:Libraries/STM32F10x_StdPeriph_Driver/src/stm32f10x_fsmc.c ****   else
 312:Libraries/STM32F10x_StdPeriph_Driver/src/stm32f10x_fsmc.c ****   {
 313:Libraries/STM32F10x_StdPeriph_Driver/src/stm32f10x_fsmc.c ****     /* FSMC_Bank3_NAND registers configuration */
 314:Libraries/STM32F10x_StdPeriph_Driver/src/stm32f10x_fsmc.c ****     FSMC_Bank3->PCR3 = tmppcr;
 394              		.loc 1 314 0
 395 0176 18BF     		it	ne
 396 0178 0448     		ldrne	r0, .L23+4	@ tmp183,
 299:Libraries/STM32F10x_StdPeriph_Driver/src/stm32f10x_fsmc.c ****             (FSMC_NANDInitStruct->FSMC_AttributeSpaceTimingStruct->FSMC_WaitSetupTime << 8) |
 397              		.loc 1 299 0
 398 017a 42EA0462 		orr	r2, r2, r4, lsl #24	@, tmppatt, D.5923, _29->FSMC_HiZSetupTime,
 399              	.LVL11:
 400              		.loc 1 314 0
 401 017e 0360     		str	r3, [r0]	@ tmppcr,
 315:Libraries/STM32F10x_StdPeriph_Driver/src/stm32f10x_fsmc.c ****     FSMC_Bank3->PMEM3 = tmppmem;
 402              		.loc 1 315 0
 403 0180 8160     		str	r1, [r0, #8]	@ tmppmem,
 316:Libraries/STM32F10x_StdPeriph_Driver/src/stm32f10x_fsmc.c ****     FSMC_Bank3->PATT3 = tmppatt;
 404              		.loc 1 316 0
 405 0182 C260     		str	r2, [r0, #12]	@ tmppatt,
 406 0184 30BD     		pop	{r4, r5, pc}	@
 407              	.L24:
 408 0186 00BF     		.align	2
 409              	.L23:
 410 0188 600000A0 		.word	-1610612640
 411 018c 800000A0 		.word	-1610612608
 412              		.cfi_endproc
 413              	.LFE33:
 414              		.size	FSMC_NANDInit, .-FSMC_NANDInit
 415              		.align	1
 416              		.global	FSMC_PCCARDInit
 417              		.thumb
 418              		.thumb_func
 419              		.type	FSMC_PCCARDInit, %function
 420              	FSMC_PCCARDInit:
 421              	.LFB34:
 317:Libraries/STM32F10x_StdPeriph_Driver/src/stm32f10x_fsmc.c ****   }
 318:Libraries/STM32F10x_StdPeriph_Driver/src/stm32f10x_fsmc.c **** }
 319:Libraries/STM32F10x_StdPeriph_Driver/src/stm32f10x_fsmc.c **** 
 320:Libraries/STM32F10x_StdPeriph_Driver/src/stm32f10x_fsmc.c **** /**
 321:Libraries/STM32F10x_StdPeriph_Driver/src/stm32f10x_fsmc.c ****   * @brief  Initializes the FSMC PCCARD Bank according to the specified 
 322:Libraries/STM32F10x_StdPeriph_Driver/src/stm32f10x_fsmc.c ****   *         parameters in the FSMC_PCCARDInitStruct.
 323:Libraries/STM32F10x_StdPeriph_Driver/src/stm32f10x_fsmc.c ****   * @param  FSMC_PCCARDInitStruct : pointer to a FSMC_PCCARDInitTypeDef
 324:Libraries/STM32F10x_StdPeriph_Driver/src/stm32f10x_fsmc.c ****   *         structure that contains the configuration information for the FSMC 
 325:Libraries/STM32F10x_StdPeriph_Driver/src/stm32f10x_fsmc.c ****   *         PCCARD Bank.                       
 326:Libraries/STM32F10x_StdPeriph_Driver/src/stm32f10x_fsmc.c ****   * @retval None
 327:Libraries/STM32F10x_StdPeriph_Driver/src/stm32f10x_fsmc.c ****   */
 328:Libraries/STM32F10x_StdPeriph_Driver/src/stm32f10x_fsmc.c **** void FSMC_PCCARDInit(FSMC_PCCARDInitTypeDef* FSMC_PCCARDInitStruct)
 329:Libraries/STM32F10x_StdPeriph_Driver/src/stm32f10x_fsmc.c **** {
 422              		.loc 1 329 0
 423              		.cfi_startproc
 424              		@ args = 0, pretend = 0, frame = 0
 425              		@ frame_needed = 0, uses_anonymous_args = 0
 426              	.LVL12:
 427 0190 0368     		ldr	r3, [r0]	@ FSMC_PCCARDInitStruct_2(D)->FSMC_Waitfeature, FSMC_PCCARDInitStruct_2(D)->FSMC_Wait
 330:Libraries/STM32F10x_StdPeriph_Driver/src/stm32f10x_fsmc.c ****   /* Check the parameters */
ARM GAS  /var/folders/yt/6z6x8bjn5sjf5fbb45bk5m4c0000gn/T//ccRqGMl0.s 			page 15


 331:Libraries/STM32F10x_StdPeriph_Driver/src/stm32f10x_fsmc.c ****   assert_param(IS_FSMC_WAIT_FEATURE(FSMC_PCCARDInitStruct->FSMC_Waitfeature));
 332:Libraries/STM32F10x_StdPeriph_Driver/src/stm32f10x_fsmc.c ****   assert_param(IS_FSMC_TCLR_TIME(FSMC_PCCARDInitStruct->FSMC_TCLRSetupTime));
 333:Libraries/STM32F10x_StdPeriph_Driver/src/stm32f10x_fsmc.c ****   assert_param(IS_FSMC_TAR_TIME(FSMC_PCCARDInitStruct->FSMC_TARSetupTime));
 334:Libraries/STM32F10x_StdPeriph_Driver/src/stm32f10x_fsmc.c ****  
 335:Libraries/STM32F10x_StdPeriph_Driver/src/stm32f10x_fsmc.c ****   assert_param(IS_FSMC_SETUP_TIME(FSMC_PCCARDInitStruct->FSMC_CommonSpaceTimingStruct->FSMC_SetupTi
 336:Libraries/STM32F10x_StdPeriph_Driver/src/stm32f10x_fsmc.c ****   assert_param(IS_FSMC_WAIT_TIME(FSMC_PCCARDInitStruct->FSMC_CommonSpaceTimingStruct->FSMC_WaitSetu
 337:Libraries/STM32F10x_StdPeriph_Driver/src/stm32f10x_fsmc.c ****   assert_param(IS_FSMC_HOLD_TIME(FSMC_PCCARDInitStruct->FSMC_CommonSpaceTimingStruct->FSMC_HoldSetu
 338:Libraries/STM32F10x_StdPeriph_Driver/src/stm32f10x_fsmc.c ****   assert_param(IS_FSMC_HIZ_TIME(FSMC_PCCARDInitStruct->FSMC_CommonSpaceTimingStruct->FSMC_HiZSetupT
 339:Libraries/STM32F10x_StdPeriph_Driver/src/stm32f10x_fsmc.c ****   
 340:Libraries/STM32F10x_StdPeriph_Driver/src/stm32f10x_fsmc.c ****   assert_param(IS_FSMC_SETUP_TIME(FSMC_PCCARDInitStruct->FSMC_AttributeSpaceTimingStruct->FSMC_Setu
 341:Libraries/STM32F10x_StdPeriph_Driver/src/stm32f10x_fsmc.c ****   assert_param(IS_FSMC_WAIT_TIME(FSMC_PCCARDInitStruct->FSMC_AttributeSpaceTimingStruct->FSMC_WaitS
 342:Libraries/STM32F10x_StdPeriph_Driver/src/stm32f10x_fsmc.c ****   assert_param(IS_FSMC_HOLD_TIME(FSMC_PCCARDInitStruct->FSMC_AttributeSpaceTimingStruct->FSMC_HoldS
 343:Libraries/STM32F10x_StdPeriph_Driver/src/stm32f10x_fsmc.c ****   assert_param(IS_FSMC_HIZ_TIME(FSMC_PCCARDInitStruct->FSMC_AttributeSpaceTimingStruct->FSMC_HiZSet
 344:Libraries/STM32F10x_StdPeriph_Driver/src/stm32f10x_fsmc.c ****   assert_param(IS_FSMC_SETUP_TIME(FSMC_PCCARDInitStruct->FSMC_IOSpaceTimingStruct->FSMC_SetupTime))
 345:Libraries/STM32F10x_StdPeriph_Driver/src/stm32f10x_fsmc.c ****   assert_param(IS_FSMC_WAIT_TIME(FSMC_PCCARDInitStruct->FSMC_IOSpaceTimingStruct->FSMC_WaitSetupTim
 346:Libraries/STM32F10x_StdPeriph_Driver/src/stm32f10x_fsmc.c ****   assert_param(IS_FSMC_HOLD_TIME(FSMC_PCCARDInitStruct->FSMC_IOSpaceTimingStruct->FSMC_HoldSetupTim
 347:Libraries/STM32F10x_StdPeriph_Driver/src/stm32f10x_fsmc.c ****   assert_param(IS_FSMC_HIZ_TIME(FSMC_PCCARDInitStruct->FSMC_IOSpaceTimingStruct->FSMC_HiZSetupTime)
 348:Libraries/STM32F10x_StdPeriph_Driver/src/stm32f10x_fsmc.c ****   
 349:Libraries/STM32F10x_StdPeriph_Driver/src/stm32f10x_fsmc.c ****   /* Set the PCR4 register value according to FSMC_PCCARDInitStruct parameters */
 350:Libraries/STM32F10x_StdPeriph_Driver/src/stm32f10x_fsmc.c ****   FSMC_Bank4->PCR4 = (uint32_t)FSMC_PCCARDInitStruct->FSMC_Waitfeature |
 351:Libraries/STM32F10x_StdPeriph_Driver/src/stm32f10x_fsmc.c ****                      FSMC_MemoryDataWidth_16b |  
 352:Libraries/STM32F10x_StdPeriph_Driver/src/stm32f10x_fsmc.c ****                      (FSMC_PCCARDInitStruct->FSMC_TCLRSetupTime << 9) |
 428              		.loc 1 352 0
 429 0192 4268     		ldr	r2, [r0, #4]	@ FSMC_PCCARDInitStruct_2(D)->FSMC_TCLRSetupTime, FSMC_PCCARDInitStruct_2(D)->FSM
 430 0194 43F01003 		orr	r3, r3, #16	@ D.5927, FSMC_PCCARDInitStruct_2(D)->FSMC_Waitfeature,
 431 0198 43EA4223 		orr	r3, r3, r2, lsl #9	@, D.5927, D.5927, FSMC_PCCARDInitStruct_2(D)->FSMC_TCLRSetupTime,
 353:Libraries/STM32F10x_StdPeriph_Driver/src/stm32f10x_fsmc.c ****                      (FSMC_PCCARDInitStruct->FSMC_TARSetupTime << 13);
 432              		.loc 1 353 0
 433 019c 8268     		ldr	r2, [r0, #8]	@ FSMC_PCCARDInitStruct_2(D)->FSMC_TARSetupTime, FSMC_PCCARDInitStruct_2(D)->FSMC
 350:Libraries/STM32F10x_StdPeriph_Driver/src/stm32f10x_fsmc.c ****                      FSMC_MemoryDataWidth_16b |  
 434              		.loc 1 350 0
 435 019e 1549     		ldr	r1, .L26	@ tmp159,
 329:Libraries/STM32F10x_StdPeriph_Driver/src/stm32f10x_fsmc.c ****   /* Check the parameters */
 436              		.loc 1 329 0
 437 01a0 10B5     		push	{r4, lr}	@
 438              	.LCFI2:
 439              		.cfi_def_cfa_offset 8
 440              		.cfi_offset 4, -8
 441              		.cfi_offset 14, -4
 352:Libraries/STM32F10x_StdPeriph_Driver/src/stm32f10x_fsmc.c ****                      (FSMC_PCCARDInitStruct->FSMC_TARSetupTime << 13);
 442              		.loc 1 352 0
 443 01a2 43EA4233 		orr	r3, r3, r2, lsl #13	@, D.5927, D.5927, FSMC_PCCARDInitStruct_2(D)->FSMC_TARSetupTime,
 354:Libraries/STM32F10x_StdPeriph_Driver/src/stm32f10x_fsmc.c ****             
 355:Libraries/STM32F10x_StdPeriph_Driver/src/stm32f10x_fsmc.c ****   /* Set PMEM4 register value according to FSMC_CommonSpaceTimingStructure parameters */
 356:Libraries/STM32F10x_StdPeriph_Driver/src/stm32f10x_fsmc.c ****   FSMC_Bank4->PMEM4 = (uint32_t)FSMC_PCCARDInitStruct->FSMC_CommonSpaceTimingStruct->FSMC_SetupTime
 444              		.loc 1 356 0
 445 01a6 C468     		ldr	r4, [r0, #12]	@ D.5928, FSMC_PCCARDInitStruct_2(D)->FSMC_CommonSpaceTimingStruct
 350:Libraries/STM32F10x_StdPeriph_Driver/src/stm32f10x_fsmc.c ****                      FSMC_MemoryDataWidth_16b |  
 446              		.loc 1 350 0
 447 01a8 0B60     		str	r3, [r1]	@ D.5927, MEM[(struct FSMC_Bank4_TypeDef *)2684354720B].PCR4
 357:Libraries/STM32F10x_StdPeriph_Driver/src/stm32f10x_fsmc.c ****                       (FSMC_PCCARDInitStruct->FSMC_CommonSpaceTimingStruct->FSMC_WaitSetupTime << 8
 358:Libraries/STM32F10x_StdPeriph_Driver/src/stm32f10x_fsmc.c ****                       (FSMC_PCCARDInitStruct->FSMC_CommonSpaceTimingStruct->FSMC_HoldSetupTime << 1
 448              		.loc 1 358 0
 449 01aa A268     		ldr	r2, [r4, #8]	@ _12->FSMC_HoldSetupTime, _12->FSMC_HoldSetupTime
 357:Libraries/STM32F10x_StdPeriph_Driver/src/stm32f10x_fsmc.c ****                       (FSMC_PCCARDInitStruct->FSMC_CommonSpaceTimingStruct->FSMC_WaitSetupTime << 8
 450              		.loc 1 357 0
 451 01ac 6368     		ldr	r3, [r4, #4]	@ _12->FSMC_WaitSetupTime, _12->FSMC_WaitSetupTime
ARM GAS  /var/folders/yt/6z6x8bjn5sjf5fbb45bk5m4c0000gn/T//ccRqGMl0.s 			page 16


 452              		.loc 1 358 0
 453 01ae 1204     		lsls	r2, r2, #16	@ D.5927, _12->FSMC_HoldSetupTime,
 454 01b0 42EA0322 		orr	r2, r2, r3, lsl #8	@, D.5927, D.5927, _12->FSMC_WaitSetupTime,
 357:Libraries/STM32F10x_StdPeriph_Driver/src/stm32f10x_fsmc.c ****                       (FSMC_PCCARDInitStruct->FSMC_CommonSpaceTimingStruct->FSMC_WaitSetupTime << 8
 455              		.loc 1 357 0
 456 01b4 2368     		ldr	r3, [r4]	@ _12->FSMC_SetupTime, _12->FSMC_SetupTime
 457 01b6 1343     		orrs	r3, r3, r2	@, D.5927, _12->FSMC_SetupTime, D.5927
 359:Libraries/STM32F10x_StdPeriph_Driver/src/stm32f10x_fsmc.c ****                       (FSMC_PCCARDInitStruct->FSMC_CommonSpaceTimingStruct->FSMC_HiZSetupTime << 24
 458              		.loc 1 359 0
 459 01b8 E268     		ldr	r2, [r4, #12]	@ _12->FSMC_HiZSetupTime, _12->FSMC_HiZSetupTime
 360:Libraries/STM32F10x_StdPeriph_Driver/src/stm32f10x_fsmc.c ****             
 361:Libraries/STM32F10x_StdPeriph_Driver/src/stm32f10x_fsmc.c ****   /* Set PATT4 register value according to FSMC_AttributeSpaceTimingStructure parameters */
 362:Libraries/STM32F10x_StdPeriph_Driver/src/stm32f10x_fsmc.c ****   FSMC_Bank4->PATT4 = (uint32_t)FSMC_PCCARDInitStruct->FSMC_AttributeSpaceTimingStruct->FSMC_SetupT
 460              		.loc 1 362 0
 461 01ba 0469     		ldr	r4, [r0, #16]	@ D.5928, FSMC_PCCARDInitStruct_2(D)->FSMC_AttributeSpaceTimingStruct
 358:Libraries/STM32F10x_StdPeriph_Driver/src/stm32f10x_fsmc.c ****                       (FSMC_PCCARDInitStruct->FSMC_CommonSpaceTimingStruct->FSMC_HiZSetupTime << 24
 462              		.loc 1 358 0
 463 01bc 43EA0263 		orr	r3, r3, r2, lsl #24	@, D.5927, D.5927, _12->FSMC_HiZSetupTime,
 356:Libraries/STM32F10x_StdPeriph_Driver/src/stm32f10x_fsmc.c ****                       (FSMC_PCCARDInitStruct->FSMC_CommonSpaceTimingStruct->FSMC_WaitSetupTime << 8
 464              		.loc 1 356 0
 465 01c0 8B60     		str	r3, [r1, #8]	@ D.5927, MEM[(struct FSMC_Bank4_TypeDef *)2684354720B].PMEM4
 363:Libraries/STM32F10x_StdPeriph_Driver/src/stm32f10x_fsmc.c ****                       (FSMC_PCCARDInitStruct->FSMC_AttributeSpaceTimingStruct->FSMC_WaitSetupTime <
 364:Libraries/STM32F10x_StdPeriph_Driver/src/stm32f10x_fsmc.c ****                       (FSMC_PCCARDInitStruct->FSMC_AttributeSpaceTimingStruct->FSMC_HoldSetupTime <
 466              		.loc 1 364 0
 467 01c2 A268     		ldr	r2, [r4, #8]	@ _24->FSMC_HoldSetupTime, _24->FSMC_HoldSetupTime
 363:Libraries/STM32F10x_StdPeriph_Driver/src/stm32f10x_fsmc.c ****                       (FSMC_PCCARDInitStruct->FSMC_AttributeSpaceTimingStruct->FSMC_WaitSetupTime <
 468              		.loc 1 363 0
 469 01c4 6368     		ldr	r3, [r4, #4]	@ _24->FSMC_WaitSetupTime, _24->FSMC_WaitSetupTime
 470              		.loc 1 364 0
 471 01c6 1204     		lsls	r2, r2, #16	@ D.5927, _24->FSMC_HoldSetupTime,
 472 01c8 42EA0322 		orr	r2, r2, r3, lsl #8	@, D.5927, D.5927, _24->FSMC_WaitSetupTime,
 363:Libraries/STM32F10x_StdPeriph_Driver/src/stm32f10x_fsmc.c ****                       (FSMC_PCCARDInitStruct->FSMC_AttributeSpaceTimingStruct->FSMC_WaitSetupTime <
 473              		.loc 1 363 0
 474 01cc 2368     		ldr	r3, [r4]	@ _24->FSMC_SetupTime, _24->FSMC_SetupTime
 365:Libraries/STM32F10x_StdPeriph_Driver/src/stm32f10x_fsmc.c ****                       (FSMC_PCCARDInitStruct->FSMC_AttributeSpaceTimingStruct->FSMC_HiZSetupTime <<
 366:Libraries/STM32F10x_StdPeriph_Driver/src/stm32f10x_fsmc.c ****             
 367:Libraries/STM32F10x_StdPeriph_Driver/src/stm32f10x_fsmc.c ****   /* Set PIO4 register value according to FSMC_IOSpaceTimingStructure parameters */
 368:Libraries/STM32F10x_StdPeriph_Driver/src/stm32f10x_fsmc.c ****   FSMC_Bank4->PIO4 = (uint32_t)FSMC_PCCARDInitStruct->FSMC_IOSpaceTimingStruct->FSMC_SetupTime |
 475              		.loc 1 368 0
 476 01ce 4069     		ldr	r0, [r0, #20]	@ D.5928, FSMC_PCCARDInitStruct_2(D)->FSMC_IOSpaceTimingStruct
 477              	.LVL13:
 363:Libraries/STM32F10x_StdPeriph_Driver/src/stm32f10x_fsmc.c ****                       (FSMC_PCCARDInitStruct->FSMC_AttributeSpaceTimingStruct->FSMC_WaitSetupTime <
 478              		.loc 1 363 0
 479 01d0 1343     		orrs	r3, r3, r2	@, D.5927, _24->FSMC_SetupTime, D.5927
 365:Libraries/STM32F10x_StdPeriph_Driver/src/stm32f10x_fsmc.c ****                       (FSMC_PCCARDInitStruct->FSMC_AttributeSpaceTimingStruct->FSMC_HiZSetupTime <<
 480              		.loc 1 365 0
 481 01d2 E268     		ldr	r2, [r4, #12]	@ _24->FSMC_HiZSetupTime, _24->FSMC_HiZSetupTime
 364:Libraries/STM32F10x_StdPeriph_Driver/src/stm32f10x_fsmc.c ****                       (FSMC_PCCARDInitStruct->FSMC_AttributeSpaceTimingStruct->FSMC_HiZSetupTime <<
 482              		.loc 1 364 0
 483 01d4 43EA0263 		orr	r3, r3, r2, lsl #24	@, D.5927, D.5927, _24->FSMC_HiZSetupTime,
 362:Libraries/STM32F10x_StdPeriph_Driver/src/stm32f10x_fsmc.c ****                       (FSMC_PCCARDInitStruct->FSMC_AttributeSpaceTimingStruct->FSMC_WaitSetupTime <
 484              		.loc 1 362 0
 485 01d8 CB60     		str	r3, [r1, #12]	@ D.5927, MEM[(struct FSMC_Bank4_TypeDef *)2684354720B].PATT4
 369:Libraries/STM32F10x_StdPeriph_Driver/src/stm32f10x_fsmc.c ****                      (FSMC_PCCARDInitStruct->FSMC_IOSpaceTimingStruct->FSMC_WaitSetupTime << 8) |
 370:Libraries/STM32F10x_StdPeriph_Driver/src/stm32f10x_fsmc.c ****                      (FSMC_PCCARDInitStruct->FSMC_IOSpaceTimingStruct->FSMC_HoldSetupTime << 16)|
 486              		.loc 1 370 0
 487 01da 8268     		ldr	r2, [r0, #8]	@ _36->FSMC_HoldSetupTime, _36->FSMC_HoldSetupTime
ARM GAS  /var/folders/yt/6z6x8bjn5sjf5fbb45bk5m4c0000gn/T//ccRqGMl0.s 			page 17


 369:Libraries/STM32F10x_StdPeriph_Driver/src/stm32f10x_fsmc.c ****                      (FSMC_PCCARDInitStruct->FSMC_IOSpaceTimingStruct->FSMC_WaitSetupTime << 8) |
 488              		.loc 1 369 0
 489 01dc 4368     		ldr	r3, [r0, #4]	@ _36->FSMC_WaitSetupTime, _36->FSMC_WaitSetupTime
 490              		.loc 1 370 0
 491 01de 1204     		lsls	r2, r2, #16	@ D.5927, _36->FSMC_HoldSetupTime,
 492 01e0 42EA0322 		orr	r2, r2, r3, lsl #8	@, D.5927, D.5927, _36->FSMC_WaitSetupTime,
 369:Libraries/STM32F10x_StdPeriph_Driver/src/stm32f10x_fsmc.c ****                      (FSMC_PCCARDInitStruct->FSMC_IOSpaceTimingStruct->FSMC_WaitSetupTime << 8) |
 493              		.loc 1 369 0
 494 01e4 0368     		ldr	r3, [r0]	@ _36->FSMC_SetupTime, _36->FSMC_SetupTime
 495 01e6 1343     		orrs	r3, r3, r2	@, D.5927, _36->FSMC_SetupTime, D.5927
 371:Libraries/STM32F10x_StdPeriph_Driver/src/stm32f10x_fsmc.c ****                      (FSMC_PCCARDInitStruct->FSMC_IOSpaceTimingStruct->FSMC_HiZSetupTime << 24);   
 496              		.loc 1 371 0
 497 01e8 C268     		ldr	r2, [r0, #12]	@ _36->FSMC_HiZSetupTime, _36->FSMC_HiZSetupTime
 370:Libraries/STM32F10x_StdPeriph_Driver/src/stm32f10x_fsmc.c ****                      (FSMC_PCCARDInitStruct->FSMC_IOSpaceTimingStruct->FSMC_HiZSetupTime << 24);   
 498              		.loc 1 370 0
 499 01ea 43EA0263 		orr	r3, r3, r2, lsl #24	@, D.5927, D.5927, _36->FSMC_HiZSetupTime,
 368:Libraries/STM32F10x_StdPeriph_Driver/src/stm32f10x_fsmc.c ****                      (FSMC_PCCARDInitStruct->FSMC_IOSpaceTimingStruct->FSMC_WaitSetupTime << 8) |
 500              		.loc 1 368 0
 501 01ee 0B61     		str	r3, [r1, #16]	@ D.5927, MEM[(struct FSMC_Bank4_TypeDef *)2684354720B].PIO4
 502 01f0 10BD     		pop	{r4, pc}	@
 503              	.L27:
 504 01f2 00BF     		.align	2
 505              	.L26:
 506 01f4 A00000A0 		.word	-1610612576
 507              		.cfi_endproc
 508              	.LFE34:
 509              		.size	FSMC_PCCARDInit, .-FSMC_PCCARDInit
 510              		.align	1
 511              		.global	FSMC_NORSRAMStructInit
 512              		.thumb
 513              		.thumb_func
 514              		.type	FSMC_NORSRAMStructInit, %function
 515              	FSMC_NORSRAMStructInit:
 516              	.LFB35:
 372:Libraries/STM32F10x_StdPeriph_Driver/src/stm32f10x_fsmc.c **** }
 373:Libraries/STM32F10x_StdPeriph_Driver/src/stm32f10x_fsmc.c **** 
 374:Libraries/STM32F10x_StdPeriph_Driver/src/stm32f10x_fsmc.c **** /**
 375:Libraries/STM32F10x_StdPeriph_Driver/src/stm32f10x_fsmc.c ****   * @brief  Fills each FSMC_NORSRAMInitStruct member with its default value.
 376:Libraries/STM32F10x_StdPeriph_Driver/src/stm32f10x_fsmc.c ****   * @param  FSMC_NORSRAMInitStruct: pointer to a FSMC_NORSRAMInitTypeDef 
 377:Libraries/STM32F10x_StdPeriph_Driver/src/stm32f10x_fsmc.c ****   *         structure which will be initialized.
 378:Libraries/STM32F10x_StdPeriph_Driver/src/stm32f10x_fsmc.c ****   * @retval None
 379:Libraries/STM32F10x_StdPeriph_Driver/src/stm32f10x_fsmc.c ****   */
 380:Libraries/STM32F10x_StdPeriph_Driver/src/stm32f10x_fsmc.c **** void FSMC_NORSRAMStructInit(FSMC_NORSRAMInitTypeDef* FSMC_NORSRAMInitStruct)
 381:Libraries/STM32F10x_StdPeriph_Driver/src/stm32f10x_fsmc.c **** {  
 517              		.loc 1 381 0
 518              		.cfi_startproc
 519              		@ args = 0, pretend = 0, frame = 0
 520              		@ frame_needed = 0, uses_anonymous_args = 0
 521              	.LVL14:
 382:Libraries/STM32F10x_StdPeriph_Driver/src/stm32f10x_fsmc.c ****   /* Reset NOR/SRAM Init structure parameters values */
 383:Libraries/STM32F10x_StdPeriph_Driver/src/stm32f10x_fsmc.c ****   FSMC_NORSRAMInitStruct->FSMC_Bank = FSMC_Bank1_NORSRAM1;
 384:Libraries/STM32F10x_StdPeriph_Driver/src/stm32f10x_fsmc.c ****   FSMC_NORSRAMInitStruct->FSMC_DataAddressMux = FSMC_DataAddressMux_Enable;
 522              		.loc 1 384 0
 523 01f8 0222     		movs	r2, #2	@ tmp114,
 381:Libraries/STM32F10x_StdPeriph_Driver/src/stm32f10x_fsmc.c ****   /* Reset NOR/SRAM Init structure parameters values */
 524              		.loc 1 381 0
 525 01fa 10B5     		push	{r4, lr}	@
ARM GAS  /var/folders/yt/6z6x8bjn5sjf5fbb45bk5m4c0000gn/T//ccRqGMl0.s 			page 18


 526              	.LCFI3:
 527              		.cfi_def_cfa_offset 8
 528              		.cfi_offset 4, -8
 529              		.cfi_offset 14, -4
 530              		.loc 1 384 0
 531 01fc 4260     		str	r2, [r0, #4]	@ tmp114, FSMC_NORSRAMInitStruct_2(D)->FSMC_DataAddressMux
 385:Libraries/STM32F10x_StdPeriph_Driver/src/stm32f10x_fsmc.c ****   FSMC_NORSRAMInitStruct->FSMC_MemoryType = FSMC_MemoryType_SRAM;
 386:Libraries/STM32F10x_StdPeriph_Driver/src/stm32f10x_fsmc.c ****   FSMC_NORSRAMInitStruct->FSMC_MemoryDataWidth = FSMC_MemoryDataWidth_8b;
 387:Libraries/STM32F10x_StdPeriph_Driver/src/stm32f10x_fsmc.c ****   FSMC_NORSRAMInitStruct->FSMC_BurstAccessMode = FSMC_BurstAccessMode_Disable;
 388:Libraries/STM32F10x_StdPeriph_Driver/src/stm32f10x_fsmc.c ****   FSMC_NORSRAMInitStruct->FSMC_AsynchronousWait = FSMC_AsynchronousWait_Disable;
 389:Libraries/STM32F10x_StdPeriph_Driver/src/stm32f10x_fsmc.c ****   FSMC_NORSRAMInitStruct->FSMC_WaitSignalPolarity = FSMC_WaitSignalPolarity_Low;
 390:Libraries/STM32F10x_StdPeriph_Driver/src/stm32f10x_fsmc.c ****   FSMC_NORSRAMInitStruct->FSMC_WrapMode = FSMC_WrapMode_Disable;
 391:Libraries/STM32F10x_StdPeriph_Driver/src/stm32f10x_fsmc.c ****   FSMC_NORSRAMInitStruct->FSMC_WaitSignalActive = FSMC_WaitSignalActive_BeforeWaitState;
 392:Libraries/STM32F10x_StdPeriph_Driver/src/stm32f10x_fsmc.c ****   FSMC_NORSRAMInitStruct->FSMC_WriteOperation = FSMC_WriteOperation_Enable;
 532              		.loc 1 392 0
 533 01fe 4FF48052 		mov	r2, #4096	@ tmp122,
 534 0202 4262     		str	r2, [r0, #36]	@ tmp122, FSMC_NORSRAMInitStruct_2(D)->FSMC_WriteOperation
 393:Libraries/STM32F10x_StdPeriph_Driver/src/stm32f10x_fsmc.c ****   FSMC_NORSRAMInitStruct->FSMC_WaitSignal = FSMC_WaitSignal_Enable;
 394:Libraries/STM32F10x_StdPeriph_Driver/src/stm32f10x_fsmc.c ****   FSMC_NORSRAMInitStruct->FSMC_ExtendedMode = FSMC_ExtendedMode_Disable;
 395:Libraries/STM32F10x_StdPeriph_Driver/src/stm32f10x_fsmc.c ****   FSMC_NORSRAMInitStruct->FSMC_WriteBurst = FSMC_WriteBurst_Disable;
 396:Libraries/STM32F10x_StdPeriph_Driver/src/stm32f10x_fsmc.c ****   FSMC_NORSRAMInitStruct->FSMC_ReadWriteTimingStruct->FSMC_AddressSetupTime = 0xF;
 535              		.loc 1 396 0
 536 0204 416B     		ldr	r1, [r0, #52]	@ D.5931, FSMC_NORSRAMInitStruct_2(D)->FSMC_ReadWriteTimingStruct
 393:Libraries/STM32F10x_StdPeriph_Driver/src/stm32f10x_fsmc.c ****   FSMC_NORSRAMInitStruct->FSMC_WaitSignal = FSMC_WaitSignal_Enable;
 537              		.loc 1 393 0
 538 0206 4FF40052 		mov	r2, #8192	@ tmp123,
 539 020a 8262     		str	r2, [r0, #40]	@ tmp123, FSMC_NORSRAMInitStruct_2(D)->FSMC_WaitSignal
 383:Libraries/STM32F10x_StdPeriph_Driver/src/stm32f10x_fsmc.c ****   FSMC_NORSRAMInitStruct->FSMC_DataAddressMux = FSMC_DataAddressMux_Enable;
 540              		.loc 1 383 0
 541 020c 0023     		movs	r3, #0	@ tmp113,
 542              		.loc 1 396 0
 543 020e 0F22     		movs	r2, #15	@ tmp126,
 397:Libraries/STM32F10x_StdPeriph_Driver/src/stm32f10x_fsmc.c ****   FSMC_NORSRAMInitStruct->FSMC_ReadWriteTimingStruct->FSMC_AddressHoldTime = 0xF;
 398:Libraries/STM32F10x_StdPeriph_Driver/src/stm32f10x_fsmc.c ****   FSMC_NORSRAMInitStruct->FSMC_ReadWriteTimingStruct->FSMC_DataSetupTime = 0xFF;
 544              		.loc 1 398 0
 545 0210 FF24     		movs	r4, #255	@ tmp128,
 383:Libraries/STM32F10x_StdPeriph_Driver/src/stm32f10x_fsmc.c ****   FSMC_NORSRAMInitStruct->FSMC_DataAddressMux = FSMC_DataAddressMux_Enable;
 546              		.loc 1 383 0
 547 0212 0360     		str	r3, [r0]	@ tmp113, FSMC_NORSRAMInitStruct_2(D)->FSMC_Bank
 385:Libraries/STM32F10x_StdPeriph_Driver/src/stm32f10x_fsmc.c ****   FSMC_NORSRAMInitStruct->FSMC_MemoryDataWidth = FSMC_MemoryDataWidth_8b;
 548              		.loc 1 385 0
 549 0214 8360     		str	r3, [r0, #8]	@ tmp113, FSMC_NORSRAMInitStruct_2(D)->FSMC_MemoryType
 386:Libraries/STM32F10x_StdPeriph_Driver/src/stm32f10x_fsmc.c ****   FSMC_NORSRAMInitStruct->FSMC_BurstAccessMode = FSMC_BurstAccessMode_Disable;
 550              		.loc 1 386 0
 551 0216 C360     		str	r3, [r0, #12]	@ tmp113, FSMC_NORSRAMInitStruct_2(D)->FSMC_MemoryDataWidth
 387:Libraries/STM32F10x_StdPeriph_Driver/src/stm32f10x_fsmc.c ****   FSMC_NORSRAMInitStruct->FSMC_AsynchronousWait = FSMC_AsynchronousWait_Disable;
 552              		.loc 1 387 0
 553 0218 0361     		str	r3, [r0, #16]	@ tmp113, FSMC_NORSRAMInitStruct_2(D)->FSMC_BurstAccessMode
 388:Libraries/STM32F10x_StdPeriph_Driver/src/stm32f10x_fsmc.c ****   FSMC_NORSRAMInitStruct->FSMC_WaitSignalPolarity = FSMC_WaitSignalPolarity_Low;
 554              		.loc 1 388 0
 555 021a 4361     		str	r3, [r0, #20]	@ tmp113, FSMC_NORSRAMInitStruct_2(D)->FSMC_AsynchronousWait
 389:Libraries/STM32F10x_StdPeriph_Driver/src/stm32f10x_fsmc.c ****   FSMC_NORSRAMInitStruct->FSMC_WrapMode = FSMC_WrapMode_Disable;
 556              		.loc 1 389 0
 557 021c 8361     		str	r3, [r0, #24]	@ tmp113, FSMC_NORSRAMInitStruct_2(D)->FSMC_WaitSignalPolarity
 390:Libraries/STM32F10x_StdPeriph_Driver/src/stm32f10x_fsmc.c ****   FSMC_NORSRAMInitStruct->FSMC_WaitSignalActive = FSMC_WaitSignalActive_BeforeWaitState;
 558              		.loc 1 390 0
 559 021e C361     		str	r3, [r0, #28]	@ tmp113, FSMC_NORSRAMInitStruct_2(D)->FSMC_WrapMode
ARM GAS  /var/folders/yt/6z6x8bjn5sjf5fbb45bk5m4c0000gn/T//ccRqGMl0.s 			page 19


 391:Libraries/STM32F10x_StdPeriph_Driver/src/stm32f10x_fsmc.c ****   FSMC_NORSRAMInitStruct->FSMC_WriteOperation = FSMC_WriteOperation_Enable;
 560              		.loc 1 391 0
 561 0220 0362     		str	r3, [r0, #32]	@ tmp113, FSMC_NORSRAMInitStruct_2(D)->FSMC_WaitSignalActive
 394:Libraries/STM32F10x_StdPeriph_Driver/src/stm32f10x_fsmc.c ****   FSMC_NORSRAMInitStruct->FSMC_WriteBurst = FSMC_WriteBurst_Disable;
 562              		.loc 1 394 0
 563 0222 C362     		str	r3, [r0, #44]	@ tmp113, FSMC_NORSRAMInitStruct_2(D)->FSMC_ExtendedMode
 395:Libraries/STM32F10x_StdPeriph_Driver/src/stm32f10x_fsmc.c ****   FSMC_NORSRAMInitStruct->FSMC_ReadWriteTimingStruct->FSMC_AddressSetupTime = 0xF;
 564              		.loc 1 395 0
 565 0224 0363     		str	r3, [r0, #48]	@ tmp113, FSMC_NORSRAMInitStruct_2(D)->FSMC_WriteBurst
 396:Libraries/STM32F10x_StdPeriph_Driver/src/stm32f10x_fsmc.c ****   FSMC_NORSRAMInitStruct->FSMC_ReadWriteTimingStruct->FSMC_AddressHoldTime = 0xF;
 566              		.loc 1 396 0
 567 0226 0A60     		str	r2, [r1]	@ tmp126, _16->FSMC_AddressSetupTime
 397:Libraries/STM32F10x_StdPeriph_Driver/src/stm32f10x_fsmc.c ****   FSMC_NORSRAMInitStruct->FSMC_ReadWriteTimingStruct->FSMC_DataSetupTime = 0xFF;
 568              		.loc 1 397 0
 569 0228 4A60     		str	r2, [r1, #4]	@ tmp126, _16->FSMC_AddressHoldTime
 570              		.loc 1 398 0
 571 022a 8C60     		str	r4, [r1, #8]	@ tmp128, _16->FSMC_DataSetupTime
 399:Libraries/STM32F10x_StdPeriph_Driver/src/stm32f10x_fsmc.c ****   FSMC_NORSRAMInitStruct->FSMC_ReadWriteTimingStruct->FSMC_BusTurnAroundDuration = 0xF;
 572              		.loc 1 399 0
 573 022c CA60     		str	r2, [r1, #12]	@ tmp126, _16->FSMC_BusTurnAroundDuration
 400:Libraries/STM32F10x_StdPeriph_Driver/src/stm32f10x_fsmc.c ****   FSMC_NORSRAMInitStruct->FSMC_ReadWriteTimingStruct->FSMC_CLKDivision = 0xF;
 574              		.loc 1 400 0
 575 022e 0A61     		str	r2, [r1, #16]	@ tmp126, _16->FSMC_CLKDivision
 401:Libraries/STM32F10x_StdPeriph_Driver/src/stm32f10x_fsmc.c ****   FSMC_NORSRAMInitStruct->FSMC_ReadWriteTimingStruct->FSMC_DataLatency = 0xF;
 576              		.loc 1 401 0
 577 0230 4A61     		str	r2, [r1, #20]	@ tmp126, _16->FSMC_DataLatency
 402:Libraries/STM32F10x_StdPeriph_Driver/src/stm32f10x_fsmc.c ****   FSMC_NORSRAMInitStruct->FSMC_ReadWriteTimingStruct->FSMC_AccessMode = FSMC_AccessMode_A; 
 578              		.loc 1 402 0
 579 0232 8B61     		str	r3, [r1, #24]	@ tmp113, _16->FSMC_AccessMode
 403:Libraries/STM32F10x_StdPeriph_Driver/src/stm32f10x_fsmc.c ****   FSMC_NORSRAMInitStruct->FSMC_WriteTimingStruct->FSMC_AddressSetupTime = 0xF;
 580              		.loc 1 403 0
 581 0234 816B     		ldr	r1, [r0, #56]	@ D.5931, FSMC_NORSRAMInitStruct_2(D)->FSMC_WriteTimingStruct
 582 0236 0A60     		str	r2, [r1]	@ tmp126, _24->FSMC_AddressSetupTime
 404:Libraries/STM32F10x_StdPeriph_Driver/src/stm32f10x_fsmc.c ****   FSMC_NORSRAMInitStruct->FSMC_WriteTimingStruct->FSMC_AddressHoldTime = 0xF;
 583              		.loc 1 404 0
 584 0238 4A60     		str	r2, [r1, #4]	@ tmp126, _24->FSMC_AddressHoldTime
 405:Libraries/STM32F10x_StdPeriph_Driver/src/stm32f10x_fsmc.c ****   FSMC_NORSRAMInitStruct->FSMC_WriteTimingStruct->FSMC_DataSetupTime = 0xFF;
 585              		.loc 1 405 0
 586 023a 8C60     		str	r4, [r1, #8]	@ tmp128, _24->FSMC_DataSetupTime
 406:Libraries/STM32F10x_StdPeriph_Driver/src/stm32f10x_fsmc.c ****   FSMC_NORSRAMInitStruct->FSMC_WriteTimingStruct->FSMC_BusTurnAroundDuration = 0xF;
 587              		.loc 1 406 0
 588 023c CA60     		str	r2, [r1, #12]	@ tmp126, _24->FSMC_BusTurnAroundDuration
 407:Libraries/STM32F10x_StdPeriph_Driver/src/stm32f10x_fsmc.c ****   FSMC_NORSRAMInitStruct->FSMC_WriteTimingStruct->FSMC_CLKDivision = 0xF;
 589              		.loc 1 407 0
 590 023e 0A61     		str	r2, [r1, #16]	@ tmp126, _24->FSMC_CLKDivision
 408:Libraries/STM32F10x_StdPeriph_Driver/src/stm32f10x_fsmc.c ****   FSMC_NORSRAMInitStruct->FSMC_WriteTimingStruct->FSMC_DataLatency = 0xF;
 591              		.loc 1 408 0
 592 0240 4A61     		str	r2, [r1, #20]	@ tmp126, _24->FSMC_DataLatency
 409:Libraries/STM32F10x_StdPeriph_Driver/src/stm32f10x_fsmc.c ****   FSMC_NORSRAMInitStruct->FSMC_WriteTimingStruct->FSMC_AccessMode = FSMC_AccessMode_A;
 593              		.loc 1 409 0
 594 0242 8B61     		str	r3, [r1, #24]	@ tmp113, _24->FSMC_AccessMode
 595 0244 10BD     		pop	{r4, pc}	@
 596              		.cfi_endproc
 597              	.LFE35:
 598              		.size	FSMC_NORSRAMStructInit, .-FSMC_NORSRAMStructInit
 599              		.align	1
 600              		.global	FSMC_NANDStructInit
ARM GAS  /var/folders/yt/6z6x8bjn5sjf5fbb45bk5m4c0000gn/T//ccRqGMl0.s 			page 20


 601              		.thumb
 602              		.thumb_func
 603              		.type	FSMC_NANDStructInit, %function
 604              	FSMC_NANDStructInit:
 605              	.LFB36:
 410:Libraries/STM32F10x_StdPeriph_Driver/src/stm32f10x_fsmc.c **** }
 411:Libraries/STM32F10x_StdPeriph_Driver/src/stm32f10x_fsmc.c **** 
 412:Libraries/STM32F10x_StdPeriph_Driver/src/stm32f10x_fsmc.c **** /**
 413:Libraries/STM32F10x_StdPeriph_Driver/src/stm32f10x_fsmc.c ****   * @brief  Fills each FSMC_NANDInitStruct member with its default value.
 414:Libraries/STM32F10x_StdPeriph_Driver/src/stm32f10x_fsmc.c ****   * @param  FSMC_NANDInitStruct: pointer to a FSMC_NANDInitTypeDef 
 415:Libraries/STM32F10x_StdPeriph_Driver/src/stm32f10x_fsmc.c ****   *         structure which will be initialized.
 416:Libraries/STM32F10x_StdPeriph_Driver/src/stm32f10x_fsmc.c ****   * @retval None
 417:Libraries/STM32F10x_StdPeriph_Driver/src/stm32f10x_fsmc.c ****   */
 418:Libraries/STM32F10x_StdPeriph_Driver/src/stm32f10x_fsmc.c **** void FSMC_NANDStructInit(FSMC_NANDInitTypeDef* FSMC_NANDInitStruct)
 419:Libraries/STM32F10x_StdPeriph_Driver/src/stm32f10x_fsmc.c **** { 
 606              		.loc 1 419 0
 607              		.cfi_startproc
 608              		@ args = 0, pretend = 0, frame = 0
 609              		@ frame_needed = 0, uses_anonymous_args = 0
 610              		@ link register save eliminated.
 611              	.LVL15:
 420:Libraries/STM32F10x_StdPeriph_Driver/src/stm32f10x_fsmc.c ****   /* Reset NAND Init structure parameters values */
 421:Libraries/STM32F10x_StdPeriph_Driver/src/stm32f10x_fsmc.c ****   FSMC_NANDInitStruct->FSMC_Bank = FSMC_Bank2_NAND;
 612              		.loc 1 421 0
 613 0246 1023     		movs	r3, #16	@ tmp113,
 614 0248 0360     		str	r3, [r0]	@ tmp113, FSMC_NANDInitStruct_2(D)->FSMC_Bank
 422:Libraries/STM32F10x_StdPeriph_Driver/src/stm32f10x_fsmc.c ****   FSMC_NANDInitStruct->FSMC_Waitfeature = FSMC_Waitfeature_Disable;
 423:Libraries/STM32F10x_StdPeriph_Driver/src/stm32f10x_fsmc.c ****   FSMC_NANDInitStruct->FSMC_MemoryDataWidth = FSMC_MemoryDataWidth_8b;
 424:Libraries/STM32F10x_StdPeriph_Driver/src/stm32f10x_fsmc.c ****   FSMC_NANDInitStruct->FSMC_ECC = FSMC_ECC_Disable;
 425:Libraries/STM32F10x_StdPeriph_Driver/src/stm32f10x_fsmc.c ****   FSMC_NANDInitStruct->FSMC_ECCPageSize = FSMC_ECCPageSize_256Bytes;
 426:Libraries/STM32F10x_StdPeriph_Driver/src/stm32f10x_fsmc.c ****   FSMC_NANDInitStruct->FSMC_TCLRSetupTime = 0x0;
 427:Libraries/STM32F10x_StdPeriph_Driver/src/stm32f10x_fsmc.c ****   FSMC_NANDInitStruct->FSMC_TARSetupTime = 0x0;
 428:Libraries/STM32F10x_StdPeriph_Driver/src/stm32f10x_fsmc.c ****   FSMC_NANDInitStruct->FSMC_CommonSpaceTimingStruct->FSMC_SetupTime = 0xFC;
 615              		.loc 1 428 0
 616 024a C269     		ldr	r2, [r0, #28]	@ D.5934, FSMC_NANDInitStruct_2(D)->FSMC_CommonSpaceTimingStruct
 422:Libraries/STM32F10x_StdPeriph_Driver/src/stm32f10x_fsmc.c ****   FSMC_NANDInitStruct->FSMC_Waitfeature = FSMC_Waitfeature_Disable;
 617              		.loc 1 422 0
 618 024c 0023     		movs	r3, #0	@ tmp114,
 619 024e 4360     		str	r3, [r0, #4]	@ tmp114, FSMC_NANDInitStruct_2(D)->FSMC_Waitfeature
 423:Libraries/STM32F10x_StdPeriph_Driver/src/stm32f10x_fsmc.c ****   FSMC_NANDInitStruct->FSMC_ECC = FSMC_ECC_Disable;
 620              		.loc 1 423 0
 621 0250 8360     		str	r3, [r0, #8]	@ tmp114, FSMC_NANDInitStruct_2(D)->FSMC_MemoryDataWidth
 424:Libraries/STM32F10x_StdPeriph_Driver/src/stm32f10x_fsmc.c ****   FSMC_NANDInitStruct->FSMC_ECCPageSize = FSMC_ECCPageSize_256Bytes;
 622              		.loc 1 424 0
 623 0252 C360     		str	r3, [r0, #12]	@ tmp114, FSMC_NANDInitStruct_2(D)->FSMC_ECC
 425:Libraries/STM32F10x_StdPeriph_Driver/src/stm32f10x_fsmc.c ****   FSMC_NANDInitStruct->FSMC_TCLRSetupTime = 0x0;
 624              		.loc 1 425 0
 625 0254 0361     		str	r3, [r0, #16]	@ tmp114, FSMC_NANDInitStruct_2(D)->FSMC_ECCPageSize
 426:Libraries/STM32F10x_StdPeriph_Driver/src/stm32f10x_fsmc.c ****   FSMC_NANDInitStruct->FSMC_TARSetupTime = 0x0;
 626              		.loc 1 426 0
 627 0256 4361     		str	r3, [r0, #20]	@ tmp114, FSMC_NANDInitStruct_2(D)->FSMC_TCLRSetupTime
 427:Libraries/STM32F10x_StdPeriph_Driver/src/stm32f10x_fsmc.c ****   FSMC_NANDInitStruct->FSMC_CommonSpaceTimingStruct->FSMC_SetupTime = 0xFC;
 628              		.loc 1 427 0
 629 0258 8361     		str	r3, [r0, #24]	@ tmp114, FSMC_NANDInitStruct_2(D)->FSMC_TARSetupTime
 630              		.loc 1 428 0
 631 025a FC23     		movs	r3, #252	@ tmp120,
 632 025c 1360     		str	r3, [r2]	@ tmp120, _10->FSMC_SetupTime
ARM GAS  /var/folders/yt/6z6x8bjn5sjf5fbb45bk5m4c0000gn/T//ccRqGMl0.s 			page 21


 429:Libraries/STM32F10x_StdPeriph_Driver/src/stm32f10x_fsmc.c ****   FSMC_NANDInitStruct->FSMC_CommonSpaceTimingStruct->FSMC_WaitSetupTime = 0xFC;
 633              		.loc 1 429 0
 634 025e 5360     		str	r3, [r2, #4]	@ tmp120, _10->FSMC_WaitSetupTime
 430:Libraries/STM32F10x_StdPeriph_Driver/src/stm32f10x_fsmc.c ****   FSMC_NANDInitStruct->FSMC_CommonSpaceTimingStruct->FSMC_HoldSetupTime = 0xFC;
 635              		.loc 1 430 0
 636 0260 9360     		str	r3, [r2, #8]	@ tmp120, _10->FSMC_HoldSetupTime
 431:Libraries/STM32F10x_StdPeriph_Driver/src/stm32f10x_fsmc.c ****   FSMC_NANDInitStruct->FSMC_CommonSpaceTimingStruct->FSMC_HiZSetupTime = 0xFC;
 637              		.loc 1 431 0
 638 0262 D360     		str	r3, [r2, #12]	@ tmp120, _10->FSMC_HiZSetupTime
 432:Libraries/STM32F10x_StdPeriph_Driver/src/stm32f10x_fsmc.c ****   FSMC_NANDInitStruct->FSMC_AttributeSpaceTimingStruct->FSMC_SetupTime = 0xFC;
 639              		.loc 1 432 0
 640 0264 026A     		ldr	r2, [r0, #32]	@ D.5934, FSMC_NANDInitStruct_2(D)->FSMC_AttributeSpaceTimingStruct
 641 0266 1360     		str	r3, [r2]	@ tmp120, _15->FSMC_SetupTime
 433:Libraries/STM32F10x_StdPeriph_Driver/src/stm32f10x_fsmc.c ****   FSMC_NANDInitStruct->FSMC_AttributeSpaceTimingStruct->FSMC_WaitSetupTime = 0xFC;
 642              		.loc 1 433 0
 643 0268 5360     		str	r3, [r2, #4]	@ tmp120, _15->FSMC_WaitSetupTime
 434:Libraries/STM32F10x_StdPeriph_Driver/src/stm32f10x_fsmc.c ****   FSMC_NANDInitStruct->FSMC_AttributeSpaceTimingStruct->FSMC_HoldSetupTime = 0xFC;
 644              		.loc 1 434 0
 645 026a 9360     		str	r3, [r2, #8]	@ tmp120, _15->FSMC_HoldSetupTime
 435:Libraries/STM32F10x_StdPeriph_Driver/src/stm32f10x_fsmc.c ****   FSMC_NANDInitStruct->FSMC_AttributeSpaceTimingStruct->FSMC_HiZSetupTime = 0xFC;	  
 646              		.loc 1 435 0
 647 026c D360     		str	r3, [r2, #12]	@ tmp120, _15->FSMC_HiZSetupTime
 648 026e 7047     		bx	lr	@
 649              		.cfi_endproc
 650              	.LFE36:
 651              		.size	FSMC_NANDStructInit, .-FSMC_NANDStructInit
 652              		.align	1
 653              		.global	FSMC_PCCARDStructInit
 654              		.thumb
 655              		.thumb_func
 656              		.type	FSMC_PCCARDStructInit, %function
 657              	FSMC_PCCARDStructInit:
 658              	.LFB37:
 436:Libraries/STM32F10x_StdPeriph_Driver/src/stm32f10x_fsmc.c **** }
 437:Libraries/STM32F10x_StdPeriph_Driver/src/stm32f10x_fsmc.c **** 
 438:Libraries/STM32F10x_StdPeriph_Driver/src/stm32f10x_fsmc.c **** /**
 439:Libraries/STM32F10x_StdPeriph_Driver/src/stm32f10x_fsmc.c ****   * @brief  Fills each FSMC_PCCARDInitStruct member with its default value.
 440:Libraries/STM32F10x_StdPeriph_Driver/src/stm32f10x_fsmc.c ****   * @param  FSMC_PCCARDInitStruct: pointer to a FSMC_PCCARDInitTypeDef 
 441:Libraries/STM32F10x_StdPeriph_Driver/src/stm32f10x_fsmc.c ****   *         structure which will be initialized.
 442:Libraries/STM32F10x_StdPeriph_Driver/src/stm32f10x_fsmc.c ****   * @retval None
 443:Libraries/STM32F10x_StdPeriph_Driver/src/stm32f10x_fsmc.c ****   */
 444:Libraries/STM32F10x_StdPeriph_Driver/src/stm32f10x_fsmc.c **** void FSMC_PCCARDStructInit(FSMC_PCCARDInitTypeDef* FSMC_PCCARDInitStruct)
 445:Libraries/STM32F10x_StdPeriph_Driver/src/stm32f10x_fsmc.c **** {
 659              		.loc 1 445 0
 660              		.cfi_startproc
 661              		@ args = 0, pretend = 0, frame = 0
 662              		@ frame_needed = 0, uses_anonymous_args = 0
 663              		@ link register save eliminated.
 664              	.LVL16:
 446:Libraries/STM32F10x_StdPeriph_Driver/src/stm32f10x_fsmc.c ****   /* Reset PCCARD Init structure parameters values */
 447:Libraries/STM32F10x_StdPeriph_Driver/src/stm32f10x_fsmc.c ****   FSMC_PCCARDInitStruct->FSMC_Waitfeature = FSMC_Waitfeature_Disable;
 448:Libraries/STM32F10x_StdPeriph_Driver/src/stm32f10x_fsmc.c ****   FSMC_PCCARDInitStruct->FSMC_TCLRSetupTime = 0x0;
 449:Libraries/STM32F10x_StdPeriph_Driver/src/stm32f10x_fsmc.c ****   FSMC_PCCARDInitStruct->FSMC_TARSetupTime = 0x0;
 450:Libraries/STM32F10x_StdPeriph_Driver/src/stm32f10x_fsmc.c ****   FSMC_PCCARDInitStruct->FSMC_CommonSpaceTimingStruct->FSMC_SetupTime = 0xFC;
 665              		.loc 1 450 0
 666 0270 C268     		ldr	r2, [r0, #12]	@ D.5937, FSMC_PCCARDInitStruct_2(D)->FSMC_CommonSpaceTimingStruct
 447:Libraries/STM32F10x_StdPeriph_Driver/src/stm32f10x_fsmc.c ****   FSMC_PCCARDInitStruct->FSMC_TCLRSetupTime = 0x0;
ARM GAS  /var/folders/yt/6z6x8bjn5sjf5fbb45bk5m4c0000gn/T//ccRqGMl0.s 			page 22


 667              		.loc 1 447 0
 668 0272 0023     		movs	r3, #0	@ tmp114,
 669 0274 0360     		str	r3, [r0]	@ tmp114, FSMC_PCCARDInitStruct_2(D)->FSMC_Waitfeature
 448:Libraries/STM32F10x_StdPeriph_Driver/src/stm32f10x_fsmc.c ****   FSMC_PCCARDInitStruct->FSMC_TARSetupTime = 0x0;
 670              		.loc 1 448 0
 671 0276 4360     		str	r3, [r0, #4]	@ tmp114, FSMC_PCCARDInitStruct_2(D)->FSMC_TCLRSetupTime
 449:Libraries/STM32F10x_StdPeriph_Driver/src/stm32f10x_fsmc.c ****   FSMC_PCCARDInitStruct->FSMC_CommonSpaceTimingStruct->FSMC_SetupTime = 0xFC;
 672              		.loc 1 449 0
 673 0278 8360     		str	r3, [r0, #8]	@ tmp114, FSMC_PCCARDInitStruct_2(D)->FSMC_TARSetupTime
 674              		.loc 1 450 0
 675 027a FC23     		movs	r3, #252	@ tmp117,
 676 027c 1360     		str	r3, [r2]	@ tmp117, _6->FSMC_SetupTime
 451:Libraries/STM32F10x_StdPeriph_Driver/src/stm32f10x_fsmc.c ****   FSMC_PCCARDInitStruct->FSMC_CommonSpaceTimingStruct->FSMC_WaitSetupTime = 0xFC;
 677              		.loc 1 451 0
 678 027e 5360     		str	r3, [r2, #4]	@ tmp117, _6->FSMC_WaitSetupTime
 452:Libraries/STM32F10x_StdPeriph_Driver/src/stm32f10x_fsmc.c ****   FSMC_PCCARDInitStruct->FSMC_CommonSpaceTimingStruct->FSMC_HoldSetupTime = 0xFC;
 679              		.loc 1 452 0
 680 0280 9360     		str	r3, [r2, #8]	@ tmp117, _6->FSMC_HoldSetupTime
 453:Libraries/STM32F10x_StdPeriph_Driver/src/stm32f10x_fsmc.c ****   FSMC_PCCARDInitStruct->FSMC_CommonSpaceTimingStruct->FSMC_HiZSetupTime = 0xFC;
 681              		.loc 1 453 0
 682 0282 D360     		str	r3, [r2, #12]	@ tmp117, _6->FSMC_HiZSetupTime
 454:Libraries/STM32F10x_StdPeriph_Driver/src/stm32f10x_fsmc.c ****   FSMC_PCCARDInitStruct->FSMC_AttributeSpaceTimingStruct->FSMC_SetupTime = 0xFC;
 683              		.loc 1 454 0
 684 0284 0269     		ldr	r2, [r0, #16]	@ D.5937, FSMC_PCCARDInitStruct_2(D)->FSMC_AttributeSpaceTimingStruct
 685 0286 1360     		str	r3, [r2]	@ tmp117, _11->FSMC_SetupTime
 455:Libraries/STM32F10x_StdPeriph_Driver/src/stm32f10x_fsmc.c ****   FSMC_PCCARDInitStruct->FSMC_AttributeSpaceTimingStruct->FSMC_WaitSetupTime = 0xFC;
 686              		.loc 1 455 0
 687 0288 5360     		str	r3, [r2, #4]	@ tmp117, _11->FSMC_WaitSetupTime
 456:Libraries/STM32F10x_StdPeriph_Driver/src/stm32f10x_fsmc.c ****   FSMC_PCCARDInitStruct->FSMC_AttributeSpaceTimingStruct->FSMC_HoldSetupTime = 0xFC;
 688              		.loc 1 456 0
 689 028a 9360     		str	r3, [r2, #8]	@ tmp117, _11->FSMC_HoldSetupTime
 457:Libraries/STM32F10x_StdPeriph_Driver/src/stm32f10x_fsmc.c ****   FSMC_PCCARDInitStruct->FSMC_AttributeSpaceTimingStruct->FSMC_HiZSetupTime = 0xFC;	
 690              		.loc 1 457 0
 691 028c D360     		str	r3, [r2, #12]	@ tmp117, _11->FSMC_HiZSetupTime
 458:Libraries/STM32F10x_StdPeriph_Driver/src/stm32f10x_fsmc.c ****   FSMC_PCCARDInitStruct->FSMC_IOSpaceTimingStruct->FSMC_SetupTime = 0xFC;
 692              		.loc 1 458 0
 693 028e 4269     		ldr	r2, [r0, #20]	@ D.5937, FSMC_PCCARDInitStruct_2(D)->FSMC_IOSpaceTimingStruct
 694 0290 1360     		str	r3, [r2]	@ tmp117, _16->FSMC_SetupTime
 459:Libraries/STM32F10x_StdPeriph_Driver/src/stm32f10x_fsmc.c ****   FSMC_PCCARDInitStruct->FSMC_IOSpaceTimingStruct->FSMC_WaitSetupTime = 0xFC;
 695              		.loc 1 459 0
 696 0292 5360     		str	r3, [r2, #4]	@ tmp117, _16->FSMC_WaitSetupTime
 460:Libraries/STM32F10x_StdPeriph_Driver/src/stm32f10x_fsmc.c ****   FSMC_PCCARDInitStruct->FSMC_IOSpaceTimingStruct->FSMC_HoldSetupTime = 0xFC;
 697              		.loc 1 460 0
 698 0294 9360     		str	r3, [r2, #8]	@ tmp117, _16->FSMC_HoldSetupTime
 461:Libraries/STM32F10x_StdPeriph_Driver/src/stm32f10x_fsmc.c ****   FSMC_PCCARDInitStruct->FSMC_IOSpaceTimingStruct->FSMC_HiZSetupTime = 0xFC;
 699              		.loc 1 461 0
 700 0296 D360     		str	r3, [r2, #12]	@ tmp117, _16->FSMC_HiZSetupTime
 701 0298 7047     		bx	lr	@
 702              		.cfi_endproc
 703              	.LFE37:
 704              		.size	FSMC_PCCARDStructInit, .-FSMC_PCCARDStructInit
 705              		.align	1
 706              		.global	FSMC_NORSRAMCmd
 707              		.thumb
 708              		.thumb_func
 709              		.type	FSMC_NORSRAMCmd, %function
 710              	FSMC_NORSRAMCmd:
ARM GAS  /var/folders/yt/6z6x8bjn5sjf5fbb45bk5m4c0000gn/T//ccRqGMl0.s 			page 23


 711              	.LFB38:
 462:Libraries/STM32F10x_StdPeriph_Driver/src/stm32f10x_fsmc.c **** }
 463:Libraries/STM32F10x_StdPeriph_Driver/src/stm32f10x_fsmc.c **** 
 464:Libraries/STM32F10x_StdPeriph_Driver/src/stm32f10x_fsmc.c **** /**
 465:Libraries/STM32F10x_StdPeriph_Driver/src/stm32f10x_fsmc.c ****   * @brief  Enables or disables the specified NOR/SRAM Memory Bank.
 466:Libraries/STM32F10x_StdPeriph_Driver/src/stm32f10x_fsmc.c ****   * @param  FSMC_Bank: specifies the FSMC Bank to be used
 467:Libraries/STM32F10x_StdPeriph_Driver/src/stm32f10x_fsmc.c ****   *   This parameter can be one of the following values:
 468:Libraries/STM32F10x_StdPeriph_Driver/src/stm32f10x_fsmc.c ****   *     @arg FSMC_Bank1_NORSRAM1: FSMC Bank1 NOR/SRAM1  
 469:Libraries/STM32F10x_StdPeriph_Driver/src/stm32f10x_fsmc.c ****   *     @arg FSMC_Bank1_NORSRAM2: FSMC Bank1 NOR/SRAM2 
 470:Libraries/STM32F10x_StdPeriph_Driver/src/stm32f10x_fsmc.c ****   *     @arg FSMC_Bank1_NORSRAM3: FSMC Bank1 NOR/SRAM3 
 471:Libraries/STM32F10x_StdPeriph_Driver/src/stm32f10x_fsmc.c ****   *     @arg FSMC_Bank1_NORSRAM4: FSMC Bank1 NOR/SRAM4 
 472:Libraries/STM32F10x_StdPeriph_Driver/src/stm32f10x_fsmc.c ****   * @param  NewState: new state of the FSMC_Bank. This parameter can be: ENABLE or DISABLE.
 473:Libraries/STM32F10x_StdPeriph_Driver/src/stm32f10x_fsmc.c ****   * @retval None
 474:Libraries/STM32F10x_StdPeriph_Driver/src/stm32f10x_fsmc.c ****   */
 475:Libraries/STM32F10x_StdPeriph_Driver/src/stm32f10x_fsmc.c **** void FSMC_NORSRAMCmd(uint32_t FSMC_Bank, FunctionalState NewState)
 476:Libraries/STM32F10x_StdPeriph_Driver/src/stm32f10x_fsmc.c **** {
 712              		.loc 1 476 0
 713              		.cfi_startproc
 714              		@ args = 0, pretend = 0, frame = 0
 715              		@ frame_needed = 0, uses_anonymous_args = 0
 716              		@ link register save eliminated.
 717              	.LVL17:
 718 029a 8000     		lsls	r0, r0, #2	@ D.5941, FSMC_Bank,
 719              	.LVL18:
 720 029c 00F12040 		add	r0, r0, #-1610612736	@ D.5942, D.5941,
 477:Libraries/STM32F10x_StdPeriph_Driver/src/stm32f10x_fsmc.c ****   assert_param(IS_FSMC_NORSRAM_BANK(FSMC_Bank));
 478:Libraries/STM32F10x_StdPeriph_Driver/src/stm32f10x_fsmc.c ****   assert_param(IS_FUNCTIONAL_STATE(NewState));
 479:Libraries/STM32F10x_StdPeriph_Driver/src/stm32f10x_fsmc.c ****   
 480:Libraries/STM32F10x_StdPeriph_Driver/src/stm32f10x_fsmc.c ****   if (NewState != DISABLE)
 721              		.loc 1 480 0
 722 02a0 19B1     		cbz	r1, .L32	@ NewState,
 481:Libraries/STM32F10x_StdPeriph_Driver/src/stm32f10x_fsmc.c ****   {
 482:Libraries/STM32F10x_StdPeriph_Driver/src/stm32f10x_fsmc.c ****     /* Enable the selected NOR/SRAM Bank by setting the PBKEN bit in the BCRx register */
 483:Libraries/STM32F10x_StdPeriph_Driver/src/stm32f10x_fsmc.c ****     FSMC_Bank1->BTCR[FSMC_Bank] |= BCR_MBKEN_Set;
 723              		.loc 1 483 0
 724 02a2 0368     		ldr	r3, [r0]	@ D.5940, MEM[(struct FSMC_Bank1_TypeDef *)_12]
 725 02a4 43F00103 		orr	r3, r3, #1	@ D.5940, D.5940,
 726 02a8 02E0     		b	.L34	@
 727              	.L32:
 484:Libraries/STM32F10x_StdPeriph_Driver/src/stm32f10x_fsmc.c ****   }
 485:Libraries/STM32F10x_StdPeriph_Driver/src/stm32f10x_fsmc.c ****   else
 486:Libraries/STM32F10x_StdPeriph_Driver/src/stm32f10x_fsmc.c ****   {
 487:Libraries/STM32F10x_StdPeriph_Driver/src/stm32f10x_fsmc.c ****     /* Disable the selected NOR/SRAM Bank by clearing the PBKEN bit in the BCRx register */
 488:Libraries/STM32F10x_StdPeriph_Driver/src/stm32f10x_fsmc.c ****     FSMC_Bank1->BTCR[FSMC_Bank] &= BCR_MBKEN_Reset;
 728              		.loc 1 488 0
 729 02aa 0268     		ldr	r2, [r0]	@ D.5940, MEM[(struct FSMC_Bank1_TypeDef *)_16]
 730 02ac 014B     		ldr	r3, .L35	@ D.5940,
 731 02ae 1340     		ands	r3, r3, r2	@, D.5940, D.5940, D.5940
 732              	.L34:
 733 02b0 0360     		str	r3, [r0]	@ D.5940,* D.5942
 734 02b2 7047     		bx	lr	@
 735              	.L36:
 736              		.align	2
 737              	.L35:
 738 02b4 FEFF0F00 		.word	1048574
 739              		.cfi_endproc
 740              	.LFE38:
ARM GAS  /var/folders/yt/6z6x8bjn5sjf5fbb45bk5m4c0000gn/T//ccRqGMl0.s 			page 24


 741              		.size	FSMC_NORSRAMCmd, .-FSMC_NORSRAMCmd
 742              		.align	1
 743              		.global	FSMC_NANDCmd
 744              		.thumb
 745              		.thumb_func
 746              		.type	FSMC_NANDCmd, %function
 747              	FSMC_NANDCmd:
 748              	.LFB39:
 489:Libraries/STM32F10x_StdPeriph_Driver/src/stm32f10x_fsmc.c ****   }
 490:Libraries/STM32F10x_StdPeriph_Driver/src/stm32f10x_fsmc.c **** }
 491:Libraries/STM32F10x_StdPeriph_Driver/src/stm32f10x_fsmc.c **** 
 492:Libraries/STM32F10x_StdPeriph_Driver/src/stm32f10x_fsmc.c **** /**
 493:Libraries/STM32F10x_StdPeriph_Driver/src/stm32f10x_fsmc.c ****   * @brief  Enables or disables the specified NAND Memory Bank.
 494:Libraries/STM32F10x_StdPeriph_Driver/src/stm32f10x_fsmc.c ****   * @param  FSMC_Bank: specifies the FSMC Bank to be used
 495:Libraries/STM32F10x_StdPeriph_Driver/src/stm32f10x_fsmc.c ****   *   This parameter can be one of the following values:
 496:Libraries/STM32F10x_StdPeriph_Driver/src/stm32f10x_fsmc.c ****   *     @arg FSMC_Bank2_NAND: FSMC Bank2 NAND 
 497:Libraries/STM32F10x_StdPeriph_Driver/src/stm32f10x_fsmc.c ****   *     @arg FSMC_Bank3_NAND: FSMC Bank3 NAND
 498:Libraries/STM32F10x_StdPeriph_Driver/src/stm32f10x_fsmc.c ****   * @param  NewState: new state of the FSMC_Bank. This parameter can be: ENABLE or DISABLE.
 499:Libraries/STM32F10x_StdPeriph_Driver/src/stm32f10x_fsmc.c ****   * @retval None
 500:Libraries/STM32F10x_StdPeriph_Driver/src/stm32f10x_fsmc.c ****   */
 501:Libraries/STM32F10x_StdPeriph_Driver/src/stm32f10x_fsmc.c **** void FSMC_NANDCmd(uint32_t FSMC_Bank, FunctionalState NewState)
 502:Libraries/STM32F10x_StdPeriph_Driver/src/stm32f10x_fsmc.c **** {
 749              		.loc 1 502 0
 750              		.cfi_startproc
 751              		@ args = 0, pretend = 0, frame = 0
 752              		@ frame_needed = 0, uses_anonymous_args = 0
 753              		@ link register save eliminated.
 754              	.LVL19:
 503:Libraries/STM32F10x_StdPeriph_Driver/src/stm32f10x_fsmc.c ****   assert_param(IS_FSMC_NAND_BANK(FSMC_Bank));
 504:Libraries/STM32F10x_StdPeriph_Driver/src/stm32f10x_fsmc.c ****   assert_param(IS_FUNCTIONAL_STATE(NewState));
 505:Libraries/STM32F10x_StdPeriph_Driver/src/stm32f10x_fsmc.c ****   
 506:Libraries/STM32F10x_StdPeriph_Driver/src/stm32f10x_fsmc.c ****   if (NewState != DISABLE)
 755              		.loc 1 506 0
 756 02b8 39B1     		cbz	r1, .L38	@ NewState,
 507:Libraries/STM32F10x_StdPeriph_Driver/src/stm32f10x_fsmc.c ****   {
 508:Libraries/STM32F10x_StdPeriph_Driver/src/stm32f10x_fsmc.c ****     /* Enable the selected NAND Bank by setting the PBKEN bit in the PCRx register */
 509:Libraries/STM32F10x_StdPeriph_Driver/src/stm32f10x_fsmc.c ****     if(FSMC_Bank == FSMC_Bank2_NAND)
 757              		.loc 1 509 0
 758 02ba 1028     		cmp	r0, #16	@ FSMC_Bank,
 510:Libraries/STM32F10x_StdPeriph_Driver/src/stm32f10x_fsmc.c ****     {
 511:Libraries/STM32F10x_StdPeriph_Driver/src/stm32f10x_fsmc.c ****       FSMC_Bank2->PCR2 |= PCR_PBKEN_Set;
 759              		.loc 1 511 0
 760 02bc 0CBF     		ite	eq
 761 02be 074A     		ldreq	r2, .L45	@ tmp120,
 512:Libraries/STM32F10x_StdPeriph_Driver/src/stm32f10x_fsmc.c ****     }
 513:Libraries/STM32F10x_StdPeriph_Driver/src/stm32f10x_fsmc.c ****     else
 514:Libraries/STM32F10x_StdPeriph_Driver/src/stm32f10x_fsmc.c ****     {
 515:Libraries/STM32F10x_StdPeriph_Driver/src/stm32f10x_fsmc.c ****       FSMC_Bank3->PCR3 |= PCR_PBKEN_Set;
 762              		.loc 1 515 0
 763 02c0 074A     		ldrne	r2, .L45+4	@ tmp122,
 764 02c2 1368     		ldr	r3, [r2]	@ D.5945,
 765 02c4 43F00403 		orr	r3, r3, #4	@ D.5945, D.5945,
 766 02c8 06E0     		b	.L42	@
 767              	.L38:
 516:Libraries/STM32F10x_StdPeriph_Driver/src/stm32f10x_fsmc.c ****     }
 517:Libraries/STM32F10x_StdPeriph_Driver/src/stm32f10x_fsmc.c ****   }
 518:Libraries/STM32F10x_StdPeriph_Driver/src/stm32f10x_fsmc.c ****   else
ARM GAS  /var/folders/yt/6z6x8bjn5sjf5fbb45bk5m4c0000gn/T//ccRqGMl0.s 			page 25


 519:Libraries/STM32F10x_StdPeriph_Driver/src/stm32f10x_fsmc.c ****   {
 520:Libraries/STM32F10x_StdPeriph_Driver/src/stm32f10x_fsmc.c ****     /* Disable the selected NAND Bank by clearing the PBKEN bit in the PCRx register */
 521:Libraries/STM32F10x_StdPeriph_Driver/src/stm32f10x_fsmc.c ****     if(FSMC_Bank == FSMC_Bank2_NAND)
 768              		.loc 1 521 0
 769 02ca 1028     		cmp	r0, #16	@ FSMC_Bank,
 522:Libraries/STM32F10x_StdPeriph_Driver/src/stm32f10x_fsmc.c ****     {
 523:Libraries/STM32F10x_StdPeriph_Driver/src/stm32f10x_fsmc.c ****       FSMC_Bank2->PCR2 &= PCR_PBKEN_Reset;
 770              		.loc 1 523 0
 771 02cc 0CBF     		ite	eq
 772 02ce 034A     		ldreq	r2, .L45	@ tmp124,
 524:Libraries/STM32F10x_StdPeriph_Driver/src/stm32f10x_fsmc.c ****     }
 525:Libraries/STM32F10x_StdPeriph_Driver/src/stm32f10x_fsmc.c ****     else
 526:Libraries/STM32F10x_StdPeriph_Driver/src/stm32f10x_fsmc.c ****     {
 527:Libraries/STM32F10x_StdPeriph_Driver/src/stm32f10x_fsmc.c ****       FSMC_Bank3->PCR3 &= PCR_PBKEN_Reset;
 773              		.loc 1 527 0
 774 02d0 034A     		ldrne	r2, .L45+4	@ tmp127,
 775 02d2 044B     		ldr	r3, .L45+8	@ D.5945,
 776 02d4 1168     		ldr	r1, [r2]	@ D.5945,
 777              	.LVL20:
 778 02d6 0B40     		ands	r3, r3, r1	@, D.5945, D.5945, D.5945
 779              	.L42:
 780 02d8 1360     		str	r3, [r2]	@ D.5945,
 781 02da 7047     		bx	lr	@
 782              	.L46:
 783              		.align	2
 784              	.L45:
 785 02dc 600000A0 		.word	-1610612640
 786 02e0 800000A0 		.word	-1610612608
 787 02e4 FBFF0F00 		.word	1048571
 788              		.cfi_endproc
 789              	.LFE39:
 790              		.size	FSMC_NANDCmd, .-FSMC_NANDCmd
 791              		.align	1
 792              		.global	FSMC_PCCARDCmd
 793              		.thumb
 794              		.thumb_func
 795              		.type	FSMC_PCCARDCmd, %function
 796              	FSMC_PCCARDCmd:
 797              	.LFB40:
 528:Libraries/STM32F10x_StdPeriph_Driver/src/stm32f10x_fsmc.c ****     }
 529:Libraries/STM32F10x_StdPeriph_Driver/src/stm32f10x_fsmc.c ****   }
 530:Libraries/STM32F10x_StdPeriph_Driver/src/stm32f10x_fsmc.c **** }
 531:Libraries/STM32F10x_StdPeriph_Driver/src/stm32f10x_fsmc.c **** 
 532:Libraries/STM32F10x_StdPeriph_Driver/src/stm32f10x_fsmc.c **** /**
 533:Libraries/STM32F10x_StdPeriph_Driver/src/stm32f10x_fsmc.c ****   * @brief  Enables or disables the PCCARD Memory Bank.
 534:Libraries/STM32F10x_StdPeriph_Driver/src/stm32f10x_fsmc.c ****   * @param  NewState: new state of the PCCARD Memory Bank.  
 535:Libraries/STM32F10x_StdPeriph_Driver/src/stm32f10x_fsmc.c ****   *   This parameter can be: ENABLE or DISABLE.
 536:Libraries/STM32F10x_StdPeriph_Driver/src/stm32f10x_fsmc.c ****   * @retval None
 537:Libraries/STM32F10x_StdPeriph_Driver/src/stm32f10x_fsmc.c ****   */
 538:Libraries/STM32F10x_StdPeriph_Driver/src/stm32f10x_fsmc.c **** void FSMC_PCCARDCmd(FunctionalState NewState)
 539:Libraries/STM32F10x_StdPeriph_Driver/src/stm32f10x_fsmc.c **** {
 798              		.loc 1 539 0
 799              		.cfi_startproc
 800              		@ args = 0, pretend = 0, frame = 0
 801              		@ frame_needed = 0, uses_anonymous_args = 0
 802              		@ link register save eliminated.
 803              	.LVL21:
ARM GAS  /var/folders/yt/6z6x8bjn5sjf5fbb45bk5m4c0000gn/T//ccRqGMl0.s 			page 26


 804 02e8 054B     		ldr	r3, .L51	@ tmp120,
 540:Libraries/STM32F10x_StdPeriph_Driver/src/stm32f10x_fsmc.c ****   assert_param(IS_FUNCTIONAL_STATE(NewState));
 541:Libraries/STM32F10x_StdPeriph_Driver/src/stm32f10x_fsmc.c ****   
 542:Libraries/STM32F10x_StdPeriph_Driver/src/stm32f10x_fsmc.c ****   if (NewState != DISABLE)
 805              		.loc 1 542 0
 806 02ea 18B1     		cbz	r0, .L48	@ NewState,
 543:Libraries/STM32F10x_StdPeriph_Driver/src/stm32f10x_fsmc.c ****   {
 544:Libraries/STM32F10x_StdPeriph_Driver/src/stm32f10x_fsmc.c ****     /* Enable the PCCARD Bank by setting the PBKEN bit in the PCR4 register */
 545:Libraries/STM32F10x_StdPeriph_Driver/src/stm32f10x_fsmc.c ****     FSMC_Bank4->PCR4 |= PCR_PBKEN_Set;
 807              		.loc 1 545 0
 808 02ec 1A68     		ldr	r2, [r3]	@ D.5948, MEM[(struct FSMC_Bank4_TypeDef *)2684354720B].PCR4
 809 02ee 42F00402 		orr	r2, r2, #4	@ D.5948, D.5948,
 810 02f2 02E0     		b	.L50	@
 811              	.L48:
 546:Libraries/STM32F10x_StdPeriph_Driver/src/stm32f10x_fsmc.c ****   }
 547:Libraries/STM32F10x_StdPeriph_Driver/src/stm32f10x_fsmc.c ****   else
 548:Libraries/STM32F10x_StdPeriph_Driver/src/stm32f10x_fsmc.c ****   {
 549:Libraries/STM32F10x_StdPeriph_Driver/src/stm32f10x_fsmc.c ****     /* Disable the PCCARD Bank by clearing the PBKEN bit in the PCR4 register */
 550:Libraries/STM32F10x_StdPeriph_Driver/src/stm32f10x_fsmc.c ****     FSMC_Bank4->PCR4 &= PCR_PBKEN_Reset;
 812              		.loc 1 550 0
 813 02f4 1968     		ldr	r1, [r3]	@ D.5948, MEM[(struct FSMC_Bank4_TypeDef *)2684354720B].PCR4
 814 02f6 034A     		ldr	r2, .L51+4	@ D.5948,
 815 02f8 0A40     		ands	r2, r2, r1	@, D.5948, D.5948, D.5948
 816              	.L50:
 817 02fa 1A60     		str	r2, [r3]	@ D.5948,
 818 02fc 7047     		bx	lr	@
 819              	.L52:
 820 02fe 00BF     		.align	2
 821              	.L51:
 822 0300 A00000A0 		.word	-1610612576
 823 0304 FBFF0F00 		.word	1048571
 824              		.cfi_endproc
 825              	.LFE40:
 826              		.size	FSMC_PCCARDCmd, .-FSMC_PCCARDCmd
 827              		.align	1
 828              		.global	FSMC_NANDECCCmd
 829              		.thumb
 830              		.thumb_func
 831              		.type	FSMC_NANDECCCmd, %function
 832              	FSMC_NANDECCCmd:
 833              	.LFB41:
 551:Libraries/STM32F10x_StdPeriph_Driver/src/stm32f10x_fsmc.c ****   }
 552:Libraries/STM32F10x_StdPeriph_Driver/src/stm32f10x_fsmc.c **** }
 553:Libraries/STM32F10x_StdPeriph_Driver/src/stm32f10x_fsmc.c **** 
 554:Libraries/STM32F10x_StdPeriph_Driver/src/stm32f10x_fsmc.c **** /**
 555:Libraries/STM32F10x_StdPeriph_Driver/src/stm32f10x_fsmc.c ****   * @brief  Enables or disables the FSMC NAND ECC feature.
 556:Libraries/STM32F10x_StdPeriph_Driver/src/stm32f10x_fsmc.c ****   * @param  FSMC_Bank: specifies the FSMC Bank to be used
 557:Libraries/STM32F10x_StdPeriph_Driver/src/stm32f10x_fsmc.c ****   *   This parameter can be one of the following values:
 558:Libraries/STM32F10x_StdPeriph_Driver/src/stm32f10x_fsmc.c ****   *     @arg FSMC_Bank2_NAND: FSMC Bank2 NAND 
 559:Libraries/STM32F10x_StdPeriph_Driver/src/stm32f10x_fsmc.c ****   *     @arg FSMC_Bank3_NAND: FSMC Bank3 NAND
 560:Libraries/STM32F10x_StdPeriph_Driver/src/stm32f10x_fsmc.c ****   * @param  NewState: new state of the FSMC NAND ECC feature.  
 561:Libraries/STM32F10x_StdPeriph_Driver/src/stm32f10x_fsmc.c ****   *   This parameter can be: ENABLE or DISABLE.
 562:Libraries/STM32F10x_StdPeriph_Driver/src/stm32f10x_fsmc.c ****   * @retval None
 563:Libraries/STM32F10x_StdPeriph_Driver/src/stm32f10x_fsmc.c ****   */
 564:Libraries/STM32F10x_StdPeriph_Driver/src/stm32f10x_fsmc.c **** void FSMC_NANDECCCmd(uint32_t FSMC_Bank, FunctionalState NewState)
 565:Libraries/STM32F10x_StdPeriph_Driver/src/stm32f10x_fsmc.c **** {
 834              		.loc 1 565 0
ARM GAS  /var/folders/yt/6z6x8bjn5sjf5fbb45bk5m4c0000gn/T//ccRqGMl0.s 			page 27


 835              		.cfi_startproc
 836              		@ args = 0, pretend = 0, frame = 0
 837              		@ frame_needed = 0, uses_anonymous_args = 0
 838              		@ link register save eliminated.
 839              	.LVL22:
 566:Libraries/STM32F10x_StdPeriph_Driver/src/stm32f10x_fsmc.c ****   assert_param(IS_FSMC_NAND_BANK(FSMC_Bank));
 567:Libraries/STM32F10x_StdPeriph_Driver/src/stm32f10x_fsmc.c ****   assert_param(IS_FUNCTIONAL_STATE(NewState));
 568:Libraries/STM32F10x_StdPeriph_Driver/src/stm32f10x_fsmc.c ****   
 569:Libraries/STM32F10x_StdPeriph_Driver/src/stm32f10x_fsmc.c ****   if (NewState != DISABLE)
 840              		.loc 1 569 0
 841 0308 39B1     		cbz	r1, .L54	@ NewState,
 570:Libraries/STM32F10x_StdPeriph_Driver/src/stm32f10x_fsmc.c ****   {
 571:Libraries/STM32F10x_StdPeriph_Driver/src/stm32f10x_fsmc.c ****     /* Enable the selected NAND Bank ECC function by setting the ECCEN bit in the PCRx register */
 572:Libraries/STM32F10x_StdPeriph_Driver/src/stm32f10x_fsmc.c ****     if(FSMC_Bank == FSMC_Bank2_NAND)
 842              		.loc 1 572 0
 843 030a 1028     		cmp	r0, #16	@ FSMC_Bank,
 573:Libraries/STM32F10x_StdPeriph_Driver/src/stm32f10x_fsmc.c ****     {
 574:Libraries/STM32F10x_StdPeriph_Driver/src/stm32f10x_fsmc.c ****       FSMC_Bank2->PCR2 |= PCR_ECCEN_Set;
 844              		.loc 1 574 0
 845 030c 0CBF     		ite	eq
 846 030e 074A     		ldreq	r2, .L61	@ tmp120,
 575:Libraries/STM32F10x_StdPeriph_Driver/src/stm32f10x_fsmc.c ****     }
 576:Libraries/STM32F10x_StdPeriph_Driver/src/stm32f10x_fsmc.c ****     else
 577:Libraries/STM32F10x_StdPeriph_Driver/src/stm32f10x_fsmc.c ****     {
 578:Libraries/STM32F10x_StdPeriph_Driver/src/stm32f10x_fsmc.c ****       FSMC_Bank3->PCR3 |= PCR_ECCEN_Set;
 847              		.loc 1 578 0
 848 0310 074A     		ldrne	r2, .L61+4	@ tmp122,
 849 0312 1368     		ldr	r3, [r2]	@ D.5951,
 850 0314 43F04003 		orr	r3, r3, #64	@ D.5951, D.5951,
 851 0318 06E0     		b	.L58	@
 852              	.L54:
 579:Libraries/STM32F10x_StdPeriph_Driver/src/stm32f10x_fsmc.c ****     }
 580:Libraries/STM32F10x_StdPeriph_Driver/src/stm32f10x_fsmc.c ****   }
 581:Libraries/STM32F10x_StdPeriph_Driver/src/stm32f10x_fsmc.c ****   else
 582:Libraries/STM32F10x_StdPeriph_Driver/src/stm32f10x_fsmc.c ****   {
 583:Libraries/STM32F10x_StdPeriph_Driver/src/stm32f10x_fsmc.c ****     /* Disable the selected NAND Bank ECC function by clearing the ECCEN bit in the PCRx register *
 584:Libraries/STM32F10x_StdPeriph_Driver/src/stm32f10x_fsmc.c ****     if(FSMC_Bank == FSMC_Bank2_NAND)
 853              		.loc 1 584 0
 854 031a 1028     		cmp	r0, #16	@ FSMC_Bank,
 585:Libraries/STM32F10x_StdPeriph_Driver/src/stm32f10x_fsmc.c ****     {
 586:Libraries/STM32F10x_StdPeriph_Driver/src/stm32f10x_fsmc.c ****       FSMC_Bank2->PCR2 &= PCR_ECCEN_Reset;
 855              		.loc 1 586 0
 856 031c 0CBF     		ite	eq
 857 031e 034A     		ldreq	r2, .L61	@ tmp124,
 587:Libraries/STM32F10x_StdPeriph_Driver/src/stm32f10x_fsmc.c ****     }
 588:Libraries/STM32F10x_StdPeriph_Driver/src/stm32f10x_fsmc.c ****     else
 589:Libraries/STM32F10x_StdPeriph_Driver/src/stm32f10x_fsmc.c ****     {
 590:Libraries/STM32F10x_StdPeriph_Driver/src/stm32f10x_fsmc.c ****       FSMC_Bank3->PCR3 &= PCR_ECCEN_Reset;
 858              		.loc 1 590 0
 859 0320 034A     		ldrne	r2, .L61+4	@ tmp127,
 860 0322 044B     		ldr	r3, .L61+8	@ D.5951,
 861 0324 1168     		ldr	r1, [r2]	@ D.5951,
 862              	.LVL23:
 863 0326 0B40     		ands	r3, r3, r1	@, D.5951, D.5951, D.5951
 864              	.L58:
 865 0328 1360     		str	r3, [r2]	@ D.5951,
 866 032a 7047     		bx	lr	@
ARM GAS  /var/folders/yt/6z6x8bjn5sjf5fbb45bk5m4c0000gn/T//ccRqGMl0.s 			page 28


 867              	.L62:
 868              		.align	2
 869              	.L61:
 870 032c 600000A0 		.word	-1610612640
 871 0330 800000A0 		.word	-1610612608
 872 0334 BFFF0F00 		.word	1048511
 873              		.cfi_endproc
 874              	.LFE41:
 875              		.size	FSMC_NANDECCCmd, .-FSMC_NANDECCCmd
 876              		.align	1
 877              		.global	FSMC_GetECC
 878              		.thumb
 879              		.thumb_func
 880              		.type	FSMC_GetECC, %function
 881              	FSMC_GetECC:
 882              	.LFB42:
 591:Libraries/STM32F10x_StdPeriph_Driver/src/stm32f10x_fsmc.c ****     }
 592:Libraries/STM32F10x_StdPeriph_Driver/src/stm32f10x_fsmc.c ****   }
 593:Libraries/STM32F10x_StdPeriph_Driver/src/stm32f10x_fsmc.c **** }
 594:Libraries/STM32F10x_StdPeriph_Driver/src/stm32f10x_fsmc.c **** 
 595:Libraries/STM32F10x_StdPeriph_Driver/src/stm32f10x_fsmc.c **** /**
 596:Libraries/STM32F10x_StdPeriph_Driver/src/stm32f10x_fsmc.c ****   * @brief  Returns the error correction code register value.
 597:Libraries/STM32F10x_StdPeriph_Driver/src/stm32f10x_fsmc.c ****   * @param  FSMC_Bank: specifies the FSMC Bank to be used
 598:Libraries/STM32F10x_StdPeriph_Driver/src/stm32f10x_fsmc.c ****   *   This parameter can be one of the following values:
 599:Libraries/STM32F10x_StdPeriph_Driver/src/stm32f10x_fsmc.c ****   *     @arg FSMC_Bank2_NAND: FSMC Bank2 NAND 
 600:Libraries/STM32F10x_StdPeriph_Driver/src/stm32f10x_fsmc.c ****   *     @arg FSMC_Bank3_NAND: FSMC Bank3 NAND
 601:Libraries/STM32F10x_StdPeriph_Driver/src/stm32f10x_fsmc.c ****   * @retval The Error Correction Code (ECC) value.
 602:Libraries/STM32F10x_StdPeriph_Driver/src/stm32f10x_fsmc.c ****   */
 603:Libraries/STM32F10x_StdPeriph_Driver/src/stm32f10x_fsmc.c **** uint32_t FSMC_GetECC(uint32_t FSMC_Bank)
 604:Libraries/STM32F10x_StdPeriph_Driver/src/stm32f10x_fsmc.c **** {
 883              		.loc 1 604 0
 884              		.cfi_startproc
 885              		@ args = 0, pretend = 0, frame = 0
 886              		@ frame_needed = 0, uses_anonymous_args = 0
 887              		@ link register save eliminated.
 888              	.LVL24:
 605:Libraries/STM32F10x_StdPeriph_Driver/src/stm32f10x_fsmc.c ****   uint32_t eccval = 0x00000000;
 606:Libraries/STM32F10x_StdPeriph_Driver/src/stm32f10x_fsmc.c ****   
 607:Libraries/STM32F10x_StdPeriph_Driver/src/stm32f10x_fsmc.c ****   if(FSMC_Bank == FSMC_Bank2_NAND)
 889              		.loc 1 607 0
 890 0338 1028     		cmp	r0, #16	@ FSMC_Bank,
 608:Libraries/STM32F10x_StdPeriph_Driver/src/stm32f10x_fsmc.c ****   {
 609:Libraries/STM32F10x_StdPeriph_Driver/src/stm32f10x_fsmc.c ****     /* Get the ECCR2 register value */
 610:Libraries/STM32F10x_StdPeriph_Driver/src/stm32f10x_fsmc.c ****     eccval = FSMC_Bank2->ECCR2;
 891              		.loc 1 610 0
 892 033a 0CBF     		ite	eq
 893 033c 014B     		ldreq	r3, .L67	@ tmp113,
 611:Libraries/STM32F10x_StdPeriph_Driver/src/stm32f10x_fsmc.c ****   }
 612:Libraries/STM32F10x_StdPeriph_Driver/src/stm32f10x_fsmc.c ****   else
 613:Libraries/STM32F10x_StdPeriph_Driver/src/stm32f10x_fsmc.c ****   {
 614:Libraries/STM32F10x_StdPeriph_Driver/src/stm32f10x_fsmc.c ****     /* Get the ECCR3 register value */
 615:Libraries/STM32F10x_StdPeriph_Driver/src/stm32f10x_fsmc.c ****     eccval = FSMC_Bank3->ECCR3;
 894              		.loc 1 615 0
 895 033e 024B     		ldrne	r3, .L67+4	@ tmp114,
 896 0340 5869     		ldr	r0, [r3, #20]	@ eccval,
 897              	.LVL25:
 616:Libraries/STM32F10x_StdPeriph_Driver/src/stm32f10x_fsmc.c ****   }
ARM GAS  /var/folders/yt/6z6x8bjn5sjf5fbb45bk5m4c0000gn/T//ccRqGMl0.s 			page 29


 617:Libraries/STM32F10x_StdPeriph_Driver/src/stm32f10x_fsmc.c ****   /* Return the error correction code value */
 618:Libraries/STM32F10x_StdPeriph_Driver/src/stm32f10x_fsmc.c ****   return(eccval);
 619:Libraries/STM32F10x_StdPeriph_Driver/src/stm32f10x_fsmc.c **** }
 898              		.loc 1 619 0
 899 0342 7047     		bx	lr	@
 900              	.L68:
 901              		.align	2
 902              	.L67:
 903 0344 600000A0 		.word	-1610612640
 904 0348 800000A0 		.word	-1610612608
 905              		.cfi_endproc
 906              	.LFE42:
 907              		.size	FSMC_GetECC, .-FSMC_GetECC
 908              		.align	1
 909              		.global	FSMC_ITConfig
 910              		.thumb
 911              		.thumb_func
 912              		.type	FSMC_ITConfig, %function
 913              	FSMC_ITConfig:
 914              	.LFB43:
 620:Libraries/STM32F10x_StdPeriph_Driver/src/stm32f10x_fsmc.c **** 
 621:Libraries/STM32F10x_StdPeriph_Driver/src/stm32f10x_fsmc.c **** /**
 622:Libraries/STM32F10x_StdPeriph_Driver/src/stm32f10x_fsmc.c ****   * @brief  Enables or disables the specified FSMC interrupts.
 623:Libraries/STM32F10x_StdPeriph_Driver/src/stm32f10x_fsmc.c ****   * @param  FSMC_Bank: specifies the FSMC Bank to be used
 624:Libraries/STM32F10x_StdPeriph_Driver/src/stm32f10x_fsmc.c ****   *   This parameter can be one of the following values:
 625:Libraries/STM32F10x_StdPeriph_Driver/src/stm32f10x_fsmc.c ****   *     @arg FSMC_Bank2_NAND: FSMC Bank2 NAND 
 626:Libraries/STM32F10x_StdPeriph_Driver/src/stm32f10x_fsmc.c ****   *     @arg FSMC_Bank3_NAND: FSMC Bank3 NAND
 627:Libraries/STM32F10x_StdPeriph_Driver/src/stm32f10x_fsmc.c ****   *     @arg FSMC_Bank4_PCCARD: FSMC Bank4 PCCARD
 628:Libraries/STM32F10x_StdPeriph_Driver/src/stm32f10x_fsmc.c ****   * @param  FSMC_IT: specifies the FSMC interrupt sources to be enabled or disabled.
 629:Libraries/STM32F10x_StdPeriph_Driver/src/stm32f10x_fsmc.c ****   *   This parameter can be any combination of the following values:
 630:Libraries/STM32F10x_StdPeriph_Driver/src/stm32f10x_fsmc.c ****   *     @arg FSMC_IT_RisingEdge: Rising edge detection interrupt. 
 631:Libraries/STM32F10x_StdPeriph_Driver/src/stm32f10x_fsmc.c ****   *     @arg FSMC_IT_Level: Level edge detection interrupt.
 632:Libraries/STM32F10x_StdPeriph_Driver/src/stm32f10x_fsmc.c ****   *     @arg FSMC_IT_FallingEdge: Falling edge detection interrupt.
 633:Libraries/STM32F10x_StdPeriph_Driver/src/stm32f10x_fsmc.c ****   * @param  NewState: new state of the specified FSMC interrupts.
 634:Libraries/STM32F10x_StdPeriph_Driver/src/stm32f10x_fsmc.c ****   *   This parameter can be: ENABLE or DISABLE.
 635:Libraries/STM32F10x_StdPeriph_Driver/src/stm32f10x_fsmc.c ****   * @retval None
 636:Libraries/STM32F10x_StdPeriph_Driver/src/stm32f10x_fsmc.c ****   */
 637:Libraries/STM32F10x_StdPeriph_Driver/src/stm32f10x_fsmc.c **** void FSMC_ITConfig(uint32_t FSMC_Bank, uint32_t FSMC_IT, FunctionalState NewState)
 638:Libraries/STM32F10x_StdPeriph_Driver/src/stm32f10x_fsmc.c **** {
 915              		.loc 1 638 0
 916              		.cfi_startproc
 917              		@ args = 0, pretend = 0, frame = 0
 918              		@ frame_needed = 0, uses_anonymous_args = 0
 919              		@ link register save eliminated.
 920              	.LVL26:
 639:Libraries/STM32F10x_StdPeriph_Driver/src/stm32f10x_fsmc.c ****   assert_param(IS_FSMC_IT_BANK(FSMC_Bank));
 640:Libraries/STM32F10x_StdPeriph_Driver/src/stm32f10x_fsmc.c ****   assert_param(IS_FSMC_IT(FSMC_IT));	
 641:Libraries/STM32F10x_StdPeriph_Driver/src/stm32f10x_fsmc.c ****   assert_param(IS_FUNCTIONAL_STATE(NewState));
 642:Libraries/STM32F10x_StdPeriph_Driver/src/stm32f10x_fsmc.c ****   
 643:Libraries/STM32F10x_StdPeriph_Driver/src/stm32f10x_fsmc.c ****   if (NewState != DISABLE)
 921              		.loc 1 643 0
 922 034c 5AB1     		cbz	r2, .L70	@ NewState,
 644:Libraries/STM32F10x_StdPeriph_Driver/src/stm32f10x_fsmc.c ****   {
 645:Libraries/STM32F10x_StdPeriph_Driver/src/stm32f10x_fsmc.c ****     /* Enable the selected FSMC_Bank2 interrupts */
 646:Libraries/STM32F10x_StdPeriph_Driver/src/stm32f10x_fsmc.c ****     if(FSMC_Bank == FSMC_Bank2_NAND)
 923              		.loc 1 646 0
 924 034e 1028     		cmp	r0, #16	@ FSMC_Bank,
ARM GAS  /var/folders/yt/6z6x8bjn5sjf5fbb45bk5m4c0000gn/T//ccRqGMl0.s 			page 30


 925 0350 01D1     		bne	.L71	@,
 647:Libraries/STM32F10x_StdPeriph_Driver/src/stm32f10x_fsmc.c ****     {
 648:Libraries/STM32F10x_StdPeriph_Driver/src/stm32f10x_fsmc.c ****       FSMC_Bank2->SR2 |= FSMC_IT;
 926              		.loc 1 648 0
 927 0352 0C4A     		ldr	r2, .L79	@ tmp128,
 928              	.LVL27:
 929 0354 04E0     		b	.L78	@
 930              	.LVL28:
 931              	.L71:
 649:Libraries/STM32F10x_StdPeriph_Driver/src/stm32f10x_fsmc.c ****     }
 650:Libraries/STM32F10x_StdPeriph_Driver/src/stm32f10x_fsmc.c ****     /* Enable the selected FSMC_Bank3 interrupts */
 651:Libraries/STM32F10x_StdPeriph_Driver/src/stm32f10x_fsmc.c ****     else if (FSMC_Bank == FSMC_Bank3_NAND)
 932              		.loc 1 651 0
 933 0356 B0F5807F 		cmp	r0, #256	@ FSMC_Bank,
 652:Libraries/STM32F10x_StdPeriph_Driver/src/stm32f10x_fsmc.c ****     {
 653:Libraries/STM32F10x_StdPeriph_Driver/src/stm32f10x_fsmc.c ****       FSMC_Bank3->SR3 |= FSMC_IT;
 934              		.loc 1 653 0
 935 035a 0CBF     		ite	eq
 936 035c 0A4A     		ldreq	r2, .L79+4	@ tmp130,
 937              	.LVL29:
 654:Libraries/STM32F10x_StdPeriph_Driver/src/stm32f10x_fsmc.c ****     }
 655:Libraries/STM32F10x_StdPeriph_Driver/src/stm32f10x_fsmc.c ****     /* Enable the selected FSMC_Bank4 interrupts */
 656:Libraries/STM32F10x_StdPeriph_Driver/src/stm32f10x_fsmc.c ****     else
 657:Libraries/STM32F10x_StdPeriph_Driver/src/stm32f10x_fsmc.c ****     {
 658:Libraries/STM32F10x_StdPeriph_Driver/src/stm32f10x_fsmc.c ****       FSMC_Bank4->SR4 |= FSMC_IT;    
 938              		.loc 1 658 0
 939 035e 0B4A     		ldrne	r2, .L79+8	@ tmp132,
 940              	.L78:
 941 0360 5368     		ldr	r3, [r2, #4]	@ D.5956,
 942 0362 1943     		orrs	r1, r1, r3	@, D.5956, FSMC_IT, D.5956
 943              	.LVL30:
 944 0364 0CE0     		b	.L77	@
 945              	.LVL31:
 946              	.L70:
 659:Libraries/STM32F10x_StdPeriph_Driver/src/stm32f10x_fsmc.c ****     }
 660:Libraries/STM32F10x_StdPeriph_Driver/src/stm32f10x_fsmc.c ****   }
 661:Libraries/STM32F10x_StdPeriph_Driver/src/stm32f10x_fsmc.c ****   else
 662:Libraries/STM32F10x_StdPeriph_Driver/src/stm32f10x_fsmc.c ****   {
 663:Libraries/STM32F10x_StdPeriph_Driver/src/stm32f10x_fsmc.c ****     /* Disable the selected FSMC_Bank2 interrupts */
 664:Libraries/STM32F10x_StdPeriph_Driver/src/stm32f10x_fsmc.c ****     if(FSMC_Bank == FSMC_Bank2_NAND)
 947              		.loc 1 664 0
 948 0366 1028     		cmp	r0, #16	@ FSMC_Bank,
 949 0368 6FEA0101 		mvn	r1, r1	@ D.5956, FSMC_IT
 950              	.LVL32:
 951 036c 01D1     		bne	.L74	@,
 665:Libraries/STM32F10x_StdPeriph_Driver/src/stm32f10x_fsmc.c ****     {
 666:Libraries/STM32F10x_StdPeriph_Driver/src/stm32f10x_fsmc.c ****       
 667:Libraries/STM32F10x_StdPeriph_Driver/src/stm32f10x_fsmc.c ****       FSMC_Bank2->SR2 &= (uint32_t)~FSMC_IT;
 952              		.loc 1 667 0
 953 036e 054A     		ldr	r2, .L79	@ tmp134,
 954              	.LVL33:
 955 0370 04E0     		b	.L76	@
 956              	.LVL34:
 957              	.L74:
 668:Libraries/STM32F10x_StdPeriph_Driver/src/stm32f10x_fsmc.c ****     }
 669:Libraries/STM32F10x_StdPeriph_Driver/src/stm32f10x_fsmc.c ****     /* Disable the selected FSMC_Bank3 interrupts */
 670:Libraries/STM32F10x_StdPeriph_Driver/src/stm32f10x_fsmc.c ****     else if (FSMC_Bank == FSMC_Bank3_NAND)
ARM GAS  /var/folders/yt/6z6x8bjn5sjf5fbb45bk5m4c0000gn/T//ccRqGMl0.s 			page 31


 958              		.loc 1 670 0
 959 0372 B0F5807F 		cmp	r0, #256	@ FSMC_Bank,
 671:Libraries/STM32F10x_StdPeriph_Driver/src/stm32f10x_fsmc.c ****     {
 672:Libraries/STM32F10x_StdPeriph_Driver/src/stm32f10x_fsmc.c ****       FSMC_Bank3->SR3 &= (uint32_t)~FSMC_IT;
 960              		.loc 1 672 0
 961 0376 0CBF     		ite	eq
 962 0378 034A     		ldreq	r2, .L79+4	@ tmp137,
 963              	.LVL35:
 673:Libraries/STM32F10x_StdPeriph_Driver/src/stm32f10x_fsmc.c ****     }
 674:Libraries/STM32F10x_StdPeriph_Driver/src/stm32f10x_fsmc.c ****     /* Disable the selected FSMC_Bank4 interrupts */
 675:Libraries/STM32F10x_StdPeriph_Driver/src/stm32f10x_fsmc.c ****     else
 676:Libraries/STM32F10x_StdPeriph_Driver/src/stm32f10x_fsmc.c ****     {
 677:Libraries/STM32F10x_StdPeriph_Driver/src/stm32f10x_fsmc.c ****       FSMC_Bank4->SR4 &= (uint32_t)~FSMC_IT;    
 964              		.loc 1 677 0
 965 037a 044A     		ldrne	r2, .L79+8	@ tmp140,
 966              	.L76:
 967 037c 5368     		ldr	r3, [r2, #4]	@ D.5956,
 968 037e 1940     		ands	r1, r1, r3	@, D.5956, D.5956, D.5956
 969              	.LVL36:
 970              	.L77:
 971 0380 5160     		str	r1, [r2, #4]	@ D.5956,
 972 0382 7047     		bx	lr	@
 973              	.L80:
 974              		.align	2
 975              	.L79:
 976 0384 600000A0 		.word	-1610612640
 977 0388 800000A0 		.word	-1610612608
 978 038c A00000A0 		.word	-1610612576
 979              		.cfi_endproc
 980              	.LFE43:
 981              		.size	FSMC_ITConfig, .-FSMC_ITConfig
 982              		.align	1
 983              		.global	FSMC_GetFlagStatus
 984              		.thumb
 985              		.thumb_func
 986              		.type	FSMC_GetFlagStatus, %function
 987              	FSMC_GetFlagStatus:
 988              	.LFB44:
 678:Libraries/STM32F10x_StdPeriph_Driver/src/stm32f10x_fsmc.c ****     }
 679:Libraries/STM32F10x_StdPeriph_Driver/src/stm32f10x_fsmc.c ****   }
 680:Libraries/STM32F10x_StdPeriph_Driver/src/stm32f10x_fsmc.c **** }
 681:Libraries/STM32F10x_StdPeriph_Driver/src/stm32f10x_fsmc.c **** 
 682:Libraries/STM32F10x_StdPeriph_Driver/src/stm32f10x_fsmc.c **** /**
 683:Libraries/STM32F10x_StdPeriph_Driver/src/stm32f10x_fsmc.c ****   * @brief  Checks whether the specified FSMC flag is set or not.
 684:Libraries/STM32F10x_StdPeriph_Driver/src/stm32f10x_fsmc.c ****   * @param  FSMC_Bank: specifies the FSMC Bank to be used
 685:Libraries/STM32F10x_StdPeriph_Driver/src/stm32f10x_fsmc.c ****   *   This parameter can be one of the following values:
 686:Libraries/STM32F10x_StdPeriph_Driver/src/stm32f10x_fsmc.c ****   *     @arg FSMC_Bank2_NAND: FSMC Bank2 NAND 
 687:Libraries/STM32F10x_StdPeriph_Driver/src/stm32f10x_fsmc.c ****   *     @arg FSMC_Bank3_NAND: FSMC Bank3 NAND
 688:Libraries/STM32F10x_StdPeriph_Driver/src/stm32f10x_fsmc.c ****   *     @arg FSMC_Bank4_PCCARD: FSMC Bank4 PCCARD
 689:Libraries/STM32F10x_StdPeriph_Driver/src/stm32f10x_fsmc.c ****   * @param  FSMC_FLAG: specifies the flag to check.
 690:Libraries/STM32F10x_StdPeriph_Driver/src/stm32f10x_fsmc.c ****   *   This parameter can be one of the following values:
 691:Libraries/STM32F10x_StdPeriph_Driver/src/stm32f10x_fsmc.c ****   *     @arg FSMC_FLAG_RisingEdge: Rising egde detection Flag.
 692:Libraries/STM32F10x_StdPeriph_Driver/src/stm32f10x_fsmc.c ****   *     @arg FSMC_FLAG_Level: Level detection Flag.
 693:Libraries/STM32F10x_StdPeriph_Driver/src/stm32f10x_fsmc.c ****   *     @arg FSMC_FLAG_FallingEdge: Falling egde detection Flag.
 694:Libraries/STM32F10x_StdPeriph_Driver/src/stm32f10x_fsmc.c ****   *     @arg FSMC_FLAG_FEMPT: Fifo empty Flag. 
 695:Libraries/STM32F10x_StdPeriph_Driver/src/stm32f10x_fsmc.c ****   * @retval The new state of FSMC_FLAG (SET or RESET).
 696:Libraries/STM32F10x_StdPeriph_Driver/src/stm32f10x_fsmc.c ****   */
ARM GAS  /var/folders/yt/6z6x8bjn5sjf5fbb45bk5m4c0000gn/T//ccRqGMl0.s 			page 32


 697:Libraries/STM32F10x_StdPeriph_Driver/src/stm32f10x_fsmc.c **** FlagStatus FSMC_GetFlagStatus(uint32_t FSMC_Bank, uint32_t FSMC_FLAG)
 698:Libraries/STM32F10x_StdPeriph_Driver/src/stm32f10x_fsmc.c **** {
 989              		.loc 1 698 0
 990              		.cfi_startproc
 991              		@ args = 0, pretend = 0, frame = 0
 992              		@ frame_needed = 0, uses_anonymous_args = 0
 993              		@ link register save eliminated.
 994              	.LVL37:
 699:Libraries/STM32F10x_StdPeriph_Driver/src/stm32f10x_fsmc.c ****   FlagStatus bitstatus = RESET;
 700:Libraries/STM32F10x_StdPeriph_Driver/src/stm32f10x_fsmc.c ****   uint32_t tmpsr = 0x00000000;
 701:Libraries/STM32F10x_StdPeriph_Driver/src/stm32f10x_fsmc.c ****   
 702:Libraries/STM32F10x_StdPeriph_Driver/src/stm32f10x_fsmc.c ****   /* Check the parameters */
 703:Libraries/STM32F10x_StdPeriph_Driver/src/stm32f10x_fsmc.c ****   assert_param(IS_FSMC_GETFLAG_BANK(FSMC_Bank));
 704:Libraries/STM32F10x_StdPeriph_Driver/src/stm32f10x_fsmc.c ****   assert_param(IS_FSMC_GET_FLAG(FSMC_FLAG));
 705:Libraries/STM32F10x_StdPeriph_Driver/src/stm32f10x_fsmc.c ****   
 706:Libraries/STM32F10x_StdPeriph_Driver/src/stm32f10x_fsmc.c ****   if(FSMC_Bank == FSMC_Bank2_NAND)
 995              		.loc 1 706 0
 996 0390 1028     		cmp	r0, #16	@ FSMC_Bank,
 997 0392 01D1     		bne	.L82	@,
 707:Libraries/STM32F10x_StdPeriph_Driver/src/stm32f10x_fsmc.c ****   {
 708:Libraries/STM32F10x_StdPeriph_Driver/src/stm32f10x_fsmc.c ****     tmpsr = FSMC_Bank2->SR2;
 998              		.loc 1 708 0
 999 0394 064B     		ldr	r3, .L86	@ tmp117,
 1000 0396 04E0     		b	.L85	@
 1001              	.L82:
 709:Libraries/STM32F10x_StdPeriph_Driver/src/stm32f10x_fsmc.c ****   }  
 710:Libraries/STM32F10x_StdPeriph_Driver/src/stm32f10x_fsmc.c ****   else if(FSMC_Bank == FSMC_Bank3_NAND)
 1002              		.loc 1 710 0
 1003 0398 B0F5807F 		cmp	r0, #256	@ FSMC_Bank,
 711:Libraries/STM32F10x_StdPeriph_Driver/src/stm32f10x_fsmc.c ****   {
 712:Libraries/STM32F10x_StdPeriph_Driver/src/stm32f10x_fsmc.c ****     tmpsr = FSMC_Bank3->SR3;
 1004              		.loc 1 712 0
 1005 039c 0CBF     		ite	eq
 1006 039e 054B     		ldreq	r3, .L86+4	@ tmp118,
 713:Libraries/STM32F10x_StdPeriph_Driver/src/stm32f10x_fsmc.c ****   }
 714:Libraries/STM32F10x_StdPeriph_Driver/src/stm32f10x_fsmc.c ****   /* FSMC_Bank4_PCCARD*/
 715:Libraries/STM32F10x_StdPeriph_Driver/src/stm32f10x_fsmc.c ****   else
 716:Libraries/STM32F10x_StdPeriph_Driver/src/stm32f10x_fsmc.c ****   {
 717:Libraries/STM32F10x_StdPeriph_Driver/src/stm32f10x_fsmc.c ****     tmpsr = FSMC_Bank4->SR4;
 1007              		.loc 1 717 0
 1008 03a0 054B     		ldrne	r3, .L86+8	@ tmp119,
 1009              	.L85:
 1010 03a2 5B68     		ldr	r3, [r3, #4]	@ tmpsr,
 1011              	.LVL38:
 718:Libraries/STM32F10x_StdPeriph_Driver/src/stm32f10x_fsmc.c ****   } 
 719:Libraries/STM32F10x_StdPeriph_Driver/src/stm32f10x_fsmc.c ****   
 720:Libraries/STM32F10x_StdPeriph_Driver/src/stm32f10x_fsmc.c ****   /* Get the flag status */
 721:Libraries/STM32F10x_StdPeriph_Driver/src/stm32f10x_fsmc.c ****   if ((tmpsr & FSMC_FLAG) != (uint16_t)RESET )
 1012              		.loc 1 721 0
 1013 03a4 0B42     		tst	r3, r1	@ tmpsr, FSMC_FLAG
 722:Libraries/STM32F10x_StdPeriph_Driver/src/stm32f10x_fsmc.c ****   {
 723:Libraries/STM32F10x_StdPeriph_Driver/src/stm32f10x_fsmc.c ****     bitstatus = SET;
 724:Libraries/STM32F10x_StdPeriph_Driver/src/stm32f10x_fsmc.c ****   }
 725:Libraries/STM32F10x_StdPeriph_Driver/src/stm32f10x_fsmc.c ****   else
 726:Libraries/STM32F10x_StdPeriph_Driver/src/stm32f10x_fsmc.c ****   {
 727:Libraries/STM32F10x_StdPeriph_Driver/src/stm32f10x_fsmc.c ****     bitstatus = RESET;
 728:Libraries/STM32F10x_StdPeriph_Driver/src/stm32f10x_fsmc.c ****   }
ARM GAS  /var/folders/yt/6z6x8bjn5sjf5fbb45bk5m4c0000gn/T//ccRqGMl0.s 			page 33


 729:Libraries/STM32F10x_StdPeriph_Driver/src/stm32f10x_fsmc.c ****   /* Return the flag status */
 730:Libraries/STM32F10x_StdPeriph_Driver/src/stm32f10x_fsmc.c ****   return bitstatus;
 731:Libraries/STM32F10x_StdPeriph_Driver/src/stm32f10x_fsmc.c **** }
 1014              		.loc 1 731 0
 1015 03a6 14BF     		ite	ne
 1016 03a8 0120     		movne	r0, #1	@,
 1017              	.LVL39:
 1018 03aa 0020     		moveq	r0, #0	@,
 1019 03ac 7047     		bx	lr	@
 1020              	.L87:
 1021 03ae 00BF     		.align	2
 1022              	.L86:
 1023 03b0 600000A0 		.word	-1610612640
 1024 03b4 800000A0 		.word	-1610612608
 1025 03b8 A00000A0 		.word	-1610612576
 1026              		.cfi_endproc
 1027              	.LFE44:
 1028              		.size	FSMC_GetFlagStatus, .-FSMC_GetFlagStatus
 1029              		.align	1
 1030              		.global	FSMC_ClearFlag
 1031              		.thumb
 1032              		.thumb_func
 1033              		.type	FSMC_ClearFlag, %function
 1034              	FSMC_ClearFlag:
 1035              	.LFB45:
 732:Libraries/STM32F10x_StdPeriph_Driver/src/stm32f10x_fsmc.c **** 
 733:Libraries/STM32F10x_StdPeriph_Driver/src/stm32f10x_fsmc.c **** /**
 734:Libraries/STM32F10x_StdPeriph_Driver/src/stm32f10x_fsmc.c ****   * @brief  Clears the FSMC's pending flags.
 735:Libraries/STM32F10x_StdPeriph_Driver/src/stm32f10x_fsmc.c ****   * @param  FSMC_Bank: specifies the FSMC Bank to be used
 736:Libraries/STM32F10x_StdPeriph_Driver/src/stm32f10x_fsmc.c ****   *   This parameter can be one of the following values:
 737:Libraries/STM32F10x_StdPeriph_Driver/src/stm32f10x_fsmc.c ****   *     @arg FSMC_Bank2_NAND: FSMC Bank2 NAND 
 738:Libraries/STM32F10x_StdPeriph_Driver/src/stm32f10x_fsmc.c ****   *     @arg FSMC_Bank3_NAND: FSMC Bank3 NAND
 739:Libraries/STM32F10x_StdPeriph_Driver/src/stm32f10x_fsmc.c ****   *     @arg FSMC_Bank4_PCCARD: FSMC Bank4 PCCARD
 740:Libraries/STM32F10x_StdPeriph_Driver/src/stm32f10x_fsmc.c ****   * @param  FSMC_FLAG: specifies the flag to clear.
 741:Libraries/STM32F10x_StdPeriph_Driver/src/stm32f10x_fsmc.c ****   *   This parameter can be any combination of the following values:
 742:Libraries/STM32F10x_StdPeriph_Driver/src/stm32f10x_fsmc.c ****   *     @arg FSMC_FLAG_RisingEdge: Rising egde detection Flag.
 743:Libraries/STM32F10x_StdPeriph_Driver/src/stm32f10x_fsmc.c ****   *     @arg FSMC_FLAG_Level: Level detection Flag.
 744:Libraries/STM32F10x_StdPeriph_Driver/src/stm32f10x_fsmc.c ****   *     @arg FSMC_FLAG_FallingEdge: Falling egde detection Flag.
 745:Libraries/STM32F10x_StdPeriph_Driver/src/stm32f10x_fsmc.c ****   * @retval None
 746:Libraries/STM32F10x_StdPeriph_Driver/src/stm32f10x_fsmc.c ****   */
 747:Libraries/STM32F10x_StdPeriph_Driver/src/stm32f10x_fsmc.c **** void FSMC_ClearFlag(uint32_t FSMC_Bank, uint32_t FSMC_FLAG)
 748:Libraries/STM32F10x_StdPeriph_Driver/src/stm32f10x_fsmc.c **** {
 1036              		.loc 1 748 0
 1037              		.cfi_startproc
 1038              		@ args = 0, pretend = 0, frame = 0
 1039              		@ frame_needed = 0, uses_anonymous_args = 0
 1040              		@ link register save eliminated.
 1041              	.LVL40:
 749:Libraries/STM32F10x_StdPeriph_Driver/src/stm32f10x_fsmc.c ****  /* Check the parameters */
 750:Libraries/STM32F10x_StdPeriph_Driver/src/stm32f10x_fsmc.c ****   assert_param(IS_FSMC_GETFLAG_BANK(FSMC_Bank));
 751:Libraries/STM32F10x_StdPeriph_Driver/src/stm32f10x_fsmc.c ****   assert_param(IS_FSMC_CLEAR_FLAG(FSMC_FLAG)) ;
 752:Libraries/STM32F10x_StdPeriph_Driver/src/stm32f10x_fsmc.c ****     
 753:Libraries/STM32F10x_StdPeriph_Driver/src/stm32f10x_fsmc.c ****   if(FSMC_Bank == FSMC_Bank2_NAND)
 1042              		.loc 1 753 0
 1043 03bc 1028     		cmp	r0, #16	@ FSMC_Bank,
 1044 03be 6FEA0101 		mvn	r1, r1	@ D.5964, FSMC_FLAG
 1045              	.LVL41:
ARM GAS  /var/folders/yt/6z6x8bjn5sjf5fbb45bk5m4c0000gn/T//ccRqGMl0.s 			page 34


 1046 03c2 01D1     		bne	.L89	@,
 754:Libraries/STM32F10x_StdPeriph_Driver/src/stm32f10x_fsmc.c ****   {
 755:Libraries/STM32F10x_StdPeriph_Driver/src/stm32f10x_fsmc.c ****     FSMC_Bank2->SR2 &= ~FSMC_FLAG; 
 1047              		.loc 1 755 0
 1048 03c4 054A     		ldr	r2, .L93	@ tmp121,
 1049 03c6 04E0     		b	.L92	@
 1050              	.L89:
 756:Libraries/STM32F10x_StdPeriph_Driver/src/stm32f10x_fsmc.c ****   }  
 757:Libraries/STM32F10x_StdPeriph_Driver/src/stm32f10x_fsmc.c ****   else if(FSMC_Bank == FSMC_Bank3_NAND)
 1051              		.loc 1 757 0
 1052 03c8 B0F5807F 		cmp	r0, #256	@ FSMC_Bank,
 758:Libraries/STM32F10x_StdPeriph_Driver/src/stm32f10x_fsmc.c ****   {
 759:Libraries/STM32F10x_StdPeriph_Driver/src/stm32f10x_fsmc.c ****     FSMC_Bank3->SR3 &= ~FSMC_FLAG;
 1053              		.loc 1 759 0
 1054 03cc 0CBF     		ite	eq
 1055 03ce 044A     		ldreq	r2, .L93+4	@ tmp124,
 760:Libraries/STM32F10x_StdPeriph_Driver/src/stm32f10x_fsmc.c ****   }
 761:Libraries/STM32F10x_StdPeriph_Driver/src/stm32f10x_fsmc.c ****   /* FSMC_Bank4_PCCARD*/
 762:Libraries/STM32F10x_StdPeriph_Driver/src/stm32f10x_fsmc.c ****   else
 763:Libraries/STM32F10x_StdPeriph_Driver/src/stm32f10x_fsmc.c ****   {
 764:Libraries/STM32F10x_StdPeriph_Driver/src/stm32f10x_fsmc.c ****     FSMC_Bank4->SR4 &= ~FSMC_FLAG;
 1056              		.loc 1 764 0
 1057 03d0 044A     		ldrne	r2, .L93+8	@ tmp127,
 1058              	.L92:
 1059 03d2 5368     		ldr	r3, [r2, #4]	@ D.5964,
 1060 03d4 1940     		ands	r1, r1, r3	@, D.5964, D.5964, D.5964
 1061              	.LVL42:
 1062 03d6 5160     		str	r1, [r2, #4]	@ D.5964,
 1063 03d8 7047     		bx	lr	@
 1064              	.L94:
 1065 03da 00BF     		.align	2
 1066              	.L93:
 1067 03dc 600000A0 		.word	-1610612640
 1068 03e0 800000A0 		.word	-1610612608
 1069 03e4 A00000A0 		.word	-1610612576
 1070              		.cfi_endproc
 1071              	.LFE45:
 1072              		.size	FSMC_ClearFlag, .-FSMC_ClearFlag
 1073              		.align	1
 1074              		.global	FSMC_GetITStatus
 1075              		.thumb
 1076              		.thumb_func
 1077              		.type	FSMC_GetITStatus, %function
 1078              	FSMC_GetITStatus:
 1079              	.LFB46:
 765:Libraries/STM32F10x_StdPeriph_Driver/src/stm32f10x_fsmc.c ****   }
 766:Libraries/STM32F10x_StdPeriph_Driver/src/stm32f10x_fsmc.c **** }
 767:Libraries/STM32F10x_StdPeriph_Driver/src/stm32f10x_fsmc.c **** 
 768:Libraries/STM32F10x_StdPeriph_Driver/src/stm32f10x_fsmc.c **** /**
 769:Libraries/STM32F10x_StdPeriph_Driver/src/stm32f10x_fsmc.c ****   * @brief  Checks whether the specified FSMC interrupt has occurred or not.
 770:Libraries/STM32F10x_StdPeriph_Driver/src/stm32f10x_fsmc.c ****   * @param  FSMC_Bank: specifies the FSMC Bank to be used
 771:Libraries/STM32F10x_StdPeriph_Driver/src/stm32f10x_fsmc.c ****   *   This parameter can be one of the following values:
 772:Libraries/STM32F10x_StdPeriph_Driver/src/stm32f10x_fsmc.c ****   *     @arg FSMC_Bank2_NAND: FSMC Bank2 NAND 
 773:Libraries/STM32F10x_StdPeriph_Driver/src/stm32f10x_fsmc.c ****   *     @arg FSMC_Bank3_NAND: FSMC Bank3 NAND
 774:Libraries/STM32F10x_StdPeriph_Driver/src/stm32f10x_fsmc.c ****   *     @arg FSMC_Bank4_PCCARD: FSMC Bank4 PCCARD
 775:Libraries/STM32F10x_StdPeriph_Driver/src/stm32f10x_fsmc.c ****   * @param  FSMC_IT: specifies the FSMC interrupt source to check.
 776:Libraries/STM32F10x_StdPeriph_Driver/src/stm32f10x_fsmc.c ****   *   This parameter can be one of the following values:
ARM GAS  /var/folders/yt/6z6x8bjn5sjf5fbb45bk5m4c0000gn/T//ccRqGMl0.s 			page 35


 777:Libraries/STM32F10x_StdPeriph_Driver/src/stm32f10x_fsmc.c ****   *     @arg FSMC_IT_RisingEdge: Rising edge detection interrupt. 
 778:Libraries/STM32F10x_StdPeriph_Driver/src/stm32f10x_fsmc.c ****   *     @arg FSMC_IT_Level: Level edge detection interrupt.
 779:Libraries/STM32F10x_StdPeriph_Driver/src/stm32f10x_fsmc.c ****   *     @arg FSMC_IT_FallingEdge: Falling edge detection interrupt. 
 780:Libraries/STM32F10x_StdPeriph_Driver/src/stm32f10x_fsmc.c ****   * @retval The new state of FSMC_IT (SET or RESET).
 781:Libraries/STM32F10x_StdPeriph_Driver/src/stm32f10x_fsmc.c ****   */
 782:Libraries/STM32F10x_StdPeriph_Driver/src/stm32f10x_fsmc.c **** ITStatus FSMC_GetITStatus(uint32_t FSMC_Bank, uint32_t FSMC_IT)
 783:Libraries/STM32F10x_StdPeriph_Driver/src/stm32f10x_fsmc.c **** {
 1080              		.loc 1 783 0
 1081              		.cfi_startproc
 1082              		@ args = 0, pretend = 0, frame = 0
 1083              		@ frame_needed = 0, uses_anonymous_args = 0
 1084              		@ link register save eliminated.
 1085              	.LVL43:
 784:Libraries/STM32F10x_StdPeriph_Driver/src/stm32f10x_fsmc.c ****   ITStatus bitstatus = RESET;
 785:Libraries/STM32F10x_StdPeriph_Driver/src/stm32f10x_fsmc.c ****   uint32_t tmpsr = 0x0, itstatus = 0x0, itenable = 0x0; 
 786:Libraries/STM32F10x_StdPeriph_Driver/src/stm32f10x_fsmc.c ****   
 787:Libraries/STM32F10x_StdPeriph_Driver/src/stm32f10x_fsmc.c ****   /* Check the parameters */
 788:Libraries/STM32F10x_StdPeriph_Driver/src/stm32f10x_fsmc.c ****   assert_param(IS_FSMC_IT_BANK(FSMC_Bank));
 789:Libraries/STM32F10x_StdPeriph_Driver/src/stm32f10x_fsmc.c ****   assert_param(IS_FSMC_GET_IT(FSMC_IT));
 790:Libraries/STM32F10x_StdPeriph_Driver/src/stm32f10x_fsmc.c ****   
 791:Libraries/STM32F10x_StdPeriph_Driver/src/stm32f10x_fsmc.c ****   if(FSMC_Bank == FSMC_Bank2_NAND)
 1086              		.loc 1 791 0
 1087 03e8 1028     		cmp	r0, #16	@ FSMC_Bank,
 1088 03ea 01D1     		bne	.L96	@,
 792:Libraries/STM32F10x_StdPeriph_Driver/src/stm32f10x_fsmc.c ****   {
 793:Libraries/STM32F10x_StdPeriph_Driver/src/stm32f10x_fsmc.c ****     tmpsr = FSMC_Bank2->SR2;
 1089              		.loc 1 793 0
 1090 03ec 084B     		ldr	r3, .L102	@ tmp119,
 1091 03ee 04E0     		b	.L101	@
 1092              	.L96:
 794:Libraries/STM32F10x_StdPeriph_Driver/src/stm32f10x_fsmc.c ****   }  
 795:Libraries/STM32F10x_StdPeriph_Driver/src/stm32f10x_fsmc.c ****   else if(FSMC_Bank == FSMC_Bank3_NAND)
 1093              		.loc 1 795 0
 1094 03f0 B0F5807F 		cmp	r0, #256	@ FSMC_Bank,
 796:Libraries/STM32F10x_StdPeriph_Driver/src/stm32f10x_fsmc.c ****   {
 797:Libraries/STM32F10x_StdPeriph_Driver/src/stm32f10x_fsmc.c ****     tmpsr = FSMC_Bank3->SR3;
 1095              		.loc 1 797 0
 1096 03f4 0CBF     		ite	eq
 1097 03f6 074B     		ldreq	r3, .L102+4	@ tmp120,
 798:Libraries/STM32F10x_StdPeriph_Driver/src/stm32f10x_fsmc.c ****   }
 799:Libraries/STM32F10x_StdPeriph_Driver/src/stm32f10x_fsmc.c ****   /* FSMC_Bank4_PCCARD*/
 800:Libraries/STM32F10x_StdPeriph_Driver/src/stm32f10x_fsmc.c ****   else
 801:Libraries/STM32F10x_StdPeriph_Driver/src/stm32f10x_fsmc.c ****   {
 802:Libraries/STM32F10x_StdPeriph_Driver/src/stm32f10x_fsmc.c ****     tmpsr = FSMC_Bank4->SR4;
 1098              		.loc 1 802 0
 1099 03f8 074B     		ldrne	r3, .L102+8	@ tmp121,
 1100              	.L101:
 1101 03fa 5B68     		ldr	r3, [r3, #4]	@ tmpsr,
 1102              	.LVL44:
 803:Libraries/STM32F10x_StdPeriph_Driver/src/stm32f10x_fsmc.c ****   } 
 804:Libraries/STM32F10x_StdPeriph_Driver/src/stm32f10x_fsmc.c ****   
 805:Libraries/STM32F10x_StdPeriph_Driver/src/stm32f10x_fsmc.c ****   itstatus = tmpsr & FSMC_IT;
 806:Libraries/STM32F10x_StdPeriph_Driver/src/stm32f10x_fsmc.c ****   
 807:Libraries/STM32F10x_StdPeriph_Driver/src/stm32f10x_fsmc.c ****   itenable = tmpsr & (FSMC_IT >> 3);
 808:Libraries/STM32F10x_StdPeriph_Driver/src/stm32f10x_fsmc.c ****   if ((itstatus != (uint32_t)RESET)  && (itenable != (uint32_t)RESET))
 1103              		.loc 1 808 0
 1104 03fc 13EA0100 		ands	r0, r3, r1	@ itstatus, tmpsr, FSMC_IT
ARM GAS  /var/folders/yt/6z6x8bjn5sjf5fbb45bk5m4c0000gn/T//ccRqGMl0.s 			page 36


 1105              	.LVL45:
 1106 0400 04D0     		beq	.L99	@,
 1107              		.loc 1 808 0 is_stmt 0 discriminator 1
 1108 0402 13EAD103 		ands	r3, r3, r1, lsr #3	@, tmp128, tmpsr, FSMC_IT,
 1109              	.LVL46:
 809:Libraries/STM32F10x_StdPeriph_Driver/src/stm32f10x_fsmc.c ****   {
 810:Libraries/STM32F10x_StdPeriph_Driver/src/stm32f10x_fsmc.c ****     bitstatus = SET;
 1110              		.loc 1 810 0 is_stmt 1 discriminator 1
 1111 0406 14BF     		ite	ne
 1112 0408 0120     		movne	r0, #1	@ bitstatus,
 1113              	.LVL47:
 1114 040a 0020     		moveq	r0, #0	@ bitstatus,
 1115              	.L99:
 1116              	.LVL48:
 811:Libraries/STM32F10x_StdPeriph_Driver/src/stm32f10x_fsmc.c ****   }
 812:Libraries/STM32F10x_StdPeriph_Driver/src/stm32f10x_fsmc.c ****   else
 813:Libraries/STM32F10x_StdPeriph_Driver/src/stm32f10x_fsmc.c ****   {
 814:Libraries/STM32F10x_StdPeriph_Driver/src/stm32f10x_fsmc.c ****     bitstatus = RESET;
 815:Libraries/STM32F10x_StdPeriph_Driver/src/stm32f10x_fsmc.c ****   }
 816:Libraries/STM32F10x_StdPeriph_Driver/src/stm32f10x_fsmc.c ****   return bitstatus; 
 817:Libraries/STM32F10x_StdPeriph_Driver/src/stm32f10x_fsmc.c **** }
 1117              		.loc 1 817 0
 1118 040c 7047     		bx	lr	@
 1119              	.L103:
 1120 040e 00BF     		.align	2
 1121              	.L102:
 1122 0410 600000A0 		.word	-1610612640
 1123 0414 800000A0 		.word	-1610612608
 1124 0418 A00000A0 		.word	-1610612576
 1125              		.cfi_endproc
 1126              	.LFE46:
 1127              		.size	FSMC_GetITStatus, .-FSMC_GetITStatus
 1128              		.align	1
 1129              		.global	FSMC_ClearITPendingBit
 1130              		.thumb
 1131              		.thumb_func
 1132              		.type	FSMC_ClearITPendingBit, %function
 1133              	FSMC_ClearITPendingBit:
 1134              	.LFB47:
 818:Libraries/STM32F10x_StdPeriph_Driver/src/stm32f10x_fsmc.c **** 
 819:Libraries/STM32F10x_StdPeriph_Driver/src/stm32f10x_fsmc.c **** /**
 820:Libraries/STM32F10x_StdPeriph_Driver/src/stm32f10x_fsmc.c ****   * @brief  Clears the FSMC's interrupt pending bits.
 821:Libraries/STM32F10x_StdPeriph_Driver/src/stm32f10x_fsmc.c ****   * @param  FSMC_Bank: specifies the FSMC Bank to be used
 822:Libraries/STM32F10x_StdPeriph_Driver/src/stm32f10x_fsmc.c ****   *   This parameter can be one of the following values:
 823:Libraries/STM32F10x_StdPeriph_Driver/src/stm32f10x_fsmc.c ****   *     @arg FSMC_Bank2_NAND: FSMC Bank2 NAND 
 824:Libraries/STM32F10x_StdPeriph_Driver/src/stm32f10x_fsmc.c ****   *     @arg FSMC_Bank3_NAND: FSMC Bank3 NAND
 825:Libraries/STM32F10x_StdPeriph_Driver/src/stm32f10x_fsmc.c ****   *     @arg FSMC_Bank4_PCCARD: FSMC Bank4 PCCARD
 826:Libraries/STM32F10x_StdPeriph_Driver/src/stm32f10x_fsmc.c ****   * @param  FSMC_IT: specifies the interrupt pending bit to clear.
 827:Libraries/STM32F10x_StdPeriph_Driver/src/stm32f10x_fsmc.c ****   *   This parameter can be any combination of the following values:
 828:Libraries/STM32F10x_StdPeriph_Driver/src/stm32f10x_fsmc.c ****   *     @arg FSMC_IT_RisingEdge: Rising edge detection interrupt. 
 829:Libraries/STM32F10x_StdPeriph_Driver/src/stm32f10x_fsmc.c ****   *     @arg FSMC_IT_Level: Level edge detection interrupt.
 830:Libraries/STM32F10x_StdPeriph_Driver/src/stm32f10x_fsmc.c ****   *     @arg FSMC_IT_FallingEdge: Falling edge detection interrupt.
 831:Libraries/STM32F10x_StdPeriph_Driver/src/stm32f10x_fsmc.c ****   * @retval None
 832:Libraries/STM32F10x_StdPeriph_Driver/src/stm32f10x_fsmc.c ****   */
 833:Libraries/STM32F10x_StdPeriph_Driver/src/stm32f10x_fsmc.c **** void FSMC_ClearITPendingBit(uint32_t FSMC_Bank, uint32_t FSMC_IT)
 834:Libraries/STM32F10x_StdPeriph_Driver/src/stm32f10x_fsmc.c **** {
 1135              		.loc 1 834 0
ARM GAS  /var/folders/yt/6z6x8bjn5sjf5fbb45bk5m4c0000gn/T//ccRqGMl0.s 			page 37


 1136              		.cfi_startproc
 1137              		@ args = 0, pretend = 0, frame = 0
 1138              		@ frame_needed = 0, uses_anonymous_args = 0
 1139              		@ link register save eliminated.
 1140              	.LVL49:
 835:Libraries/STM32F10x_StdPeriph_Driver/src/stm32f10x_fsmc.c ****   /* Check the parameters */
 836:Libraries/STM32F10x_StdPeriph_Driver/src/stm32f10x_fsmc.c ****   assert_param(IS_FSMC_IT_BANK(FSMC_Bank));
 837:Libraries/STM32F10x_StdPeriph_Driver/src/stm32f10x_fsmc.c ****   assert_param(IS_FSMC_IT(FSMC_IT));
 838:Libraries/STM32F10x_StdPeriph_Driver/src/stm32f10x_fsmc.c ****     
 839:Libraries/STM32F10x_StdPeriph_Driver/src/stm32f10x_fsmc.c ****   if(FSMC_Bank == FSMC_Bank2_NAND)
 1141              		.loc 1 839 0
 1142 041c 1028     		cmp	r0, #16	@ FSMC_Bank,
 1143 041e 4FEAD101 		lsr	r1, r1, #3	@ D.5971, FSMC_IT,
 1144              	.LVL50:
 1145 0422 01D1     		bne	.L105	@,
 840:Libraries/STM32F10x_StdPeriph_Driver/src/stm32f10x_fsmc.c ****   {
 841:Libraries/STM32F10x_StdPeriph_Driver/src/stm32f10x_fsmc.c ****     FSMC_Bank2->SR2 &= ~(FSMC_IT >> 3); 
 1146              		.loc 1 841 0
 1147 0424 054A     		ldr	r2, .L109	@ tmp124,
 1148 0426 04E0     		b	.L108	@
 1149              	.L105:
 842:Libraries/STM32F10x_StdPeriph_Driver/src/stm32f10x_fsmc.c ****   }  
 843:Libraries/STM32F10x_StdPeriph_Driver/src/stm32f10x_fsmc.c ****   else if(FSMC_Bank == FSMC_Bank3_NAND)
 1150              		.loc 1 843 0
 1151 0428 B0F5807F 		cmp	r0, #256	@ FSMC_Bank,
 844:Libraries/STM32F10x_StdPeriph_Driver/src/stm32f10x_fsmc.c ****   {
 845:Libraries/STM32F10x_StdPeriph_Driver/src/stm32f10x_fsmc.c ****     FSMC_Bank3->SR3 &= ~(FSMC_IT >> 3);
 1152              		.loc 1 845 0
 1153 042c 0CBF     		ite	eq
 1154 042e 044A     		ldreq	r2, .L109+4	@ tmp128,
 846:Libraries/STM32F10x_StdPeriph_Driver/src/stm32f10x_fsmc.c ****   }
 847:Libraries/STM32F10x_StdPeriph_Driver/src/stm32f10x_fsmc.c ****   /* FSMC_Bank4_PCCARD*/
 848:Libraries/STM32F10x_StdPeriph_Driver/src/stm32f10x_fsmc.c ****   else
 849:Libraries/STM32F10x_StdPeriph_Driver/src/stm32f10x_fsmc.c ****   {
 850:Libraries/STM32F10x_StdPeriph_Driver/src/stm32f10x_fsmc.c ****     FSMC_Bank4->SR4 &= ~(FSMC_IT >> 3);
 1155              		.loc 1 850 0
 1156 0430 044A     		ldrne	r2, .L109+8	@ tmp132,
 1157              	.L108:
 1158 0432 5368     		ldr	r3, [r2, #4]	@ D.5971,
 1159 0434 23EA0101 		bic	r1, r3, r1	@ D.5971, D.5971, D.5971
 1160 0438 5160     		str	r1, [r2, #4]	@ D.5971,
 1161 043a 7047     		bx	lr	@
 1162              	.L110:
 1163              		.align	2
 1164              	.L109:
 1165 043c 600000A0 		.word	-1610612640
 1166 0440 800000A0 		.word	-1610612608
 1167 0444 A00000A0 		.word	-1610612576
 1168              		.cfi_endproc
 1169              	.LFE47:
 1170              		.size	FSMC_ClearITPendingBit, .-FSMC_ClearITPendingBit
 1171              	.Letext0:
 1172              		.file 2 "/usr/local/Cellar/arm-none-eabi-gcc/20150921/arm-none-eabi/include/machine/_default_types
 1173              		.file 3 "/usr/local/Cellar/arm-none-eabi-gcc/20150921/arm-none-eabi/include/sys/_stdint.h"
 1174              		.file 4 "./Libraries/CMSIS/CM3/DeviceSupport/ST/STM32F10x/stm32f10x.h"
 1175              		.file 5 "./Libraries/STM32F10x_StdPeriph_Driver/inc/stm32f10x_fsmc.h"
 1176              		.file 6 "./Libraries/CMSIS/CM3/CoreSupport/core_cm3.h"
ARM GAS  /var/folders/yt/6z6x8bjn5sjf5fbb45bk5m4c0000gn/T//ccRqGMl0.s 			page 38

