ARM GAS  /var/folders/yt/6z6x8bjn5sjf5fbb45bk5m4c0000gn/T//ccuNDFSU.s 			page 1


   1              		.syntax unified
   2              		.cpu cortex-m3
   3              		.fpu softvfp
   4              		.eabi_attribute 20, 1	@ Tag_ABI_FP_denormal
   5              		.eabi_attribute 21, 1	@ Tag_ABI_FP_exceptions
   6              		.eabi_attribute 23, 3	@ Tag_ABI_FP_number_model
   7              		.eabi_attribute 24, 1	@ Tag_ABI_align8_needed
   8              		.eabi_attribute 25, 1	@ Tag_ABI_align8_preserved
   9              		.eabi_attribute 26, 1	@ Tag_ABI_enum_size
  10              		.eabi_attribute 30, 4	@ Tag_ABI_optimization_goals
  11              		.eabi_attribute 34, 1	@ Tag_CPU_unaligned_access
  12              		.eabi_attribute 18, 4	@ Tag_ABI_PCS_wchar_t
  13              		.file	"buttons.c"
  14              	@ GNU C (GNU Tools for ARM Embedded Processors) version 4.9.3 20150529 (release) [ARM/embedded-4_9-
  15              	@	compiled by GNU C version 4.2.1 (Based on Apple Inc. build 5658) (LLVM build 2336.9.00), GMP vers
  16              	@ GGC heuristics: --param ggc-min-expand=100 --param ggc-min-heapsize=131072
  17              	@ options passed:  -I . -I ./Libraries/CMSIS/CM3/CoreSupport
  18              	@ -I ./Libraries/CMSIS/CM3/DeviceSupport/ST/STM32F10x
  19              	@ -I ./Libraries/STM32F10x_StdPeriph_Driver/inc -I ./Libraries/Drivers/Leds
  20              	@ -I ./Libraries/Drivers/Buttons -I ./Libraries/Drivers/Usart
  21              	@ -I ./Libraries/Drivers/i2c -I ./Libraries/Drivers/BH1750
  22              	@ -I ./Libraries/Drivers/Utilities -I ./FreeRTOS/Source/include
  23              	@ -I ./FreeRTOS/Source/portable/GCC/ARM_CM3 -imultilib armv7-m
  24              	@ -iprefix /usr/local/Cellar/arm-none-eabi-gcc/20150921/bin/../lib/gcc/arm-none-eabi/4.9.3/
  25              	@ -isysroot /usr/local/Cellar/arm-none-eabi-gcc/20150921/bin/../arm-none-eabi
  26              	@ -MD Libraries/Drivers/Buttons/buttons.d -MF .dep/buttons.o.d -MP
  27              	@ -MQ Libraries/Drivers/Buttons/buttons.o -D__USES_INITFINI__
  28              	@ -D STM32F10X_MD -D USE_STDPERIPH_DRIVER -D GCC_ARMCM3 -D RUN_FROM_FLASH=1
  29              	@ Libraries/Drivers/Buttons/buttons.c -mcpu=cortex-m3 -mthumb
  30              	@ -auxbase-strip Libraries/Drivers/Buttons/buttons.o -gdwarf-2 -Os -Wall
  31              	@ -Wstrict-prototypes -fomit-frame-pointer -fverbose-asm
  32              	@ options enabled:  -faggressive-loop-optimizations -fauto-inc-dec
  33              	@ -fbranch-count-reg -fcaller-saves -fcombine-stack-adjustments -fcommon
  34              	@ -fcompare-elim -fcprop-registers -fcrossjumping -fcse-follow-jumps
  35              	@ -fdefer-pop -fdelete-null-pointer-checks -fdevirtualize
  36              	@ -fdevirtualize-speculatively -fdwarf2-cfi-asm -fearly-inlining
  37              	@ -feliminate-unused-debug-types -fexpensive-optimizations
  38              	@ -fforward-propagate -ffunction-cse -fgcse -fgcse-lm -fgnu-runtime
  39              	@ -fgnu-unique -fguess-branch-probability -fhoist-adjacent-loads -fident
  40              	@ -fif-conversion -fif-conversion2 -findirect-inlining -finline
  41              	@ -finline-atomics -finline-functions -finline-functions-called-once
  42              	@ -finline-small-functions -fipa-cp -fipa-profile -fipa-pure-const
  43              	@ -fipa-reference -fipa-sra -fira-hoist-pressure -fira-share-save-slots
  44              	@ -fira-share-spill-slots -fisolate-erroneous-paths-dereference -fivopts
  45              	@ -fkeep-static-consts -fleading-underscore -flifetime-dse -fmath-errno
  46              	@ -fmerge-constants -fmerge-debug-strings -fomit-frame-pointer
  47              	@ -foptimize-sibling-calls -fpartial-inlining -fpeephole -fpeephole2
  48              	@ -fprefetch-loop-arrays -freg-struct-return -freorder-blocks
  49              	@ -freorder-functions -frerun-cse-after-loop
  50              	@ -fsched-critical-path-heuristic -fsched-dep-count-heuristic
  51              	@ -fsched-group-heuristic -fsched-interblock -fsched-last-insn-heuristic
  52              	@ -fsched-pressure -fsched-rank-heuristic -fsched-spec
  53              	@ -fsched-spec-insn-heuristic -fsched-stalled-insns-dep -fschedule-insns2
  54              	@ -fsection-anchors -fshow-column -fsigned-zeros -fsplit-ivs-in-unroller
  55              	@ -fsplit-wide-types -fstrict-aliasing -fstrict-overflow
  56              	@ -fstrict-volatile-bitfields -fsync-libcalls -fthread-jumps
  57              	@ -ftoplevel-reorder -ftrapping-math -ftree-bit-ccp -ftree-builtin-call-dce
ARM GAS  /var/folders/yt/6z6x8bjn5sjf5fbb45bk5m4c0000gn/T//ccuNDFSU.s 			page 2


  58              	@ -ftree-ccp -ftree-ch -ftree-coalesce-vars -ftree-copy-prop
  59              	@ -ftree-copyrename -ftree-cselim -ftree-dce -ftree-dominator-opts
  60              	@ -ftree-dse -ftree-forwprop -ftree-fre -ftree-loop-if-convert
  61              	@ -ftree-loop-im -ftree-loop-ivcanon -ftree-loop-optimize
  62              	@ -ftree-parallelize-loops= -ftree-phiprop -ftree-pre -ftree-pta
  63              	@ -ftree-reassoc -ftree-scev-cprop -ftree-sink -ftree-slsr -ftree-sra
  64              	@ -ftree-switch-conversion -ftree-tail-merge -ftree-ter -ftree-vrp
  65              	@ -funit-at-a-time -fvar-tracking -fvar-tracking-assignments -fverbose-asm
  66              	@ -fzero-initialized-in-bss -mfix-cortex-m3-ldrd -mlittle-endian -mlra
  67              	@ -mpic-data-is-text-relative -msched-prolog -mthumb -munaligned-access
  68              	@ -mvectorize-with-neon-quad
  69              	
  70              		.text
  71              	.Ltext0:
  72              		.cfi_sections	.debug_frame
  73              		.align	1
  74              		.global	ButtonsInit
  75              		.thumb
  76              		.thumb_func
  77              		.type	ButtonsInit, %function
  78              	ButtonsInit:
  79              	.LFB29:
  80              		.file 1 "Libraries/Drivers/Buttons/buttons.c"
   1:Libraries/Drivers/Buttons/buttons.c **** /*
   2:Libraries/Drivers/Buttons/buttons.c ****  * buttons.c
   3:Libraries/Drivers/Buttons/buttons.c ****  *
   4:Libraries/Drivers/Buttons/buttons.c ****  *  Created on: MAY 30, 2012
   5:Libraries/Drivers/Buttons/buttons.c ****  *      Author: MMM
   6:Libraries/Drivers/Buttons/buttons.c ****  */
   7:Libraries/Drivers/Buttons/buttons.c **** 
   8:Libraries/Drivers/Buttons/buttons.c **** #include "buttons.h"
   9:Libraries/Drivers/Buttons/buttons.c **** void ButtonsInit(void) {
  81              		.loc 1 9 0
  82              		.cfi_startproc
  83              		@ args = 0, pretend = 0, frame = 8
  84              		@ frame_needed = 0, uses_anonymous_args = 0
  85 0000 07B5     		push	{r0, r1, r2, lr}	@
  86              	.LCFI0:
  87              		.cfi_def_cfa_offset 16
  88              		.cfi_offset 14, -4
  10:Libraries/Drivers/Buttons/buttons.c ****   //GPIO structure used to initialize Button pins
  11:Libraries/Drivers/Buttons/buttons.c ****   GPIO_InitTypeDef GPIO_InitStructure;
  12:Libraries/Drivers/Buttons/buttons.c ****   //Enable clock on APB2 pripheral bus where buttons are connected
  13:Libraries/Drivers/Buttons/buttons.c ****   RCC_APB2PeriphClockCmd(BPORTCLK,  ENABLE);
  89              		.loc 1 13 0
  90 0002 1020     		movs	r0, #16	@,
  91 0004 0121     		movs	r1, #1	@,
  92 0006 FFF7FEFF 		bl	RCC_APB2PeriphClockCmd	@
  93              	.LVL0:
  14:Libraries/Drivers/Buttons/buttons.c ****   //select pins to initialize S2 and S3 buttons
  15:Libraries/Drivers/Buttons/buttons.c ****   GPIO_InitStructure.GPIO_Pin = BS2|BS3;
  94              		.loc 1 15 0
  95 000a 0323     		movs	r3, #3	@ tmp111,
  16:Libraries/Drivers/Buttons/buttons.c ****   //select pull-up input mode
  17:Libraries/Drivers/Buttons/buttons.c ****   GPIO_InitStructure.GPIO_Mode = GPIO_Mode_IPU;
  96              		.loc 1 17 0
  97 000c 4822     		movs	r2, #72	@ tmp112,
ARM GAS  /var/folders/yt/6z6x8bjn5sjf5fbb45bk5m4c0000gn/T//ccuNDFSU.s 			page 3


  18:Libraries/Drivers/Buttons/buttons.c ****   //select GPIO speed
  19:Libraries/Drivers/Buttons/buttons.c ****   GPIO_InitStructure.GPIO_Speed = GPIO_Speed_50MHz;
  20:Libraries/Drivers/Buttons/buttons.c ****   GPIO_Init(BPORT, &GPIO_InitStructure);
  98              		.loc 1 20 0
  99 000e 0648     		ldr	r0, .L2	@,
 100 0010 01A9     		add	r1, sp, #4	@,,
  15:Libraries/Drivers/Buttons/buttons.c ****   //select pull-up input mode
 101              		.loc 1 15 0
 102 0012 ADF80430 		strh	r3, [sp, #4]	@ movhi	@ tmp111, GPIO_InitStructure.GPIO_Pin
  17:Libraries/Drivers/Buttons/buttons.c ****   //select GPIO speed
 103              		.loc 1 17 0
 104 0016 8DF80720 		strb	r2, [sp, #7]	@ tmp112, GPIO_InitStructure.GPIO_Mode
  19:Libraries/Drivers/Buttons/buttons.c ****   GPIO_Init(BPORT, &GPIO_InitStructure);
 105              		.loc 1 19 0
 106 001a 8DF80630 		strb	r3, [sp, #6]	@ tmp111, GPIO_InitStructure.GPIO_Speed
 107              		.loc 1 20 0
 108 001e FFF7FEFF 		bl	GPIO_Init	@
 109              	.LVL1:
  21:Libraries/Drivers/Buttons/buttons.c **** }
 110              		.loc 1 21 0
 111 0022 03B0     		add	sp, sp, #12	@,,
 112              	.LCFI1:
 113              		.cfi_def_cfa_offset 4
 114              		@ sp needed	@
 115 0024 5DF804FB 		ldr	pc, [sp], #4	@
 116              	.L3:
 117              		.align	2
 118              	.L2:
 119 0028 00100140 		.word	1073811456
 120              		.cfi_endproc
 121              	.LFE29:
 122              		.size	ButtonsInit, .-ButtonsInit
 123              		.align	1
 124              		.global	ButtonsInitEXTI
 125              		.thumb
 126              		.thumb_func
 127              		.type	ButtonsInitEXTI, %function
 128              	ButtonsInitEXTI:
 129              	.LFB30:
  22:Libraries/Drivers/Buttons/buttons.c **** 
  23:Libraries/Drivers/Buttons/buttons.c **** void ButtonsInitEXTI(void) {
 130              		.loc 1 23 0
 131              		.cfi_startproc
 132              		@ args = 0, pretend = 0, frame = 16
 133              		@ frame_needed = 0, uses_anonymous_args = 0
 134 002c 30B5     		push	{r4, r5, lr}	@
 135              	.LCFI2:
 136              		.cfi_def_cfa_offset 12
 137              		.cfi_offset 4, -12
 138              		.cfi_offset 5, -8
 139              		.cfi_offset 14, -4
  24:Libraries/Drivers/Buttons/buttons.c **** //enable AFIO clock
  25:Libraries/Drivers/Buttons/buttons.c ****     RCC_APB2PeriphClockCmd(RCC_APB2Periph_AFIO,  ENABLE);
 140              		.loc 1 25 0
 141 002e 0120     		movs	r0, #1	@,
  23:Libraries/Drivers/Buttons/buttons.c **** //enable AFIO clock
 142              		.loc 1 23 0
ARM GAS  /var/folders/yt/6z6x8bjn5sjf5fbb45bk5m4c0000gn/T//ccuNDFSU.s 			page 4


 143 0030 85B0     		sub	sp, sp, #20	@,,
 144              	.LCFI3:
 145              		.cfi_def_cfa_offset 32
 146              		.loc 1 25 0
 147 0032 0146     		mov	r1, r0	@,
 148 0034 FFF7FEFF 		bl	RCC_APB2PeriphClockCmd	@
 149              	.LVL2:
  26:Libraries/Drivers/Buttons/buttons.c ****     EXTI_InitTypeDef EXTI_InitStructure;
  27:Libraries/Drivers/Buttons/buttons.c ****     //NVIC structure to set up NVIC controller
  28:Libraries/Drivers/Buttons/buttons.c ****     NVIC_InitTypeDef NVIC_InitStructure;
  29:Libraries/Drivers/Buttons/buttons.c ****     //GPIO structure used to initialize Button pins
  30:Libraries/Drivers/Buttons/buttons.c ****     //Connect EXTI Lines to Button Pins
  31:Libraries/Drivers/Buttons/buttons.c **** 	GPIO_EXTILineConfig(GPIO_PortSourceGPIOC, GPIO_PinSource0); //BS2
 150              		.loc 1 31 0
 151 0038 0220     		movs	r0, #2	@,
 152 003a 0021     		movs	r1, #0	@,
 153 003c FFF7FEFF 		bl	GPIO_EXTILineConfig	@
 154              	.LVL3:
  32:Libraries/Drivers/Buttons/buttons.c **** 	GPIO_EXTILineConfig(GPIO_PortSourceGPIOC, GPIO_PinSource1); //BS3
 155              		.loc 1 32 0
 156 0040 0121     		movs	r1, #1	@,
 157 0042 0220     		movs	r0, #2	@,
 158 0044 FFF7FEFF 		bl	GPIO_EXTILineConfig	@
 159              	.LVL4:
  33:Libraries/Drivers/Buttons/buttons.c **** 	
  34:Libraries/Drivers/Buttons/buttons.c ****     //select EXTI line0
  35:Libraries/Drivers/Buttons/buttons.c ****     EXTI_InitStructure.EXTI_Line = EXTI_Line0;
 160              		.loc 1 35 0
 161 0048 0124     		movs	r4, #1	@ tmp110,
  36:Libraries/Drivers/Buttons/buttons.c ****     //select interrupt mode
  37:Libraries/Drivers/Buttons/buttons.c ****     EXTI_InitStructure.EXTI_Mode = EXTI_Mode_Interrupt;
 162              		.loc 1 37 0
 163 004a 0025     		movs	r5, #0	@ tmp111,
  38:Libraries/Drivers/Buttons/buttons.c ****     //generate interrupt on rising edge
  39:Libraries/Drivers/Buttons/buttons.c ****     EXTI_InitStructure.EXTI_Trigger = EXTI_Trigger_Falling;
 164              		.loc 1 39 0
 165 004c 0C23     		movs	r3, #12	@ tmp113,
  40:Libraries/Drivers/Buttons/buttons.c ****     //enable EXTI line
  41:Libraries/Drivers/Buttons/buttons.c ****     EXTI_InitStructure.EXTI_LineCmd = ENABLE;
  42:Libraries/Drivers/Buttons/buttons.c ****     //send values to registers
  43:Libraries/Drivers/Buttons/buttons.c ****     EXTI_Init(&EXTI_InitStructure);
 166              		.loc 1 43 0
 167 004e 02A8     		add	r0, sp, #8	@ tmp132,,
  39:Libraries/Drivers/Buttons/buttons.c ****     //enable EXTI line
 168              		.loc 1 39 0
 169 0050 8DF80D30 		strb	r3, [sp, #13]	@ tmp113, EXTI_InitStructure.EXTI_Trigger
  35:Libraries/Drivers/Buttons/buttons.c ****     //select interrupt mode
 170              		.loc 1 35 0
 171 0054 0294     		str	r4, [sp, #8]	@ tmp110, EXTI_InitStructure.EXTI_Line
  37:Libraries/Drivers/Buttons/buttons.c ****     //generate interrupt on rising edge
 172              		.loc 1 37 0
 173 0056 8DF80C50 		strb	r5, [sp, #12]	@ tmp111, EXTI_InitStructure.EXTI_Mode
  41:Libraries/Drivers/Buttons/buttons.c ****     //send values to registers
 174              		.loc 1 41 0
 175 005a 8DF80E40 		strb	r4, [sp, #14]	@ tmp110, EXTI_InitStructure.EXTI_LineCmd
 176              		.loc 1 43 0
 177 005e FFF7FEFF 		bl	EXTI_Init	@
ARM GAS  /var/folders/yt/6z6x8bjn5sjf5fbb45bk5m4c0000gn/T//ccuNDFSU.s 			page 5


 178              	.LVL5:
  44:Libraries/Drivers/Buttons/buttons.c ****     //select EXTI line13
  45:Libraries/Drivers/Buttons/buttons.c ****     EXTI_InitStructure.EXTI_Line = EXTI_Line1;
 179              		.loc 1 45 0
 180 0062 0223     		movs	r3, #2	@ tmp118,
  46:Libraries/Drivers/Buttons/buttons.c ****     EXTI_Init(&EXTI_InitStructure);
 181              		.loc 1 46 0
 182 0064 02A8     		add	r0, sp, #8	@ tmp133,,
  45:Libraries/Drivers/Buttons/buttons.c ****     EXTI_Init(&EXTI_InitStructure);
 183              		.loc 1 45 0
 184 0066 0293     		str	r3, [sp, #8]	@ tmp118, EXTI_InitStructure.EXTI_Line
 185              		.loc 1 46 0
 186 0068 FFF7FEFF 		bl	EXTI_Init	@
 187              	.LVL6:
  47:Libraries/Drivers/Buttons/buttons.c ****     //disable AFIO clock
  48:Libraries/Drivers/Buttons/buttons.c ****     RCC_APB2PeriphClockCmd(RCC_APB2Periph_AFIO,  DISABLE);
 188              		.loc 1 48 0
 189 006c 2946     		mov	r1, r5	@, tmp111
 190 006e 2046     		mov	r0, r4	@, tmp110
 191 0070 FFF7FEFF 		bl	RCC_APB2PeriphClockCmd	@
 192              	.LVL7:
  49:Libraries/Drivers/Buttons/buttons.c ****     //configure NVIC
  50:Libraries/Drivers/Buttons/buttons.c ****     //select NVIC channel to configure
  51:Libraries/Drivers/Buttons/buttons.c ****     NVIC_InitStructure.NVIC_IRQChannel = EXTI0_IRQn;
 193              		.loc 1 51 0
 194 0074 0623     		movs	r3, #6	@ tmp120,
  52:Libraries/Drivers/Buttons/buttons.c ****     //set priority to lowest
  53:Libraries/Drivers/Buttons/buttons.c ****     NVIC_InitStructure.NVIC_IRQChannelPreemptionPriority = 0x01;
  54:Libraries/Drivers/Buttons/buttons.c ****     //set subpriority to lowest
  55:Libraries/Drivers/Buttons/buttons.c ****     NVIC_InitStructure.NVIC_IRQChannelSubPriority = 0x01;
  56:Libraries/Drivers/Buttons/buttons.c ****     //enable IRQ channel
  57:Libraries/Drivers/Buttons/buttons.c ****     NVIC_InitStructure.NVIC_IRQChannelCmd = ENABLE;
  58:Libraries/Drivers/Buttons/buttons.c ****     //update NVIC registers
  59:Libraries/Drivers/Buttons/buttons.c ****     NVIC_Init(&NVIC_InitStructure);
 195              		.loc 1 59 0
 196 0076 01A8     		add	r0, sp, #4	@ tmp134,,
  51:Libraries/Drivers/Buttons/buttons.c ****     //set priority to lowest
 197              		.loc 1 51 0
 198 0078 8DF80430 		strb	r3, [sp, #4]	@ tmp120, NVIC_InitStructure.NVIC_IRQChannel
  53:Libraries/Drivers/Buttons/buttons.c ****     //set subpriority to lowest
 199              		.loc 1 53 0
 200 007c 8DF80540 		strb	r4, [sp, #5]	@ tmp110, NVIC_InitStructure.NVIC_IRQChannelPreemptionPriority
  55:Libraries/Drivers/Buttons/buttons.c ****     //enable IRQ channel
 201              		.loc 1 55 0
 202 0080 8DF80640 		strb	r4, [sp, #6]	@ tmp110, NVIC_InitStructure.NVIC_IRQChannelSubPriority
  57:Libraries/Drivers/Buttons/buttons.c ****     //update NVIC registers
 203              		.loc 1 57 0
 204 0084 8DF80740 		strb	r4, [sp, #7]	@ tmp110, NVIC_InitStructure.NVIC_IRQChannelCmd
 205              		.loc 1 59 0
 206 0088 FFF7FEFF 		bl	NVIC_Init	@
 207              	.LVL8:
  60:Libraries/Drivers/Buttons/buttons.c ****     //select NVIC channel to configure
  61:Libraries/Drivers/Buttons/buttons.c ****     NVIC_InitStructure.NVIC_IRQChannel = EXTI1_IRQn;
 208              		.loc 1 61 0
 209 008c 0723     		movs	r3, #7	@ tmp129,
  62:Libraries/Drivers/Buttons/buttons.c ****     NVIC_Init(&NVIC_InitStructure);
 210              		.loc 1 62 0
ARM GAS  /var/folders/yt/6z6x8bjn5sjf5fbb45bk5m4c0000gn/T//ccuNDFSU.s 			page 6


 211 008e 01A8     		add	r0, sp, #4	@ tmp135,,
  61:Libraries/Drivers/Buttons/buttons.c ****     NVIC_Init(&NVIC_InitStructure);
 212              		.loc 1 61 0
 213 0090 8DF80430 		strb	r3, [sp, #4]	@ tmp129, NVIC_InitStructure.NVIC_IRQChannel
 214              		.loc 1 62 0
 215 0094 FFF7FEFF 		bl	NVIC_Init	@
 216              	.LVL9:
  63:Libraries/Drivers/Buttons/buttons.c **** }
 217              		.loc 1 63 0
 218 0098 05B0     		add	sp, sp, #20	@,,
 219              	.LCFI4:
 220              		.cfi_def_cfa_offset 12
 221              		@ sp needed	@
 222 009a 30BD     		pop	{r4, r5, pc}	@
 223              		.cfi_endproc
 224              	.LFE30:
 225              		.size	ButtonsInitEXTI, .-ButtonsInitEXTI
 226              		.align	1
 227              		.global	ButtonRead
 228              		.thumb
 229              		.thumb_func
 230              		.type	ButtonRead, %function
 231              	ButtonRead:
 232              	.LFB31:
  64:Libraries/Drivers/Buttons/buttons.c **** 
  65:Libraries/Drivers/Buttons/buttons.c **** uint32_t ButtonRead(GPIO_TypeDef* Button_Port, uint16_t Button)
  66:Libraries/Drivers/Buttons/buttons.c **** {
 233              		.loc 1 66 0
 234              		.cfi_startproc
 235              		@ args = 0, pretend = 0, frame = 0
 236              		@ frame_needed = 0, uses_anonymous_args = 0
 237              	.LVL10:
 238 009c 08B5     		push	{r3, lr}	@
 239              	.LCFI5:
 240              		.cfi_def_cfa_offset 8
 241              		.cfi_offset 3, -8
 242              		.cfi_offset 14, -4
  67:Libraries/Drivers/Buttons/buttons.c ****   return !GPIO_ReadInputDataBit(Button_Port, Button);
 243              		.loc 1 67 0
 244 009e FFF7FEFF 		bl	GPIO_ReadInputDataBit	@
 245              	.LVL11:
  68:Libraries/Drivers/Buttons/buttons.c **** }
 246              		.loc 1 68 0
 247 00a2 B0FA80F0 		clz	r0, r0	@,
 248 00a6 4009     		lsrs	r0, r0, #5	@,,
 249 00a8 08BD     		pop	{r3, pc}	@
 250              		.cfi_endproc
 251              	.LFE31:
 252              		.size	ButtonRead, .-ButtonRead
 253              	.Letext0:
 254              		.file 2 "/usr/local/Cellar/arm-none-eabi-gcc/20150921/arm-none-eabi/include/machine/_default_types
 255              		.file 3 "/usr/local/Cellar/arm-none-eabi-gcc/20150921/arm-none-eabi/include/sys/_stdint.h"
 256              		.file 4 "./Libraries/CMSIS/CM3/DeviceSupport/ST/STM32F10x/STM32f10x.h"
 257              		.file 5 "./Libraries/STM32F10x_StdPeriph_Driver/inc/stm32f10x_exti.h"
 258              		.file 6 "./Libraries/STM32F10x_StdPeriph_Driver/inc/stm32f10x_gpio.h"
 259              		.file 7 "./Libraries/STM32F10x_StdPeriph_Driver/inc/misc.h"
 260              		.file 8 "./Libraries/STM32F10x_StdPeriph_Driver/inc/stm32f10x_rcc.h"
ARM GAS  /var/folders/yt/6z6x8bjn5sjf5fbb45bk5m4c0000gn/T//ccuNDFSU.s 			page 7


 261              		.file 9 "./Libraries/CMSIS/CM3/CoreSupport/core_cm3.h"