ARM GAS  /var/folders/yt/6z6x8bjn5sjf5fbb45bk5m4c0000gn/T//cck0iJmI.s 			page 1


   1              		.syntax unified
   2              		.cpu cortex-m3
   3              		.fpu softvfp
   4              		.eabi_attribute 20, 1	@ Tag_ABI_FP_denormal
   5              		.eabi_attribute 21, 1	@ Tag_ABI_FP_exceptions
   6              		.eabi_attribute 23, 3	@ Tag_ABI_FP_number_model
   7              		.eabi_attribute 24, 1	@ Tag_ABI_align8_needed
   8              		.eabi_attribute 25, 1	@ Tag_ABI_align8_preserved
   9              		.eabi_attribute 26, 1	@ Tag_ABI_enum_size
  10              		.eabi_attribute 30, 4	@ Tag_ABI_optimization_goals
  11              		.eabi_attribute 34, 1	@ Tag_CPU_unaligned_access
  12              		.eabi_attribute 18, 4	@ Tag_ABI_PCS_wchar_t
  13              		.file	"newlib_stubs.c"
  14              	@ GNU C (GNU Tools for ARM Embedded Processors) version 4.9.3 20150529 (release) [ARM/embedded-4_9-
  15              	@	compiled by GNU C version 4.2.1 (Based on Apple Inc. build 5658) (LLVM build 2336.9.00), GMP vers
  16              	@ GGC heuristics: --param ggc-min-expand=100 --param ggc-min-heapsize=131072
  17              	@ options passed:  -I . -I ./Libraries/CMSIS/CM3/CoreSupport
  18              	@ -I ./Libraries/CMSIS/CM3/DeviceSupport/ST/STM32F10x
  19              	@ -I ./Libraries/STM32F10x_StdPeriph_Driver/inc -I ./Libraries/Drivers/Leds
  20              	@ -I ./Libraries/Drivers/Buttons -I ./Libraries/Drivers/Usart
  21              	@ -I ./Libraries/Drivers/i2c -I ./Libraries/Drivers/BH1750
  22              	@ -I ./Libraries/Drivers/Utilities -I ./FreeRTOS/Source/include
  23              	@ -I ./FreeRTOS/Source/portable/GCC/ARM_CM3 -imultilib armv7-m
  24              	@ -iprefix /usr/local/Cellar/arm-none-eabi-gcc/20150921/bin/../lib/gcc/arm-none-eabi/4.9.3/
  25              	@ -isysroot /usr/local/Cellar/arm-none-eabi-gcc/20150921/bin/../arm-none-eabi
  26              	@ -MD Device/startup/newlib_stubs.d -MF .dep/newlib_stubs.o.d -MP
  27              	@ -MQ Device/startup/newlib_stubs.o -D__USES_INITFINI__ -D STM32F10X_MD
  28              	@ -D USE_STDPERIPH_DRIVER -D GCC_ARMCM3 -D RUN_FROM_FLASH=1
  29              	@ Device/startup/newlib_stubs.c -mcpu=cortex-m3 -mthumb
  30              	@ -auxbase-strip Device/startup/newlib_stubs.o -gdwarf-2 -Os -Wall
  31              	@ -Wstrict-prototypes -fomit-frame-pointer -fverbose-asm
  32              	@ options enabled:  -faggressive-loop-optimizations -fauto-inc-dec
  33              	@ -fbranch-count-reg -fcaller-saves -fcombine-stack-adjustments -fcommon
  34              	@ -fcompare-elim -fcprop-registers -fcrossjumping -fcse-follow-jumps
  35              	@ -fdefer-pop -fdelete-null-pointer-checks -fdevirtualize
  36              	@ -fdevirtualize-speculatively -fdwarf2-cfi-asm -fearly-inlining
  37              	@ -feliminate-unused-debug-types -fexpensive-optimizations
  38              	@ -fforward-propagate -ffunction-cse -fgcse -fgcse-lm -fgnu-runtime
  39              	@ -fgnu-unique -fguess-branch-probability -fhoist-adjacent-loads -fident
  40              	@ -fif-conversion -fif-conversion2 -findirect-inlining -finline
  41              	@ -finline-atomics -finline-functions -finline-functions-called-once
  42              	@ -finline-small-functions -fipa-cp -fipa-profile -fipa-pure-const
  43              	@ -fipa-reference -fipa-sra -fira-hoist-pressure -fira-share-save-slots
  44              	@ -fira-share-spill-slots -fisolate-erroneous-paths-dereference -fivopts
  45              	@ -fkeep-static-consts -fleading-underscore -flifetime-dse -fmath-errno
  46              	@ -fmerge-constants -fmerge-debug-strings -fomit-frame-pointer
  47              	@ -foptimize-sibling-calls -fpartial-inlining -fpeephole -fpeephole2
  48              	@ -fprefetch-loop-arrays -freg-struct-return -freorder-blocks
  49              	@ -freorder-functions -frerun-cse-after-loop
  50              	@ -fsched-critical-path-heuristic -fsched-dep-count-heuristic
  51              	@ -fsched-group-heuristic -fsched-interblock -fsched-last-insn-heuristic
  52              	@ -fsched-pressure -fsched-rank-heuristic -fsched-spec
  53              	@ -fsched-spec-insn-heuristic -fsched-stalled-insns-dep -fschedule-insns2
  54              	@ -fsection-anchors -fshow-column -fsigned-zeros -fsplit-ivs-in-unroller
  55              	@ -fsplit-wide-types -fstrict-aliasing -fstrict-overflow
  56              	@ -fstrict-volatile-bitfields -fsync-libcalls -fthread-jumps
  57              	@ -ftoplevel-reorder -ftrapping-math -ftree-bit-ccp -ftree-builtin-call-dce
ARM GAS  /var/folders/yt/6z6x8bjn5sjf5fbb45bk5m4c0000gn/T//cck0iJmI.s 			page 2


  58              	@ -ftree-ccp -ftree-ch -ftree-coalesce-vars -ftree-copy-prop
  59              	@ -ftree-copyrename -ftree-cselim -ftree-dce -ftree-dominator-opts
  60              	@ -ftree-dse -ftree-forwprop -ftree-fre -ftree-loop-if-convert
  61              	@ -ftree-loop-im -ftree-loop-ivcanon -ftree-loop-optimize
  62              	@ -ftree-parallelize-loops= -ftree-phiprop -ftree-pre -ftree-pta
  63              	@ -ftree-reassoc -ftree-scev-cprop -ftree-sink -ftree-slsr -ftree-sra
  64              	@ -ftree-switch-conversion -ftree-tail-merge -ftree-ter -ftree-vrp
  65              	@ -funit-at-a-time -fvar-tracking -fvar-tracking-assignments -fverbose-asm
  66              	@ -fzero-initialized-in-bss -mfix-cortex-m3-ldrd -mlittle-endian -mlra
  67              	@ -mpic-data-is-text-relative -msched-prolog -mthumb -munaligned-access
  68              	@ -mvectorize-with-neon-quad
  69              	
  70              		.text
  71              	.Ltext0:
  72              		.cfi_sections	.debug_frame
  73              		.align	1
  74              		.global	_close
  75              		.thumb
  76              		.thumb_func
  77              		.type	_close, %function
  78              	_close:
  79              	.LFB30:
  80              		.file 1 "Device/startup/newlib_stubs.c"
   1:Device/startup/newlib_stubs.c **** /*
   2:Device/startup/newlib_stubs.c ****  * newlib_stubs.c
   3:Device/startup/newlib_stubs.c ****  *
   4:Device/startup/newlib_stubs.c ****  *  Created on: 2 Nov 2010
   5:Device/startup/newlib_stubs.c ****  *      Author: nanoage.co.uk
   6:Device/startup/newlib_stubs.c ****  */
   7:Device/startup/newlib_stubs.c **** #include <errno.h>
   8:Device/startup/newlib_stubs.c **** #include <sys/stat.h>
   9:Device/startup/newlib_stubs.c **** #include <sys/times.h>
  10:Device/startup/newlib_stubs.c **** #include <sys/unistd.h>
  11:Device/startup/newlib_stubs.c **** #include "stm32f10x_usart.h"
  12:Device/startup/newlib_stubs.c **** #include "usart.h"
  13:Device/startup/newlib_stubs.c **** 
  14:Device/startup/newlib_stubs.c **** extern uint32_t __get_MSP(void);
  15:Device/startup/newlib_stubs.c **** 
  16:Device/startup/newlib_stubs.c **** #ifndef STDOUT_USART
  17:Device/startup/newlib_stubs.c **** #define STDOUT_USART 1
  18:Device/startup/newlib_stubs.c **** #endif
  19:Device/startup/newlib_stubs.c **** 
  20:Device/startup/newlib_stubs.c **** #ifndef STDERR_USART
  21:Device/startup/newlib_stubs.c **** #define STDERR_USART 1
  22:Device/startup/newlib_stubs.c **** #endif
  23:Device/startup/newlib_stubs.c **** 
  24:Device/startup/newlib_stubs.c **** #ifndef STDIN_USART
  25:Device/startup/newlib_stubs.c **** #define STDIN_USART 1
  26:Device/startup/newlib_stubs.c **** #endif
  27:Device/startup/newlib_stubs.c **** 
  28:Device/startup/newlib_stubs.c **** #undef errno
  29:Device/startup/newlib_stubs.c **** extern int errno;
  30:Device/startup/newlib_stubs.c **** 
  31:Device/startup/newlib_stubs.c **** /*
  32:Device/startup/newlib_stubs.c ****  environ
  33:Device/startup/newlib_stubs.c ****  A pointer to a list of environment variables and their values.
  34:Device/startup/newlib_stubs.c ****  For a minimal environment, this empty list is adequate:
ARM GAS  /var/folders/yt/6z6x8bjn5sjf5fbb45bk5m4c0000gn/T//cck0iJmI.s 			page 3


  35:Device/startup/newlib_stubs.c ****  */
  36:Device/startup/newlib_stubs.c **** char *__env[1] = { 0 };
  37:Device/startup/newlib_stubs.c **** char **environ = __env;
  38:Device/startup/newlib_stubs.c **** 
  39:Device/startup/newlib_stubs.c **** int _write(int file, char *ptr, int len);
  40:Device/startup/newlib_stubs.c **** int _read(int file, char *ptr, int len);
  41:Device/startup/newlib_stubs.c **** int _fstat(int file, struct stat *st);
  42:Device/startup/newlib_stubs.c **** int _getpid(void);
  43:Device/startup/newlib_stubs.c **** int _fork(void);
  44:Device/startup/newlib_stubs.c **** void _exit(int status) {
  45:Device/startup/newlib_stubs.c ****     _write(1, "exit", 4);
  46:Device/startup/newlib_stubs.c ****     while (1) {
  47:Device/startup/newlib_stubs.c ****         ;
  48:Device/startup/newlib_stubs.c ****     }
  49:Device/startup/newlib_stubs.c **** }
  50:Device/startup/newlib_stubs.c **** 
  51:Device/startup/newlib_stubs.c **** int _close(int file) {
  81              		.loc 1 51 0
  82              		.cfi_startproc
  83              		@ args = 0, pretend = 0, frame = 0
  84              		@ frame_needed = 0, uses_anonymous_args = 0
  85              		@ link register save eliminated.
  86              	.LVL0:
  52:Device/startup/newlib_stubs.c ****     return -1;
  53:Device/startup/newlib_stubs.c **** }
  87              		.loc 1 53 0
  88 0000 4FF0FF30 		mov	r0, #-1	@,
  89              	.LVL1:
  90 0004 7047     		bx	lr	@
  91              		.cfi_endproc
  92              	.LFE30:
  93              		.size	_close, .-_close
  94              		.align	1
  95              		.global	_execve
  96              		.thumb
  97              		.thumb_func
  98              		.type	_execve, %function
  99              	_execve:
 100              	.LFB31:
  54:Device/startup/newlib_stubs.c **** /*
  55:Device/startup/newlib_stubs.c ****  execve
  56:Device/startup/newlib_stubs.c ****  Transfer control to a new process. Minimal implementation (for a system without processes):
  57:Device/startup/newlib_stubs.c ****  */
  58:Device/startup/newlib_stubs.c **** int _execve(char *name, char **argv, char **env) {
 101              		.loc 1 58 0
 102              		.cfi_startproc
 103              		@ args = 0, pretend = 0, frame = 0
 104              		@ frame_needed = 0, uses_anonymous_args = 0
 105              		@ link register save eliminated.
 106              	.LVL2:
  59:Device/startup/newlib_stubs.c ****     errno = ENOMEM;
 107              		.loc 1 59 0
 108 0006 034B     		ldr	r3, .L3	@ tmp114,
 109 0008 0C22     		movs	r2, #12	@ tmp115,
 110              	.LVL3:
 111 000a 1A60     		str	r2, [r3]	@ tmp115, errno
  60:Device/startup/newlib_stubs.c ****     return -1;
ARM GAS  /var/folders/yt/6z6x8bjn5sjf5fbb45bk5m4c0000gn/T//cck0iJmI.s 			page 4


  61:Device/startup/newlib_stubs.c **** }
 112              		.loc 1 61 0
 113 000c 4FF0FF30 		mov	r0, #-1	@,
 114              	.LVL4:
 115 0010 7047     		bx	lr	@
 116              	.L4:
 117 0012 00BF     		.align	2
 118              	.L3:
 119 0014 00000000 		.word	errno
 120              		.cfi_endproc
 121              	.LFE31:
 122              		.size	_execve, .-_execve
 123              		.align	1
 124              		.global	_fork
 125              		.thumb
 126              		.thumb_func
 127              		.type	_fork, %function
 128              	_fork:
 129              	.LFB32:
  62:Device/startup/newlib_stubs.c **** /*
  63:Device/startup/newlib_stubs.c ****  fork
  64:Device/startup/newlib_stubs.c ****  Create a new process. Minimal implementation (for a system without processes):
  65:Device/startup/newlib_stubs.c ****  */
  66:Device/startup/newlib_stubs.c **** 
  67:Device/startup/newlib_stubs.c **** int _fork(void) {
 130              		.loc 1 67 0
 131              		.cfi_startproc
 132              		@ args = 0, pretend = 0, frame = 0
 133              		@ frame_needed = 0, uses_anonymous_args = 0
 134              		@ link register save eliminated.
  68:Device/startup/newlib_stubs.c ****     errno = EAGAIN;
 135              		.loc 1 68 0
 136 0018 024B     		ldr	r3, .L6	@ tmp111,
 137 001a 0B22     		movs	r2, #11	@ tmp112,
 138 001c 1A60     		str	r2, [r3]	@ tmp112, errno
  69:Device/startup/newlib_stubs.c ****     return -1;
  70:Device/startup/newlib_stubs.c **** }
 139              		.loc 1 70 0
 140 001e 4FF0FF30 		mov	r0, #-1	@,
 141 0022 7047     		bx	lr	@
 142              	.L7:
 143              		.align	2
 144              	.L6:
 145 0024 00000000 		.word	errno
 146              		.cfi_endproc
 147              	.LFE32:
 148              		.size	_fork, .-_fork
 149              		.align	1
 150              		.global	_fstat
 151              		.thumb
 152              		.thumb_func
 153              		.type	_fstat, %function
 154              	_fstat:
 155              	.LFB33:
  71:Device/startup/newlib_stubs.c **** /*
  72:Device/startup/newlib_stubs.c ****  fstat
  73:Device/startup/newlib_stubs.c ****  Status of an open file. For consistency with other minimal implementations in these examples,
ARM GAS  /var/folders/yt/6z6x8bjn5sjf5fbb45bk5m4c0000gn/T//cck0iJmI.s 			page 5


  74:Device/startup/newlib_stubs.c ****  all files are regarded as character special devices.
  75:Device/startup/newlib_stubs.c ****  The `sys/stat.h' header file required is distributed in the `include' subdirectory for this C libr
  76:Device/startup/newlib_stubs.c ****  */
  77:Device/startup/newlib_stubs.c **** int _fstat(int file, struct stat *st) {
 156              		.loc 1 77 0
 157              		.cfi_startproc
 158              		@ args = 0, pretend = 0, frame = 0
 159              		@ frame_needed = 0, uses_anonymous_args = 0
 160              		@ link register save eliminated.
 161              	.LVL5:
  78:Device/startup/newlib_stubs.c ****     st->st_mode = S_IFCHR;
 162              		.loc 1 78 0
 163 0028 4FF40053 		mov	r3, #8192	@ tmp113,
 164 002c 4B60     		str	r3, [r1, #4]	@ tmp113, st_2(D)->st_mode
  79:Device/startup/newlib_stubs.c ****     return 0;
  80:Device/startup/newlib_stubs.c **** }
 165              		.loc 1 80 0
 166 002e 0020     		movs	r0, #0	@,
 167              	.LVL6:
 168 0030 7047     		bx	lr	@
 169              		.cfi_endproc
 170              	.LFE33:
 171              		.size	_fstat, .-_fstat
 172              		.align	1
 173              		.global	_getpid
 174              		.thumb
 175              		.thumb_func
 176              		.type	_getpid, %function
 177              	_getpid:
 178              	.LFB34:
  81:Device/startup/newlib_stubs.c **** 
  82:Device/startup/newlib_stubs.c **** /*
  83:Device/startup/newlib_stubs.c ****  getpid
  84:Device/startup/newlib_stubs.c ****  Process-ID; this is sometimes used to generate strings unlikely to conflict with other processes. 
  85:Device/startup/newlib_stubs.c ****  */
  86:Device/startup/newlib_stubs.c **** 
  87:Device/startup/newlib_stubs.c **** int _getpid(void) {
 179              		.loc 1 87 0
 180              		.cfi_startproc
 181              		@ args = 0, pretend = 0, frame = 0
 182              		@ frame_needed = 0, uses_anonymous_args = 0
 183              		@ link register save eliminated.
  88:Device/startup/newlib_stubs.c ****     return 1;
  89:Device/startup/newlib_stubs.c **** }
 184              		.loc 1 89 0
 185 0032 0120     		movs	r0, #1	@,
 186 0034 7047     		bx	lr	@
 187              		.cfi_endproc
 188              	.LFE34:
 189              		.size	_getpid, .-_getpid
 190              		.align	1
 191              		.global	_isatty
 192              		.thumb
 193              		.thumb_func
 194              		.type	_isatty, %function
 195              	_isatty:
 196              	.LFB35:
ARM GAS  /var/folders/yt/6z6x8bjn5sjf5fbb45bk5m4c0000gn/T//cck0iJmI.s 			page 6


  90:Device/startup/newlib_stubs.c **** 
  91:Device/startup/newlib_stubs.c **** /*
  92:Device/startup/newlib_stubs.c ****  isatty
  93:Device/startup/newlib_stubs.c ****  Query whether output stream is a terminal. For consistency with the other minimal implementations,
  94:Device/startup/newlib_stubs.c ****  */
  95:Device/startup/newlib_stubs.c **** int _isatty(int file) {
 197              		.loc 1 95 0
 198              		.cfi_startproc
 199              		@ args = 0, pretend = 0, frame = 0
 200              		@ frame_needed = 0, uses_anonymous_args = 0
 201              		@ link register save eliminated.
 202              	.LVL7:
  96:Device/startup/newlib_stubs.c ****     switch (file){
 203              		.loc 1 96 0
 204 0036 0228     		cmp	r0, #2	@ file,
  97:Device/startup/newlib_stubs.c ****     case STDOUT_FILENO:
  98:Device/startup/newlib_stubs.c ****     case STDERR_FILENO:
  99:Device/startup/newlib_stubs.c ****     case STDIN_FILENO:
 100:Device/startup/newlib_stubs.c ****         return 1;
 101:Device/startup/newlib_stubs.c ****     default:
 102:Device/startup/newlib_stubs.c ****         //errno = ENOTTY;
 103:Device/startup/newlib_stubs.c ****         errno = EBADF;
 205              		.loc 1 103 0
 206 0038 81BF     		itttt	hi
 207 003a 034B     		ldrhi	r3, .L15	@ tmp114,
 208 003c 0922     		movhi	r2, #9	@ tmp115,
 104:Device/startup/newlib_stubs.c ****         return 0;
 209              		.loc 1 104 0
 210 003e 0020     		movhi	r0, #0	@ D.6283,
 211              	.LVL8:
 103:Device/startup/newlib_stubs.c ****         return 0;
 212              		.loc 1 103 0
 213 0040 1A60     		strhi	r2, [r3]	@ tmp115, errno
 100:Device/startup/newlib_stubs.c ****     default:
 214              		.loc 1 100 0
 215 0042 98BF     		it	ls
 216 0044 0120     		movls	r0, #1	@ D.6283,
 105:Device/startup/newlib_stubs.c ****     }
 106:Device/startup/newlib_stubs.c **** }
 217              		.loc 1 106 0
 218 0046 7047     		bx	lr	@
 219              	.L16:
 220              		.align	2
 221              	.L15:
 222 0048 00000000 		.word	errno
 223              		.cfi_endproc
 224              	.LFE35:
 225              		.size	_isatty, .-_isatty
 226              		.align	1
 227              		.global	_kill
 228              		.thumb
 229              		.thumb_func
 230              		.type	_kill, %function
 231              	_kill:
 232              	.LFB36:
 107:Device/startup/newlib_stubs.c **** 
 108:Device/startup/newlib_stubs.c **** 
ARM GAS  /var/folders/yt/6z6x8bjn5sjf5fbb45bk5m4c0000gn/T//cck0iJmI.s 			page 7


 109:Device/startup/newlib_stubs.c **** /*
 110:Device/startup/newlib_stubs.c ****  kill
 111:Device/startup/newlib_stubs.c ****  Send a signal. Minimal implementation:
 112:Device/startup/newlib_stubs.c ****  */
 113:Device/startup/newlib_stubs.c **** int _kill(int pid, int sig) {
 233              		.loc 1 113 0
 234              		.cfi_startproc
 235              		@ args = 0, pretend = 0, frame = 0
 236              		@ frame_needed = 0, uses_anonymous_args = 0
 237              		@ link register save eliminated.
 238              	.LVL9:
 114:Device/startup/newlib_stubs.c ****     errno = EINVAL;
 239              		.loc 1 114 0
 240 004c 024B     		ldr	r3, .L18	@ tmp113,
 241 004e 1622     		movs	r2, #22	@ tmp114,
 242 0050 1A60     		str	r2, [r3]	@ tmp114, errno
 115:Device/startup/newlib_stubs.c ****     return (-1);
 116:Device/startup/newlib_stubs.c **** }
 243              		.loc 1 116 0
 244 0052 4FF0FF30 		mov	r0, #-1	@,
 245              	.LVL10:
 246 0056 7047     		bx	lr	@
 247              	.L19:
 248              		.align	2
 249              	.L18:
 250 0058 00000000 		.word	errno
 251              		.cfi_endproc
 252              	.LFE36:
 253              		.size	_kill, .-_kill
 254              		.align	1
 255              		.global	_link
 256              		.thumb
 257              		.thumb_func
 258              		.type	_link, %function
 259              	_link:
 260              	.LFB37:
 117:Device/startup/newlib_stubs.c **** 
 118:Device/startup/newlib_stubs.c **** /*
 119:Device/startup/newlib_stubs.c ****  link
 120:Device/startup/newlib_stubs.c ****  Establish a new name for an existing file. Minimal implementation:
 121:Device/startup/newlib_stubs.c ****  */
 122:Device/startup/newlib_stubs.c **** 
 123:Device/startup/newlib_stubs.c **** int _link(char *old, char *new) {
 261              		.loc 1 123 0
 262              		.cfi_startproc
 263              		@ args = 0, pretend = 0, frame = 0
 264              		@ frame_needed = 0, uses_anonymous_args = 0
 265              		@ link register save eliminated.
 266              	.LVL11:
 124:Device/startup/newlib_stubs.c ****     errno = EMLINK;
 267              		.loc 1 124 0
 268 005c 024B     		ldr	r3, .L21	@ tmp113,
 269 005e 1F22     		movs	r2, #31	@ tmp114,
 270 0060 1A60     		str	r2, [r3]	@ tmp114, errno
 125:Device/startup/newlib_stubs.c ****     return -1;
 126:Device/startup/newlib_stubs.c **** }
 271              		.loc 1 126 0
ARM GAS  /var/folders/yt/6z6x8bjn5sjf5fbb45bk5m4c0000gn/T//cck0iJmI.s 			page 8


 272 0062 4FF0FF30 		mov	r0, #-1	@,
 273              	.LVL12:
 274 0066 7047     		bx	lr	@
 275              	.L22:
 276              		.align	2
 277              	.L21:
 278 0068 00000000 		.word	errno
 279              		.cfi_endproc
 280              	.LFE37:
 281              		.size	_link, .-_link
 282              		.align	1
 283              		.global	_lseek
 284              		.thumb
 285              		.thumb_func
 286              		.type	_lseek, %function
 287              	_lseek:
 288              	.LFB38:
 127:Device/startup/newlib_stubs.c **** 
 128:Device/startup/newlib_stubs.c **** /*
 129:Device/startup/newlib_stubs.c ****  lseek
 130:Device/startup/newlib_stubs.c ****  Set position in a file. Minimal implementation:
 131:Device/startup/newlib_stubs.c ****  */
 132:Device/startup/newlib_stubs.c **** int _lseek(int file, int ptr, int dir) {
 289              		.loc 1 132 0
 290              		.cfi_startproc
 291              		@ args = 0, pretend = 0, frame = 0
 292              		@ frame_needed = 0, uses_anonymous_args = 0
 293              		@ link register save eliminated.
 294              	.LVL13:
 133:Device/startup/newlib_stubs.c ****     return 0;
 134:Device/startup/newlib_stubs.c **** }
 295              		.loc 1 134 0
 296 006c 0020     		movs	r0, #0	@,
 297              	.LVL14:
 298 006e 7047     		bx	lr	@
 299              		.cfi_endproc
 300              	.LFE38:
 301              		.size	_lseek, .-_lseek
 302              		.align	1
 303              		.global	_sbrk
 304              		.thumb
 305              		.thumb_func
 306              		.type	_sbrk, %function
 307              	_sbrk:
 308              	.LFB39:
 135:Device/startup/newlib_stubs.c **** 
 136:Device/startup/newlib_stubs.c **** /*
 137:Device/startup/newlib_stubs.c ****  sbrk
 138:Device/startup/newlib_stubs.c ****  Increase program data space.
 139:Device/startup/newlib_stubs.c ****  Malloc and related functions depend on this
 140:Device/startup/newlib_stubs.c ****  */
 141:Device/startup/newlib_stubs.c **** caddr_t _sbrk(int incr) {
 309              		.loc 1 141 0
 310              		.cfi_startproc
 311              		@ args = 0, pretend = 0, frame = 0
 312              		@ frame_needed = 0, uses_anonymous_args = 0
 313              	.LVL15:
ARM GAS  /var/folders/yt/6z6x8bjn5sjf5fbb45bk5m4c0000gn/T//cck0iJmI.s 			page 9


 314 0070 70B5     		push	{r4, r5, r6, lr}	@
 315              	.LCFI0:
 316              		.cfi_def_cfa_offset 16
 317              		.cfi_offset 4, -16
 318              		.cfi_offset 5, -12
 319              		.cfi_offset 6, -8
 320              		.cfi_offset 14, -4
 142:Device/startup/newlib_stubs.c **** 
 143:Device/startup/newlib_stubs.c ****     extern char _ebss; // Defined by the linker
 144:Device/startup/newlib_stubs.c ****     static char *heap_end;
 145:Device/startup/newlib_stubs.c ****     char *prev_heap_end;
 146:Device/startup/newlib_stubs.c **** 
 147:Device/startup/newlib_stubs.c ****     if (heap_end == 0) {
 321              		.loc 1 147 0
 322 0072 0B4C     		ldr	r4, .L29	@ tmp120,
 141:Device/startup/newlib_stubs.c **** 
 323              		.loc 1 141 0
 324 0074 0646     		mov	r6, r0	@ incr, incr
 325              		.loc 1 147 0
 326 0076 2368     		ldr	r3, [r4]	@ heap_end, heap_end
 327 0078 0BB9     		cbnz	r3, .L25	@ heap_end,
 148:Device/startup/newlib_stubs.c ****         heap_end = &_ebss;
 328              		.loc 1 148 0
 329 007a 0A4B     		ldr	r3, .L29+4	@ tmp123,
 330 007c 2360     		str	r3, [r4]	@ tmp123, heap_end
 331              	.L25:
 149:Device/startup/newlib_stubs.c ****     }
 150:Device/startup/newlib_stubs.c ****     prev_heap_end = heap_end;
 332              		.loc 1 150 0
 333 007e 2568     		ldr	r5, [r4]	@ prev_heap_end, heap_end
 334              	.LVL16:
 151:Device/startup/newlib_stubs.c **** 
 152:Device/startup/newlib_stubs.c **** char * stack = (char*) __get_MSP();
 335              		.loc 1 152 0
 336 0080 FFF7FEFF 		bl	__get_MSP	@
 337              	.LVL17:
 153:Device/startup/newlib_stubs.c ****      if (heap_end + incr >  stack)
 338              		.loc 1 153 0
 339 0084 2368     		ldr	r3, [r4]	@ heap_end, heap_end
 340 0086 3344     		add	r3, r3, r6	@ D.6293, incr
 341 0088 8342     		cmp	r3, r0	@ D.6293,
 154:Device/startup/newlib_stubs.c ****      {
 155:Device/startup/newlib_stubs.c ****         // _write (STDERR_FILENO, "Heap and stack collision\n", 25);
 156:Device/startup/newlib_stubs.c ****          errno = ENOMEM;
 342              		.loc 1 156 0
 343 008a 89BF     		itett	hi
 344 008c 064B     		ldrhi	r3, .L29+8	@ tmp127,
 157:Device/startup/newlib_stubs.c ****          return  (caddr_t) -1;
 158:Device/startup/newlib_stubs.c ****          //abort ();
 159:Device/startup/newlib_stubs.c ****      }
 160:Device/startup/newlib_stubs.c **** 
 161:Device/startup/newlib_stubs.c ****     heap_end += incr;
 345              		.loc 1 161 0
 346 008e 044A     		ldrls	r2, .L29	@ tmp124,
 156:Device/startup/newlib_stubs.c ****          return  (caddr_t) -1;
 347              		.loc 1 156 0
 348 0090 0C22     		movhi	r2, #12	@ tmp128,
ARM GAS  /var/folders/yt/6z6x8bjn5sjf5fbb45bk5m4c0000gn/T//cck0iJmI.s 			page 10


 157:Device/startup/newlib_stubs.c ****          return  (caddr_t) -1;
 349              		.loc 1 157 0
 350 0092 4FF0FF30 		movhi	r0, #-1	@ D.6292,
 351              	.LVL18:
 156:Device/startup/newlib_stubs.c ****          return  (caddr_t) -1;
 352              		.loc 1 156 0
 353 0096 8EBF     		itee	hi
 354 0098 1A60     		strhi	r2, [r3]	@ tmp128, errno
 355              		.loc 1 161 0
 356 009a 1360     		strls	r3, [r2]	@ D.6293, heap_end
 162:Device/startup/newlib_stubs.c ****     return (caddr_t) prev_heap_end;
 357              		.loc 1 162 0
 358 009c 2846     		movls	r0, r5	@ D.6292, prev_heap_end
 163:Device/startup/newlib_stubs.c **** 
 164:Device/startup/newlib_stubs.c **** }
 359              		.loc 1 164 0
 360 009e 70BD     		pop	{r4, r5, r6, pc}	@
 361              	.LVL19:
 362              	.L30:
 363              		.align	2
 364              	.L29:
 365 00a0 00000000 		.word	.LANCHOR0
 366 00a4 00000000 		.word	_ebss
 367 00a8 00000000 		.word	errno
 368              		.cfi_endproc
 369              	.LFE39:
 370              		.size	_sbrk, .-_sbrk
 371              		.align	1
 372              		.global	_read
 373              		.thumb
 374              		.thumb_func
 375              		.type	_read, %function
 376              	_read:
 377              	.LFB40:
 165:Device/startup/newlib_stubs.c **** 
 166:Device/startup/newlib_stubs.c **** 
 167:Device/startup/newlib_stubs.c **** /*
 168:Device/startup/newlib_stubs.c ****  read
 169:Device/startup/newlib_stubs.c ****  Read a character to a file. `libc' subroutines will use this system routine for input from all fil
 170:Device/startup/newlib_stubs.c ****  Returns -1 on error or blocks until the number of characters have been read.
 171:Device/startup/newlib_stubs.c ****  */
 172:Device/startup/newlib_stubs.c **** 
 173:Device/startup/newlib_stubs.c **** 
 174:Device/startup/newlib_stubs.c **** int _read(int file, char *ptr, int len) {
 378              		.loc 1 174 0
 379              		.cfi_startproc
 380              		@ args = 0, pretend = 0, frame = 0
 381              		@ frame_needed = 0, uses_anonymous_args = 0
 382              	.LVL20:
 383 00ac 10B5     		push	{r4, lr}	@
 384              	.LCFI1:
 385              		.cfi_def_cfa_offset 8
 386              		.cfi_offset 4, -8
 387              		.cfi_offset 14, -4
 175:Device/startup/newlib_stubs.c ****     int n;
 176:Device/startup/newlib_stubs.c ****     int num = 0;
 177:Device/startup/newlib_stubs.c ****     switch (file) {
ARM GAS  /var/folders/yt/6z6x8bjn5sjf5fbb45bk5m4c0000gn/T//cck0iJmI.s 			page 11


 388              		.loc 1 177 0
 389 00ae 58B9     		cbnz	r0, .L41	@ file,
 390              		.loc 1 177 0 is_stmt 0 discriminator 1
 391 00b0 0B46     		mov	r3, r1	@ ptr, ptr
 392              	.LVL21:
 393              	.L34:
 394 00b2 581A     		subs	r0, r3, r1	@ D.6315, ptr, ptr
 395              	.LVL22:
 178:Device/startup/newlib_stubs.c ****     case STDIN_FILENO:
 179:Device/startup/newlib_stubs.c ****         for (n = 0; n < len; n++) {
 396              		.loc 1 179 0 is_stmt 1 discriminator 1
 397 00b4 9042     		cmp	r0, r2	@ D.6315, len
 398 00b6 0DDA     		bge	.L43	@,
 399              	.LVL23:
 400              	.L39:
 401              	.LBB2:
 180:Device/startup/newlib_stubs.c **** #if   STDIN_USART == 1
 181:Device/startup/newlib_stubs.c ****             //char c = Usart1Get();
 182:Device/startup/newlib_stubs.c ****         	while ((USART1->SR & USART_FLAG_RXNE) == (uint16_t)RESET) {}
 402              		.loc 1 182 0 discriminator 1
 403 00b8 0848     		ldr	r0, .L44	@ tmp155,
 404 00ba 0488     		ldrh	r4, [r0]	@, MEM[(struct USART_TypeDef *)1073821696B].SR
 405 00bc A406     		lsls	r4, r4, #26	@, MEM[(struct USART_TypeDef *)1073821696B].SR,
 406 00be FBD5     		bpl	.L39	@,
 183:Device/startup/newlib_stubs.c ****             char c = (char)(USART1->DR & (uint16_t)0x01FF);
 407              		.loc 1 183 0 discriminator 2
 408 00c0 8088     		ldrh	r0, [r0, #4]	@, MEM[(struct USART_TypeDef *)1073821696B].DR
 409              	.LVL24:
 410 00c2 03F8010B 		strb	r0, [r3], #1	@ MEM[(struct USART_TypeDef *)1073821696B].DR, MEM[base: ptr_19, offset: 4294967
 411              	.LVL25:
 412 00c6 F4E7     		b	.L34	@
 413              	.LVL26:
 414              	.L41:
 415              	.LBE2:
 184:Device/startup/newlib_stubs.c **** #elif STDIN_USART == 2
 185:Device/startup/newlib_stubs.c ****             while ((USART2->SR & USART_FLAG_RXNE) == (uint16_t) RESET) {}
 186:Device/startup/newlib_stubs.c ****             char c = (char) (USART2->DR & (uint16_t) 0x01FF);
 187:Device/startup/newlib_stubs.c **** #elif STDIN_USART == 3
 188:Device/startup/newlib_stubs.c ****             while ((USART3->SR & USART_FLAG_RXNE) == (uint16_t)RESET) {}
 189:Device/startup/newlib_stubs.c ****             char c = (char)(USART3->DR & (uint16_t)0x01FF);
 190:Device/startup/newlib_stubs.c **** #endif
 191:Device/startup/newlib_stubs.c ****             *ptr++ = c;
 192:Device/startup/newlib_stubs.c ****             num++;
 193:Device/startup/newlib_stubs.c ****         }
 194:Device/startup/newlib_stubs.c ****         break;
 195:Device/startup/newlib_stubs.c ****     default:
 196:Device/startup/newlib_stubs.c ****         errno = EBADF;
 416              		.loc 1 196 0
 417 00c8 054B     		ldr	r3, .L44+4	@ tmp165,
 418 00ca 0922     		movs	r2, #9	@ tmp166,
 419              	.LVL27:
 420 00cc 1A60     		str	r2, [r3]	@ tmp166, errno
 197:Device/startup/newlib_stubs.c ****         return -1;
 421              		.loc 1 197 0
 422 00ce 4FF0FF30 		mov	r0, #-1	@ D.6312,
 423              	.LVL28:
 424 00d2 10BD     		pop	{r4, pc}	@
ARM GAS  /var/folders/yt/6z6x8bjn5sjf5fbb45bk5m4c0000gn/T//cck0iJmI.s 			page 12


 425              	.LVL29:
 426              	.L43:
 427 00d4 22EAE270 		bic	r0, r2, r2, asr #31	@ D.6312, len
 428              	.LVL30:
 198:Device/startup/newlib_stubs.c ****     }
 199:Device/startup/newlib_stubs.c ****     return num;
 200:Device/startup/newlib_stubs.c **** }
 429              		.loc 1 200 0
 430 00d8 10BD     		pop	{r4, pc}	@
 431              	.L45:
 432 00da 00BF     		.align	2
 433              	.L44:
 434 00dc 00380140 		.word	1073821696
 435 00e0 00000000 		.word	errno
 436              		.cfi_endproc
 437              	.LFE40:
 438              		.size	_read, .-_read
 439              		.align	1
 440              		.global	_stat
 441              		.thumb
 442              		.thumb_func
 443              		.type	_stat, %function
 444              	_stat:
 445              	.LFB41:
 201:Device/startup/newlib_stubs.c **** 
 202:Device/startup/newlib_stubs.c **** /*
 203:Device/startup/newlib_stubs.c ****  stat
 204:Device/startup/newlib_stubs.c ****  Status of a file (by name). Minimal implementation:
 205:Device/startup/newlib_stubs.c ****  int    _EXFUN(stat,( const char *__path, struct stat *__sbuf ));
 206:Device/startup/newlib_stubs.c ****  */
 207:Device/startup/newlib_stubs.c **** 
 208:Device/startup/newlib_stubs.c **** int _stat(const char *filepath, struct stat *st) {
 446              		.loc 1 208 0
 447              		.cfi_startproc
 448              		@ args = 0, pretend = 0, frame = 0
 449              		@ frame_needed = 0, uses_anonymous_args = 0
 450              		@ link register save eliminated.
 451              	.LVL31:
 209:Device/startup/newlib_stubs.c ****     st->st_mode = S_IFCHR;
 452              		.loc 1 209 0
 453 00e4 4FF40053 		mov	r3, #8192	@ tmp113,
 454 00e8 4B60     		str	r3, [r1, #4]	@ tmp113, st_2(D)->st_mode
 210:Device/startup/newlib_stubs.c ****     return 0;
 211:Device/startup/newlib_stubs.c **** }
 455              		.loc 1 211 0
 456 00ea 0020     		movs	r0, #0	@,
 457              	.LVL32:
 458 00ec 7047     		bx	lr	@
 459              		.cfi_endproc
 460              	.LFE41:
 461              		.size	_stat, .-_stat
 462              		.align	1
 463              		.global	_times
 464              		.thumb
 465              		.thumb_func
 466              		.type	_times, %function
 467              	_times:
ARM GAS  /var/folders/yt/6z6x8bjn5sjf5fbb45bk5m4c0000gn/T//cck0iJmI.s 			page 13


 468              	.LFB42:
 212:Device/startup/newlib_stubs.c **** 
 213:Device/startup/newlib_stubs.c **** /*
 214:Device/startup/newlib_stubs.c ****  times
 215:Device/startup/newlib_stubs.c ****  Timing information for current process. Minimal implementation:
 216:Device/startup/newlib_stubs.c ****  */
 217:Device/startup/newlib_stubs.c **** 
 218:Device/startup/newlib_stubs.c **** clock_t _times(struct tms *buf) {
 469              		.loc 1 218 0
 470              		.cfi_startproc
 471              		@ args = 0, pretend = 0, frame = 0
 472              		@ frame_needed = 0, uses_anonymous_args = 0
 473              		@ link register save eliminated.
 474              	.LVL33:
 219:Device/startup/newlib_stubs.c ****     return -1;
 220:Device/startup/newlib_stubs.c **** }
 475              		.loc 1 220 0
 476 00ee 4FF0FF30 		mov	r0, #-1	@,
 477              	.LVL34:
 478 00f2 7047     		bx	lr	@
 479              		.cfi_endproc
 480              	.LFE42:
 481              		.size	_times, .-_times
 482              		.align	1
 483              		.global	_unlink
 484              		.thumb
 485              		.thumb_func
 486              		.type	_unlink, %function
 487              	_unlink:
 488              	.LFB43:
 221:Device/startup/newlib_stubs.c **** 
 222:Device/startup/newlib_stubs.c **** /*
 223:Device/startup/newlib_stubs.c ****  unlink
 224:Device/startup/newlib_stubs.c ****  Remove a file's directory entry. Minimal implementation:
 225:Device/startup/newlib_stubs.c ****  */
 226:Device/startup/newlib_stubs.c **** int _unlink(char *name) {
 489              		.loc 1 226 0
 490              		.cfi_startproc
 491              		@ args = 0, pretend = 0, frame = 0
 492              		@ frame_needed = 0, uses_anonymous_args = 0
 493              		@ link register save eliminated.
 494              	.LVL35:
 227:Device/startup/newlib_stubs.c ****     errno = ENOENT;
 495              		.loc 1 227 0
 496 00f4 024B     		ldr	r3, .L49	@ tmp112,
 497 00f6 0222     		movs	r2, #2	@ tmp113,
 498 00f8 1A60     		str	r2, [r3]	@ tmp113, errno
 228:Device/startup/newlib_stubs.c ****     return -1;
 229:Device/startup/newlib_stubs.c **** }
 499              		.loc 1 229 0
 500 00fa 4FF0FF30 		mov	r0, #-1	@,
 501              	.LVL36:
 502 00fe 7047     		bx	lr	@
 503              	.L50:
 504              		.align	2
 505              	.L49:
 506 0100 00000000 		.word	errno
ARM GAS  /var/folders/yt/6z6x8bjn5sjf5fbb45bk5m4c0000gn/T//cck0iJmI.s 			page 14


 507              		.cfi_endproc
 508              	.LFE43:
 509              		.size	_unlink, .-_unlink
 510              		.align	1
 511              		.global	_wait
 512              		.thumb
 513              		.thumb_func
 514              		.type	_wait, %function
 515              	_wait:
 516              	.LFB44:
 230:Device/startup/newlib_stubs.c **** 
 231:Device/startup/newlib_stubs.c **** /*
 232:Device/startup/newlib_stubs.c ****  wait
 233:Device/startup/newlib_stubs.c ****  Wait for a child process. Minimal implementation:
 234:Device/startup/newlib_stubs.c ****  */
 235:Device/startup/newlib_stubs.c **** int _wait(int *status) {
 517              		.loc 1 235 0
 518              		.cfi_startproc
 519              		@ args = 0, pretend = 0, frame = 0
 520              		@ frame_needed = 0, uses_anonymous_args = 0
 521              		@ link register save eliminated.
 522              	.LVL37:
 236:Device/startup/newlib_stubs.c ****     errno = ECHILD;
 523              		.loc 1 236 0
 524 0104 024B     		ldr	r3, .L52	@ tmp112,
 525 0106 0A22     		movs	r2, #10	@ tmp113,
 526 0108 1A60     		str	r2, [r3]	@ tmp113, errno
 237:Device/startup/newlib_stubs.c ****     return -1;
 238:Device/startup/newlib_stubs.c **** }
 527              		.loc 1 238 0
 528 010a 4FF0FF30 		mov	r0, #-1	@,
 529              	.LVL38:
 530 010e 7047     		bx	lr	@
 531              	.L53:
 532              		.align	2
 533              	.L52:
 534 0110 00000000 		.word	errno
 535              		.cfi_endproc
 536              	.LFE44:
 537              		.size	_wait, .-_wait
 538              		.align	1
 539              		.global	_write
 540              		.thumb
 541              		.thumb_func
 542              		.type	_write, %function
 543              	_write:
 544              	.LFB45:
 239:Device/startup/newlib_stubs.c **** 
 240:Device/startup/newlib_stubs.c **** /*
 241:Device/startup/newlib_stubs.c ****  write
 242:Device/startup/newlib_stubs.c ****  Write a character to a file. `libc' subroutines will use this system routine for output to all fil
 243:Device/startup/newlib_stubs.c ****  Returns -1 on error or number of bytes sent
 244:Device/startup/newlib_stubs.c ****  */
 245:Device/startup/newlib_stubs.c **** int _write(int file, char *ptr, int len) {
 545              		.loc 1 245 0
 546              		.cfi_startproc
 547              		@ args = 0, pretend = 0, frame = 0
ARM GAS  /var/folders/yt/6z6x8bjn5sjf5fbb45bk5m4c0000gn/T//cck0iJmI.s 			page 15


 548              		@ frame_needed = 0, uses_anonymous_args = 0
 549              	.LVL39:
 246:Device/startup/newlib_stubs.c ****     int n;
 247:Device/startup/newlib_stubs.c ****     switch (file) {
 550              		.loc 1 247 0
 551 0114 0128     		cmp	r0, #1	@ file,
 245:Device/startup/newlib_stubs.c ****     int n;
 552              		.loc 1 245 0
 553 0116 10B5     		push	{r4, lr}	@
 554              	.LCFI2:
 555              		.cfi_def_cfa_offset 8
 556              		.cfi_offset 4, -8
 557              		.cfi_offset 14, -4
 558              		.loc 1 247 0
 559 0118 03D0     		beq	.L56	@,
 560 011a 0228     		cmp	r0, #2	@ file,
 561 011c 19D1     		bne	.L70	@,
 562              		.loc 1 247 0 is_stmt 0 discriminator 1
 563 011e 0B46     		mov	r3, r1	@ ptr, ptr
 564 0120 12E0     		b	.L58	@
 565              	.L56:
 566 0122 0B46     		mov	r3, r1	@ ptr, ptr
 567              	.LVL40:
 568              	.L59:
 569 0124 581A     		subs	r0, r3, r1	@ D.6356, ptr, ptr
 570              	.LVL41:
 248:Device/startup/newlib_stubs.c ****     case STDOUT_FILENO: /*stdout*/
 249:Device/startup/newlib_stubs.c ****         for (n = 0; n < len; n++) {
 571              		.loc 1 249 0 is_stmt 1 discriminator 1
 572 0126 9042     		cmp	r0, r2	@ D.6356, len
 573 0128 11DA     		bge	.L63	@,
 574              	.LVL42:
 575              	.L66:
 250:Device/startup/newlib_stubs.c **** #if STDOUT_USART == 1
 251:Device/startup/newlib_stubs.c ****         	//Usart1Put(*ptr++ & (uint16_t)0x01FF);
 252:Device/startup/newlib_stubs.c ****         	while ((USART1->SR & USART_FLAG_TC) == (uint16_t)RESET) {}
 576              		.loc 1 252 0 discriminator 1
 577 012a 0D48     		ldr	r0, .L71	@ tmp133,
 578 012c 0488     		ldrh	r4, [r0]	@, MEM[(struct USART_TypeDef *)1073821696B].SR
 579 012e 6406     		lsls	r4, r4, #25	@, MEM[(struct USART_TypeDef *)1073821696B].SR,
 580 0130 FBD5     		bpl	.L66	@,
 253:Device/startup/newlib_stubs.c ****             USART1->DR = (*ptr++ & (uint16_t)0x01FF);
 581              		.loc 1 253 0 discriminator 2
 582 0132 13F8014B 		ldrb	r4, [r3], #1	@ zero_extendqisi2	@ D.6354, MEM[base: ptr_19, offset: 4294967295B]
 583              	.LVL43:
 584 0136 8480     		strh	r4, [r0, #4]	@ movhi	@ D.6354, MEM[(struct USART_TypeDef *)1073821696B].DR
 585              	.LVL44:
 586 0138 F4E7     		b	.L59	@
 587              	.LVL45:
 588              	.L67:
 254:Device/startup/newlib_stubs.c **** #elif  STDOUT_USART == 2
 255:Device/startup/newlib_stubs.c ****             while ((USART2->SR & USART_FLAG_TC) == (uint16_t) RESET) {
 256:Device/startup/newlib_stubs.c ****             }
 257:Device/startup/newlib_stubs.c ****             USART2->DR = (*ptr++ & (uint16_t) 0x01FF);
 258:Device/startup/newlib_stubs.c **** #elif  STDOUT_USART == 3
 259:Device/startup/newlib_stubs.c ****             while ((USART3->SR & USART_FLAG_TC) == (uint16_t)RESET) {}
 260:Device/startup/newlib_stubs.c ****             USART3->DR = (*ptr++ & (uint16_t)0x01FF);
ARM GAS  /var/folders/yt/6z6x8bjn5sjf5fbb45bk5m4c0000gn/T//cck0iJmI.s 			page 16


 261:Device/startup/newlib_stubs.c **** #endif
 262:Device/startup/newlib_stubs.c ****         }
 263:Device/startup/newlib_stubs.c ****         break;
 264:Device/startup/newlib_stubs.c ****     case STDERR_FILENO: /* stderr */
 265:Device/startup/newlib_stubs.c ****         for (n = 0; n < len; n++) {
 266:Device/startup/newlib_stubs.c **** #if STDERR_USART == 1
 267:Device/startup/newlib_stubs.c ****         	//Usart1Put(*ptr++ & (uint16_t)0x01FF);
 268:Device/startup/newlib_stubs.c ****             while ((USART1->SR & USART_FLAG_TC) == (uint16_t)RESET) {}
 589              		.loc 1 268 0 discriminator 1
 590 013a 0948     		ldr	r0, .L71	@ tmp143,
 591 013c 0488     		ldrh	r4, [r0]	@, MEM[(struct USART_TypeDef *)1073821696B].SR
 592 013e 6406     		lsls	r4, r4, #25	@, MEM[(struct USART_TypeDef *)1073821696B].SR,
 593 0140 FBD5     		bpl	.L67	@,
 269:Device/startup/newlib_stubs.c ****             USART1->DR = (*ptr++ & (uint16_t)0x01FF);
 594              		.loc 1 269 0 discriminator 2
 595 0142 13F8014B 		ldrb	r4, [r3], #1	@ zero_extendqisi2	@ D.6354, MEM[base: ptr_28, offset: 4294967295B]
 596              	.LVL46:
 597 0146 8480     		strh	r4, [r0, #4]	@ movhi	@ D.6354, MEM[(struct USART_TypeDef *)1073821696B].DR
 598              	.LVL47:
 599              	.L58:
 600 0148 581A     		subs	r0, r3, r1	@ D.6356, ptr, ptr
 601              	.LVL48:
 265:Device/startup/newlib_stubs.c **** #if STDERR_USART == 1
 602              		.loc 1 265 0 discriminator 1
 603 014a 9042     		cmp	r0, r2	@ D.6356, len
 604 014c F5DB     		blt	.L67	@,
 605              	.L63:
 270:Device/startup/newlib_stubs.c **** #elif  STDERR_USART == 2
 271:Device/startup/newlib_stubs.c ****             while ((USART2->SR & USART_FLAG_TC) == (uint16_t) RESET) {
 272:Device/startup/newlib_stubs.c ****             }
 273:Device/startup/newlib_stubs.c ****             USART2->DR = (*ptr++ & (uint16_t) 0x01FF);
 274:Device/startup/newlib_stubs.c **** #elif  STDERR_USART == 3
 275:Device/startup/newlib_stubs.c ****             while ((USART3->SR & USART_FLAG_TC) == (uint16_t)RESET) {}
 276:Device/startup/newlib_stubs.c ****             USART3->DR = (*ptr++ & (uint16_t)0x01FF);
 277:Device/startup/newlib_stubs.c **** #endif
 278:Device/startup/newlib_stubs.c ****         }
 279:Device/startup/newlib_stubs.c ****         break;
 280:Device/startup/newlib_stubs.c ****     default:
 281:Device/startup/newlib_stubs.c ****         errno = EBADF;
 282:Device/startup/newlib_stubs.c ****         return -1;
 606              		.loc 1 282 0
 607 014e 1046     		mov	r0, r2	@ D.6352, len
 608              	.LVL49:
 609 0150 10BD     		pop	{r4, pc}	@
 610              	.LVL50:
 611              	.L70:
 281:Device/startup/newlib_stubs.c ****         return -1;
 612              		.loc 1 281 0
 613 0152 044B     		ldr	r3, .L71+4	@ tmp153,
 614 0154 0922     		movs	r2, #9	@ tmp154,
 615              	.LVL51:
 616 0156 1A60     		str	r2, [r3]	@ tmp154, errno
 617              		.loc 1 282 0
 618 0158 4FF0FF30 		mov	r0, #-1	@ D.6352,
 619              	.LVL52:
 283:Device/startup/newlib_stubs.c ****     }
 284:Device/startup/newlib_stubs.c ****     return len;
ARM GAS  /var/folders/yt/6z6x8bjn5sjf5fbb45bk5m4c0000gn/T//cck0iJmI.s 			page 17


 285:Device/startup/newlib_stubs.c **** }
 620              		.loc 1 285 0
 621 015c 10BD     		pop	{r4, pc}	@
 622              	.L72:
 623 015e 00BF     		.align	2
 624              	.L71:
 625 0160 00380140 		.word	1073821696
 626 0164 00000000 		.word	errno
 627              		.cfi_endproc
 628              	.LFE45:
 629              		.size	_write, .-_write
 630              		.align	1
 631              		.global	_exit
 632              		.thumb
 633              		.thumb_func
 634              		.type	_exit, %function
 635              	_exit:
 636              	.LFB29:
  44:Device/startup/newlib_stubs.c ****     _write(1, "exit", 4);
 637              		.loc 1 44 0
 638              		.cfi_startproc
 639              		@ Volatile: function does not return.
 640              		@ args = 0, pretend = 0, frame = 0
 641              		@ frame_needed = 0, uses_anonymous_args = 0
 642              	.LVL53:
 643 0168 08B5     		push	{r3, lr}	@
 644              	.LCFI3:
 645              		.cfi_def_cfa_offset 8
 646              		.cfi_offset 3, -8
 647              		.cfi_offset 14, -4
  45:Device/startup/newlib_stubs.c ****     while (1) {
 648              		.loc 1 45 0
 649 016a 0120     		movs	r0, #1	@,
 650              	.LVL54:
 651 016c 0249     		ldr	r1, .L75	@,
 652 016e 0422     		movs	r2, #4	@,
 653 0170 FFF7FEFF 		bl	_write	@
 654              	.LVL55:
 655              	.L74:
  48:Device/startup/newlib_stubs.c **** }
 656              		.loc 1 48 0 discriminator 1
 657 0174 FEE7     		b	.L74	@
 658              	.L76:
 659 0176 00BF     		.align	2
 660              	.L75:
 661 0178 00000000 		.word	.LC0
 662              		.cfi_endproc
 663              	.LFE29:
 664              		.size	_exit, .-_exit
 665              		.global	environ
 666              		.global	__env
 667              		.section	.rodata.str1.1,"aMS",%progbits,1
 668              	.LC0:
 669 0000 65786974 		.ascii	"exit\000"
 669      00
 670              		.data
 671              		.align	2
ARM GAS  /var/folders/yt/6z6x8bjn5sjf5fbb45bk5m4c0000gn/T//cck0iJmI.s 			page 18


 672              		.type	environ, %object
 673              		.size	environ, 4
 674              	environ:
 675 0000 00000000 		.word	__env
 676              		.bss
 677              		.align	2
 678              		.set	.LANCHOR0,. + 0
 679              		.type	heap_end.6113, %object
 680              		.size	heap_end.6113, 4
 681              	heap_end.6113:
 682 0000 00000000 		.space	4
 683              		.type	__env, %object
 684              		.size	__env, 4
 685              	__env:
 686 0004 00000000 		.space	4
 687              		.text
 688              	.Letext0:
 689              		.file 2 "/usr/local/Cellar/arm-none-eabi-gcc/20150921/arm-none-eabi/include/machine/_default_types
 690              		.file 3 "/usr/local/Cellar/arm-none-eabi-gcc/20150921/arm-none-eabi/include/sys/_types.h"
 691              		.file 4 "/usr/local/Cellar/arm-none-eabi-gcc/20150921/arm-none-eabi/include/sys/_stdint.h"
 692              		.file 5 "/usr/local/Cellar/arm-none-eabi-gcc/20150921/arm-none-eabi/include/sys/types.h"
 693              		.file 6 "/usr/local/Cellar/arm-none-eabi-gcc/20150921/arm-none-eabi/include/sys/stat.h"
 694              		.file 7 "/usr/local/Cellar/arm-none-eabi-gcc/20150921/arm-none-eabi/include/sys/times.h"
 695              		.file 8 "./Libraries/CMSIS/CM3/DeviceSupport/ST/STM32F10x/stm32f10x.h"
 696              		.file 9 "/usr/local/Cellar/arm-none-eabi-gcc/20150921/arm-none-eabi/include/sys/unistd.h"
 697              		.file 10 "./Libraries/CMSIS/CM3/CoreSupport/core_cm3.h"
 698              		.section	.debug_info,"",%progbits
 699              	.Ldebug_info0:
 700 0000 40080000 		.4byte	0x840
 701 0004 0200     		.2byte	0x2
 702 0006 00000000 		.4byte	.Ldebug_abbrev0
 703 000a 04       		.byte	0x4
 704 000b 01       		.uleb128 0x1
 705 000c D1000000 		.4byte	.LASF91
 706 0010 01       		.byte	0x1
 707 0011 71000000 		.4byte	.LASF92
 708 0015 79030000 		.4byte	.LASF93
 709 0019 00000000 		.4byte	.Ltext0
 710 001d 7C010000 		.4byte	.Letext0
 711 0021 00000000 		.4byte	.Ldebug_line0
 712 0025 02       		.uleb128 0x2
 713 0026 04       		.byte	0x4
 714 0027 05       		.byte	0x5
 715 0028 696E7400 		.ascii	"int\000"
 716 002c 03       		.uleb128 0x3
 717 002d 04       		.byte	0x4
 718 002e 07       		.byte	0x7
 719 002f 3E020000 		.4byte	.LASF0
 720 0033 03       		.uleb128 0x3
 721 0034 01       		.byte	0x1
 722 0035 06       		.byte	0x6
 723 0036 73010000 		.4byte	.LASF1
 724 003a 03       		.uleb128 0x3
 725 003b 01       		.byte	0x1
 726 003c 08       		.byte	0x8
 727 003d F4010000 		.4byte	.LASF2
 728 0041 03       		.uleb128 0x3
ARM GAS  /var/folders/yt/6z6x8bjn5sjf5fbb45bk5m4c0000gn/T//cck0iJmI.s 			page 19


 729 0042 02       		.byte	0x2
 730 0043 05       		.byte	0x5
 731 0044 B9010000 		.4byte	.LASF3
 732 0048 04       		.uleb128 0x4
 733 0049 B8000000 		.4byte	.LASF6
 734 004d 02       		.byte	0x2
 735 004e 2B       		.byte	0x2b
 736 004f 53000000 		.4byte	0x53
 737 0053 03       		.uleb128 0x3
 738 0054 02       		.byte	0x2
 739 0055 07       		.byte	0x7
 740 0056 81020000 		.4byte	.LASF4
 741 005a 03       		.uleb128 0x3
 742 005b 04       		.byte	0x4
 743 005c 05       		.byte	0x5
 744 005d AA010000 		.4byte	.LASF5
 745 0061 04       		.uleb128 0x4
 746 0062 4C030000 		.4byte	.LASF7
 747 0066 02       		.byte	0x2
 748 0067 41       		.byte	0x41
 749 0068 6C000000 		.4byte	0x6c
 750 006c 03       		.uleb128 0x3
 751 006d 04       		.byte	0x4
 752 006e 07       		.byte	0x7
 753 006f 63020000 		.4byte	.LASF8
 754 0073 03       		.uleb128 0x3
 755 0074 08       		.byte	0x8
 756 0075 05       		.byte	0x5
 757 0076 95000000 		.4byte	.LASF9
 758 007a 03       		.uleb128 0x3
 759 007b 08       		.byte	0x8
 760 007c 07       		.byte	0x7
 761 007d 1E020000 		.4byte	.LASF10
 762 0081 04       		.uleb128 0x4
 763 0082 38000000 		.4byte	.LASF11
 764 0086 03       		.byte	0x3
 765 0087 10       		.byte	0x10
 766 0088 5A000000 		.4byte	0x5a
 767 008c 04       		.uleb128 0x4
 768 008d 6B030000 		.4byte	.LASF12
 769 0091 03       		.byte	0x3
 770 0092 14       		.byte	0x14
 771 0093 41000000 		.4byte	0x41
 772 0097 04       		.uleb128 0x4
 773 0098 A9030000 		.4byte	.LASF13
 774 009c 03       		.byte	0x3
 775 009d 18       		.byte	0x18
 776 009e 53000000 		.4byte	0x53
 777 00a2 04       		.uleb128 0x4
 778 00a3 EF030000 		.4byte	.LASF14
 779 00a7 03       		.byte	0x3
 780 00a8 1B       		.byte	0x1b
 781 00a9 53000000 		.4byte	0x53
 782 00ad 03       		.uleb128 0x3
 783 00ae 04       		.byte	0x4
 784 00af 07       		.byte	0x7
 785 00b0 68000000 		.4byte	.LASF15
ARM GAS  /var/folders/yt/6z6x8bjn5sjf5fbb45bk5m4c0000gn/T//cck0iJmI.s 			page 20


 786 00b4 05       		.uleb128 0x5
 787 00b5 04       		.byte	0x4
 788 00b6 BA000000 		.4byte	0xba
 789 00ba 03       		.uleb128 0x3
 790 00bb 01       		.byte	0x1
 791 00bc 08       		.byte	0x8
 792 00bd AB020000 		.4byte	.LASF16
 793 00c1 05       		.uleb128 0x5
 794 00c2 04       		.byte	0x4
 795 00c3 C7000000 		.4byte	0xc7
 796 00c7 06       		.uleb128 0x6
 797 00c8 BA000000 		.4byte	0xba
 798 00cc 04       		.uleb128 0x4
 799 00cd 54020000 		.4byte	.LASF17
 800 00d1 04       		.byte	0x4
 801 00d2 1A       		.byte	0x1a
 802 00d3 48000000 		.4byte	0x48
 803 00d7 04       		.uleb128 0x4
 804 00d8 35020000 		.4byte	.LASF18
 805 00dc 04       		.byte	0x4
 806 00dd 20       		.byte	0x20
 807 00de 61000000 		.4byte	0x61
 808 00e2 04       		.uleb128 0x4
 809 00e3 08000000 		.4byte	.LASF19
 810 00e7 05       		.byte	0x5
 811 00e8 77       		.byte	0x77
 812 00e9 6C000000 		.4byte	0x6c
 813 00ed 04       		.uleb128 0x4
 814 00ee 07020000 		.4byte	.LASF20
 815 00f2 05       		.byte	0x5
 816 00f3 7C       		.byte	0x7c
 817 00f4 5A000000 		.4byte	0x5a
 818 00f8 04       		.uleb128 0x4
 819 00f9 B6020000 		.4byte	.LASF21
 820 00fd 05       		.byte	0x5
 821 00fe 85       		.byte	0x85
 822 00ff B4000000 		.4byte	0xb4
 823 0103 04       		.uleb128 0x4
 824 0104 99010000 		.4byte	.LASF22
 825 0108 05       		.byte	0x5
 826 0109 8E       		.byte	0x8e
 827 010a 53000000 		.4byte	0x53
 828 010e 04       		.uleb128 0x4
 829 010f 5D030000 		.4byte	.LASF23
 830 0113 05       		.byte	0x5
 831 0114 AB       		.byte	0xab
 832 0115 81000000 		.4byte	0x81
 833 0119 04       		.uleb128 0x4
 834 011a E3010000 		.4byte	.LASF24
 835 011e 05       		.byte	0x5
 836 011f AC       		.byte	0xac
 837 0120 8C000000 		.4byte	0x8c
 838 0124 04       		.uleb128 0x4
 839 0125 2B000000 		.4byte	.LASF25
 840 0129 05       		.byte	0x5
 841 012a AD       		.byte	0xad
 842 012b 97000000 		.4byte	0x97
ARM GAS  /var/folders/yt/6z6x8bjn5sjf5fbb45bk5m4c0000gn/T//cck0iJmI.s 			page 21


 843 012f 04       		.uleb128 0x4
 844 0130 D4010000 		.4byte	.LASF26
 845 0134 05       		.byte	0x5
 846 0135 AE       		.byte	0xae
 847 0136 A2000000 		.4byte	0xa2
 848 013a 04       		.uleb128 0x4
 849 013b 31000000 		.4byte	.LASF27
 850 013f 05       		.byte	0x5
 851 0140 CC       		.byte	0xcc
 852 0141 2C000000 		.4byte	0x2c
 853 0145 04       		.uleb128 0x4
 854 0146 61010000 		.4byte	.LASF28
 855 014a 05       		.byte	0x5
 856 014b D1       		.byte	0xd1
 857 014c 53000000 		.4byte	0x53
 858 0150 07       		.uleb128 0x7
 859 0151 B1030000 		.4byte	.LASF46
 860 0155 3C       		.byte	0x3c
 861 0156 06       		.byte	0x6
 862 0157 1B       		.byte	0x1b
 863 0158 4B020000 		.4byte	0x24b
 864 015c 08       		.uleb128 0x8
 865 015d AA000000 		.4byte	.LASF29
 866 0161 06       		.byte	0x6
 867 0162 1D       		.byte	0x1d
 868 0163 19010000 		.4byte	0x119
 869 0167 02       		.byte	0x2
 870 0168 23       		.byte	0x23
 871 0169 00       		.uleb128 0
 872 016a 08       		.uleb128 0x8
 873 016b 0E020000 		.4byte	.LASF30
 874 016f 06       		.byte	0x6
 875 0170 1E       		.byte	0x1e
 876 0171 03010000 		.4byte	0x103
 877 0175 02       		.byte	0x2
 878 0176 23       		.byte	0x23
 879 0177 02       		.uleb128 0x2
 880 0178 08       		.uleb128 0x8
 881 0179 B6030000 		.4byte	.LASF31
 882 017d 06       		.byte	0x6
 883 017e 1F       		.byte	0x1f
 884 017f 3A010000 		.4byte	0x13a
 885 0183 02       		.byte	0x2
 886 0184 23       		.byte	0x23
 887 0185 04       		.uleb128 0x4
 888 0186 08       		.uleb128 0x8
 889 0187 BE030000 		.4byte	.LASF32
 890 018b 06       		.byte	0x6
 891 018c 20       		.byte	0x20
 892 018d 45010000 		.4byte	0x145
 893 0191 02       		.byte	0x2
 894 0192 23       		.byte	0x23
 895 0193 08       		.uleb128 0x8
 896 0194 08       		.uleb128 0x8
 897 0195 D7020000 		.4byte	.LASF33
 898 0199 06       		.byte	0x6
 899 019a 21       		.byte	0x21
ARM GAS  /var/folders/yt/6z6x8bjn5sjf5fbb45bk5m4c0000gn/T//cck0iJmI.s 			page 22


 900 019b 24010000 		.4byte	0x124
 901 019f 02       		.byte	0x2
 902 01a0 23       		.byte	0x23
 903 01a1 0A       		.uleb128 0xa
 904 01a2 08       		.uleb128 0x8
 905 01a3 92010000 		.4byte	.LASF34
 906 01a7 06       		.byte	0x6
 907 01a8 22       		.byte	0x22
 908 01a9 2F010000 		.4byte	0x12f
 909 01ad 02       		.byte	0x2
 910 01ae 23       		.byte	0x23
 911 01af 0C       		.uleb128 0xc
 912 01b0 08       		.uleb128 0x8
 913 01b1 00000000 		.4byte	.LASF35
 914 01b5 06       		.byte	0x6
 915 01b6 23       		.byte	0x23
 916 01b7 19010000 		.4byte	0x119
 917 01bb 02       		.byte	0x2
 918 01bc 23       		.byte	0x23
 919 01bd 0E       		.uleb128 0xe
 920 01be 08       		.uleb128 0x8
 921 01bf CC010000 		.4byte	.LASF36
 922 01c3 06       		.byte	0x6
 923 01c4 24       		.byte	0x24
 924 01c5 0E010000 		.4byte	0x10e
 925 01c9 02       		.byte	0x2
 926 01ca 23       		.byte	0x23
 927 01cb 10       		.uleb128 0x10
 928 01cc 08       		.uleb128 0x8
 929 01cd C3010000 		.4byte	.LASF37
 930 01d1 06       		.byte	0x6
 931 01d2 32       		.byte	0x32
 932 01d3 ED000000 		.4byte	0xed
 933 01d7 02       		.byte	0x2
 934 01d8 23       		.byte	0x23
 935 01d9 14       		.uleb128 0x14
 936 01da 08       		.uleb128 0x8
 937 01db 10030000 		.4byte	.LASF38
 938 01df 06       		.byte	0x6
 939 01e0 33       		.byte	0x33
 940 01e1 5A000000 		.4byte	0x5a
 941 01e5 02       		.byte	0x2
 942 01e6 23       		.byte	0x23
 943 01e7 18       		.uleb128 0x18
 944 01e8 08       		.uleb128 0x8
 945 01e9 DA010000 		.4byte	.LASF39
 946 01ed 06       		.byte	0x6
 947 01ee 34       		.byte	0x34
 948 01ef ED000000 		.4byte	0xed
 949 01f3 02       		.byte	0x2
 950 01f4 23       		.byte	0x23
 951 01f5 1C       		.uleb128 0x1c
 952 01f6 08       		.uleb128 0x8
 953 01f7 9A020000 		.4byte	.LASF40
 954 01fb 06       		.byte	0x6
 955 01fc 35       		.byte	0x35
 956 01fd 5A000000 		.4byte	0x5a
ARM GAS  /var/folders/yt/6z6x8bjn5sjf5fbb45bk5m4c0000gn/T//cck0iJmI.s 			page 23


 957 0201 02       		.byte	0x2
 958 0202 23       		.byte	0x23
 959 0203 20       		.uleb128 0x20
 960 0204 08       		.uleb128 0x8
 961 0205 5F000000 		.4byte	.LASF41
 962 0209 06       		.byte	0x6
 963 020a 36       		.byte	0x36
 964 020b ED000000 		.4byte	0xed
 965 020f 02       		.byte	0x2
 966 0210 23       		.byte	0x23
 967 0211 24       		.uleb128 0x24
 968 0212 08       		.uleb128 0x8
 969 0213 24030000 		.4byte	.LASF42
 970 0217 06       		.byte	0x6
 971 0218 37       		.byte	0x37
 972 0219 5A000000 		.4byte	0x5a
 973 021d 02       		.byte	0x2
 974 021e 23       		.byte	0x23
 975 021f 28       		.uleb128 0x28
 976 0220 08       		.uleb128 0x8
 977 0221 7F010000 		.4byte	.LASF43
 978 0225 06       		.byte	0x6
 979 0226 38       		.byte	0x38
 980 0227 5A000000 		.4byte	0x5a
 981 022b 02       		.byte	0x2
 982 022c 23       		.byte	0x23
 983 022d 2C       		.uleb128 0x2c
 984 022e 08       		.uleb128 0x8
 985 022f BE020000 		.4byte	.LASF44
 986 0233 06       		.byte	0x6
 987 0234 39       		.byte	0x39
 988 0235 5A000000 		.4byte	0x5a
 989 0239 02       		.byte	0x2
 990 023a 23       		.byte	0x23
 991 023b 30       		.uleb128 0x30
 992 023c 08       		.uleb128 0x8
 993 023d 2E030000 		.4byte	.LASF45
 994 0241 06       		.byte	0x6
 995 0242 3A       		.byte	0x3a
 996 0243 4B020000 		.4byte	0x24b
 997 0247 02       		.byte	0x2
 998 0248 23       		.byte	0x23
 999 0249 34       		.uleb128 0x34
 1000 024a 00       		.byte	0
 1001 024b 09       		.uleb128 0x9
 1002 024c 5A000000 		.4byte	0x5a
 1003 0250 5B020000 		.4byte	0x25b
 1004 0254 0A       		.uleb128 0xa
 1005 0255 AD000000 		.4byte	0xad
 1006 0259 01       		.byte	0x1
 1007 025a 00       		.byte	0
 1008 025b 0B       		.uleb128 0xb
 1009 025c 746D7300 		.ascii	"tms\000"
 1010 0260 10       		.byte	0x10
 1011 0261 07       		.byte	0x7
 1012 0262 10       		.byte	0x10
 1013 0263 A0020000 		.4byte	0x2a0
ARM GAS  /var/folders/yt/6z6x8bjn5sjf5fbb45bk5m4c0000gn/T//cck0iJmI.s 			page 24


 1014 0267 08       		.uleb128 0x8
 1015 0268 C7030000 		.4byte	.LASF47
 1016 026c 07       		.byte	0x7
 1017 026d 11       		.byte	0x11
 1018 026e E2000000 		.4byte	0xe2
 1019 0272 02       		.byte	0x2
 1020 0273 23       		.byte	0x23
 1021 0274 00       		.uleb128 0
 1022 0275 08       		.uleb128 0x8
 1023 0276 CD020000 		.4byte	.LASF48
 1024 027a 07       		.byte	0x7
 1025 027b 12       		.byte	0x12
 1026 027c E2000000 		.4byte	0xe2
 1027 0280 02       		.byte	0x2
 1028 0281 23       		.byte	0x23
 1029 0282 04       		.uleb128 0x4
 1030 0283 08       		.uleb128 0x8
 1031 0284 3F000000 		.4byte	.LASF49
 1032 0288 07       		.byte	0x7
 1033 0289 13       		.byte	0x13
 1034 028a E2000000 		.4byte	0xe2
 1035 028e 02       		.byte	0x2
 1036 028f 23       		.byte	0x23
 1037 0290 08       		.uleb128 0x8
 1038 0291 08       		.uleb128 0x8
 1039 0292 9F010000 		.4byte	.LASF50
 1040 0296 07       		.byte	0x7
 1041 0297 14       		.byte	0x14
 1042 0298 E2000000 		.4byte	0xe2
 1043 029c 02       		.byte	0x2
 1044 029d 23       		.byte	0x23
 1045 029e 0C       		.uleb128 0xc
 1046 029f 00       		.byte	0
 1047 02a0 0C       		.uleb128 0xc
 1048 02a1 CC000000 		.4byte	0xcc
 1049 02a5 0D       		.uleb128 0xd
 1050 02a6 01       		.byte	0x1
 1051 02a7 08       		.byte	0x8
 1052 02a8 0702     		.2byte	0x207
 1053 02aa BB020000 		.4byte	0x2bb
 1054 02ae 0E       		.uleb128 0xe
 1055 02af 73030000 		.4byte	.LASF51
 1056 02b3 00       		.sleb128 0
 1057 02b4 0F       		.uleb128 0xf
 1058 02b5 53455400 		.ascii	"SET\000"
 1059 02b9 01       		.sleb128 1
 1060 02ba 00       		.byte	0
 1061 02bb 10       		.uleb128 0x10
 1062 02bc 1C       		.byte	0x1c
 1063 02bd 08       		.byte	0x8
 1064 02be D204     		.2byte	0x4d2
 1065 02c0 95030000 		.4byte	0x395
 1066 02c4 11       		.uleb128 0x11
 1067 02c5 535200   		.ascii	"SR\000"
 1068 02c8 08       		.byte	0x8
 1069 02c9 D404     		.2byte	0x4d4
 1070 02cb A0020000 		.4byte	0x2a0
ARM GAS  /var/folders/yt/6z6x8bjn5sjf5fbb45bk5m4c0000gn/T//cck0iJmI.s 			page 25


 1071 02cf 02       		.byte	0x2
 1072 02d0 23       		.byte	0x23
 1073 02d1 00       		.uleb128 0
 1074 02d2 12       		.uleb128 0x12
 1075 02d3 DE020000 		.4byte	.LASF52
 1076 02d7 08       		.byte	0x8
 1077 02d8 D504     		.2byte	0x4d5
 1078 02da CC000000 		.4byte	0xcc
 1079 02de 02       		.byte	0x2
 1080 02df 23       		.byte	0x23
 1081 02e0 02       		.uleb128 0x2
 1082 02e1 11       		.uleb128 0x11
 1083 02e2 445200   		.ascii	"DR\000"
 1084 02e5 08       		.byte	0x8
 1085 02e6 D604     		.2byte	0x4d6
 1086 02e8 A0020000 		.4byte	0x2a0
 1087 02ec 02       		.byte	0x2
 1088 02ed 23       		.byte	0x23
 1089 02ee 04       		.uleb128 0x4
 1090 02ef 12       		.uleb128 0x12
 1091 02f0 E8020000 		.4byte	.LASF53
 1092 02f4 08       		.byte	0x8
 1093 02f5 D704     		.2byte	0x4d7
 1094 02f7 CC000000 		.4byte	0xcc
 1095 02fb 02       		.byte	0x2
 1096 02fc 23       		.byte	0x23
 1097 02fd 06       		.uleb128 0x6
 1098 02fe 11       		.uleb128 0x11
 1099 02ff 42525200 		.ascii	"BRR\000"
 1100 0303 08       		.byte	0x8
 1101 0304 D804     		.2byte	0x4d8
 1102 0306 A0020000 		.4byte	0x2a0
 1103 030a 02       		.byte	0x2
 1104 030b 23       		.byte	0x23
 1105 030c 08       		.uleb128 0x8
 1106 030d 12       		.uleb128 0x12
 1107 030e F2020000 		.4byte	.LASF54
 1108 0312 08       		.byte	0x8
 1109 0313 D904     		.2byte	0x4d9
 1110 0315 CC000000 		.4byte	0xcc
 1111 0319 02       		.byte	0x2
 1112 031a 23       		.byte	0x23
 1113 031b 0A       		.uleb128 0xa
 1114 031c 11       		.uleb128 0x11
 1115 031d 43523100 		.ascii	"CR1\000"
 1116 0321 08       		.byte	0x8
 1117 0322 DA04     		.2byte	0x4da
 1118 0324 A0020000 		.4byte	0x2a0
 1119 0328 02       		.byte	0x2
 1120 0329 23       		.byte	0x23
 1121 032a 0C       		.uleb128 0xc
 1122 032b 12       		.uleb128 0x12
 1123 032c FC020000 		.4byte	.LASF55
 1124 0330 08       		.byte	0x8
 1125 0331 DB04     		.2byte	0x4db
 1126 0333 CC000000 		.4byte	0xcc
 1127 0337 02       		.byte	0x2
ARM GAS  /var/folders/yt/6z6x8bjn5sjf5fbb45bk5m4c0000gn/T//cck0iJmI.s 			page 26


 1128 0338 23       		.byte	0x23
 1129 0339 0E       		.uleb128 0xe
 1130 033a 11       		.uleb128 0x11
 1131 033b 43523200 		.ascii	"CR2\000"
 1132 033f 08       		.byte	0x8
 1133 0340 DC04     		.2byte	0x4dc
 1134 0342 A0020000 		.4byte	0x2a0
 1135 0346 02       		.byte	0x2
 1136 0347 23       		.byte	0x23
 1137 0348 10       		.uleb128 0x10
 1138 0349 12       		.uleb128 0x12
 1139 034a 06030000 		.4byte	.LASF56
 1140 034e 08       		.byte	0x8
 1141 034f DD04     		.2byte	0x4dd
 1142 0351 CC000000 		.4byte	0xcc
 1143 0355 02       		.byte	0x2
 1144 0356 23       		.byte	0x23
 1145 0357 12       		.uleb128 0x12
 1146 0358 11       		.uleb128 0x11
 1147 0359 43523300 		.ascii	"CR3\000"
 1148 035d 08       		.byte	0x8
 1149 035e DE04     		.2byte	0x4de
 1150 0360 A0020000 		.4byte	0x2a0
 1151 0364 02       		.byte	0x2
 1152 0365 23       		.byte	0x23
 1153 0366 14       		.uleb128 0x14
 1154 0367 12       		.uleb128 0x12
 1155 0368 69010000 		.4byte	.LASF57
 1156 036c 08       		.byte	0x8
 1157 036d DF04     		.2byte	0x4df
 1158 036f CC000000 		.4byte	0xcc
 1159 0373 02       		.byte	0x2
 1160 0374 23       		.byte	0x23
 1161 0375 16       		.uleb128 0x16
 1162 0376 12       		.uleb128 0x12
 1163 0377 18000000 		.4byte	.LASF58
 1164 037b 08       		.byte	0x8
 1165 037c E004     		.2byte	0x4e0
 1166 037e A0020000 		.4byte	0x2a0
 1167 0382 02       		.byte	0x2
 1168 0383 23       		.byte	0x23
 1169 0384 18       		.uleb128 0x18
 1170 0385 12       		.uleb128 0x12
 1171 0386 1A030000 		.4byte	.LASF59
 1172 038a 08       		.byte	0x8
 1173 038b E104     		.2byte	0x4e1
 1174 038d CC000000 		.4byte	0xcc
 1175 0391 02       		.byte	0x2
 1176 0392 23       		.byte	0x23
 1177 0393 1A       		.uleb128 0x1a
 1178 0394 00       		.byte	0
 1179 0395 13       		.uleb128 0x13
 1180 0396 C3000000 		.4byte	.LASF60
 1181 039a 08       		.byte	0x8
 1182 039b E204     		.2byte	0x4e2
 1183 039d BB020000 		.4byte	0x2bb
 1184 03a1 14       		.uleb128 0x14
ARM GAS  /var/folders/yt/6z6x8bjn5sjf5fbb45bk5m4c0000gn/T//cck0iJmI.s 			page 27


 1185 03a2 01       		.byte	0x1
 1186 03a3 A4020000 		.4byte	.LASF61
 1187 03a7 01       		.byte	0x1
 1188 03a8 33       		.byte	0x33
 1189 03a9 01       		.byte	0x1
 1190 03aa 25000000 		.4byte	0x25
 1191 03ae 00000000 		.4byte	.LFB30
 1192 03b2 06000000 		.4byte	.LFE30
 1193 03b6 02       		.byte	0x2
 1194 03b7 7D       		.byte	0x7d
 1195 03b8 00       		.sleb128 0
 1196 03b9 01       		.byte	0x1
 1197 03ba CE030000 		.4byte	0x3ce
 1198 03be 15       		.uleb128 0x15
 1199 03bf 02020000 		.4byte	.LASF63
 1200 03c3 01       		.byte	0x1
 1201 03c4 33       		.byte	0x33
 1202 03c5 25000000 		.4byte	0x25
 1203 03c9 00000000 		.4byte	.LLST0
 1204 03cd 00       		.byte	0
 1205 03ce 14       		.uleb128 0x14
 1206 03cf 01       		.byte	0x1
 1207 03d0 4A000000 		.4byte	.LASF62
 1208 03d4 01       		.byte	0x1
 1209 03d5 3A       		.byte	0x3a
 1210 03d6 01       		.byte	0x1
 1211 03d7 25000000 		.4byte	0x25
 1212 03db 06000000 		.4byte	.LFB31
 1213 03df 18000000 		.4byte	.LFE31
 1214 03e3 02       		.byte	0x2
 1215 03e4 7D       		.byte	0x7d
 1216 03e5 00       		.sleb128 0
 1217 03e6 01       		.byte	0x1
 1218 03e7 17040000 		.4byte	0x417
 1219 03eb 15       		.uleb128 0x15
 1220 03ec C8020000 		.4byte	.LASF64
 1221 03f0 01       		.byte	0x1
 1222 03f1 3A       		.byte	0x3a
 1223 03f2 B4000000 		.4byte	0xb4
 1224 03f6 21000000 		.4byte	.LLST1
 1225 03fa 16       		.uleb128 0x16
 1226 03fb 75020000 		.4byte	.LASF65
 1227 03ff 01       		.byte	0x1
 1228 0400 3A       		.byte	0x3a
 1229 0401 17040000 		.4byte	0x417
 1230 0405 01       		.byte	0x1
 1231 0406 51       		.byte	0x51
 1232 0407 17       		.uleb128 0x17
 1233 0408 656E7600 		.ascii	"env\000"
 1234 040c 01       		.byte	0x1
 1235 040d 3A       		.byte	0x3a
 1236 040e 17040000 		.4byte	0x417
 1237 0412 42000000 		.4byte	.LLST2
 1238 0416 00       		.byte	0
 1239 0417 05       		.uleb128 0x5
 1240 0418 04       		.byte	0x4
 1241 0419 B4000000 		.4byte	0xb4
ARM GAS  /var/folders/yt/6z6x8bjn5sjf5fbb45bk5m4c0000gn/T//cck0iJmI.s 			page 28


 1242 041d 18       		.uleb128 0x18
 1243 041e 01       		.byte	0x1
 1244 041f 57030000 		.4byte	.LASF67
 1245 0423 01       		.byte	0x1
 1246 0424 43       		.byte	0x43
 1247 0425 01       		.byte	0x1
 1248 0426 25000000 		.4byte	0x25
 1249 042a 18000000 		.4byte	.LFB32
 1250 042e 28000000 		.4byte	.LFE32
 1251 0432 02       		.byte	0x2
 1252 0433 7D       		.byte	0x7d
 1253 0434 00       		.sleb128 0
 1254 0435 01       		.byte	0x1
 1255 0436 14       		.uleb128 0x14
 1256 0437 01       		.byte	0x1
 1257 0438 B1000000 		.4byte	.LASF66
 1258 043c 01       		.byte	0x1
 1259 043d 4D       		.byte	0x4d
 1260 043e 01       		.byte	0x1
 1261 043f 25000000 		.4byte	0x25
 1262 0443 28000000 		.4byte	.LFB33
 1263 0447 32000000 		.4byte	.LFE33
 1264 044b 02       		.byte	0x2
 1265 044c 7D       		.byte	0x7d
 1266 044d 00       		.sleb128 0
 1267 044e 01       		.byte	0x1
 1268 044f 6F040000 		.4byte	0x46f
 1269 0453 15       		.uleb128 0x15
 1270 0454 02020000 		.4byte	.LASF63
 1271 0458 01       		.byte	0x1
 1272 0459 4D       		.byte	0x4d
 1273 045a 25000000 		.4byte	0x25
 1274 045e 63000000 		.4byte	.LLST3
 1275 0462 19       		.uleb128 0x19
 1276 0463 737400   		.ascii	"st\000"
 1277 0466 01       		.byte	0x1
 1278 0467 4D       		.byte	0x4d
 1279 0468 6F040000 		.4byte	0x46f
 1280 046c 01       		.byte	0x1
 1281 046d 51       		.byte	0x51
 1282 046e 00       		.byte	0
 1283 046f 05       		.uleb128 0x5
 1284 0470 04       		.byte	0x4
 1285 0471 50010000 		.4byte	0x150
 1286 0475 18       		.uleb128 0x18
 1287 0476 01       		.byte	0x1
 1288 0477 63030000 		.4byte	.LASF68
 1289 047b 01       		.byte	0x1
 1290 047c 57       		.byte	0x57
 1291 047d 01       		.byte	0x1
 1292 047e 25000000 		.4byte	0x25
 1293 0482 32000000 		.4byte	.LFB34
 1294 0486 36000000 		.4byte	.LFE34
 1295 048a 02       		.byte	0x2
 1296 048b 7D       		.byte	0x7d
 1297 048c 00       		.sleb128 0
 1298 048d 01       		.byte	0x1
ARM GAS  /var/folders/yt/6z6x8bjn5sjf5fbb45bk5m4c0000gn/T//cck0iJmI.s 			page 29


 1299 048e 14       		.uleb128 0x14
 1300 048f 01       		.byte	0x1
 1301 0490 8A010000 		.4byte	.LASF69
 1302 0494 01       		.byte	0x1
 1303 0495 5F       		.byte	0x5f
 1304 0496 01       		.byte	0x1
 1305 0497 25000000 		.4byte	0x25
 1306 049b 36000000 		.4byte	.LFB35
 1307 049f 4C000000 		.4byte	.LFE35
 1308 04a3 02       		.byte	0x2
 1309 04a4 7D       		.byte	0x7d
 1310 04a5 00       		.sleb128 0
 1311 04a6 01       		.byte	0x1
 1312 04a7 BB040000 		.4byte	0x4bb
 1313 04ab 15       		.uleb128 0x15
 1314 04ac 02020000 		.4byte	.LASF63
 1315 04b0 01       		.byte	0x1
 1316 04b1 5F       		.byte	0x5f
 1317 04b2 25000000 		.4byte	0x25
 1318 04b6 84000000 		.4byte	.LLST4
 1319 04ba 00       		.byte	0
 1320 04bb 14       		.uleb128 0x14
 1321 04bc 01       		.byte	0x1
 1322 04bd 55010000 		.4byte	.LASF70
 1323 04c1 01       		.byte	0x1
 1324 04c2 71       		.byte	0x71
 1325 04c3 01       		.byte	0x1
 1326 04c4 25000000 		.4byte	0x25
 1327 04c8 4C000000 		.4byte	.LFB36
 1328 04cc 5C000000 		.4byte	.LFE36
 1329 04d0 02       		.byte	0x2
 1330 04d1 7D       		.byte	0x7d
 1331 04d2 00       		.sleb128 0
 1332 04d3 01       		.byte	0x1
 1333 04d4 F5040000 		.4byte	0x4f5
 1334 04d8 17       		.uleb128 0x17
 1335 04d9 70696400 		.ascii	"pid\000"
 1336 04dd 01       		.byte	0x1
 1337 04de 71       		.byte	0x71
 1338 04df 25000000 		.4byte	0x25
 1339 04e3 A5000000 		.4byte	.LLST5
 1340 04e7 19       		.uleb128 0x19
 1341 04e8 73696700 		.ascii	"sig\000"
 1342 04ec 01       		.byte	0x1
 1343 04ed 71       		.byte	0x71
 1344 04ee 25000000 		.4byte	0x25
 1345 04f2 01       		.byte	0x1
 1346 04f3 51       		.byte	0x51
 1347 04f4 00       		.byte	0
 1348 04f5 14       		.uleb128 0x14
 1349 04f6 01       		.byte	0x1
 1350 04f7 E9030000 		.4byte	.LASF71
 1351 04fb 01       		.byte	0x1
 1352 04fc 7B       		.byte	0x7b
 1353 04fd 01       		.byte	0x1
 1354 04fe 25000000 		.4byte	0x25
 1355 0502 5C000000 		.4byte	.LFB37
ARM GAS  /var/folders/yt/6z6x8bjn5sjf5fbb45bk5m4c0000gn/T//cck0iJmI.s 			page 30


 1356 0506 6C000000 		.4byte	.LFE37
 1357 050a 02       		.byte	0x2
 1358 050b 7D       		.byte	0x7d
 1359 050c 00       		.sleb128 0
 1360 050d 01       		.byte	0x1
 1361 050e 2F050000 		.4byte	0x52f
 1362 0512 17       		.uleb128 0x17
 1363 0513 6F6C6400 		.ascii	"old\000"
 1364 0517 01       		.byte	0x1
 1365 0518 7B       		.byte	0x7b
 1366 0519 B4000000 		.4byte	0xb4
 1367 051d C6000000 		.4byte	.LLST6
 1368 0521 19       		.uleb128 0x19
 1369 0522 6E657700 		.ascii	"new\000"
 1370 0526 01       		.byte	0x1
 1371 0527 7B       		.byte	0x7b
 1372 0528 B4000000 		.4byte	0xb4
 1373 052c 01       		.byte	0x1
 1374 052d 51       		.byte	0x51
 1375 052e 00       		.byte	0
 1376 052f 14       		.uleb128 0x14
 1377 0530 01       		.byte	0x1
 1378 0531 38030000 		.4byte	.LASF72
 1379 0535 01       		.byte	0x1
 1380 0536 84       		.byte	0x84
 1381 0537 01       		.byte	0x1
 1382 0538 25000000 		.4byte	0x25
 1383 053c 6C000000 		.4byte	.LFB38
 1384 0540 70000000 		.4byte	.LFE38
 1385 0544 02       		.byte	0x2
 1386 0545 7D       		.byte	0x7d
 1387 0546 00       		.sleb128 0
 1388 0547 01       		.byte	0x1
 1389 0548 76050000 		.4byte	0x576
 1390 054c 15       		.uleb128 0x15
 1391 054d 02020000 		.4byte	.LASF63
 1392 0551 01       		.byte	0x1
 1393 0552 84       		.byte	0x84
 1394 0553 25000000 		.4byte	0x25
 1395 0557 E7000000 		.4byte	.LLST7
 1396 055b 19       		.uleb128 0x19
 1397 055c 70747200 		.ascii	"ptr\000"
 1398 0560 01       		.byte	0x1
 1399 0561 84       		.byte	0x84
 1400 0562 25000000 		.4byte	0x25
 1401 0566 01       		.byte	0x1
 1402 0567 51       		.byte	0x51
 1403 0568 19       		.uleb128 0x19
 1404 0569 64697200 		.ascii	"dir\000"
 1405 056d 01       		.byte	0x1
 1406 056e 84       		.byte	0x84
 1407 056f 25000000 		.4byte	0x25
 1408 0573 01       		.byte	0x1
 1409 0574 52       		.byte	0x52
 1410 0575 00       		.byte	0
 1411 0576 1A       		.uleb128 0x1a
 1412 0577 01       		.byte	0x1
ARM GAS  /var/folders/yt/6z6x8bjn5sjf5fbb45bk5m4c0000gn/T//cck0iJmI.s 			page 31


 1413 0578 B0020000 		.4byte	.LASF73
 1414 057c 01       		.byte	0x1
 1415 057d 8D       		.byte	0x8d
 1416 057e 01       		.byte	0x1
 1417 057f F8000000 		.4byte	0xf8
 1418 0583 70000000 		.4byte	.LFB39
 1419 0587 AC000000 		.4byte	.LFE39
 1420 058b 08010000 		.4byte	.LLST8
 1421 058f 01       		.byte	0x1
 1422 0590 E9050000 		.4byte	0x5e9
 1423 0594 15       		.uleb128 0x15
 1424 0595 EF010000 		.4byte	.LASF74
 1425 0599 01       		.byte	0x1
 1426 059a 8D       		.byte	0x8d
 1427 059b 25000000 		.4byte	0x25
 1428 059f 28010000 		.4byte	.LLST9
 1429 05a3 1B       		.uleb128 0x1b
 1430 05a4 E3030000 		.4byte	.LASF86
 1431 05a8 01       		.byte	0x1
 1432 05a9 8F       		.byte	0x8f
 1433 05aa BA000000 		.4byte	0xba
 1434 05ae 01       		.byte	0x1
 1435 05af 01       		.byte	0x1
 1436 05b0 1C       		.uleb128 0x1c
 1437 05b1 15020000 		.4byte	.LASF75
 1438 05b5 01       		.byte	0x1
 1439 05b6 90       		.byte	0x90
 1440 05b7 B4000000 		.4byte	0xb4
 1441 05bb 05       		.byte	0x5
 1442 05bc 03       		.byte	0x3
 1443 05bd 00000000 		.4byte	heap_end.6113
 1444 05c1 1D       		.uleb128 0x1d
 1445 05c2 1D000000 		.4byte	.LASF76
 1446 05c6 01       		.byte	0x1
 1447 05c7 91       		.byte	0x91
 1448 05c8 B4000000 		.4byte	0xb4
 1449 05cc 54010000 		.4byte	.LLST10
 1450 05d0 1D       		.uleb128 0x1d
 1451 05d1 5D020000 		.4byte	.LASF77
 1452 05d5 01       		.byte	0x1
 1453 05d6 98       		.byte	0x98
 1454 05d7 B4000000 		.4byte	0xb4
 1455 05db 67010000 		.4byte	.LLST11
 1456 05df 1E       		.uleb128 0x1e
 1457 05e0 84000000 		.4byte	.LVL17
 1458 05e4 35080000 		.4byte	0x835
 1459 05e8 00       		.byte	0
 1460 05e9 1A       		.uleb128 0x1a
 1461 05ea 01       		.byte	0x1
 1462 05eb B3010000 		.4byte	.LASF78
 1463 05ef 01       		.byte	0x1
 1464 05f0 AE       		.byte	0xae
 1465 05f1 01       		.byte	0x1
 1466 05f2 25000000 		.4byte	0x25
 1467 05f6 AC000000 		.4byte	.LFB40
 1468 05fa E4000000 		.4byte	.LFE40
 1469 05fe 7A010000 		.4byte	.LLST12
ARM GAS  /var/folders/yt/6z6x8bjn5sjf5fbb45bk5m4c0000gn/T//cck0iJmI.s 			page 32


 1470 0602 01       		.byte	0x1
 1471 0603 68060000 		.4byte	0x668
 1472 0607 15       		.uleb128 0x15
 1473 0608 02020000 		.4byte	.LASF63
 1474 060c 01       		.byte	0x1
 1475 060d AE       		.byte	0xae
 1476 060e 25000000 		.4byte	0x25
 1477 0612 9A010000 		.4byte	.LLST13
 1478 0616 17       		.uleb128 0x17
 1479 0617 70747200 		.ascii	"ptr\000"
 1480 061b 01       		.byte	0x1
 1481 061c AE       		.byte	0xae
 1482 061d B4000000 		.4byte	0xb4
 1483 0621 D4010000 		.4byte	.LLST14
 1484 0625 17       		.uleb128 0x17
 1485 0626 6C656E00 		.ascii	"len\000"
 1486 062a 01       		.byte	0x1
 1487 062b AE       		.byte	0xae
 1488 062c 25000000 		.4byte	0x25
 1489 0630 15020000 		.4byte	.LLST15
 1490 0634 1F       		.uleb128 0x1f
 1491 0635 6E00     		.ascii	"n\000"
 1492 0637 01       		.byte	0x1
 1493 0638 AF       		.byte	0xaf
 1494 0639 25000000 		.4byte	0x25
 1495 063d 41020000 		.4byte	.LLST16
 1496 0641 1F       		.uleb128 0x1f
 1497 0642 6E756D00 		.ascii	"num\000"
 1498 0646 01       		.byte	0x1
 1499 0647 B0       		.byte	0xb0
 1500 0648 25000000 		.4byte	0x25
 1501 064c 8F020000 		.4byte	.LLST17
 1502 0650 20       		.uleb128 0x20
 1503 0651 B8000000 		.4byte	.LBB2
 1504 0655 C8000000 		.4byte	.LBE2
 1505 0659 1F       		.uleb128 0x1f
 1506 065a 6300     		.ascii	"c\000"
 1507 065c 01       		.byte	0x1
 1508 065d B7       		.byte	0xb7
 1509 065e BA000000 		.4byte	0xba
 1510 0662 F5020000 		.4byte	.LLST18
 1511 0666 00       		.byte	0
 1512 0667 00       		.byte	0
 1513 0668 14       		.uleb128 0x14
 1514 0669 01       		.byte	0x1
 1515 066a 59000000 		.4byte	.LASF79
 1516 066e 01       		.byte	0x1
 1517 066f D0       		.byte	0xd0
 1518 0670 01       		.byte	0x1
 1519 0671 25000000 		.4byte	0x25
 1520 0675 E4000000 		.4byte	.LFB41
 1521 0679 EE000000 		.4byte	.LFE41
 1522 067d 02       		.byte	0x2
 1523 067e 7D       		.byte	0x7d
 1524 067f 00       		.sleb128 0
 1525 0680 01       		.byte	0x1
 1526 0681 A1060000 		.4byte	0x6a1
ARM GAS  /var/folders/yt/6z6x8bjn5sjf5fbb45bk5m4c0000gn/T//cck0iJmI.s 			page 33


 1527 0685 15       		.uleb128 0x15
 1528 0686 4B020000 		.4byte	.LASF80
 1529 068a 01       		.byte	0x1
 1530 068b D0       		.byte	0xd0
 1531 068c C1000000 		.4byte	0xc1
 1532 0690 08030000 		.4byte	.LLST19
 1533 0694 19       		.uleb128 0x19
 1534 0695 737400   		.ascii	"st\000"
 1535 0698 01       		.byte	0x1
 1536 0699 D0       		.byte	0xd0
 1537 069a 6F040000 		.4byte	0x46f
 1538 069e 01       		.byte	0x1
 1539 069f 51       		.byte	0x51
 1540 06a0 00       		.byte	0
 1541 06a1 14       		.uleb128 0x14
 1542 06a2 01       		.byte	0x1
 1543 06a3 52000000 		.4byte	.LASF81
 1544 06a7 01       		.byte	0x1
 1545 06a8 DA       		.byte	0xda
 1546 06a9 01       		.byte	0x1
 1547 06aa E2000000 		.4byte	0xe2
 1548 06ae EE000000 		.4byte	.LFB42
 1549 06b2 F4000000 		.4byte	.LFE42
 1550 06b6 02       		.byte	0x2
 1551 06b7 7D       		.byte	0x7d
 1552 06b8 00       		.sleb128 0
 1553 06b9 01       		.byte	0x1
 1554 06ba CE060000 		.4byte	0x6ce
 1555 06be 17       		.uleb128 0x17
 1556 06bf 62756600 		.ascii	"buf\000"
 1557 06c3 01       		.byte	0x1
 1558 06c4 DA       		.byte	0xda
 1559 06c5 CE060000 		.4byte	0x6ce
 1560 06c9 29030000 		.4byte	.LLST20
 1561 06cd 00       		.byte	0
 1562 06ce 05       		.uleb128 0x5
 1563 06cf 04       		.byte	0x4
 1564 06d0 5B020000 		.4byte	0x25b
 1565 06d4 14       		.uleb128 0x14
 1566 06d5 01       		.byte	0x1
 1567 06d6 DB030000 		.4byte	.LASF82
 1568 06da 01       		.byte	0x1
 1569 06db E2       		.byte	0xe2
 1570 06dc 01       		.byte	0x1
 1571 06dd 25000000 		.4byte	0x25
 1572 06e1 F4000000 		.4byte	.LFB43
 1573 06e5 04010000 		.4byte	.LFE43
 1574 06e9 02       		.byte	0x2
 1575 06ea 7D       		.byte	0x7d
 1576 06eb 00       		.sleb128 0
 1577 06ec 01       		.byte	0x1
 1578 06ed 01070000 		.4byte	0x701
 1579 06f1 15       		.uleb128 0x15
 1580 06f2 C8020000 		.4byte	.LASF64
 1581 06f6 01       		.byte	0x1
 1582 06f7 E2       		.byte	0xe2
 1583 06f8 B4000000 		.4byte	0xb4
ARM GAS  /var/folders/yt/6z6x8bjn5sjf5fbb45bk5m4c0000gn/T//cck0iJmI.s 			page 34


 1584 06fc 4A030000 		.4byte	.LLST21
 1585 0700 00       		.byte	0
 1586 0701 14       		.uleb128 0x14
 1587 0702 01       		.byte	0x1
 1588 0703 E9010000 		.4byte	.LASF83
 1589 0707 01       		.byte	0x1
 1590 0708 EB       		.byte	0xeb
 1591 0709 01       		.byte	0x1
 1592 070a 25000000 		.4byte	0x25
 1593 070e 04010000 		.4byte	.LFB44
 1594 0712 14010000 		.4byte	.LFE44
 1595 0716 02       		.byte	0x2
 1596 0717 7D       		.byte	0x7d
 1597 0718 00       		.sleb128 0
 1598 0719 01       		.byte	0x1
 1599 071a 2E070000 		.4byte	0x72e
 1600 071e 15       		.uleb128 0x15
 1601 071f 7A020000 		.4byte	.LASF84
 1602 0723 01       		.byte	0x1
 1603 0724 EB       		.byte	0xeb
 1604 0725 2E070000 		.4byte	0x72e
 1605 0729 6B030000 		.4byte	.LLST22
 1606 072d 00       		.byte	0
 1607 072e 05       		.uleb128 0x5
 1608 072f 04       		.byte	0x4
 1609 0730 25000000 		.4byte	0x25
 1610 0734 1A       		.uleb128 0x1a
 1611 0735 01       		.byte	0x1
 1612 0736 A3000000 		.4byte	.LASF85
 1613 073a 01       		.byte	0x1
 1614 073b F5       		.byte	0xf5
 1615 073c 01       		.byte	0x1
 1616 073d 25000000 		.4byte	0x25
 1617 0741 14010000 		.4byte	.LFB45
 1618 0745 68010000 		.4byte	.LFE45
 1619 0749 8C030000 		.4byte	.LLST23
 1620 074d 01       		.byte	0x1
 1621 074e 8D070000 		.4byte	0x78d
 1622 0752 15       		.uleb128 0x15
 1623 0753 02020000 		.4byte	.LASF63
 1624 0757 01       		.byte	0x1
 1625 0758 F5       		.byte	0xf5
 1626 0759 25000000 		.4byte	0x25
 1627 075d AC030000 		.4byte	.LLST24
 1628 0761 17       		.uleb128 0x17
 1629 0762 70747200 		.ascii	"ptr\000"
 1630 0766 01       		.byte	0x1
 1631 0767 F5       		.byte	0xf5
 1632 0768 B4000000 		.4byte	0xb4
 1633 076c E6030000 		.4byte	.LLST25
 1634 0770 17       		.uleb128 0x17
 1635 0771 6C656E00 		.ascii	"len\000"
 1636 0775 01       		.byte	0x1
 1637 0776 F5       		.byte	0xf5
 1638 0777 25000000 		.4byte	0x25
 1639 077b 3F040000 		.4byte	.LLST26
 1640 077f 1F       		.uleb128 0x1f
ARM GAS  /var/folders/yt/6z6x8bjn5sjf5fbb45bk5m4c0000gn/T//cck0iJmI.s 			page 35


 1641 0780 6E00     		.ascii	"n\000"
 1642 0782 01       		.byte	0x1
 1643 0783 F6       		.byte	0xf6
 1644 0784 25000000 		.4byte	0x25
 1645 0788 60040000 		.4byte	.LLST27
 1646 078c 00       		.byte	0
 1647 078d 21       		.uleb128 0x21
 1648 078e 01       		.byte	0x1
 1649 078f 8F000000 		.4byte	.LASF94
 1650 0793 09       		.byte	0x9
 1651 0794 12       		.byte	0x12
 1652 0795 01       		.byte	0x1
 1653 0796 68010000 		.4byte	.LFB29
 1654 079a 7C010000 		.4byte	.LFE29
 1655 079e E0040000 		.4byte	.LLST28
 1656 07a2 01       		.byte	0x1
 1657 07a3 D4070000 		.4byte	0x7d4
 1658 07a7 15       		.uleb128 0x15
 1659 07a8 7A020000 		.4byte	.LASF84
 1660 07ac 01       		.byte	0x1
 1661 07ad 2C       		.byte	0x2c
 1662 07ae 25000000 		.4byte	0x25
 1663 07b2 00050000 		.4byte	.LLST29
 1664 07b6 22       		.uleb128 0x22
 1665 07b7 74010000 		.4byte	.LVL55
 1666 07bb 34070000 		.4byte	0x734
 1667 07bf 23       		.uleb128 0x23
 1668 07c0 01       		.byte	0x1
 1669 07c1 52       		.byte	0x52
 1670 07c2 01       		.byte	0x1
 1671 07c3 34       		.byte	0x34
 1672 07c4 23       		.uleb128 0x23
 1673 07c5 01       		.byte	0x1
 1674 07c6 51       		.byte	0x51
 1675 07c7 05       		.byte	0x5
 1676 07c8 03       		.byte	0x3
 1677 07c9 00000000 		.4byte	.LC0
 1678 07cd 23       		.uleb128 0x23
 1679 07ce 01       		.byte	0x1
 1680 07cf 50       		.byte	0x50
 1681 07d0 01       		.byte	0x1
 1682 07d1 31       		.byte	0x31
 1683 07d2 00       		.byte	0
 1684 07d3 00       		.byte	0
 1685 07d4 24       		.uleb128 0x24
 1686 07d5 10000000 		.4byte	.LASF87
 1687 07d9 09       		.byte	0x9
 1688 07da 10       		.byte	0x10
 1689 07db 17040000 		.4byte	0x417
 1690 07df 01       		.byte	0x1
 1691 07e0 05       		.byte	0x5
 1692 07e1 03       		.byte	0x3
 1693 07e2 00000000 		.4byte	environ
 1694 07e6 25       		.uleb128 0x25
 1695 07e7 3F030000 		.4byte	.LASF88
 1696 07eb 0A       		.byte	0xa
 1697 07ec CF06     		.2byte	0x6cf
ARM GAS  /var/folders/yt/6z6x8bjn5sjf5fbb45bk5m4c0000gn/T//cck0iJmI.s 			page 36


 1698 07ee F4070000 		.4byte	0x7f4
 1699 07f2 01       		.byte	0x1
 1700 07f3 01       		.byte	0x1
 1701 07f4 0C       		.uleb128 0xc
 1702 07f5 25000000 		.4byte	0x25
 1703 07f9 1B       		.uleb128 0x1b
 1704 07fa 94020000 		.4byte	.LASF89
 1705 07fe 01       		.byte	0x1
 1706 07ff 1D       		.byte	0x1d
 1707 0800 25000000 		.4byte	0x25
 1708 0804 01       		.byte	0x1
 1709 0805 01       		.byte	0x1
 1710 0806 09       		.uleb128 0x9
 1711 0807 B4000000 		.4byte	0xb4
 1712 080b 16080000 		.4byte	0x816
 1713 080f 0A       		.uleb128 0xa
 1714 0810 AD000000 		.4byte	0xad
 1715 0814 00       		.byte	0
 1716 0815 00       		.byte	0
 1717 0816 24       		.uleb128 0x24
 1718 0817 5B010000 		.4byte	.LASF90
 1719 081b 01       		.byte	0x1
 1720 081c 24       		.byte	0x24
 1721 081d 06080000 		.4byte	0x806
 1722 0821 01       		.byte	0x1
 1723 0822 05       		.byte	0x5
 1724 0823 03       		.byte	0x3
 1725 0824 00000000 		.4byte	__env
 1726 0828 1B       		.uleb128 0x1b
 1727 0829 E3030000 		.4byte	.LASF86
 1728 082d 01       		.byte	0x1
 1729 082e 8F       		.byte	0x8f
 1730 082f BA000000 		.4byte	0xba
 1731 0833 01       		.byte	0x1
 1732 0834 01       		.byte	0x1
 1733 0835 26       		.uleb128 0x26
 1734 0836 01       		.byte	0x1
 1735 0837 D1030000 		.4byte	.LASF95
 1736 083b 01       		.byte	0x1
 1737 083c 0E       		.byte	0xe
 1738 083d 01       		.byte	0x1
 1739 083e D7000000 		.4byte	0xd7
 1740 0842 01       		.byte	0x1
 1741 0843 00       		.byte	0
 1742              		.section	.debug_abbrev,"",%progbits
 1743              	.Ldebug_abbrev0:
 1744 0000 01       		.uleb128 0x1
 1745 0001 11       		.uleb128 0x11
 1746 0002 01       		.byte	0x1
 1747 0003 25       		.uleb128 0x25
 1748 0004 0E       		.uleb128 0xe
 1749 0005 13       		.uleb128 0x13
 1750 0006 0B       		.uleb128 0xb
 1751 0007 03       		.uleb128 0x3
 1752 0008 0E       		.uleb128 0xe
 1753 0009 1B       		.uleb128 0x1b
 1754 000a 0E       		.uleb128 0xe
ARM GAS  /var/folders/yt/6z6x8bjn5sjf5fbb45bk5m4c0000gn/T//cck0iJmI.s 			page 37


 1755 000b 11       		.uleb128 0x11
 1756 000c 01       		.uleb128 0x1
 1757 000d 12       		.uleb128 0x12
 1758 000e 01       		.uleb128 0x1
 1759 000f 10       		.uleb128 0x10
 1760 0010 06       		.uleb128 0x6
 1761 0011 00       		.byte	0
 1762 0012 00       		.byte	0
 1763 0013 02       		.uleb128 0x2
 1764 0014 24       		.uleb128 0x24
 1765 0015 00       		.byte	0
 1766 0016 0B       		.uleb128 0xb
 1767 0017 0B       		.uleb128 0xb
 1768 0018 3E       		.uleb128 0x3e
 1769 0019 0B       		.uleb128 0xb
 1770 001a 03       		.uleb128 0x3
 1771 001b 08       		.uleb128 0x8
 1772 001c 00       		.byte	0
 1773 001d 00       		.byte	0
 1774 001e 03       		.uleb128 0x3
 1775 001f 24       		.uleb128 0x24
 1776 0020 00       		.byte	0
 1777 0021 0B       		.uleb128 0xb
 1778 0022 0B       		.uleb128 0xb
 1779 0023 3E       		.uleb128 0x3e
 1780 0024 0B       		.uleb128 0xb
 1781 0025 03       		.uleb128 0x3
 1782 0026 0E       		.uleb128 0xe
 1783 0027 00       		.byte	0
 1784 0028 00       		.byte	0
 1785 0029 04       		.uleb128 0x4
 1786 002a 16       		.uleb128 0x16
 1787 002b 00       		.byte	0
 1788 002c 03       		.uleb128 0x3
 1789 002d 0E       		.uleb128 0xe
 1790 002e 3A       		.uleb128 0x3a
 1791 002f 0B       		.uleb128 0xb
 1792 0030 3B       		.uleb128 0x3b
 1793 0031 0B       		.uleb128 0xb
 1794 0032 49       		.uleb128 0x49
 1795 0033 13       		.uleb128 0x13
 1796 0034 00       		.byte	0
 1797 0035 00       		.byte	0
 1798 0036 05       		.uleb128 0x5
 1799 0037 0F       		.uleb128 0xf
 1800 0038 00       		.byte	0
 1801 0039 0B       		.uleb128 0xb
 1802 003a 0B       		.uleb128 0xb
 1803 003b 49       		.uleb128 0x49
 1804 003c 13       		.uleb128 0x13
 1805 003d 00       		.byte	0
 1806 003e 00       		.byte	0
 1807 003f 06       		.uleb128 0x6
 1808 0040 26       		.uleb128 0x26
 1809 0041 00       		.byte	0
 1810 0042 49       		.uleb128 0x49
 1811 0043 13       		.uleb128 0x13
ARM GAS  /var/folders/yt/6z6x8bjn5sjf5fbb45bk5m4c0000gn/T//cck0iJmI.s 			page 38


 1812 0044 00       		.byte	0
 1813 0045 00       		.byte	0
 1814 0046 07       		.uleb128 0x7
 1815 0047 13       		.uleb128 0x13
 1816 0048 01       		.byte	0x1
 1817 0049 03       		.uleb128 0x3
 1818 004a 0E       		.uleb128 0xe
 1819 004b 0B       		.uleb128 0xb
 1820 004c 0B       		.uleb128 0xb
 1821 004d 3A       		.uleb128 0x3a
 1822 004e 0B       		.uleb128 0xb
 1823 004f 3B       		.uleb128 0x3b
 1824 0050 0B       		.uleb128 0xb
 1825 0051 01       		.uleb128 0x1
 1826 0052 13       		.uleb128 0x13
 1827 0053 00       		.byte	0
 1828 0054 00       		.byte	0
 1829 0055 08       		.uleb128 0x8
 1830 0056 0D       		.uleb128 0xd
 1831 0057 00       		.byte	0
 1832 0058 03       		.uleb128 0x3
 1833 0059 0E       		.uleb128 0xe
 1834 005a 3A       		.uleb128 0x3a
 1835 005b 0B       		.uleb128 0xb
 1836 005c 3B       		.uleb128 0x3b
 1837 005d 0B       		.uleb128 0xb
 1838 005e 49       		.uleb128 0x49
 1839 005f 13       		.uleb128 0x13
 1840 0060 38       		.uleb128 0x38
 1841 0061 0A       		.uleb128 0xa
 1842 0062 00       		.byte	0
 1843 0063 00       		.byte	0
 1844 0064 09       		.uleb128 0x9
 1845 0065 01       		.uleb128 0x1
 1846 0066 01       		.byte	0x1
 1847 0067 49       		.uleb128 0x49
 1848 0068 13       		.uleb128 0x13
 1849 0069 01       		.uleb128 0x1
 1850 006a 13       		.uleb128 0x13
 1851 006b 00       		.byte	0
 1852 006c 00       		.byte	0
 1853 006d 0A       		.uleb128 0xa
 1854 006e 21       		.uleb128 0x21
 1855 006f 00       		.byte	0
 1856 0070 49       		.uleb128 0x49
 1857 0071 13       		.uleb128 0x13
 1858 0072 2F       		.uleb128 0x2f
 1859 0073 0B       		.uleb128 0xb
 1860 0074 00       		.byte	0
 1861 0075 00       		.byte	0
 1862 0076 0B       		.uleb128 0xb
 1863 0077 13       		.uleb128 0x13
 1864 0078 01       		.byte	0x1
 1865 0079 03       		.uleb128 0x3
 1866 007a 08       		.uleb128 0x8
 1867 007b 0B       		.uleb128 0xb
 1868 007c 0B       		.uleb128 0xb
ARM GAS  /var/folders/yt/6z6x8bjn5sjf5fbb45bk5m4c0000gn/T//cck0iJmI.s 			page 39


 1869 007d 3A       		.uleb128 0x3a
 1870 007e 0B       		.uleb128 0xb
 1871 007f 3B       		.uleb128 0x3b
 1872 0080 0B       		.uleb128 0xb
 1873 0081 01       		.uleb128 0x1
 1874 0082 13       		.uleb128 0x13
 1875 0083 00       		.byte	0
 1876 0084 00       		.byte	0
 1877 0085 0C       		.uleb128 0xc
 1878 0086 35       		.uleb128 0x35
 1879 0087 00       		.byte	0
 1880 0088 49       		.uleb128 0x49
 1881 0089 13       		.uleb128 0x13
 1882 008a 00       		.byte	0
 1883 008b 00       		.byte	0
 1884 008c 0D       		.uleb128 0xd
 1885 008d 04       		.uleb128 0x4
 1886 008e 01       		.byte	0x1
 1887 008f 0B       		.uleb128 0xb
 1888 0090 0B       		.uleb128 0xb
 1889 0091 3A       		.uleb128 0x3a
 1890 0092 0B       		.uleb128 0xb
 1891 0093 3B       		.uleb128 0x3b
 1892 0094 05       		.uleb128 0x5
 1893 0095 01       		.uleb128 0x1
 1894 0096 13       		.uleb128 0x13
 1895 0097 00       		.byte	0
 1896 0098 00       		.byte	0
 1897 0099 0E       		.uleb128 0xe
 1898 009a 28       		.uleb128 0x28
 1899 009b 00       		.byte	0
 1900 009c 03       		.uleb128 0x3
 1901 009d 0E       		.uleb128 0xe
 1902 009e 1C       		.uleb128 0x1c
 1903 009f 0D       		.uleb128 0xd
 1904 00a0 00       		.byte	0
 1905 00a1 00       		.byte	0
 1906 00a2 0F       		.uleb128 0xf
 1907 00a3 28       		.uleb128 0x28
 1908 00a4 00       		.byte	0
 1909 00a5 03       		.uleb128 0x3
 1910 00a6 08       		.uleb128 0x8
 1911 00a7 1C       		.uleb128 0x1c
 1912 00a8 0D       		.uleb128 0xd
 1913 00a9 00       		.byte	0
 1914 00aa 00       		.byte	0
 1915 00ab 10       		.uleb128 0x10
 1916 00ac 13       		.uleb128 0x13
 1917 00ad 01       		.byte	0x1
 1918 00ae 0B       		.uleb128 0xb
 1919 00af 0B       		.uleb128 0xb
 1920 00b0 3A       		.uleb128 0x3a
 1921 00b1 0B       		.uleb128 0xb
 1922 00b2 3B       		.uleb128 0x3b
 1923 00b3 05       		.uleb128 0x5
 1924 00b4 01       		.uleb128 0x1
 1925 00b5 13       		.uleb128 0x13
ARM GAS  /var/folders/yt/6z6x8bjn5sjf5fbb45bk5m4c0000gn/T//cck0iJmI.s 			page 40


 1926 00b6 00       		.byte	0
 1927 00b7 00       		.byte	0
 1928 00b8 11       		.uleb128 0x11
 1929 00b9 0D       		.uleb128 0xd
 1930 00ba 00       		.byte	0
 1931 00bb 03       		.uleb128 0x3
 1932 00bc 08       		.uleb128 0x8
 1933 00bd 3A       		.uleb128 0x3a
 1934 00be 0B       		.uleb128 0xb
 1935 00bf 3B       		.uleb128 0x3b
 1936 00c0 05       		.uleb128 0x5
 1937 00c1 49       		.uleb128 0x49
 1938 00c2 13       		.uleb128 0x13
 1939 00c3 38       		.uleb128 0x38
 1940 00c4 0A       		.uleb128 0xa
 1941 00c5 00       		.byte	0
 1942 00c6 00       		.byte	0
 1943 00c7 12       		.uleb128 0x12
 1944 00c8 0D       		.uleb128 0xd
 1945 00c9 00       		.byte	0
 1946 00ca 03       		.uleb128 0x3
 1947 00cb 0E       		.uleb128 0xe
 1948 00cc 3A       		.uleb128 0x3a
 1949 00cd 0B       		.uleb128 0xb
 1950 00ce 3B       		.uleb128 0x3b
 1951 00cf 05       		.uleb128 0x5
 1952 00d0 49       		.uleb128 0x49
 1953 00d1 13       		.uleb128 0x13
 1954 00d2 38       		.uleb128 0x38
 1955 00d3 0A       		.uleb128 0xa
 1956 00d4 00       		.byte	0
 1957 00d5 00       		.byte	0
 1958 00d6 13       		.uleb128 0x13
 1959 00d7 16       		.uleb128 0x16
 1960 00d8 00       		.byte	0
 1961 00d9 03       		.uleb128 0x3
 1962 00da 0E       		.uleb128 0xe
 1963 00db 3A       		.uleb128 0x3a
 1964 00dc 0B       		.uleb128 0xb
 1965 00dd 3B       		.uleb128 0x3b
 1966 00de 05       		.uleb128 0x5
 1967 00df 49       		.uleb128 0x49
 1968 00e0 13       		.uleb128 0x13
 1969 00e1 00       		.byte	0
 1970 00e2 00       		.byte	0
 1971 00e3 14       		.uleb128 0x14
 1972 00e4 2E       		.uleb128 0x2e
 1973 00e5 01       		.byte	0x1
 1974 00e6 3F       		.uleb128 0x3f
 1975 00e7 0C       		.uleb128 0xc
 1976 00e8 03       		.uleb128 0x3
 1977 00e9 0E       		.uleb128 0xe
 1978 00ea 3A       		.uleb128 0x3a
 1979 00eb 0B       		.uleb128 0xb
 1980 00ec 3B       		.uleb128 0x3b
 1981 00ed 0B       		.uleb128 0xb
 1982 00ee 27       		.uleb128 0x27
ARM GAS  /var/folders/yt/6z6x8bjn5sjf5fbb45bk5m4c0000gn/T//cck0iJmI.s 			page 41


 1983 00ef 0C       		.uleb128 0xc
 1984 00f0 49       		.uleb128 0x49
 1985 00f1 13       		.uleb128 0x13
 1986 00f2 11       		.uleb128 0x11
 1987 00f3 01       		.uleb128 0x1
 1988 00f4 12       		.uleb128 0x12
 1989 00f5 01       		.uleb128 0x1
 1990 00f6 40       		.uleb128 0x40
 1991 00f7 0A       		.uleb128 0xa
 1992 00f8 9742     		.uleb128 0x2117
 1993 00fa 0C       		.uleb128 0xc
 1994 00fb 01       		.uleb128 0x1
 1995 00fc 13       		.uleb128 0x13
 1996 00fd 00       		.byte	0
 1997 00fe 00       		.byte	0
 1998 00ff 15       		.uleb128 0x15
 1999 0100 05       		.uleb128 0x5
 2000 0101 00       		.byte	0
 2001 0102 03       		.uleb128 0x3
 2002 0103 0E       		.uleb128 0xe
 2003 0104 3A       		.uleb128 0x3a
 2004 0105 0B       		.uleb128 0xb
 2005 0106 3B       		.uleb128 0x3b
 2006 0107 0B       		.uleb128 0xb
 2007 0108 49       		.uleb128 0x49
 2008 0109 13       		.uleb128 0x13
 2009 010a 02       		.uleb128 0x2
 2010 010b 06       		.uleb128 0x6
 2011 010c 00       		.byte	0
 2012 010d 00       		.byte	0
 2013 010e 16       		.uleb128 0x16
 2014 010f 05       		.uleb128 0x5
 2015 0110 00       		.byte	0
 2016 0111 03       		.uleb128 0x3
 2017 0112 0E       		.uleb128 0xe
 2018 0113 3A       		.uleb128 0x3a
 2019 0114 0B       		.uleb128 0xb
 2020 0115 3B       		.uleb128 0x3b
 2021 0116 0B       		.uleb128 0xb
 2022 0117 49       		.uleb128 0x49
 2023 0118 13       		.uleb128 0x13
 2024 0119 02       		.uleb128 0x2
 2025 011a 0A       		.uleb128 0xa
 2026 011b 00       		.byte	0
 2027 011c 00       		.byte	0
 2028 011d 17       		.uleb128 0x17
 2029 011e 05       		.uleb128 0x5
 2030 011f 00       		.byte	0
 2031 0120 03       		.uleb128 0x3
 2032 0121 08       		.uleb128 0x8
 2033 0122 3A       		.uleb128 0x3a
 2034 0123 0B       		.uleb128 0xb
 2035 0124 3B       		.uleb128 0x3b
 2036 0125 0B       		.uleb128 0xb
 2037 0126 49       		.uleb128 0x49
 2038 0127 13       		.uleb128 0x13
 2039 0128 02       		.uleb128 0x2
ARM GAS  /var/folders/yt/6z6x8bjn5sjf5fbb45bk5m4c0000gn/T//cck0iJmI.s 			page 42


 2040 0129 06       		.uleb128 0x6
 2041 012a 00       		.byte	0
 2042 012b 00       		.byte	0
 2043 012c 18       		.uleb128 0x18
 2044 012d 2E       		.uleb128 0x2e
 2045 012e 00       		.byte	0
 2046 012f 3F       		.uleb128 0x3f
 2047 0130 0C       		.uleb128 0xc
 2048 0131 03       		.uleb128 0x3
 2049 0132 0E       		.uleb128 0xe
 2050 0133 3A       		.uleb128 0x3a
 2051 0134 0B       		.uleb128 0xb
 2052 0135 3B       		.uleb128 0x3b
 2053 0136 0B       		.uleb128 0xb
 2054 0137 27       		.uleb128 0x27
 2055 0138 0C       		.uleb128 0xc
 2056 0139 49       		.uleb128 0x49
 2057 013a 13       		.uleb128 0x13
 2058 013b 11       		.uleb128 0x11
 2059 013c 01       		.uleb128 0x1
 2060 013d 12       		.uleb128 0x12
 2061 013e 01       		.uleb128 0x1
 2062 013f 40       		.uleb128 0x40
 2063 0140 0A       		.uleb128 0xa
 2064 0141 9742     		.uleb128 0x2117
 2065 0143 0C       		.uleb128 0xc
 2066 0144 00       		.byte	0
 2067 0145 00       		.byte	0
 2068 0146 19       		.uleb128 0x19
 2069 0147 05       		.uleb128 0x5
 2070 0148 00       		.byte	0
 2071 0149 03       		.uleb128 0x3
 2072 014a 08       		.uleb128 0x8
 2073 014b 3A       		.uleb128 0x3a
 2074 014c 0B       		.uleb128 0xb
 2075 014d 3B       		.uleb128 0x3b
 2076 014e 0B       		.uleb128 0xb
 2077 014f 49       		.uleb128 0x49
 2078 0150 13       		.uleb128 0x13
 2079 0151 02       		.uleb128 0x2
 2080 0152 0A       		.uleb128 0xa
 2081 0153 00       		.byte	0
 2082 0154 00       		.byte	0
 2083 0155 1A       		.uleb128 0x1a
 2084 0156 2E       		.uleb128 0x2e
 2085 0157 01       		.byte	0x1
 2086 0158 3F       		.uleb128 0x3f
 2087 0159 0C       		.uleb128 0xc
 2088 015a 03       		.uleb128 0x3
 2089 015b 0E       		.uleb128 0xe
 2090 015c 3A       		.uleb128 0x3a
 2091 015d 0B       		.uleb128 0xb
 2092 015e 3B       		.uleb128 0x3b
 2093 015f 0B       		.uleb128 0xb
 2094 0160 27       		.uleb128 0x27
 2095 0161 0C       		.uleb128 0xc
 2096 0162 49       		.uleb128 0x49
ARM GAS  /var/folders/yt/6z6x8bjn5sjf5fbb45bk5m4c0000gn/T//cck0iJmI.s 			page 43


 2097 0163 13       		.uleb128 0x13
 2098 0164 11       		.uleb128 0x11
 2099 0165 01       		.uleb128 0x1
 2100 0166 12       		.uleb128 0x12
 2101 0167 01       		.uleb128 0x1
 2102 0168 40       		.uleb128 0x40
 2103 0169 06       		.uleb128 0x6
 2104 016a 9742     		.uleb128 0x2117
 2105 016c 0C       		.uleb128 0xc
 2106 016d 01       		.uleb128 0x1
 2107 016e 13       		.uleb128 0x13
 2108 016f 00       		.byte	0
 2109 0170 00       		.byte	0
 2110 0171 1B       		.uleb128 0x1b
 2111 0172 34       		.uleb128 0x34
 2112 0173 00       		.byte	0
 2113 0174 03       		.uleb128 0x3
 2114 0175 0E       		.uleb128 0xe
 2115 0176 3A       		.uleb128 0x3a
 2116 0177 0B       		.uleb128 0xb
 2117 0178 3B       		.uleb128 0x3b
 2118 0179 0B       		.uleb128 0xb
 2119 017a 49       		.uleb128 0x49
 2120 017b 13       		.uleb128 0x13
 2121 017c 3F       		.uleb128 0x3f
 2122 017d 0C       		.uleb128 0xc
 2123 017e 3C       		.uleb128 0x3c
 2124 017f 0C       		.uleb128 0xc
 2125 0180 00       		.byte	0
 2126 0181 00       		.byte	0
 2127 0182 1C       		.uleb128 0x1c
 2128 0183 34       		.uleb128 0x34
 2129 0184 00       		.byte	0
 2130 0185 03       		.uleb128 0x3
 2131 0186 0E       		.uleb128 0xe
 2132 0187 3A       		.uleb128 0x3a
 2133 0188 0B       		.uleb128 0xb
 2134 0189 3B       		.uleb128 0x3b
 2135 018a 0B       		.uleb128 0xb
 2136 018b 49       		.uleb128 0x49
 2137 018c 13       		.uleb128 0x13
 2138 018d 02       		.uleb128 0x2
 2139 018e 0A       		.uleb128 0xa
 2140 018f 00       		.byte	0
 2141 0190 00       		.byte	0
 2142 0191 1D       		.uleb128 0x1d
 2143 0192 34       		.uleb128 0x34
 2144 0193 00       		.byte	0
 2145 0194 03       		.uleb128 0x3
 2146 0195 0E       		.uleb128 0xe
 2147 0196 3A       		.uleb128 0x3a
 2148 0197 0B       		.uleb128 0xb
 2149 0198 3B       		.uleb128 0x3b
 2150 0199 0B       		.uleb128 0xb
 2151 019a 49       		.uleb128 0x49
 2152 019b 13       		.uleb128 0x13
 2153 019c 02       		.uleb128 0x2
ARM GAS  /var/folders/yt/6z6x8bjn5sjf5fbb45bk5m4c0000gn/T//cck0iJmI.s 			page 44


 2154 019d 06       		.uleb128 0x6
 2155 019e 00       		.byte	0
 2156 019f 00       		.byte	0
 2157 01a0 1E       		.uleb128 0x1e
 2158 01a1 898201   		.uleb128 0x4109
 2159 01a4 00       		.byte	0
 2160 01a5 11       		.uleb128 0x11
 2161 01a6 01       		.uleb128 0x1
 2162 01a7 31       		.uleb128 0x31
 2163 01a8 13       		.uleb128 0x13
 2164 01a9 00       		.byte	0
 2165 01aa 00       		.byte	0
 2166 01ab 1F       		.uleb128 0x1f
 2167 01ac 34       		.uleb128 0x34
 2168 01ad 00       		.byte	0
 2169 01ae 03       		.uleb128 0x3
 2170 01af 08       		.uleb128 0x8
 2171 01b0 3A       		.uleb128 0x3a
 2172 01b1 0B       		.uleb128 0xb
 2173 01b2 3B       		.uleb128 0x3b
 2174 01b3 0B       		.uleb128 0xb
 2175 01b4 49       		.uleb128 0x49
 2176 01b5 13       		.uleb128 0x13
 2177 01b6 02       		.uleb128 0x2
 2178 01b7 06       		.uleb128 0x6
 2179 01b8 00       		.byte	0
 2180 01b9 00       		.byte	0
 2181 01ba 20       		.uleb128 0x20
 2182 01bb 0B       		.uleb128 0xb
 2183 01bc 01       		.byte	0x1
 2184 01bd 11       		.uleb128 0x11
 2185 01be 01       		.uleb128 0x1
 2186 01bf 12       		.uleb128 0x12
 2187 01c0 01       		.uleb128 0x1
 2188 01c1 00       		.byte	0
 2189 01c2 00       		.byte	0
 2190 01c3 21       		.uleb128 0x21
 2191 01c4 2E       		.uleb128 0x2e
 2192 01c5 01       		.byte	0x1
 2193 01c6 3F       		.uleb128 0x3f
 2194 01c7 0C       		.uleb128 0xc
 2195 01c8 03       		.uleb128 0x3
 2196 01c9 0E       		.uleb128 0xe
 2197 01ca 3A       		.uleb128 0x3a
 2198 01cb 0B       		.uleb128 0xb
 2199 01cc 3B       		.uleb128 0x3b
 2200 01cd 0B       		.uleb128 0xb
 2201 01ce 27       		.uleb128 0x27
 2202 01cf 0C       		.uleb128 0xc
 2203 01d0 11       		.uleb128 0x11
 2204 01d1 01       		.uleb128 0x1
 2205 01d2 12       		.uleb128 0x12
 2206 01d3 01       		.uleb128 0x1
 2207 01d4 40       		.uleb128 0x40
 2208 01d5 06       		.uleb128 0x6
 2209 01d6 9742     		.uleb128 0x2117
 2210 01d8 0C       		.uleb128 0xc
ARM GAS  /var/folders/yt/6z6x8bjn5sjf5fbb45bk5m4c0000gn/T//cck0iJmI.s 			page 45


 2211 01d9 01       		.uleb128 0x1
 2212 01da 13       		.uleb128 0x13
 2213 01db 00       		.byte	0
 2214 01dc 00       		.byte	0
 2215 01dd 22       		.uleb128 0x22
 2216 01de 898201   		.uleb128 0x4109
 2217 01e1 01       		.byte	0x1
 2218 01e2 11       		.uleb128 0x11
 2219 01e3 01       		.uleb128 0x1
 2220 01e4 31       		.uleb128 0x31
 2221 01e5 13       		.uleb128 0x13
 2222 01e6 00       		.byte	0
 2223 01e7 00       		.byte	0
 2224 01e8 23       		.uleb128 0x23
 2225 01e9 8A8201   		.uleb128 0x410a
 2226 01ec 00       		.byte	0
 2227 01ed 02       		.uleb128 0x2
 2228 01ee 0A       		.uleb128 0xa
 2229 01ef 9142     		.uleb128 0x2111
 2230 01f1 0A       		.uleb128 0xa
 2231 01f2 00       		.byte	0
 2232 01f3 00       		.byte	0
 2233 01f4 24       		.uleb128 0x24
 2234 01f5 34       		.uleb128 0x34
 2235 01f6 00       		.byte	0
 2236 01f7 03       		.uleb128 0x3
 2237 01f8 0E       		.uleb128 0xe
 2238 01f9 3A       		.uleb128 0x3a
 2239 01fa 0B       		.uleb128 0xb
 2240 01fb 3B       		.uleb128 0x3b
 2241 01fc 0B       		.uleb128 0xb
 2242 01fd 49       		.uleb128 0x49
 2243 01fe 13       		.uleb128 0x13
 2244 01ff 3F       		.uleb128 0x3f
 2245 0200 0C       		.uleb128 0xc
 2246 0201 02       		.uleb128 0x2
 2247 0202 0A       		.uleb128 0xa
 2248 0203 00       		.byte	0
 2249 0204 00       		.byte	0
 2250 0205 25       		.uleb128 0x25
 2251 0206 34       		.uleb128 0x34
 2252 0207 00       		.byte	0
 2253 0208 03       		.uleb128 0x3
 2254 0209 0E       		.uleb128 0xe
 2255 020a 3A       		.uleb128 0x3a
 2256 020b 0B       		.uleb128 0xb
 2257 020c 3B       		.uleb128 0x3b
 2258 020d 05       		.uleb128 0x5
 2259 020e 49       		.uleb128 0x49
 2260 020f 13       		.uleb128 0x13
 2261 0210 3F       		.uleb128 0x3f
 2262 0211 0C       		.uleb128 0xc
 2263 0212 3C       		.uleb128 0x3c
 2264 0213 0C       		.uleb128 0xc
 2265 0214 00       		.byte	0
 2266 0215 00       		.byte	0
 2267 0216 26       		.uleb128 0x26
ARM GAS  /var/folders/yt/6z6x8bjn5sjf5fbb45bk5m4c0000gn/T//cck0iJmI.s 			page 46


 2268 0217 2E       		.uleb128 0x2e
 2269 0218 00       		.byte	0
 2270 0219 3F       		.uleb128 0x3f
 2271 021a 0C       		.uleb128 0xc
 2272 021b 03       		.uleb128 0x3
 2273 021c 0E       		.uleb128 0xe
 2274 021d 3A       		.uleb128 0x3a
 2275 021e 0B       		.uleb128 0xb
 2276 021f 3B       		.uleb128 0x3b
 2277 0220 0B       		.uleb128 0xb
 2278 0221 27       		.uleb128 0x27
 2279 0222 0C       		.uleb128 0xc
 2280 0223 49       		.uleb128 0x49
 2281 0224 13       		.uleb128 0x13
 2282 0225 3C       		.uleb128 0x3c
 2283 0226 0C       		.uleb128 0xc
 2284 0227 00       		.byte	0
 2285 0228 00       		.byte	0
 2286 0229 00       		.byte	0
 2287              		.section	.debug_loc,"",%progbits
 2288              	.Ldebug_loc0:
 2289              	.LLST0:
 2290 0000 00000000 		.4byte	.LVL0-.Ltext0
 2291 0004 04000000 		.4byte	.LVL1-.Ltext0
 2292 0008 0100     		.2byte	0x1
 2293 000a 50       		.byte	0x50
 2294 000b 04000000 		.4byte	.LVL1-.Ltext0
 2295 000f 06000000 		.4byte	.LFE30-.Ltext0
 2296 0013 0400     		.2byte	0x4
 2297 0015 F3       		.byte	0xf3
 2298 0016 01       		.uleb128 0x1
 2299 0017 50       		.byte	0x50
 2300 0018 9F       		.byte	0x9f
 2301 0019 00000000 		.4byte	0
 2302 001d 00000000 		.4byte	0
 2303              	.LLST1:
 2304 0021 06000000 		.4byte	.LVL2-.Ltext0
 2305 0025 10000000 		.4byte	.LVL4-.Ltext0
 2306 0029 0100     		.2byte	0x1
 2307 002b 50       		.byte	0x50
 2308 002c 10000000 		.4byte	.LVL4-.Ltext0
 2309 0030 18000000 		.4byte	.LFE31-.Ltext0
 2310 0034 0400     		.2byte	0x4
 2311 0036 F3       		.byte	0xf3
 2312 0037 01       		.uleb128 0x1
 2313 0038 50       		.byte	0x50
 2314 0039 9F       		.byte	0x9f
 2315 003a 00000000 		.4byte	0
 2316 003e 00000000 		.4byte	0
 2317              	.LLST2:
 2318 0042 06000000 		.4byte	.LVL2-.Ltext0
 2319 0046 0A000000 		.4byte	.LVL3-.Ltext0
 2320 004a 0100     		.2byte	0x1
 2321 004c 52       		.byte	0x52
 2322 004d 0A000000 		.4byte	.LVL3-.Ltext0
 2323 0051 18000000 		.4byte	.LFE31-.Ltext0
 2324 0055 0400     		.2byte	0x4
ARM GAS  /var/folders/yt/6z6x8bjn5sjf5fbb45bk5m4c0000gn/T//cck0iJmI.s 			page 47


 2325 0057 F3       		.byte	0xf3
 2326 0058 01       		.uleb128 0x1
 2327 0059 52       		.byte	0x52
 2328 005a 9F       		.byte	0x9f
 2329 005b 00000000 		.4byte	0
 2330 005f 00000000 		.4byte	0
 2331              	.LLST3:
 2332 0063 28000000 		.4byte	.LVL5-.Ltext0
 2333 0067 30000000 		.4byte	.LVL6-.Ltext0
 2334 006b 0100     		.2byte	0x1
 2335 006d 50       		.byte	0x50
 2336 006e 30000000 		.4byte	.LVL6-.Ltext0
 2337 0072 32000000 		.4byte	.LFE33-.Ltext0
 2338 0076 0400     		.2byte	0x4
 2339 0078 F3       		.byte	0xf3
 2340 0079 01       		.uleb128 0x1
 2341 007a 50       		.byte	0x50
 2342 007b 9F       		.byte	0x9f
 2343 007c 00000000 		.4byte	0
 2344 0080 00000000 		.4byte	0
 2345              	.LLST4:
 2346 0084 36000000 		.4byte	.LVL7-.Ltext0
 2347 0088 40000000 		.4byte	.LVL8-.Ltext0
 2348 008c 0100     		.2byte	0x1
 2349 008e 50       		.byte	0x50
 2350 008f 40000000 		.4byte	.LVL8-.Ltext0
 2351 0093 4C000000 		.4byte	.LFE35-.Ltext0
 2352 0097 0400     		.2byte	0x4
 2353 0099 F3       		.byte	0xf3
 2354 009a 01       		.uleb128 0x1
 2355 009b 50       		.byte	0x50
 2356 009c 9F       		.byte	0x9f
 2357 009d 00000000 		.4byte	0
 2358 00a1 00000000 		.4byte	0
 2359              	.LLST5:
 2360 00a5 4C000000 		.4byte	.LVL9-.Ltext0
 2361 00a9 56000000 		.4byte	.LVL10-.Ltext0
 2362 00ad 0100     		.2byte	0x1
 2363 00af 50       		.byte	0x50
 2364 00b0 56000000 		.4byte	.LVL10-.Ltext0
 2365 00b4 5C000000 		.4byte	.LFE36-.Ltext0
 2366 00b8 0400     		.2byte	0x4
 2367 00ba F3       		.byte	0xf3
 2368 00bb 01       		.uleb128 0x1
 2369 00bc 50       		.byte	0x50
 2370 00bd 9F       		.byte	0x9f
 2371 00be 00000000 		.4byte	0
 2372 00c2 00000000 		.4byte	0
 2373              	.LLST6:
 2374 00c6 5C000000 		.4byte	.LVL11-.Ltext0
 2375 00ca 66000000 		.4byte	.LVL12-.Ltext0
 2376 00ce 0100     		.2byte	0x1
 2377 00d0 50       		.byte	0x50
 2378 00d1 66000000 		.4byte	.LVL12-.Ltext0
 2379 00d5 6C000000 		.4byte	.LFE37-.Ltext0
 2380 00d9 0400     		.2byte	0x4
 2381 00db F3       		.byte	0xf3
ARM GAS  /var/folders/yt/6z6x8bjn5sjf5fbb45bk5m4c0000gn/T//cck0iJmI.s 			page 48


 2382 00dc 01       		.uleb128 0x1
 2383 00dd 50       		.byte	0x50
 2384 00de 9F       		.byte	0x9f
 2385 00df 00000000 		.4byte	0
 2386 00e3 00000000 		.4byte	0
 2387              	.LLST7:
 2388 00e7 6C000000 		.4byte	.LVL13-.Ltext0
 2389 00eb 6E000000 		.4byte	.LVL14-.Ltext0
 2390 00ef 0100     		.2byte	0x1
 2391 00f1 50       		.byte	0x50
 2392 00f2 6E000000 		.4byte	.LVL14-.Ltext0
 2393 00f6 70000000 		.4byte	.LFE38-.Ltext0
 2394 00fa 0400     		.2byte	0x4
 2395 00fc F3       		.byte	0xf3
 2396 00fd 01       		.uleb128 0x1
 2397 00fe 50       		.byte	0x50
 2398 00ff 9F       		.byte	0x9f
 2399 0100 00000000 		.4byte	0
 2400 0104 00000000 		.4byte	0
 2401              	.LLST8:
 2402 0108 70000000 		.4byte	.LFB39-.Ltext0
 2403 010c 72000000 		.4byte	.LCFI0-.Ltext0
 2404 0110 0200     		.2byte	0x2
 2405 0112 7D       		.byte	0x7d
 2406 0113 00       		.sleb128 0
 2407 0114 72000000 		.4byte	.LCFI0-.Ltext0
 2408 0118 AC000000 		.4byte	.LFE39-.Ltext0
 2409 011c 0200     		.2byte	0x2
 2410 011e 7D       		.byte	0x7d
 2411 011f 10       		.sleb128 16
 2412 0120 00000000 		.4byte	0
 2413 0124 00000000 		.4byte	0
 2414              	.LLST9:
 2415 0128 70000000 		.4byte	.LVL15-.Ltext0
 2416 012c 83000000 		.4byte	.LVL17-1-.Ltext0
 2417 0130 0100     		.2byte	0x1
 2418 0132 50       		.byte	0x50
 2419 0133 83000000 		.4byte	.LVL17-1-.Ltext0
 2420 0137 A0000000 		.4byte	.LVL19-.Ltext0
 2421 013b 0100     		.2byte	0x1
 2422 013d 56       		.byte	0x56
 2423 013e A0000000 		.4byte	.LVL19-.Ltext0
 2424 0142 AC000000 		.4byte	.LFE39-.Ltext0
 2425 0146 0400     		.2byte	0x4
 2426 0148 F3       		.byte	0xf3
 2427 0149 01       		.uleb128 0x1
 2428 014a 50       		.byte	0x50
 2429 014b 9F       		.byte	0x9f
 2430 014c 00000000 		.4byte	0
 2431 0150 00000000 		.4byte	0
 2432              	.LLST10:
 2433 0154 80000000 		.4byte	.LVL16-.Ltext0
 2434 0158 A0000000 		.4byte	.LVL19-.Ltext0
 2435 015c 0100     		.2byte	0x1
 2436 015e 55       		.byte	0x55
 2437 015f 00000000 		.4byte	0
 2438 0163 00000000 		.4byte	0
ARM GAS  /var/folders/yt/6z6x8bjn5sjf5fbb45bk5m4c0000gn/T//cck0iJmI.s 			page 49


 2439              	.LLST11:
 2440 0167 84000000 		.4byte	.LVL17-.Ltext0
 2441 016b 96000000 		.4byte	.LVL18-.Ltext0
 2442 016f 0100     		.2byte	0x1
 2443 0171 50       		.byte	0x50
 2444 0172 00000000 		.4byte	0
 2445 0176 00000000 		.4byte	0
 2446              	.LLST12:
 2447 017a AC000000 		.4byte	.LFB40-.Ltext0
 2448 017e AE000000 		.4byte	.LCFI1-.Ltext0
 2449 0182 0200     		.2byte	0x2
 2450 0184 7D       		.byte	0x7d
 2451 0185 00       		.sleb128 0
 2452 0186 AE000000 		.4byte	.LCFI1-.Ltext0
 2453 018a E4000000 		.4byte	.LFE40-.Ltext0
 2454 018e 0200     		.2byte	0x2
 2455 0190 7D       		.byte	0x7d
 2456 0191 08       		.sleb128 8
 2457 0192 00000000 		.4byte	0
 2458 0196 00000000 		.4byte	0
 2459              	.LLST13:
 2460 019a AC000000 		.4byte	.LVL20-.Ltext0
 2461 019e B2000000 		.4byte	.LVL21-.Ltext0
 2462 01a2 0100     		.2byte	0x1
 2463 01a4 50       		.byte	0x50
 2464 01a5 B2000000 		.4byte	.LVL21-.Ltext0
 2465 01a9 C8000000 		.4byte	.LVL26-.Ltext0
 2466 01ad 0400     		.2byte	0x4
 2467 01af F3       		.byte	0xf3
 2468 01b0 01       		.uleb128 0x1
 2469 01b1 50       		.byte	0x50
 2470 01b2 9F       		.byte	0x9f
 2471 01b3 C8000000 		.4byte	.LVL26-.Ltext0
 2472 01b7 D2000000 		.4byte	.LVL28-.Ltext0
 2473 01bb 0100     		.2byte	0x1
 2474 01bd 50       		.byte	0x50
 2475 01be D2000000 		.4byte	.LVL28-.Ltext0
 2476 01c2 E4000000 		.4byte	.LFE40-.Ltext0
 2477 01c6 0400     		.2byte	0x4
 2478 01c8 F3       		.byte	0xf3
 2479 01c9 01       		.uleb128 0x1
 2480 01ca 50       		.byte	0x50
 2481 01cb 9F       		.byte	0x9f
 2482 01cc 00000000 		.4byte	0
 2483 01d0 00000000 		.4byte	0
 2484              	.LLST14:
 2485 01d4 AC000000 		.4byte	.LVL20-.Ltext0
 2486 01d8 B2000000 		.4byte	.LVL21-.Ltext0
 2487 01dc 0100     		.2byte	0x1
 2488 01de 51       		.byte	0x51
 2489 01df B2000000 		.4byte	.LVL21-.Ltext0
 2490 01e3 C6000000 		.4byte	.LVL25-.Ltext0
 2491 01e7 0100     		.2byte	0x1
 2492 01e9 53       		.byte	0x53
 2493 01ea C6000000 		.4byte	.LVL25-.Ltext0
 2494 01ee C8000000 		.4byte	.LVL26-.Ltext0
 2495 01f2 0300     		.2byte	0x3
ARM GAS  /var/folders/yt/6z6x8bjn5sjf5fbb45bk5m4c0000gn/T//cck0iJmI.s 			page 50


 2496 01f4 73       		.byte	0x73
 2497 01f5 7F       		.sleb128 -1
 2498 01f6 9F       		.byte	0x9f
 2499 01f7 C8000000 		.4byte	.LVL26-.Ltext0
 2500 01fb D4000000 		.4byte	.LVL29-.Ltext0
 2501 01ff 0100     		.2byte	0x1
 2502 0201 51       		.byte	0x51
 2503 0202 D4000000 		.4byte	.LVL29-.Ltext0
 2504 0206 E4000000 		.4byte	.LFE40-.Ltext0
 2505 020a 0100     		.2byte	0x1
 2506 020c 53       		.byte	0x53
 2507 020d 00000000 		.4byte	0
 2508 0211 00000000 		.4byte	0
 2509              	.LLST15:
 2510 0215 AC000000 		.4byte	.LVL20-.Ltext0
 2511 0219 CC000000 		.4byte	.LVL27-.Ltext0
 2512 021d 0100     		.2byte	0x1
 2513 021f 52       		.byte	0x52
 2514 0220 CC000000 		.4byte	.LVL27-.Ltext0
 2515 0224 D4000000 		.4byte	.LVL29-.Ltext0
 2516 0228 0400     		.2byte	0x4
 2517 022a F3       		.byte	0xf3
 2518 022b 01       		.uleb128 0x1
 2519 022c 52       		.byte	0x52
 2520 022d 9F       		.byte	0x9f
 2521 022e D4000000 		.4byte	.LVL29-.Ltext0
 2522 0232 E4000000 		.4byte	.LFE40-.Ltext0
 2523 0236 0100     		.2byte	0x1
 2524 0238 52       		.byte	0x52
 2525 0239 00000000 		.4byte	0
 2526 023d 00000000 		.4byte	0
 2527              	.LLST16:
 2528 0241 B2000000 		.4byte	.LVL21-.Ltext0
 2529 0245 B4000000 		.4byte	.LVL22-.Ltext0
 2530 0249 0600     		.2byte	0x6
 2531 024b 73       		.byte	0x73
 2532 024c 00       		.sleb128 0
 2533 024d 71       		.byte	0x71
 2534 024e 00       		.sleb128 0
 2535 024f 1C       		.byte	0x1c
 2536 0250 9F       		.byte	0x9f
 2537 0251 B4000000 		.4byte	.LVL22-.Ltext0
 2538 0255 B8000000 		.4byte	.LVL23-.Ltext0
 2539 0259 0100     		.2byte	0x1
 2540 025b 50       		.byte	0x50
 2541 025c B8000000 		.4byte	.LVL23-.Ltext0
 2542 0260 C6000000 		.4byte	.LVL25-.Ltext0
 2543 0264 0600     		.2byte	0x6
 2544 0266 73       		.byte	0x73
 2545 0267 00       		.sleb128 0
 2546 0268 71       		.byte	0x71
 2547 0269 00       		.sleb128 0
 2548 026a 1C       		.byte	0x1c
 2549 026b 9F       		.byte	0x9f
 2550 026c D4000000 		.4byte	.LVL29-.Ltext0
 2551 0270 D8000000 		.4byte	.LVL30-.Ltext0
 2552 0274 0100     		.2byte	0x1
ARM GAS  /var/folders/yt/6z6x8bjn5sjf5fbb45bk5m4c0000gn/T//cck0iJmI.s 			page 51


 2553 0276 50       		.byte	0x50
 2554 0277 D8000000 		.4byte	.LVL30-.Ltext0
 2555 027b E4000000 		.4byte	.LFE40-.Ltext0
 2556 027f 0600     		.2byte	0x6
 2557 0281 73       		.byte	0x73
 2558 0282 00       		.sleb128 0
 2559 0283 71       		.byte	0x71
 2560 0284 00       		.sleb128 0
 2561 0285 1C       		.byte	0x1c
 2562 0286 9F       		.byte	0x9f
 2563 0287 00000000 		.4byte	0
 2564 028b 00000000 		.4byte	0
 2565              	.LLST17:
 2566 028f AC000000 		.4byte	.LVL20-.Ltext0
 2567 0293 B2000000 		.4byte	.LVL21-.Ltext0
 2568 0297 0200     		.2byte	0x2
 2569 0299 30       		.byte	0x30
 2570 029a 9F       		.byte	0x9f
 2571 029b B2000000 		.4byte	.LVL21-.Ltext0
 2572 029f B4000000 		.4byte	.LVL22-.Ltext0
 2573 02a3 0600     		.2byte	0x6
 2574 02a5 73       		.byte	0x73
 2575 02a6 00       		.sleb128 0
 2576 02a7 71       		.byte	0x71
 2577 02a8 00       		.sleb128 0
 2578 02a9 1C       		.byte	0x1c
 2579 02aa 9F       		.byte	0x9f
 2580 02ab B4000000 		.4byte	.LVL22-.Ltext0
 2581 02af B8000000 		.4byte	.LVL23-.Ltext0
 2582 02b3 0100     		.2byte	0x1
 2583 02b5 50       		.byte	0x50
 2584 02b6 B8000000 		.4byte	.LVL23-.Ltext0
 2585 02ba C6000000 		.4byte	.LVL25-.Ltext0
 2586 02be 0600     		.2byte	0x6
 2587 02c0 73       		.byte	0x73
 2588 02c1 00       		.sleb128 0
 2589 02c2 71       		.byte	0x71
 2590 02c3 00       		.sleb128 0
 2591 02c4 1C       		.byte	0x1c
 2592 02c5 9F       		.byte	0x9f
 2593 02c6 C8000000 		.4byte	.LVL26-.Ltext0
 2594 02ca D4000000 		.4byte	.LVL29-.Ltext0
 2595 02ce 0200     		.2byte	0x2
 2596 02d0 30       		.byte	0x30
 2597 02d1 9F       		.byte	0x9f
 2598 02d2 D4000000 		.4byte	.LVL29-.Ltext0
 2599 02d6 D8000000 		.4byte	.LVL30-.Ltext0
 2600 02da 0100     		.2byte	0x1
 2601 02dc 50       		.byte	0x50
 2602 02dd D8000000 		.4byte	.LVL30-.Ltext0
 2603 02e1 E4000000 		.4byte	.LFE40-.Ltext0
 2604 02e5 0600     		.2byte	0x6
 2605 02e7 73       		.byte	0x73
 2606 02e8 00       		.sleb128 0
 2607 02e9 71       		.byte	0x71
 2608 02ea 00       		.sleb128 0
 2609 02eb 1C       		.byte	0x1c
ARM GAS  /var/folders/yt/6z6x8bjn5sjf5fbb45bk5m4c0000gn/T//cck0iJmI.s 			page 52


 2610 02ec 9F       		.byte	0x9f
 2611 02ed 00000000 		.4byte	0
 2612 02f1 00000000 		.4byte	0
 2613              	.LLST18:
 2614 02f5 C2000000 		.4byte	.LVL24-.Ltext0
 2615 02f9 C8000000 		.4byte	.LVL26-.Ltext0
 2616 02fd 0100     		.2byte	0x1
 2617 02ff 50       		.byte	0x50
 2618 0300 00000000 		.4byte	0
 2619 0304 00000000 		.4byte	0
 2620              	.LLST19:
 2621 0308 E4000000 		.4byte	.LVL31-.Ltext0
 2622 030c EC000000 		.4byte	.LVL32-.Ltext0
 2623 0310 0100     		.2byte	0x1
 2624 0312 50       		.byte	0x50
 2625 0313 EC000000 		.4byte	.LVL32-.Ltext0
 2626 0317 EE000000 		.4byte	.LFE41-.Ltext0
 2627 031b 0400     		.2byte	0x4
 2628 031d F3       		.byte	0xf3
 2629 031e 01       		.uleb128 0x1
 2630 031f 50       		.byte	0x50
 2631 0320 9F       		.byte	0x9f
 2632 0321 00000000 		.4byte	0
 2633 0325 00000000 		.4byte	0
 2634              	.LLST20:
 2635 0329 EE000000 		.4byte	.LVL33-.Ltext0
 2636 032d F2000000 		.4byte	.LVL34-.Ltext0
 2637 0331 0100     		.2byte	0x1
 2638 0333 50       		.byte	0x50
 2639 0334 F2000000 		.4byte	.LVL34-.Ltext0
 2640 0338 F4000000 		.4byte	.LFE42-.Ltext0
 2641 033c 0400     		.2byte	0x4
 2642 033e F3       		.byte	0xf3
 2643 033f 01       		.uleb128 0x1
 2644 0340 50       		.byte	0x50
 2645 0341 9F       		.byte	0x9f
 2646 0342 00000000 		.4byte	0
 2647 0346 00000000 		.4byte	0
 2648              	.LLST21:
 2649 034a F4000000 		.4byte	.LVL35-.Ltext0
 2650 034e FE000000 		.4byte	.LVL36-.Ltext0
 2651 0352 0100     		.2byte	0x1
 2652 0354 50       		.byte	0x50
 2653 0355 FE000000 		.4byte	.LVL36-.Ltext0
 2654 0359 04010000 		.4byte	.LFE43-.Ltext0
 2655 035d 0400     		.2byte	0x4
 2656 035f F3       		.byte	0xf3
 2657 0360 01       		.uleb128 0x1
 2658 0361 50       		.byte	0x50
 2659 0362 9F       		.byte	0x9f
 2660 0363 00000000 		.4byte	0
 2661 0367 00000000 		.4byte	0
 2662              	.LLST22:
 2663 036b 04010000 		.4byte	.LVL37-.Ltext0
 2664 036f 0E010000 		.4byte	.LVL38-.Ltext0
 2665 0373 0100     		.2byte	0x1
 2666 0375 50       		.byte	0x50
ARM GAS  /var/folders/yt/6z6x8bjn5sjf5fbb45bk5m4c0000gn/T//cck0iJmI.s 			page 53


 2667 0376 0E010000 		.4byte	.LVL38-.Ltext0
 2668 037a 14010000 		.4byte	.LFE44-.Ltext0
 2669 037e 0400     		.2byte	0x4
 2670 0380 F3       		.byte	0xf3
 2671 0381 01       		.uleb128 0x1
 2672 0382 50       		.byte	0x50
 2673 0383 9F       		.byte	0x9f
 2674 0384 00000000 		.4byte	0
 2675 0388 00000000 		.4byte	0
 2676              	.LLST23:
 2677 038c 14010000 		.4byte	.LFB45-.Ltext0
 2678 0390 18010000 		.4byte	.LCFI2-.Ltext0
 2679 0394 0200     		.2byte	0x2
 2680 0396 7D       		.byte	0x7d
 2681 0397 00       		.sleb128 0
 2682 0398 18010000 		.4byte	.LCFI2-.Ltext0
 2683 039c 68010000 		.4byte	.LFE45-.Ltext0
 2684 03a0 0200     		.2byte	0x2
 2685 03a2 7D       		.byte	0x7d
 2686 03a3 08       		.sleb128 8
 2687 03a4 00000000 		.4byte	0
 2688 03a8 00000000 		.4byte	0
 2689              	.LLST24:
 2690 03ac 14010000 		.4byte	.LVL39-.Ltext0
 2691 03b0 24010000 		.4byte	.LVL40-.Ltext0
 2692 03b4 0100     		.2byte	0x1
 2693 03b6 50       		.byte	0x50
 2694 03b7 24010000 		.4byte	.LVL40-.Ltext0
 2695 03bb 52010000 		.4byte	.LVL50-.Ltext0
 2696 03bf 0400     		.2byte	0x4
 2697 03c1 F3       		.byte	0xf3
 2698 03c2 01       		.uleb128 0x1
 2699 03c3 50       		.byte	0x50
 2700 03c4 9F       		.byte	0x9f
 2701 03c5 52010000 		.4byte	.LVL50-.Ltext0
 2702 03c9 5C010000 		.4byte	.LVL52-.Ltext0
 2703 03cd 0100     		.2byte	0x1
 2704 03cf 50       		.byte	0x50
 2705 03d0 5C010000 		.4byte	.LVL52-.Ltext0
 2706 03d4 68010000 		.4byte	.LFE45-.Ltext0
 2707 03d8 0400     		.2byte	0x4
 2708 03da F3       		.byte	0xf3
 2709 03db 01       		.uleb128 0x1
 2710 03dc 50       		.byte	0x50
 2711 03dd 9F       		.byte	0x9f
 2712 03de 00000000 		.4byte	0
 2713 03e2 00000000 		.4byte	0
 2714              	.LLST25:
 2715 03e6 14010000 		.4byte	.LVL39-.Ltext0
 2716 03ea 24010000 		.4byte	.LVL40-.Ltext0
 2717 03ee 0100     		.2byte	0x1
 2718 03f0 51       		.byte	0x51
 2719 03f1 24010000 		.4byte	.LVL40-.Ltext0
 2720 03f5 36010000 		.4byte	.LVL43-.Ltext0
 2721 03f9 0100     		.2byte	0x1
 2722 03fb 53       		.byte	0x53
 2723 03fc 36010000 		.4byte	.LVL43-.Ltext0
ARM GAS  /var/folders/yt/6z6x8bjn5sjf5fbb45bk5m4c0000gn/T//cck0iJmI.s 			page 54


 2724 0400 3A010000 		.4byte	.LVL45-.Ltext0
 2725 0404 0300     		.2byte	0x3
 2726 0406 73       		.byte	0x73
 2727 0407 7F       		.sleb128 -1
 2728 0408 9F       		.byte	0x9f
 2729 0409 3A010000 		.4byte	.LVL45-.Ltext0
 2730 040d 46010000 		.4byte	.LVL46-.Ltext0
 2731 0411 0100     		.2byte	0x1
 2732 0413 53       		.byte	0x53
 2733 0414 46010000 		.4byte	.LVL46-.Ltext0
 2734 0418 48010000 		.4byte	.LVL47-.Ltext0
 2735 041c 0300     		.2byte	0x3
 2736 041e 73       		.byte	0x73
 2737 041f 7F       		.sleb128 -1
 2738 0420 9F       		.byte	0x9f
 2739 0421 48010000 		.4byte	.LVL47-.Ltext0
 2740 0425 52010000 		.4byte	.LVL50-.Ltext0
 2741 0429 0100     		.2byte	0x1
 2742 042b 53       		.byte	0x53
 2743 042c 52010000 		.4byte	.LVL50-.Ltext0
 2744 0430 68010000 		.4byte	.LFE45-.Ltext0
 2745 0434 0100     		.2byte	0x1
 2746 0436 51       		.byte	0x51
 2747 0437 00000000 		.4byte	0
 2748 043b 00000000 		.4byte	0
 2749              	.LLST26:
 2750 043f 14010000 		.4byte	.LVL39-.Ltext0
 2751 0443 56010000 		.4byte	.LVL51-.Ltext0
 2752 0447 0100     		.2byte	0x1
 2753 0449 52       		.byte	0x52
 2754 044a 56010000 		.4byte	.LVL51-.Ltext0
 2755 044e 68010000 		.4byte	.LFE45-.Ltext0
 2756 0452 0400     		.2byte	0x4
 2757 0454 F3       		.byte	0xf3
 2758 0455 01       		.uleb128 0x1
 2759 0456 52       		.byte	0x52
 2760 0457 9F       		.byte	0x9f
 2761 0458 00000000 		.4byte	0
 2762 045c 00000000 		.4byte	0
 2763              	.LLST27:
 2764 0460 24010000 		.4byte	.LVL40-.Ltext0
 2765 0464 26010000 		.4byte	.LVL41-.Ltext0
 2766 0468 0600     		.2byte	0x6
 2767 046a 73       		.byte	0x73
 2768 046b 00       		.sleb128 0
 2769 046c 71       		.byte	0x71
 2770 046d 00       		.sleb128 0
 2771 046e 1C       		.byte	0x1c
 2772 046f 9F       		.byte	0x9f
 2773 0470 26010000 		.4byte	.LVL41-.Ltext0
 2774 0474 2A010000 		.4byte	.LVL42-.Ltext0
 2775 0478 0100     		.2byte	0x1
 2776 047a 50       		.byte	0x50
 2777 047b 2A010000 		.4byte	.LVL42-.Ltext0
 2778 047f 36010000 		.4byte	.LVL43-.Ltext0
 2779 0483 0600     		.2byte	0x6
 2780 0485 73       		.byte	0x73
ARM GAS  /var/folders/yt/6z6x8bjn5sjf5fbb45bk5m4c0000gn/T//cck0iJmI.s 			page 55


 2781 0486 00       		.sleb128 0
 2782 0487 71       		.byte	0x71
 2783 0488 00       		.sleb128 0
 2784 0489 1C       		.byte	0x1c
 2785 048a 9F       		.byte	0x9f
 2786 048b 36010000 		.4byte	.LVL43-.Ltext0
 2787 048f 38010000 		.4byte	.LVL44-.Ltext0
 2788 0493 0700     		.2byte	0x7
 2789 0495 71       		.byte	0x71
 2790 0496 00       		.sleb128 0
 2791 0497 20       		.byte	0x20
 2792 0498 73       		.byte	0x73
 2793 0499 00       		.sleb128 0
 2794 049a 22       		.byte	0x22
 2795 049b 9F       		.byte	0x9f
 2796 049c 3A010000 		.4byte	.LVL45-.Ltext0
 2797 04a0 46010000 		.4byte	.LVL46-.Ltext0
 2798 04a4 0600     		.2byte	0x6
 2799 04a6 73       		.byte	0x73
 2800 04a7 00       		.sleb128 0
 2801 04a8 71       		.byte	0x71
 2802 04a9 00       		.sleb128 0
 2803 04aa 1C       		.byte	0x1c
 2804 04ab 9F       		.byte	0x9f
 2805 04ac 46010000 		.4byte	.LVL46-.Ltext0
 2806 04b0 48010000 		.4byte	.LVL47-.Ltext0
 2807 04b4 0700     		.2byte	0x7
 2808 04b6 71       		.byte	0x71
 2809 04b7 00       		.sleb128 0
 2810 04b8 20       		.byte	0x20
 2811 04b9 73       		.byte	0x73
 2812 04ba 00       		.sleb128 0
 2813 04bb 22       		.byte	0x22
 2814 04bc 9F       		.byte	0x9f
 2815 04bd 48010000 		.4byte	.LVL47-.Ltext0
 2816 04c1 4A010000 		.4byte	.LVL48-.Ltext0
 2817 04c5 0600     		.2byte	0x6
 2818 04c7 73       		.byte	0x73
 2819 04c8 00       		.sleb128 0
 2820 04c9 71       		.byte	0x71
 2821 04ca 00       		.sleb128 0
 2822 04cb 1C       		.byte	0x1c
 2823 04cc 9F       		.byte	0x9f
 2824 04cd 4A010000 		.4byte	.LVL48-.Ltext0
 2825 04d1 50010000 		.4byte	.LVL49-.Ltext0
 2826 04d5 0100     		.2byte	0x1
 2827 04d7 50       		.byte	0x50
 2828 04d8 00000000 		.4byte	0
 2829 04dc 00000000 		.4byte	0
 2830              	.LLST28:
 2831 04e0 68010000 		.4byte	.LFB29-.Ltext0
 2832 04e4 6A010000 		.4byte	.LCFI3-.Ltext0
 2833 04e8 0200     		.2byte	0x2
 2834 04ea 7D       		.byte	0x7d
 2835 04eb 00       		.sleb128 0
 2836 04ec 6A010000 		.4byte	.LCFI3-.Ltext0
 2837 04f0 7C010000 		.4byte	.LFE29-.Ltext0
ARM GAS  /var/folders/yt/6z6x8bjn5sjf5fbb45bk5m4c0000gn/T//cck0iJmI.s 			page 56


 2838 04f4 0200     		.2byte	0x2
 2839 04f6 7D       		.byte	0x7d
 2840 04f7 08       		.sleb128 8
 2841 04f8 00000000 		.4byte	0
 2842 04fc 00000000 		.4byte	0
 2843              	.LLST29:
 2844 0500 68010000 		.4byte	.LVL53-.Ltext0
 2845 0504 6C010000 		.4byte	.LVL54-.Ltext0
 2846 0508 0100     		.2byte	0x1
 2847 050a 50       		.byte	0x50
 2848 050b 6C010000 		.4byte	.LVL54-.Ltext0
 2849 050f 7C010000 		.4byte	.LFE29-.Ltext0
 2850 0513 0400     		.2byte	0x4
 2851 0515 F3       		.byte	0xf3
 2852 0516 01       		.uleb128 0x1
 2853 0517 50       		.byte	0x50
 2854 0518 9F       		.byte	0x9f
 2855 0519 00000000 		.4byte	0
 2856 051d 00000000 		.4byte	0
 2857              		.section	.debug_aranges,"",%progbits
 2858 0000 1C000000 		.4byte	0x1c
 2859 0004 0200     		.2byte	0x2
 2860 0006 00000000 		.4byte	.Ldebug_info0
 2861 000a 04       		.byte	0x4
 2862 000b 00       		.byte	0
 2863 000c 0000     		.2byte	0
 2864 000e 0000     		.2byte	0
 2865 0010 00000000 		.4byte	.Ltext0
 2866 0014 7C010000 		.4byte	.Letext0-.Ltext0
 2867 0018 00000000 		.4byte	0
 2868 001c 00000000 		.4byte	0
 2869              		.section	.debug_line,"",%progbits
 2870              	.Ldebug_line0:
 2871 0000 36020000 		.section	.debug_str,"MS",%progbits,1
 2871      02008F01 
 2871      00000201 
 2871      FB0E0D00 
 2871      01010101 
 2872              	.LASF35:
 2873 0000 73745F72 		.ascii	"st_rdev\000"
 2873      64657600 
 2874              	.LASF19:
 2875 0008 636C6F63 		.ascii	"clock_t\000"
 2875      6B5F7400 
 2876              	.LASF87:
 2877 0010 656E7669 		.ascii	"environ\000"
 2877      726F6E00 
 2878              	.LASF58:
 2879 0018 47545052 		.ascii	"GTPR\000"
 2879      00
 2880              	.LASF76:
 2881 001d 70726576 		.ascii	"prev_heap_end\000"
 2881      5F686561 
 2881      705F656E 
 2881      6400
 2882              	.LASF25:
 2883 002b 7569645F 		.ascii	"uid_t\000"
ARM GAS  /var/folders/yt/6z6x8bjn5sjf5fbb45bk5m4c0000gn/T//cck0iJmI.s 			page 57


 2883      7400
 2884              	.LASF27:
 2885 0031 6D6F6465 		.ascii	"mode_t\000"
 2885      5F7400
 2886              	.LASF11:
 2887 0038 5F6F6666 		.ascii	"_off_t\000"
 2887      5F7400
 2888              	.LASF49:
 2889 003f 746D735F 		.ascii	"tms_cutime\000"
 2889      63757469 
 2889      6D6500
 2890              	.LASF62:
 2891 004a 5F657865 		.ascii	"_execve\000"
 2891      63766500 
 2892              	.LASF81:
 2893 0052 5F74696D 		.ascii	"_times\000"
 2893      657300
 2894              	.LASF79:
 2895 0059 5F737461 		.ascii	"_stat\000"
 2895      7400
 2896              	.LASF41:
 2897 005f 73745F63 		.ascii	"st_ctime\000"
 2897      74696D65 
 2897      00
 2898              	.LASF15:
 2899 0068 73697A65 		.ascii	"sizetype\000"
 2899      74797065 
 2899      00
 2900              	.LASF92:
 2901 0071 44657669 		.ascii	"Device/startup/newlib_stubs.c\000"
 2901      63652F73 
 2901      74617274 
 2901      75702F6E 
 2901      65776C69 
 2902              	.LASF94:
 2903 008f 5F657869 		.ascii	"_exit\000"
 2903      7400
 2904              	.LASF9:
 2905 0095 6C6F6E67 		.ascii	"long long int\000"
 2905      206C6F6E 
 2905      6720696E 
 2905      7400
 2906              	.LASF85:
 2907 00a3 5F777269 		.ascii	"_write\000"
 2907      746500
 2908              	.LASF29:
 2909 00aa 73745F64 		.ascii	"st_dev\000"
 2909      657600
 2910              	.LASF66:
 2911 00b1 5F667374 		.ascii	"_fstat\000"
 2911      617400
 2912              	.LASF6:
 2913 00b8 5F5F7569 		.ascii	"__uint16_t\000"
 2913      6E743136 
 2913      5F7400
 2914              	.LASF60:
 2915 00c3 55534152 		.ascii	"USART_TypeDef\000"
ARM GAS  /var/folders/yt/6z6x8bjn5sjf5fbb45bk5m4c0000gn/T//cck0iJmI.s 			page 58


 2915      545F5479 
 2915      70654465 
 2915      6600
 2916              	.LASF91:
 2917 00d1 474E5520 		.ascii	"GNU C 4.9.3 20150529 (release) [ARM/embedded-4_9-br"
 2917      4320342E 
 2917      392E3320 
 2917      32303135 
 2917      30353239 
 2918 0104 616E6368 		.ascii	"anch revision 227977] -mcpu=cortex-m3 -mthumb -gdwa"
 2918      20726576 
 2918      6973696F 
 2918      6E203232 
 2918      37393737 
 2919 0137 72662D32 		.ascii	"rf-2 -Os -fomit-frame-pointer\000"
 2919      202D4F73 
 2919      202D666F 
 2919      6D69742D 
 2919      6672616D 
 2920              	.LASF70:
 2921 0155 5F6B696C 		.ascii	"_kill\000"
 2921      6C00
 2922              	.LASF90:
 2923 015b 5F5F656E 		.ascii	"__env\000"
 2923      7600
 2924              	.LASF28:
 2925 0161 6E6C696E 		.ascii	"nlink_t\000"
 2925      6B5F7400 
 2926              	.LASF57:
 2927 0169 52455345 		.ascii	"RESERVED5\000"
 2927      52564544 
 2927      3500
 2928              	.LASF1:
 2929 0173 7369676E 		.ascii	"signed char\000"
 2929      65642063 
 2929      68617200 
 2930              	.LASF43:
 2931 017f 73745F62 		.ascii	"st_blksize\000"
 2931      6C6B7369 
 2931      7A6500
 2932              	.LASF69:
 2933 018a 5F697361 		.ascii	"_isatty\000"
 2933      74747900 
 2934              	.LASF34:
 2935 0192 73745F67 		.ascii	"st_gid\000"
 2935      696400
 2936              	.LASF22:
 2937 0199 696E6F5F 		.ascii	"ino_t\000"
 2937      7400
 2938              	.LASF50:
 2939 019f 746D735F 		.ascii	"tms_cstime\000"
 2939      63737469 
 2939      6D6500
 2940              	.LASF5:
 2941 01aa 6C6F6E67 		.ascii	"long int\000"
 2941      20696E74 
 2941      00
ARM GAS  /var/folders/yt/6z6x8bjn5sjf5fbb45bk5m4c0000gn/T//cck0iJmI.s 			page 59


 2942              	.LASF78:
 2943 01b3 5F726561 		.ascii	"_read\000"
 2943      6400
 2944              	.LASF3:
 2945 01b9 73686F72 		.ascii	"short int\000"
 2945      7420696E 
 2945      7400
 2946              	.LASF37:
 2947 01c3 73745F61 		.ascii	"st_atime\000"
 2947      74696D65 
 2947      00
 2948              	.LASF36:
 2949 01cc 73745F73 		.ascii	"st_size\000"
 2949      697A6500 
 2950              	.LASF26:
 2951 01d4 6769645F 		.ascii	"gid_t\000"
 2951      7400
 2952              	.LASF39:
 2953 01da 73745F6D 		.ascii	"st_mtime\000"
 2953      74696D65 
 2953      00
 2954              	.LASF24:
 2955 01e3 6465765F 		.ascii	"dev_t\000"
 2955      7400
 2956              	.LASF83:
 2957 01e9 5F776169 		.ascii	"_wait\000"
 2957      7400
 2958              	.LASF74:
 2959 01ef 696E6372 		.ascii	"incr\000"
 2959      00
 2960              	.LASF2:
 2961 01f4 756E7369 		.ascii	"unsigned char\000"
 2961      676E6564 
 2961      20636861 
 2961      7200
 2962              	.LASF63:
 2963 0202 66696C65 		.ascii	"file\000"
 2963      00
 2964              	.LASF20:
 2965 0207 74696D65 		.ascii	"time_t\000"
 2965      5F7400
 2966              	.LASF30:
 2967 020e 73745F69 		.ascii	"st_ino\000"
 2967      6E6F00
 2968              	.LASF75:
 2969 0215 68656170 		.ascii	"heap_end\000"
 2969      5F656E64 
 2969      00
 2970              	.LASF10:
 2971 021e 6C6F6E67 		.ascii	"long long unsigned int\000"
 2971      206C6F6E 
 2971      6720756E 
 2971      7369676E 
 2971      65642069 
 2972              	.LASF18:
 2973 0235 75696E74 		.ascii	"uint32_t\000"
 2973      33325F74 
ARM GAS  /var/folders/yt/6z6x8bjn5sjf5fbb45bk5m4c0000gn/T//cck0iJmI.s 			page 60


 2973      00
 2974              	.LASF0:
 2975 023e 756E7369 		.ascii	"unsigned int\000"
 2975      676E6564 
 2975      20696E74 
 2975      00
 2976              	.LASF80:
 2977 024b 66696C65 		.ascii	"filepath\000"
 2977      70617468 
 2977      00
 2978              	.LASF17:
 2979 0254 75696E74 		.ascii	"uint16_t\000"
 2979      31365F74 
 2979      00
 2980              	.LASF77:
 2981 025d 73746163 		.ascii	"stack\000"
 2981      6B00
 2982              	.LASF8:
 2983 0263 6C6F6E67 		.ascii	"long unsigned int\000"
 2983      20756E73 
 2983      69676E65 
 2983      6420696E 
 2983      7400
 2984              	.LASF65:
 2985 0275 61726776 		.ascii	"argv\000"
 2985      00
 2986              	.LASF84:
 2987 027a 73746174 		.ascii	"status\000"
 2987      757300
 2988              	.LASF4:
 2989 0281 73686F72 		.ascii	"short unsigned int\000"
 2989      7420756E 
 2989      7369676E 
 2989      65642069 
 2989      6E7400
 2990              	.LASF89:
 2991 0294 6572726E 		.ascii	"errno\000"
 2991      6F00
 2992              	.LASF40:
 2993 029a 73745F73 		.ascii	"st_spare2\000"
 2993      70617265 
 2993      3200
 2994              	.LASF61:
 2995 02a4 5F636C6F 		.ascii	"_close\000"
 2995      736500
 2996              	.LASF16:
 2997 02ab 63686172 		.ascii	"char\000"
 2997      00
 2998              	.LASF73:
 2999 02b0 5F736272 		.ascii	"_sbrk\000"
 2999      6B00
 3000              	.LASF21:
 3001 02b6 63616464 		.ascii	"caddr_t\000"
 3001      725F7400 
 3002              	.LASF44:
 3003 02be 73745F62 		.ascii	"st_blocks\000"
 3003      6C6F636B 
ARM GAS  /var/folders/yt/6z6x8bjn5sjf5fbb45bk5m4c0000gn/T//cck0iJmI.s 			page 61


 3003      7300
 3004              	.LASF64:
 3005 02c8 6E616D65 		.ascii	"name\000"
 3005      00
 3006              	.LASF48:
 3007 02cd 746D735F 		.ascii	"tms_stime\000"
 3007      7374696D 
 3007      6500
 3008              	.LASF33:
 3009 02d7 73745F75 		.ascii	"st_uid\000"
 3009      696400
 3010              	.LASF52:
 3011 02de 52455345 		.ascii	"RESERVED0\000"
 3011      52564544 
 3011      3000
 3012              	.LASF53:
 3013 02e8 52455345 		.ascii	"RESERVED1\000"
 3013      52564544 
 3013      3100
 3014              	.LASF54:
 3015 02f2 52455345 		.ascii	"RESERVED2\000"
 3015      52564544 
 3015      3200
 3016              	.LASF55:
 3017 02fc 52455345 		.ascii	"RESERVED3\000"
 3017      52564544 
 3017      3300
 3018              	.LASF56:
 3019 0306 52455345 		.ascii	"RESERVED4\000"
 3019      52564544 
 3019      3400
 3020              	.LASF38:
 3021 0310 73745F73 		.ascii	"st_spare1\000"
 3021      70617265 
 3021      3100
 3022              	.LASF59:
 3023 031a 52455345 		.ascii	"RESERVED6\000"
 3023      52564544 
 3023      3600
 3024              	.LASF42:
 3025 0324 73745F73 		.ascii	"st_spare3\000"
 3025      70617265 
 3025      3300
 3026              	.LASF45:
 3027 032e 73745F73 		.ascii	"st_spare4\000"
 3027      70617265 
 3027      3400
 3028              	.LASF72:
 3029 0338 5F6C7365 		.ascii	"_lseek\000"
 3029      656B00
 3030              	.LASF88:
 3031 033f 49544D5F 		.ascii	"ITM_RxBuffer\000"
 3031      52784275 
 3031      66666572 
 3031      00
 3032              	.LASF7:
 3033 034c 5F5F7569 		.ascii	"__uint32_t\000"
ARM GAS  /var/folders/yt/6z6x8bjn5sjf5fbb45bk5m4c0000gn/T//cck0iJmI.s 			page 62


 3033      6E743332 
 3033      5F7400
 3034              	.LASF67:
 3035 0357 5F666F72 		.ascii	"_fork\000"
 3035      6B00
 3036              	.LASF23:
 3037 035d 6F66665F 		.ascii	"off_t\000"
 3037      7400
 3038              	.LASF68:
 3039 0363 5F676574 		.ascii	"_getpid\000"
 3039      70696400 
 3040              	.LASF12:
 3041 036b 5F5F6465 		.ascii	"__dev_t\000"
 3041      765F7400 
 3042              	.LASF51:
 3043 0373 52455345 		.ascii	"RESET\000"
 3043      5400
 3044              	.LASF93:
 3045 0379 2F557365 		.ascii	"/Users/ingamedeo/ownCloud/STM32F103RBT6FreeRTOS\000"
 3045      72732F69 
 3045      6E67616D 
 3045      6564656F 
 3045      2F6F776E 
 3046              	.LASF13:
 3047 03a9 5F5F7569 		.ascii	"__uid_t\000"
 3047      645F7400 
 3048              	.LASF46:
 3049 03b1 73746174 		.ascii	"stat\000"
 3049      00
 3050              	.LASF31:
 3051 03b6 73745F6D 		.ascii	"st_mode\000"
 3051      6F646500 
 3052              	.LASF32:
 3053 03be 73745F6E 		.ascii	"st_nlink\000"
 3053      6C696E6B 
 3053      00
 3054              	.LASF47:
 3055 03c7 746D735F 		.ascii	"tms_utime\000"
 3055      7574696D 
 3055      6500
 3056              	.LASF95:
 3057 03d1 5F5F6765 		.ascii	"__get_MSP\000"
 3057      745F4D53 
 3057      5000
 3058              	.LASF82:
 3059 03db 5F756E6C 		.ascii	"_unlink\000"
 3059      696E6B00 
 3060              	.LASF86:
 3061 03e3 5F656273 		.ascii	"_ebss\000"
 3061      7300
 3062              	.LASF71:
 3063 03e9 5F6C696E 		.ascii	"_link\000"
 3063      6B00
 3064              	.LASF14:
 3065 03ef 5F5F6769 		.ascii	"__gid_t\000"
 3065      645F7400 
 3066              		.ident	"GCC: (GNU Tools for ARM Embedded Processors) 4.9.3 20150529 (release) [ARM/embedded-4_9-br
ARM GAS  /var/folders/yt/6z6x8bjn5sjf5fbb45bk5m4c0000gn/T//cck0iJmI.s 			page 63


ARM GAS  /var/folders/yt/6z6x8bjn5sjf5fbb45bk5m4c0000gn/T//cck0iJmI.s 			page 64


DEFINED SYMBOLS
                            *ABS*:0000000000000000 newlib_stubs.c
/var/folders/yt/6z6x8bjn5sjf5fbb45bk5m4c0000gn/T//cck0iJmI.s:73     .text:0000000000000000 $t
/var/folders/yt/6z6x8bjn5sjf5fbb45bk5m4c0000gn/T//cck0iJmI.s:78     .text:0000000000000000 _close
/var/folders/yt/6z6x8bjn5sjf5fbb45bk5m4c0000gn/T//cck0iJmI.s:99     .text:0000000000000006 _execve
/var/folders/yt/6z6x8bjn5sjf5fbb45bk5m4c0000gn/T//cck0iJmI.s:119    .text:0000000000000014 $d
/var/folders/yt/6z6x8bjn5sjf5fbb45bk5m4c0000gn/T//cck0iJmI.s:123    .text:0000000000000018 $t
/var/folders/yt/6z6x8bjn5sjf5fbb45bk5m4c0000gn/T//cck0iJmI.s:128    .text:0000000000000018 _fork
/var/folders/yt/6z6x8bjn5sjf5fbb45bk5m4c0000gn/T//cck0iJmI.s:145    .text:0000000000000024 $d
/var/folders/yt/6z6x8bjn5sjf5fbb45bk5m4c0000gn/T//cck0iJmI.s:149    .text:0000000000000028 $t
/var/folders/yt/6z6x8bjn5sjf5fbb45bk5m4c0000gn/T//cck0iJmI.s:154    .text:0000000000000028 _fstat
/var/folders/yt/6z6x8bjn5sjf5fbb45bk5m4c0000gn/T//cck0iJmI.s:177    .text:0000000000000032 _getpid
/var/folders/yt/6z6x8bjn5sjf5fbb45bk5m4c0000gn/T//cck0iJmI.s:195    .text:0000000000000036 _isatty
/var/folders/yt/6z6x8bjn5sjf5fbb45bk5m4c0000gn/T//cck0iJmI.s:222    .text:0000000000000048 $d
/var/folders/yt/6z6x8bjn5sjf5fbb45bk5m4c0000gn/T//cck0iJmI.s:226    .text:000000000000004c $t
/var/folders/yt/6z6x8bjn5sjf5fbb45bk5m4c0000gn/T//cck0iJmI.s:231    .text:000000000000004c _kill
/var/folders/yt/6z6x8bjn5sjf5fbb45bk5m4c0000gn/T//cck0iJmI.s:250    .text:0000000000000058 $d
/var/folders/yt/6z6x8bjn5sjf5fbb45bk5m4c0000gn/T//cck0iJmI.s:254    .text:000000000000005c $t
/var/folders/yt/6z6x8bjn5sjf5fbb45bk5m4c0000gn/T//cck0iJmI.s:259    .text:000000000000005c _link
/var/folders/yt/6z6x8bjn5sjf5fbb45bk5m4c0000gn/T//cck0iJmI.s:278    .text:0000000000000068 $d
/var/folders/yt/6z6x8bjn5sjf5fbb45bk5m4c0000gn/T//cck0iJmI.s:282    .text:000000000000006c $t
/var/folders/yt/6z6x8bjn5sjf5fbb45bk5m4c0000gn/T//cck0iJmI.s:287    .text:000000000000006c _lseek
/var/folders/yt/6z6x8bjn5sjf5fbb45bk5m4c0000gn/T//cck0iJmI.s:307    .text:0000000000000070 _sbrk
/var/folders/yt/6z6x8bjn5sjf5fbb45bk5m4c0000gn/T//cck0iJmI.s:365    .text:00000000000000a0 $d
/var/folders/yt/6z6x8bjn5sjf5fbb45bk5m4c0000gn/T//cck0iJmI.s:371    .text:00000000000000ac $t
/var/folders/yt/6z6x8bjn5sjf5fbb45bk5m4c0000gn/T//cck0iJmI.s:376    .text:00000000000000ac _read
/var/folders/yt/6z6x8bjn5sjf5fbb45bk5m4c0000gn/T//cck0iJmI.s:434    .text:00000000000000dc $d
/var/folders/yt/6z6x8bjn5sjf5fbb45bk5m4c0000gn/T//cck0iJmI.s:439    .text:00000000000000e4 $t
/var/folders/yt/6z6x8bjn5sjf5fbb45bk5m4c0000gn/T//cck0iJmI.s:444    .text:00000000000000e4 _stat
/var/folders/yt/6z6x8bjn5sjf5fbb45bk5m4c0000gn/T//cck0iJmI.s:467    .text:00000000000000ee _times
/var/folders/yt/6z6x8bjn5sjf5fbb45bk5m4c0000gn/T//cck0iJmI.s:487    .text:00000000000000f4 _unlink
/var/folders/yt/6z6x8bjn5sjf5fbb45bk5m4c0000gn/T//cck0iJmI.s:506    .text:0000000000000100 $d
/var/folders/yt/6z6x8bjn5sjf5fbb45bk5m4c0000gn/T//cck0iJmI.s:510    .text:0000000000000104 $t
/var/folders/yt/6z6x8bjn5sjf5fbb45bk5m4c0000gn/T//cck0iJmI.s:515    .text:0000000000000104 _wait
/var/folders/yt/6z6x8bjn5sjf5fbb45bk5m4c0000gn/T//cck0iJmI.s:534    .text:0000000000000110 $d
/var/folders/yt/6z6x8bjn5sjf5fbb45bk5m4c0000gn/T//cck0iJmI.s:538    .text:0000000000000114 $t
/var/folders/yt/6z6x8bjn5sjf5fbb45bk5m4c0000gn/T//cck0iJmI.s:543    .text:0000000000000114 _write
/var/folders/yt/6z6x8bjn5sjf5fbb45bk5m4c0000gn/T//cck0iJmI.s:625    .text:0000000000000160 $d
/var/folders/yt/6z6x8bjn5sjf5fbb45bk5m4c0000gn/T//cck0iJmI.s:630    .text:0000000000000168 $t
/var/folders/yt/6z6x8bjn5sjf5fbb45bk5m4c0000gn/T//cck0iJmI.s:635    .text:0000000000000168 _exit
/var/folders/yt/6z6x8bjn5sjf5fbb45bk5m4c0000gn/T//cck0iJmI.s:661    .text:0000000000000178 $d
/var/folders/yt/6z6x8bjn5sjf5fbb45bk5m4c0000gn/T//cck0iJmI.s:674    .data:0000000000000000 environ
/var/folders/yt/6z6x8bjn5sjf5fbb45bk5m4c0000gn/T//cck0iJmI.s:685    .bss:0000000000000004 __env
/var/folders/yt/6z6x8bjn5sjf5fbb45bk5m4c0000gn/T//cck0iJmI.s:671    .data:0000000000000000 $d
/var/folders/yt/6z6x8bjn5sjf5fbb45bk5m4c0000gn/T//cck0iJmI.s:677    .bss:0000000000000000 $d
/var/folders/yt/6z6x8bjn5sjf5fbb45bk5m4c0000gn/T//cck0iJmI.s:681    .bss:0000000000000000 heap_end.6113
                     .debug_frame:0000000000000010 $d

UNDEFINED SYMBOLS
errno
__get_MSP
_ebss
