ARM GAS  /var/folders/yt/6z6x8bjn5sjf5fbb45bk5m4c0000gn/T//cck0iJmI.s 			page 1


   1              		.syntax unified
   2              		.cpu cortex-m3
   3              		.fpu softvfp
   4              		.eabi_attribute 20, 1	@ Tag_ABI_FP_denormal
   5              		.eabi_attribute 21, 1	@ Tag_ABI_FP_exceptions
   6              		.eabi_attribute 23, 3	@ Tag_ABI_FP_number_model
   7              		.eabi_attribute 24, 1	@ Tag_ABI_align8_needed
   8              		.eabi_attribute 25, 1	@ Tag_ABI_align8_preserved
   9              		.eabi_attribute 26, 1	@ Tag_ABI_enum_size
  10              		.eabi_attribute 30, 4	@ Tag_ABI_optimization_goals
  11              		.eabi_attribute 34, 1	@ Tag_CPU_unaligned_access
  12              		.eabi_attribute 18, 4	@ Tag_ABI_PCS_wchar_t
  13              		.file	"newlib_stubs.c"
  14              	@ GNU C (GNU Tools for ARM Embedded Processors) version 4.9.3 20150529 (release) [ARM/embedded-4_9-
  15              	@	compiled by GNU C version 4.2.1 (Based on Apple Inc. build 5658) (LLVM build 2336.9.00), GMP vers
  16              	@ GGC heuristics: --param ggc-min-expand=100 --param ggc-min-heapsize=131072
  17              	@ options passed:  -I . -I ./Libraries/CMSIS/CM3/CoreSupport
  18              	@ -I ./Libraries/CMSIS/CM3/DeviceSupport/ST/STM32F10x
  19              	@ -I ./Libraries/STM32F10x_StdPeriph_Driver/inc -I ./Libraries/Drivers/Leds
  20              	@ -I ./Libraries/Drivers/Buttons -I ./Libraries/Drivers/Usart
  21              	@ -I ./Libraries/Drivers/i2c -I ./Libraries/Drivers/BH1750
  22              	@ -I ./Libraries/Drivers/Utilities -I ./FreeRTOS/Source/include
  23              	@ -I ./FreeRTOS/Source/portable/GCC/ARM_CM3 -imultilib armv7-m
  24              	@ -iprefix /usr/local/Cellar/arm-none-eabi-gcc/20150921/bin/../lib/gcc/arm-none-eabi/4.9.3/
  25              	@ -isysroot /usr/local/Cellar/arm-none-eabi-gcc/20150921/bin/../arm-none-eabi
  26              	@ -MD Device/startup/newlib_stubs.d -MF .dep/newlib_stubs.o.d -MP
  27              	@ -MQ Device/startup/newlib_stubs.o -D__USES_INITFINI__ -D STM32F10X_MD
  28              	@ -D USE_STDPERIPH_DRIVER -D GCC_ARMCM3 -D RUN_FROM_FLASH=1
  29              	@ Device/startup/newlib_stubs.c -mcpu=cortex-m3 -mthumb
  30              	@ -auxbase-strip Device/startup/newlib_stubs.o -gdwarf-2 -Os -Wall
  31              	@ -Wstrict-prototypes -fomit-frame-pointer -fverbose-asm
  32              	@ options enabled:  -faggressive-loop-optimizations -fauto-inc-dec
  33              	@ -fbranch-count-reg -fcaller-saves -fcombine-stack-adjustments -fcommon
  34              	@ -fcompare-elim -fcprop-registers -fcrossjumping -fcse-follow-jumps
  35              	@ -fdefer-pop -fdelete-null-pointer-checks -fdevirtualize
  36              	@ -fdevirtualize-speculatively -fdwarf2-cfi-asm -fearly-inlining
  37              	@ -feliminate-unused-debug-types -fexpensive-optimizations
  38              	@ -fforward-propagate -ffunction-cse -fgcse -fgcse-lm -fgnu-runtime
  39              	@ -fgnu-unique -fguess-branch-probability -fhoist-adjacent-loads -fident
  40              	@ -fif-conversion -fif-conversion2 -findirect-inlining -finline
  41              	@ -finline-atomics -finline-functions -finline-functions-called-once
  42              	@ -finline-small-functions -fipa-cp -fipa-profile -fipa-pure-const
  43              	@ -fipa-reference -fipa-sra -fira-hoist-pressure -fira-share-save-slots
  44              	@ -fira-share-spill-slots -fisolate-erroneous-paths-dereference -fivopts
  45              	@ -fkeep-static-consts -fleading-underscore -flifetime-dse -fmath-errno
  46              	@ -fmerge-constants -fmerge-debug-strings -fomit-frame-pointer
  47              	@ -foptimize-sibling-calls -fpartial-inlining -fpeephole -fpeephole2
  48              	@ -fprefetch-loop-arrays -freg-struct-return -freorder-blocks
  49              	@ -freorder-functions -frerun-cse-after-loop
  50              	@ -fsched-critical-path-heuristic -fsched-dep-count-heuristic
  51              	@ -fsched-group-heuristic -fsched-interblock -fsched-last-insn-heuristic
  52              	@ -fsched-pressure -fsched-rank-heuristic -fsched-spec
  53              	@ -fsched-spec-insn-heuristic -fsched-stalled-insns-dep -fschedule-insns2
  54              	@ -fsection-anchors -fshow-column -fsigned-zeros -fsplit-ivs-in-unroller
  55              	@ -fsplit-wide-types -fstrict-aliasing -fstrict-overflow
  56              	@ -fstrict-volatile-bitfields -fsync-libcalls -fthread-jumps
  57              	@ -ftoplevel-reorder -ftrapping-math -ftree-bit-ccp -ftree-builtin-call-dce
ARM GAS  /var/folders/yt/6z6x8bjn5sjf5fbb45bk5m4c0000gn/T//cck0iJmI.s 			page 2


  58              	@ -ftree-ccp -ftree-ch -ftree-coalesce-vars -ftree-copy-prop
  59              	@ -ftree-copyrename -ftree-cselim -ftree-dce -ftree-dominator-opts
  60              	@ -ftree-dse -ftree-forwprop -ftree-fre -ftree-loop-if-convert
  61              	@ -ftree-loop-im -ftree-loop-ivcanon -ftree-loop-optimize
  62              	@ -ftree-parallelize-loops= -ftree-phiprop -ftree-pre -ftree-pta
  63              	@ -ftree-reassoc -ftree-scev-cprop -ftree-sink -ftree-slsr -ftree-sra
  64              	@ -ftree-switch-conversion -ftree-tail-merge -ftree-ter -ftree-vrp
  65              	@ -funit-at-a-time -fvar-tracking -fvar-tracking-assignments -fverbose-asm
  66              	@ -fzero-initialized-in-bss -mfix-cortex-m3-ldrd -mlittle-endian -mlra
  67              	@ -mpic-data-is-text-relative -msched-prolog -mthumb -munaligned-access
  68              	@ -mvectorize-with-neon-quad
  69              	
  70              		.text
  71              	.Ltext0:
  72              		.cfi_sections	.debug_frame
  73              		.align	1
  74              		.global	_close
  75              		.thumb
  76              		.thumb_func
  77              		.type	_close, %function
  78              	_close:
  79              	.LFB30:
  80              		.file 1 "Device/startup/newlib_stubs.c"
   1:Device/startup/newlib_stubs.c **** /*
   2:Device/startup/newlib_stubs.c ****  * newlib_stubs.c
   3:Device/startup/newlib_stubs.c ****  *
   4:Device/startup/newlib_stubs.c ****  *  Created on: 2 Nov 2010
   5:Device/startup/newlib_stubs.c ****  *      Author: nanoage.co.uk
   6:Device/startup/newlib_stubs.c ****  */
   7:Device/startup/newlib_stubs.c **** #include <errno.h>
   8:Device/startup/newlib_stubs.c **** #include <sys/stat.h>
   9:Device/startup/newlib_stubs.c **** #include <sys/times.h>
  10:Device/startup/newlib_stubs.c **** #include <sys/unistd.h>
  11:Device/startup/newlib_stubs.c **** #include "stm32f10x_usart.h"
  12:Device/startup/newlib_stubs.c **** #include "usart.h"
  13:Device/startup/newlib_stubs.c **** 
  14:Device/startup/newlib_stubs.c **** extern uint32_t __get_MSP(void);
  15:Device/startup/newlib_stubs.c **** 
  16:Device/startup/newlib_stubs.c **** #ifndef STDOUT_USART
  17:Device/startup/newlib_stubs.c **** #define STDOUT_USART 1
  18:Device/startup/newlib_stubs.c **** #endif
  19:Device/startup/newlib_stubs.c **** 
  20:Device/startup/newlib_stubs.c **** #ifndef STDERR_USART
  21:Device/startup/newlib_stubs.c **** #define STDERR_USART 1
  22:Device/startup/newlib_stubs.c **** #endif
  23:Device/startup/newlib_stubs.c **** 
  24:Device/startup/newlib_stubs.c **** #ifndef STDIN_USART
  25:Device/startup/newlib_stubs.c **** #define STDIN_USART 1
  26:Device/startup/newlib_stubs.c **** #endif
  27:Device/startup/newlib_stubs.c **** 
  28:Device/startup/newlib_stubs.c **** #undef errno
  29:Device/startup/newlib_stubs.c **** extern int errno;
  30:Device/startup/newlib_stubs.c **** 
  31:Device/startup/newlib_stubs.c **** /*
  32:Device/startup/newlib_stubs.c ****  environ
  33:Device/startup/newlib_stubs.c ****  A pointer to a list of environment variables and their values.
  34:Device/startup/newlib_stubs.c ****  For a minimal environment, this empty list is adequate:
ARM GAS  /var/folders/yt/6z6x8bjn5sjf5fbb45bk5m4c0000gn/T//cck0iJmI.s 			page 3


  35:Device/startup/newlib_stubs.c ****  */
  36:Device/startup/newlib_stubs.c **** char *__env[1] = { 0 };
  37:Device/startup/newlib_stubs.c **** char **environ = __env;
  38:Device/startup/newlib_stubs.c **** 
  39:Device/startup/newlib_stubs.c **** int _write(int file, char *ptr, int len);
  40:Device/startup/newlib_stubs.c **** int _read(int file, char *ptr, int len);
  41:Device/startup/newlib_stubs.c **** int _fstat(int file, struct stat *st);
  42:Device/startup/newlib_stubs.c **** int _getpid(void);
  43:Device/startup/newlib_stubs.c **** int _fork(void);
  44:Device/startup/newlib_stubs.c **** void _exit(int status) {
  45:Device/startup/newlib_stubs.c ****     _write(1, "exit", 4);
  46:Device/startup/newlib_stubs.c ****     while (1) {
  47:Device/startup/newlib_stubs.c ****         ;
  48:Device/startup/newlib_stubs.c ****     }
  49:Device/startup/newlib_stubs.c **** }
  50:Device/startup/newlib_stubs.c **** 
  51:Device/startup/newlib_stubs.c **** int _close(int file) {
  81              		.loc 1 51 0
  82              		.cfi_startproc
  83              		@ args = 0, pretend = 0, frame = 0
  84              		@ frame_needed = 0, uses_anonymous_args = 0
  85              		@ link register save eliminated.
  86              	.LVL0:
  52:Device/startup/newlib_stubs.c ****     return -1;
  53:Device/startup/newlib_stubs.c **** }
  87              		.loc 1 53 0
  88 0000 4FF0FF30 		mov	r0, #-1	@,
  89              	.LVL1:
  90 0004 7047     		bx	lr	@
  91              		.cfi_endproc
  92              	.LFE30:
  93              		.size	_close, .-_close
  94              		.align	1
  95              		.global	_execve
  96              		.thumb
  97              		.thumb_func
  98              		.type	_execve, %function
  99              	_execve:
 100              	.LFB31:
  54:Device/startup/newlib_stubs.c **** /*
  55:Device/startup/newlib_stubs.c ****  execve
  56:Device/startup/newlib_stubs.c ****  Transfer control to a new process. Minimal implementation (for a system without processes):
  57:Device/startup/newlib_stubs.c ****  */
  58:Device/startup/newlib_stubs.c **** int _execve(char *name, char **argv, char **env) {
 101              		.loc 1 58 0
 102              		.cfi_startproc
 103              		@ args = 0, pretend = 0, frame = 0
 104              		@ frame_needed = 0, uses_anonymous_args = 0
 105              		@ link register save eliminated.
 106              	.LVL2:
  59:Device/startup/newlib_stubs.c ****     errno = ENOMEM;
 107              		.loc 1 59 0
 108 0006 034B     		ldr	r3, .L3	@ tmp114,
 109 0008 0C22     		movs	r2, #12	@ tmp115,
 110              	.LVL3:
 111 000a 1A60     		str	r2, [r3]	@ tmp115, errno
  60:Device/startup/newlib_stubs.c ****     return -1;
ARM GAS  /var/folders/yt/6z6x8bjn5sjf5fbb45bk5m4c0000gn/T//cck0iJmI.s 			page 4


  61:Device/startup/newlib_stubs.c **** }
 112              		.loc 1 61 0
 113 000c 4FF0FF30 		mov	r0, #-1	@,
 114              	.LVL4:
 115 0010 7047     		bx	lr	@
 116              	.L4:
 117 0012 00BF     		.align	2
 118              	.L3:
 119 0014 00000000 		.word	errno
 120              		.cfi_endproc
 121              	.LFE31:
 122              		.size	_execve, .-_execve
 123              		.align	1
 124              		.global	_fork
 125              		.thumb
 126              		.thumb_func
 127              		.type	_fork, %function
 128              	_fork:
 129              	.LFB32:
  62:Device/startup/newlib_stubs.c **** /*
  63:Device/startup/newlib_stubs.c ****  fork
  64:Device/startup/newlib_stubs.c ****  Create a new process. Minimal implementation (for a system without processes):
  65:Device/startup/newlib_stubs.c ****  */
  66:Device/startup/newlib_stubs.c **** 
  67:Device/startup/newlib_stubs.c **** int _fork(void) {
 130              		.loc 1 67 0
 131              		.cfi_startproc
 132              		@ args = 0, pretend = 0, frame = 0
 133              		@ frame_needed = 0, uses_anonymous_args = 0
 134              		@ link register save eliminated.
  68:Device/startup/newlib_stubs.c ****     errno = EAGAIN;
 135              		.loc 1 68 0
 136 0018 024B     		ldr	r3, .L6	@ tmp111,
 137 001a 0B22     		movs	r2, #11	@ tmp112,
 138 001c 1A60     		str	r2, [r3]	@ tmp112, errno
  69:Device/startup/newlib_stubs.c ****     return -1;
  70:Device/startup/newlib_stubs.c **** }
 139              		.loc 1 70 0
 140 001e 4FF0FF30 		mov	r0, #-1	@,
 141 0022 7047     		bx	lr	@
 142              	.L7:
 143              		.align	2
 144              	.L6:
 145 0024 00000000 		.word	errno
 146              		.cfi_endproc
 147              	.LFE32:
 148              		.size	_fork, .-_fork
 149              		.align	1
 150              		.global	_fstat
 151              		.thumb
 152              		.thumb_func
 153              		.type	_fstat, %function
 154              	_fstat:
 155              	.LFB33:
  71:Device/startup/newlib_stubs.c **** /*
  72:Device/startup/newlib_stubs.c ****  fstat
  73:Device/startup/newlib_stubs.c ****  Status of an open file. For consistency with other minimal implementations in these examples,
ARM GAS  /var/folders/yt/6z6x8bjn5sjf5fbb45bk5m4c0000gn/T//cck0iJmI.s 			page 5


  74:Device/startup/newlib_stubs.c ****  all files are regarded as character special devices.
  75:Device/startup/newlib_stubs.c ****  The `sys/stat.h' header file required is distributed in the `include' subdirectory for this C libr
  76:Device/startup/newlib_stubs.c ****  */
  77:Device/startup/newlib_stubs.c **** int _fstat(int file, struct stat *st) {
 156              		.loc 1 77 0
 157              		.cfi_startproc
 158              		@ args = 0, pretend = 0, frame = 0
 159              		@ frame_needed = 0, uses_anonymous_args = 0
 160              		@ link register save eliminated.
 161              	.LVL5:
  78:Device/startup/newlib_stubs.c ****     st->st_mode = S_IFCHR;
 162              		.loc 1 78 0
 163 0028 4FF40053 		mov	r3, #8192	@ tmp113,
 164 002c 4B60     		str	r3, [r1, #4]	@ tmp113, st_2(D)->st_mode
  79:Device/startup/newlib_stubs.c ****     return 0;
  80:Device/startup/newlib_stubs.c **** }
 165              		.loc 1 80 0
 166 002e 0020     		movs	r0, #0	@,
 167              	.LVL6:
 168 0030 7047     		bx	lr	@
 169              		.cfi_endproc
 170              	.LFE33:
 171              		.size	_fstat, .-_fstat
 172              		.align	1
 173              		.global	_getpid
 174              		.thumb
 175              		.thumb_func
 176              		.type	_getpid, %function
 177              	_getpid:
 178              	.LFB34:
  81:Device/startup/newlib_stubs.c **** 
  82:Device/startup/newlib_stubs.c **** /*
  83:Device/startup/newlib_stubs.c ****  getpid
  84:Device/startup/newlib_stubs.c ****  Process-ID; this is sometimes used to generate strings unlikely to conflict with other processes. 
  85:Device/startup/newlib_stubs.c ****  */
  86:Device/startup/newlib_stubs.c **** 
  87:Device/startup/newlib_stubs.c **** int _getpid(void) {
 179              		.loc 1 87 0
 180              		.cfi_startproc
 181              		@ args = 0, pretend = 0, frame = 0
 182              		@ frame_needed = 0, uses_anonymous_args = 0
 183              		@ link register save eliminated.
  88:Device/startup/newlib_stubs.c ****     return 1;
  89:Device/startup/newlib_stubs.c **** }
 184              		.loc 1 89 0
 185 0032 0120     		movs	r0, #1	@,
 186 0034 7047     		bx	lr	@
 187              		.cfi_endproc
 188              	.LFE34:
 189              		.size	_getpid, .-_getpid
 190              		.align	1
 191              		.global	_isatty
 192              		.thumb
 193              		.thumb_func
 194              		.type	_isatty, %function
 195              	_isatty:
 196              	.LFB35:
ARM GAS  /var/folders/yt/6z6x8bjn5sjf5fbb45bk5m4c0000gn/T//cck0iJmI.s 			page 6


  90:Device/startup/newlib_stubs.c **** 
  91:Device/startup/newlib_stubs.c **** /*
  92:Device/startup/newlib_stubs.c ****  isatty
  93:Device/startup/newlib_stubs.c ****  Query whether output stream is a terminal. For consistency with the other minimal implementations,
  94:Device/startup/newlib_stubs.c ****  */
  95:Device/startup/newlib_stubs.c **** int _isatty(int file) {
 197              		.loc 1 95 0
 198              		.cfi_startproc
 199              		@ args = 0, pretend = 0, frame = 0
 200              		@ frame_needed = 0, uses_anonymous_args = 0
 201              		@ link register save eliminated.
 202              	.LVL7:
  96:Device/startup/newlib_stubs.c ****     switch (file){
 203              		.loc 1 96 0
 204 0036 0228     		cmp	r0, #2	@ file,
  97:Device/startup/newlib_stubs.c ****     case STDOUT_FILENO:
  98:Device/startup/newlib_stubs.c ****     case STDERR_FILENO:
  99:Device/startup/newlib_stubs.c ****     case STDIN_FILENO:
 100:Device/startup/newlib_stubs.c ****         return 1;
 101:Device/startup/newlib_stubs.c ****     default:
 102:Device/startup/newlib_stubs.c ****         //errno = ENOTTY;
 103:Device/startup/newlib_stubs.c ****         errno = EBADF;
 205              		.loc 1 103 0
 206 0038 81BF     		itttt	hi
 207 003a 034B     		ldrhi	r3, .L15	@ tmp114,
 208 003c 0922     		movhi	r2, #9	@ tmp115,
 104:Device/startup/newlib_stubs.c ****         return 0;
 209              		.loc 1 104 0
 210 003e 0020     		movhi	r0, #0	@ D.6283,
 211              	.LVL8:
 103:Device/startup/newlib_stubs.c ****         return 0;
 212              		.loc 1 103 0
 213 0040 1A60     		strhi	r2, [r3]	@ tmp115, errno
 100:Device/startup/newlib_stubs.c ****     default:
 214              		.loc 1 100 0
 215 0042 98BF     		it	ls
 216 0044 0120     		movls	r0, #1	@ D.6283,
 105:Device/startup/newlib_stubs.c ****     }
 106:Device/startup/newlib_stubs.c **** }
 217              		.loc 1 106 0
 218 0046 7047     		bx	lr	@
 219              	.L16:
 220              		.align	2
 221              	.L15:
 222 0048 00000000 		.word	errno
 223              		.cfi_endproc
 224              	.LFE35:
 225              		.size	_isatty, .-_isatty
 226              		.align	1
 227              		.global	_kill
 228              		.thumb
 229              		.thumb_func
 230              		.type	_kill, %function
 231              	_kill:
 232              	.LFB36:
 107:Device/startup/newlib_stubs.c **** 
 108:Device/startup/newlib_stubs.c **** 
ARM GAS  /var/folders/yt/6z6x8bjn5sjf5fbb45bk5m4c0000gn/T//cck0iJmI.s 			page 7


 109:Device/startup/newlib_stubs.c **** /*
 110:Device/startup/newlib_stubs.c ****  kill
 111:Device/startup/newlib_stubs.c ****  Send a signal. Minimal implementation:
 112:Device/startup/newlib_stubs.c ****  */
 113:Device/startup/newlib_stubs.c **** int _kill(int pid, int sig) {
 233              		.loc 1 113 0
 234              		.cfi_startproc
 235              		@ args = 0, pretend = 0, frame = 0
 236              		@ frame_needed = 0, uses_anonymous_args = 0
 237              		@ link register save eliminated.
 238              	.LVL9:
 114:Device/startup/newlib_stubs.c ****     errno = EINVAL;
 239              		.loc 1 114 0
 240 004c 024B     		ldr	r3, .L18	@ tmp113,
 241 004e 1622     		movs	r2, #22	@ tmp114,
 242 0050 1A60     		str	r2, [r3]	@ tmp114, errno
 115:Device/startup/newlib_stubs.c ****     return (-1);
 116:Device/startup/newlib_stubs.c **** }
 243              		.loc 1 116 0
 244 0052 4FF0FF30 		mov	r0, #-1	@,
 245              	.LVL10:
 246 0056 7047     		bx	lr	@
 247              	.L19:
 248              		.align	2
 249              	.L18:
 250 0058 00000000 		.word	errno
 251              		.cfi_endproc
 252              	.LFE36:
 253              		.size	_kill, .-_kill
 254              		.align	1
 255              		.global	_link
 256              		.thumb
 257              		.thumb_func
 258              		.type	_link, %function
 259              	_link:
 260              	.LFB37:
 117:Device/startup/newlib_stubs.c **** 
 118:Device/startup/newlib_stubs.c **** /*
 119:Device/startup/newlib_stubs.c ****  link
 120:Device/startup/newlib_stubs.c ****  Establish a new name for an existing file. Minimal implementation:
 121:Device/startup/newlib_stubs.c ****  */
 122:Device/startup/newlib_stubs.c **** 
 123:Device/startup/newlib_stubs.c **** int _link(char *old, char *new) {
 261              		.loc 1 123 0
 262              		.cfi_startproc
 263              		@ args = 0, pretend = 0, frame = 0
 264              		@ frame_needed = 0, uses_anonymous_args = 0
 265              		@ link register save eliminated.
 266              	.LVL11:
 124:Device/startup/newlib_stubs.c ****     errno = EMLINK;
 267              		.loc 1 124 0
 268 005c 024B     		ldr	r3, .L21	@ tmp113,
 269 005e 1F22     		movs	r2, #31	@ tmp114,
 270 0060 1A60     		str	r2, [r3]	@ tmp114, errno
 125:Device/startup/newlib_stubs.c ****     return -1;
 126:Device/startup/newlib_stubs.c **** }
 271              		.loc 1 126 0
ARM GAS  /var/folders/yt/6z6x8bjn5sjf5fbb45bk5m4c0000gn/T//cck0iJmI.s 			page 8


 272 0062 4FF0FF30 		mov	r0, #-1	@,
 273              	.LVL12:
 274 0066 7047     		bx	lr	@
 275              	.L22:
 276              		.align	2
 277              	.L21:
 278 0068 00000000 		.word	errno
 279              		.cfi_endproc
 280              	.LFE37:
 281              		.size	_link, .-_link
 282              		.align	1
 283              		.global	_lseek
 284              		.thumb
 285              		.thumb_func
 286              		.type	_lseek, %function
 287              	_lseek:
 288              	.LFB38:
 127:Device/startup/newlib_stubs.c **** 
 128:Device/startup/newlib_stubs.c **** /*
 129:Device/startup/newlib_stubs.c ****  lseek
 130:Device/startup/newlib_stubs.c ****  Set position in a file. Minimal implementation:
 131:Device/startup/newlib_stubs.c ****  */
 132:Device/startup/newlib_stubs.c **** int _lseek(int file, int ptr, int dir) {
 289              		.loc 1 132 0
 290              		.cfi_startproc
 291              		@ args = 0, pretend = 0, frame = 0
 292              		@ frame_needed = 0, uses_anonymous_args = 0
 293              		@ link register save eliminated.
 294              	.LVL13:
 133:Device/startup/newlib_stubs.c ****     return 0;
 134:Device/startup/newlib_stubs.c **** }
 295              		.loc 1 134 0
 296 006c 0020     		movs	r0, #0	@,
 297              	.LVL14:
 298 006e 7047     		bx	lr	@
 299              		.cfi_endproc
 300              	.LFE38:
 301              		.size	_lseek, .-_lseek
 302              		.align	1
 303              		.global	_sbrk
 304              		.thumb
 305              		.thumb_func
 306              		.type	_sbrk, %function
 307              	_sbrk:
 308              	.LFB39:
 135:Device/startup/newlib_stubs.c **** 
 136:Device/startup/newlib_stubs.c **** /*
 137:Device/startup/newlib_stubs.c ****  sbrk
 138:Device/startup/newlib_stubs.c ****  Increase program data space.
 139:Device/startup/newlib_stubs.c ****  Malloc and related functions depend on this
 140:Device/startup/newlib_stubs.c ****  */
 141:Device/startup/newlib_stubs.c **** caddr_t _sbrk(int incr) {
 309              		.loc 1 141 0
 310              		.cfi_startproc
 311              		@ args = 0, pretend = 0, frame = 0
 312              		@ frame_needed = 0, uses_anonymous_args = 0
 313              	.LVL15:
ARM GAS  /var/folders/yt/6z6x8bjn5sjf5fbb45bk5m4c0000gn/T//cck0iJmI.s 			page 9


 314 0070 70B5     		push	{r4, r5, r6, lr}	@
 315              	.LCFI0:
 316              		.cfi_def_cfa_offset 16
 317              		.cfi_offset 4, -16
 318              		.cfi_offset 5, -12
 319              		.cfi_offset 6, -8
 320              		.cfi_offset 14, -4
 142:Device/startup/newlib_stubs.c **** 
 143:Device/startup/newlib_stubs.c ****     extern char _ebss; // Defined by the linker
 144:Device/startup/newlib_stubs.c ****     static char *heap_end;
 145:Device/startup/newlib_stubs.c ****     char *prev_heap_end;
 146:Device/startup/newlib_stubs.c **** 
 147:Device/startup/newlib_stubs.c ****     if (heap_end == 0) {
 321              		.loc 1 147 0
 322 0072 0B4C     		ldr	r4, .L29	@ tmp120,
 141:Device/startup/newlib_stubs.c **** 
 323              		.loc 1 141 0
 324 0074 0646     		mov	r6, r0	@ incr, incr
 325              		.loc 1 147 0
 326 0076 2368     		ldr	r3, [r4]	@ heap_end, heap_end
 327 0078 0BB9     		cbnz	r3, .L25	@ heap_end,
 148:Device/startup/newlib_stubs.c ****         heap_end = &_ebss;
 328              		.loc 1 148 0
 329 007a 0A4B     		ldr	r3, .L29+4	@ tmp123,
 330 007c 2360     		str	r3, [r4]	@ tmp123, heap_end
 331              	.L25:
 149:Device/startup/newlib_stubs.c ****     }
 150:Device/startup/newlib_stubs.c ****     prev_heap_end = heap_end;
 332              		.loc 1 150 0
 333 007e 2568     		ldr	r5, [r4]	@ prev_heap_end, heap_end
 334              	.LVL16:
 151:Device/startup/newlib_stubs.c **** 
 152:Device/startup/newlib_stubs.c **** char * stack = (char*) __get_MSP();
 335              		.loc 1 152 0
 336 0080 FFF7FEFF 		bl	__get_MSP	@
 337              	.LVL17:
 153:Device/startup/newlib_stubs.c ****      if (heap_end + incr >  stack)
 338              		.loc 1 153 0
 339 0084 2368     		ldr	r3, [r4]	@ heap_end, heap_end
 340 0086 3344     		add	r3, r3, r6	@ D.6293, incr
 341 0088 8342     		cmp	r3, r0	@ D.6293,
 154:Device/startup/newlib_stubs.c ****      {
 155:Device/startup/newlib_stubs.c ****         // _write (STDERR_FILENO, "Heap and stack collision\n", 25);
 156:Device/startup/newlib_stubs.c ****          errno = ENOMEM;
 342              		.loc 1 156 0
 343 008a 89BF     		itett	hi
 344 008c 064B     		ldrhi	r3, .L29+8	@ tmp127,
 157:Device/startup/newlib_stubs.c ****          return  (caddr_t) -1;
 158:Device/startup/newlib_stubs.c ****          //abort ();
 159:Device/startup/newlib_stubs.c ****      }
 160:Device/startup/newlib_stubs.c **** 
 161:Device/startup/newlib_stubs.c ****     heap_end += incr;
 345              		.loc 1 161 0
 346 008e 044A     		ldrls	r2, .L29	@ tmp124,
 156:Device/startup/newlib_stubs.c ****          return  (caddr_t) -1;
 347              		.loc 1 156 0
 348 0090 0C22     		movhi	r2, #12	@ tmp128,
ARM GAS  /var/folders/yt/6z6x8bjn5sjf5fbb45bk5m4c0000gn/T//cck0iJmI.s 			page 10


 157:Device/startup/newlib_stubs.c ****          return  (caddr_t) -1;
 349              		.loc 1 157 0
 350 0092 4FF0FF30 		movhi	r0, #-1	@ D.6292,
 351              	.LVL18:
 156:Device/startup/newlib_stubs.c ****          return  (caddr_t) -1;
 352              		.loc 1 156 0
 353 0096 8EBF     		itee	hi
 354 0098 1A60     		strhi	r2, [r3]	@ tmp128, errno
 355              		.loc 1 161 0
 356 009a 1360     		strls	r3, [r2]	@ D.6293, heap_end
 162:Device/startup/newlib_stubs.c ****     return (caddr_t) prev_heap_end;
 357              		.loc 1 162 0
 358 009c 2846     		movls	r0, r5	@ D.6292, prev_heap_end
 163:Device/startup/newlib_stubs.c **** 
 164:Device/startup/newlib_stubs.c **** }
 359              		.loc 1 164 0
 360 009e 70BD     		pop	{r4, r5, r6, pc}	@
 361              	.LVL19:
 362              	.L30:
 363              		.align	2
 364              	.L29:
 365 00a0 00000000 		.word	.LANCHOR0
 366 00a4 00000000 		.word	_ebss
 367 00a8 00000000 		.word	errno
 368              		.cfi_endproc
 369              	.LFE39:
 370              		.size	_sbrk, .-_sbrk
 371              		.align	1
 372              		.global	_read
 373              		.thumb
 374              		.thumb_func
 375              		.type	_read, %function
 376              	_read:
 377              	.LFB40:
 165:Device/startup/newlib_stubs.c **** 
 166:Device/startup/newlib_stubs.c **** 
 167:Device/startup/newlib_stubs.c **** /*
 168:Device/startup/newlib_stubs.c ****  read
 169:Device/startup/newlib_stubs.c ****  Read a character to a file. `libc' subroutines will use this system routine for input from all fil
 170:Device/startup/newlib_stubs.c ****  Returns -1 on error or blocks until the number of characters have been read.
 171:Device/startup/newlib_stubs.c ****  */
 172:Device/startup/newlib_stubs.c **** 
 173:Device/startup/newlib_stubs.c **** 
 174:Device/startup/newlib_stubs.c **** int _read(int file, char *ptr, int len) {
 378              		.loc 1 174 0
 379              		.cfi_startproc
 380              		@ args = 0, pretend = 0, frame = 0
 381              		@ frame_needed = 0, uses_anonymous_args = 0
 382              	.LVL20:
 383 00ac 10B5     		push	{r4, lr}	@
 384              	.LCFI1:
 385              		.cfi_def_cfa_offset 8
 386              		.cfi_offset 4, -8
 387              		.cfi_offset 14, -4
 175:Device/startup/newlib_stubs.c ****     int n;
 176:Device/startup/newlib_stubs.c ****     int num = 0;
 177:Device/startup/newlib_stubs.c ****     switch (file) {
ARM GAS  /var/folders/yt/6z6x8bjn5sjf5fbb45bk5m4c0000gn/T//cck0iJmI.s 			page 11


 388              		.loc 1 177 0
 389 00ae 58B9     		cbnz	r0, .L41	@ file,
 390              		.loc 1 177 0 is_stmt 0 discriminator 1
 391 00b0 0B46     		mov	r3, r1	@ ptr, ptr
 392              	.LVL21:
 393              	.L34:
 394 00b2 581A     		subs	r0, r3, r1	@ D.6315, ptr, ptr
 395              	.LVL22:
 178:Device/startup/newlib_stubs.c ****     case STDIN_FILENO:
 179:Device/startup/newlib_stubs.c ****         for (n = 0; n < len; n++) {
 396              		.loc 1 179 0 is_stmt 1 discriminator 1
 397 00b4 9042     		cmp	r0, r2	@ D.6315, len
 398 00b6 0DDA     		bge	.L43	@,
 399              	.LVL23:
 400              	.L39:
 401              	.LBB2:
 180:Device/startup/newlib_stubs.c **** #if   STDIN_USART == 1
 181:Device/startup/newlib_stubs.c ****             //char c = Usart1Get();
 182:Device/startup/newlib_stubs.c ****         	while ((USART1->SR & USART_FLAG_RXNE) == (uint16_t)RESET) {}
 402              		.loc 1 182 0 discriminator 1
 403 00b8 0848     		ldr	r0, .L44	@ tmp155,
 404 00ba 0488     		ldrh	r4, [r0]	@, MEM[(struct USART_TypeDef *)1073821696B].SR
 405 00bc A406     		lsls	r4, r4, #26	@, MEM[(struct USART_TypeDef *)1073821696B].SR,
 406 00be FBD5     		bpl	.L39	@,
 183:Device/startup/newlib_stubs.c ****             char c = (char)(USART1->DR & (uint16_t)0x01FF);
 407              		.loc 1 183 0 discriminator 2
 408 00c0 8088     		ldrh	r0, [r0, #4]	@, MEM[(struct USART_TypeDef *)1073821696B].DR
 409              	.LVL24:
 410 00c2 03F8010B 		strb	r0, [r3], #1	@ MEM[(struct USART_TypeDef *)1073821696B].DR, MEM[base: ptr_19, offset: 4294967
 411              	.LVL25:
 412 00c6 F4E7     		b	.L34	@
 413              	.LVL26:
 414              	.L41:
 415              	.LBE2:
 184:Device/startup/newlib_stubs.c **** #elif STDIN_USART == 2
 185:Device/startup/newlib_stubs.c ****             while ((USART2->SR & USART_FLAG_RXNE) == (uint16_t) RESET) {}
 186:Device/startup/newlib_stubs.c ****             char c = (char) (USART2->DR & (uint16_t) 0x01FF);
 187:Device/startup/newlib_stubs.c **** #elif STDIN_USART == 3
 188:Device/startup/newlib_stubs.c ****             while ((USART3->SR & USART_FLAG_RXNE) == (uint16_t)RESET) {}
 189:Device/startup/newlib_stubs.c ****             char c = (char)(USART3->DR & (uint16_t)0x01FF);
 190:Device/startup/newlib_stubs.c **** #endif
 191:Device/startup/newlib_stubs.c ****             *ptr++ = c;
 192:Device/startup/newlib_stubs.c ****             num++;
 193:Device/startup/newlib_stubs.c ****         }
 194:Device/startup/newlib_stubs.c ****         break;
 195:Device/startup/newlib_stubs.c ****     default:
 196:Device/startup/newlib_stubs.c ****         errno = EBADF;
 416              		.loc 1 196 0
 417 00c8 054B     		ldr	r3, .L44+4	@ tmp165,
 418 00ca 0922     		movs	r2, #9	@ tmp166,
 419              	.LVL27:
 420 00cc 1A60     		str	r2, [r3]	@ tmp166, errno
 197:Device/startup/newlib_stubs.c ****         return -1;
 421              		.loc 1 197 0
 422 00ce 4FF0FF30 		mov	r0, #-1	@ D.6312,
 423              	.LVL28:
 424 00d2 10BD     		pop	{r4, pc}	@
ARM GAS  /var/folders/yt/6z6x8bjn5sjf5fbb45bk5m4c0000gn/T//cck0iJmI.s 			page 12


 425              	.LVL29:
 426              	.L43:
 427 00d4 22EAE270 		bic	r0, r2, r2, asr #31	@ D.6312, len
 428              	.LVL30:
 198:Device/startup/newlib_stubs.c ****     }
 199:Device/startup/newlib_stubs.c ****     return num;
 200:Device/startup/newlib_stubs.c **** }
 429              		.loc 1 200 0
 430 00d8 10BD     		pop	{r4, pc}	@
 431              	.L45:
 432 00da 00BF     		.align	2
 433              	.L44:
 434 00dc 00380140 		.word	1073821696
 435 00e0 00000000 		.word	errno
 436              		.cfi_endproc
 437              	.LFE40:
 438              		.size	_read, .-_read
 439              		.align	1
 440              		.global	_stat
 441              		.thumb
 442              		.thumb_func
 443              		.type	_stat, %function
 444              	_stat:
 445              	.LFB41:
 201:Device/startup/newlib_stubs.c **** 
 202:Device/startup/newlib_stubs.c **** /*
 203:Device/startup/newlib_stubs.c ****  stat
 204:Device/startup/newlib_stubs.c ****  Status of a file (by name). Minimal implementation:
 205:Device/startup/newlib_stubs.c ****  int    _EXFUN(stat,( const char *__path, struct stat *__sbuf ));
 206:Device/startup/newlib_stubs.c ****  */
 207:Device/startup/newlib_stubs.c **** 
 208:Device/startup/newlib_stubs.c **** int _stat(const char *filepath, struct stat *st) {
 446              		.loc 1 208 0
 447              		.cfi_startproc
 448              		@ args = 0, pretend = 0, frame = 0
 449              		@ frame_needed = 0, uses_anonymous_args = 0
 450              		@ link register save eliminated.
 451              	.LVL31:
 209:Device/startup/newlib_stubs.c ****     st->st_mode = S_IFCHR;
 452              		.loc 1 209 0
 453 00e4 4FF40053 		mov	r3, #8192	@ tmp113,
 454 00e8 4B60     		str	r3, [r1, #4]	@ tmp113, st_2(D)->st_mode
 210:Device/startup/newlib_stubs.c ****     return 0;
 211:Device/startup/newlib_stubs.c **** }
 455              		.loc 1 211 0
 456 00ea 0020     		movs	r0, #0	@,
 457              	.LVL32:
 458 00ec 7047     		bx	lr	@
 459              		.cfi_endproc
 460              	.LFE41:
 461              		.size	_stat, .-_stat
 462              		.align	1
 463              		.global	_times
 464              		.thumb
 465              		.thumb_func
 466              		.type	_times, %function
 467              	_times:
ARM GAS  /var/folders/yt/6z6x8bjn5sjf5fbb45bk5m4c0000gn/T//cck0iJmI.s 			page 13


 468              	.LFB42:
 212:Device/startup/newlib_stubs.c **** 
 213:Device/startup/newlib_stubs.c **** /*
 214:Device/startup/newlib_stubs.c ****  times
 215:Device/startup/newlib_stubs.c ****  Timing information for current process. Minimal implementation:
 216:Device/startup/newlib_stubs.c ****  */
 217:Device/startup/newlib_stubs.c **** 
 218:Device/startup/newlib_stubs.c **** clock_t _times(struct tms *buf) {
 469              		.loc 1 218 0
 470              		.cfi_startproc
 471              		@ args = 0, pretend = 0, frame = 0
 472              		@ frame_needed = 0, uses_anonymous_args = 0
 473              		@ link register save eliminated.
 474              	.LVL33:
 219:Device/startup/newlib_stubs.c ****     return -1;
 220:Device/startup/newlib_stubs.c **** }
 475              		.loc 1 220 0
 476 00ee 4FF0FF30 		mov	r0, #-1	@,
 477              	.LVL34:
 478 00f2 7047     		bx	lr	@
 479              		.cfi_endproc
 480              	.LFE42:
 481              		.size	_times, .-_times
 482              		.align	1
 483              		.global	_unlink
 484              		.thumb
 485              		.thumb_func
 486              		.type	_unlink, %function
 487              	_unlink:
 488              	.LFB43:
 221:Device/startup/newlib_stubs.c **** 
 222:Device/startup/newlib_stubs.c **** /*
 223:Device/startup/newlib_stubs.c ****  unlink
 224:Device/startup/newlib_stubs.c ****  Remove a file's directory entry. Minimal implementation:
 225:Device/startup/newlib_stubs.c ****  */
 226:Device/startup/newlib_stubs.c **** int _unlink(char *name) {
 489              		.loc 1 226 0
 490              		.cfi_startproc
 491              		@ args = 0, pretend = 0, frame = 0
 492              		@ frame_needed = 0, uses_anonymous_args = 0
 493              		@ link register save eliminated.
 494              	.LVL35:
 227:Device/startup/newlib_stubs.c ****     errno = ENOENT;
 495              		.loc 1 227 0
 496 00f4 024B     		ldr	r3, .L49	@ tmp112,
 497 00f6 0222     		movs	r2, #2	@ tmp113,
 498 00f8 1A60     		str	r2, [r3]	@ tmp113, errno
 228:Device/startup/newlib_stubs.c ****     return -1;
 229:Device/startup/newlib_stubs.c **** }
 499              		.loc 1 229 0
 500 00fa 4FF0FF30 		mov	r0, #-1	@,
 501              	.LVL36:
 502 00fe 7047     		bx	lr	@
 503              	.L50:
 504              		.align	2
 505              	.L49:
 506 0100 00000000 		.word	errno
ARM GAS  /var/folders/yt/6z6x8bjn5sjf5fbb45bk5m4c0000gn/T//cck0iJmI.s 			page 14


 507              		.cfi_endproc
 508              	.LFE43:
 509              		.size	_unlink, .-_unlink
 510              		.align	1
 511              		.global	_wait
 512              		.thumb
 513              		.thumb_func
 514              		.type	_wait, %function
 515              	_wait:
 516              	.LFB44:
 230:Device/startup/newlib_stubs.c **** 
 231:Device/startup/newlib_stubs.c **** /*
 232:Device/startup/newlib_stubs.c ****  wait
 233:Device/startup/newlib_stubs.c ****  Wait for a child process. Minimal implementation:
 234:Device/startup/newlib_stubs.c ****  */
 235:Device/startup/newlib_stubs.c **** int _wait(int *status) {
 517              		.loc 1 235 0
 518              		.cfi_startproc
 519              		@ args = 0, pretend = 0, frame = 0
 520              		@ frame_needed = 0, uses_anonymous_args = 0
 521              		@ link register save eliminated.
 522              	.LVL37:
 236:Device/startup/newlib_stubs.c ****     errno = ECHILD;
 523              		.loc 1 236 0
 524 0104 024B     		ldr	r3, .L52	@ tmp112,
 525 0106 0A22     		movs	r2, #10	@ tmp113,
 526 0108 1A60     		str	r2, [r3]	@ tmp113, errno
 237:Device/startup/newlib_stubs.c ****     return -1;
 238:Device/startup/newlib_stubs.c **** }
 527              		.loc 1 238 0
 528 010a 4FF0FF30 		mov	r0, #-1	@,
 529              	.LVL38:
 530 010e 7047     		bx	lr	@
 531              	.L53:
 532              		.align	2
 533              	.L52:
 534 0110 00000000 		.word	errno
 535              		.cfi_endproc
 536              	.LFE44:
 537              		.size	_wait, .-_wait
 538              		.align	1
 539              		.global	_write
 540              		.thumb
 541              		.thumb_func
 542              		.type	_write, %function
 543              	_write:
 544              	.LFB45:
 239:Device/startup/newlib_stubs.c **** 
 240:Device/startup/newlib_stubs.c **** /*
 241:Device/startup/newlib_stubs.c ****  write
 242:Device/startup/newlib_stubs.c ****  Write a character to a file. `libc' subroutines will use this system routine for output to all fil
 243:Device/startup/newlib_stubs.c ****  Returns -1 on error or number of bytes sent
 244:Device/startup/newlib_stubs.c ****  */
 245:Device/startup/newlib_stubs.c **** int _write(int file, char *ptr, int len) {
 545              		.loc 1 245 0
 546              		.cfi_startproc
 547              		@ args = 0, pretend = 0, frame = 0
ARM GAS  /var/folders/yt/6z6x8bjn5sjf5fbb45bk5m4c0000gn/T//cck0iJmI.s 			page 15


 548              		@ frame_needed = 0, uses_anonymous_args = 0
 549              	.LVL39:
 246:Device/startup/newlib_stubs.c ****     int n;
 247:Device/startup/newlib_stubs.c ****     switch (file) {
 550              		.loc 1 247 0
 551 0114 0128     		cmp	r0, #1	@ file,
 245:Device/startup/newlib_stubs.c ****     int n;
 552              		.loc 1 245 0
 553 0116 10B5     		push	{r4, lr}	@
 554              	.LCFI2:
 555              		.cfi_def_cfa_offset 8
 556              		.cfi_offset 4, -8
 557              		.cfi_offset 14, -4
 558              		.loc 1 247 0
 559 0118 03D0     		beq	.L56	@,
 560 011a 0228     		cmp	r0, #2	@ file,
 561 011c 19D1     		bne	.L70	@,
 562              		.loc 1 247 0 is_stmt 0 discriminator 1
 563 011e 0B46     		mov	r3, r1	@ ptr, ptr
 564 0120 12E0     		b	.L58	@
 565              	.L56:
 566 0122 0B46     		mov	r3, r1	@ ptr, ptr
 567              	.LVL40:
 568              	.L59:
 569 0124 581A     		subs	r0, r3, r1	@ D.6356, ptr, ptr
 570              	.LVL41:
 248:Device/startup/newlib_stubs.c ****     case STDOUT_FILENO: /*stdout*/
 249:Device/startup/newlib_stubs.c ****         for (n = 0; n < len; n++) {
 571              		.loc 1 249 0 is_stmt 1 discriminator 1
 572 0126 9042     		cmp	r0, r2	@ D.6356, len
 573 0128 11DA     		bge	.L63	@,
 574              	.LVL42:
 575              	.L66:
 250:Device/startup/newlib_stubs.c **** #if STDOUT_USART == 1
 251:Device/startup/newlib_stubs.c ****         	//Usart1Put(*ptr++ & (uint16_t)0x01FF);
 252:Device/startup/newlib_stubs.c ****         	while ((USART1->SR & USART_FLAG_TC) == (uint16_t)RESET) {}
 576              		.loc 1 252 0 discriminator 1
 577 012a 0D48     		ldr	r0, .L71	@ tmp133,
 578 012c 0488     		ldrh	r4, [r0]	@, MEM[(struct USART_TypeDef *)1073821696B].SR
 579 012e 6406     		lsls	r4, r4, #25	@, MEM[(struct USART_TypeDef *)1073821696B].SR,
 580 0130 FBD5     		bpl	.L66	@,
 253:Device/startup/newlib_stubs.c ****             USART1->DR = (*ptr++ & (uint16_t)0x01FF);
 581              		.loc 1 253 0 discriminator 2
 582 0132 13F8014B 		ldrb	r4, [r3], #1	@ zero_extendqisi2	@ D.6354, MEM[base: ptr_19, offset: 4294967295B]
 583              	.LVL43:
 584 0136 8480     		strh	r4, [r0, #4]	@ movhi	@ D.6354, MEM[(struct USART_TypeDef *)1073821696B].DR
 585              	.LVL44:
 586 0138 F4E7     		b	.L59	@
 587              	.LVL45:
 588              	.L67:
 254:Device/startup/newlib_stubs.c **** #elif  STDOUT_USART == 2
 255:Device/startup/newlib_stubs.c ****             while ((USART2->SR & USART_FLAG_TC) == (uint16_t) RESET) {
 256:Device/startup/newlib_stubs.c ****             }
 257:Device/startup/newlib_stubs.c ****             USART2->DR = (*ptr++ & (uint16_t) 0x01FF);
 258:Device/startup/newlib_stubs.c **** #elif  STDOUT_USART == 3
 259:Device/startup/newlib_stubs.c ****             while ((USART3->SR & USART_FLAG_TC) == (uint16_t)RESET) {}
 260:Device/startup/newlib_stubs.c ****             USART3->DR = (*ptr++ & (uint16_t)0x01FF);
ARM GAS  /var/folders/yt/6z6x8bjn5sjf5fbb45bk5m4c0000gn/T//cck0iJmI.s 			page 16


 261:Device/startup/newlib_stubs.c **** #endif
 262:Device/startup/newlib_stubs.c ****         }
 263:Device/startup/newlib_stubs.c ****         break;
 264:Device/startup/newlib_stubs.c ****     case STDERR_FILENO: /* stderr */
 265:Device/startup/newlib_stubs.c ****         for (n = 0; n < len; n++) {
 266:Device/startup/newlib_stubs.c **** #if STDERR_USART == 1
 267:Device/startup/newlib_stubs.c ****         	//Usart1Put(*ptr++ & (uint16_t)0x01FF);
 268:Device/startup/newlib_stubs.c ****             while ((USART1->SR & USART_FLAG_TC) == (uint16_t)RESET) {}
 589              		.loc 1 268 0 discriminator 1
 590 013a 0948     		ldr	r0, .L71	@ tmp143,
 591 013c 0488     		ldrh	r4, [r0]	@, MEM[(struct USART_TypeDef *)1073821696B].SR
 592 013e 6406     		lsls	r4, r4, #25	@, MEM[(struct USART_TypeDef *)1073821696B].SR,
 593 0140 FBD5     		bpl	.L67	@,
 269:Device/startup/newlib_stubs.c ****             USART1->DR = (*ptr++ & (uint16_t)0x01FF);
 594              		.loc 1 269 0 discriminator 2
 595 0142 13F8014B 		ldrb	r4, [r3], #1	@ zero_extendqisi2	@ D.6354, MEM[base: ptr_28, offset: 4294967295B]
 596              	.LVL46:
 597 0146 8480     		strh	r4, [r0, #4]	@ movhi	@ D.6354, MEM[(struct USART_TypeDef *)1073821696B].DR
 598              	.LVL47:
 599              	.L58:
 600 0148 581A     		subs	r0, r3, r1	@ D.6356, ptr, ptr
 601              	.LVL48:
 265:Device/startup/newlib_stubs.c **** #if STDERR_USART == 1
 602              		.loc 1 265 0 discriminator 1
 603 014a 9042     		cmp	r0, r2	@ D.6356, len
 604 014c F5DB     		blt	.L67	@,
 605              	.L63:
 270:Device/startup/newlib_stubs.c **** #elif  STDERR_USART == 2
 271:Device/startup/newlib_stubs.c ****             while ((USART2->SR & USART_FLAG_TC) == (uint16_t) RESET) {
 272:Device/startup/newlib_stubs.c ****             }
 273:Device/startup/newlib_stubs.c ****             USART2->DR = (*ptr++ & (uint16_t) 0x01FF);
 274:Device/startup/newlib_stubs.c **** #elif  STDERR_USART == 3
 275:Device/startup/newlib_stubs.c ****             while ((USART3->SR & USART_FLAG_TC) == (uint16_t)RESET) {}
 276:Device/startup/newlib_stubs.c ****             USART3->DR = (*ptr++ & (uint16_t)0x01FF);
 277:Device/startup/newlib_stubs.c **** #endif
 278:Device/startup/newlib_stubs.c ****         }
 279:Device/startup/newlib_stubs.c ****         break;
 280:Device/startup/newlib_stubs.c ****     default:
 281:Device/startup/newlib_stubs.c ****         errno = EBADF;
 282:Device/startup/newlib_stubs.c ****         return -1;
 606              		.loc 1 282 0
 607 014e 1046     		mov	r0, r2	@ D.6352, len
 608              	.LVL49:
 609 0150 10BD     		pop	{r4, pc}	@
 610              	.LVL50:
 611              	.L70:
 281:Device/startup/newlib_stubs.c ****         return -1;
 612              		.loc 1 281 0
 613 0152 044B     		ldr	r3, .L71+4	@ tmp153,
 614 0154 0922     		movs	r2, #9	@ tmp154,
 615              	.LVL51:
 616 0156 1A60     		str	r2, [r3]	@ tmp154, errno
 617              		.loc 1 282 0
 618 0158 4FF0FF30 		mov	r0, #-1	@ D.6352,
 619              	.LVL52:
 283:Device/startup/newlib_stubs.c ****     }
 284:Device/startup/newlib_stubs.c ****     return len;
ARM GAS  /var/folders/yt/6z6x8bjn5sjf5fbb45bk5m4c0000gn/T//cck0iJmI.s 			page 17


 285:Device/startup/newlib_stubs.c **** }
 620              		.loc 1 285 0
 621 015c 10BD     		pop	{r4, pc}	@
 622              	.L72:
 623 015e 00BF     		.align	2
 624              	.L71:
 625 0160 00380140 		.word	1073821696
 626 0164 00000000 		.word	errno
 627              		.cfi_endproc
 628              	.LFE45:
 629              		.size	_write, .-_write
 630              		.align	1
 631              		.global	_exit
 632              		.thumb
 633              		.thumb_func
 634              		.type	_exit, %function
 635              	_exit:
 636              	.LFB29:
  44:Device/startup/newlib_stubs.c ****     _write(1, "exit", 4);
 637              		.loc 1 44 0
 638              		.cfi_startproc
 639              		@ Volatile: function does not return.
 640              		@ args = 0, pretend = 0, frame = 0
 641              		@ frame_needed = 0, uses_anonymous_args = 0
 642              	.LVL53:
 643 0168 08B5     		push	{r3, lr}	@
 644              	.LCFI3:
 645              		.cfi_def_cfa_offset 8
 646              		.cfi_offset 3, -8
 647              		.cfi_offset 14, -4
  45:Device/startup/newlib_stubs.c ****     while (1) {
 648              		.loc 1 45 0
 649 016a 0120     		movs	r0, #1	@,
 650              	.LVL54:
 651 016c 0249     		ldr	r1, .L75	@,
 652 016e 0422     		movs	r2, #4	@,
 653 0170 FFF7FEFF 		bl	_write	@
 654              	.LVL55:
 655              	.L74:
  48:Device/startup/newlib_stubs.c **** }
 656              		.loc 1 48 0 discriminator 1
 657 0174 FEE7     		b	.L74	@
 658              	.L76:
 659 0176 00BF     		.align	2
 660              	.L75:
 661 0178 00000000 		.word	.LC0
 662              		.cfi_endproc
 663              	.LFE29:
 664              		.size	_exit, .-_exit
 665              		.global	environ
 666              		.global	__env
 667              		.section	.rodata.str1.1,"aMS",%progbits,1
 668              	.LC0:
 669 0000 65786974 		.ascii	"exit\000"
 669      00
 670              		.data
 671              		.align	2
ARM GAS  /var/folders/yt/6z6x8bjn5sjf5fbb45bk5m4c0000gn/T//cck0iJmI.s 			page 18


 672              		.type	environ, %object
 673              		.size	environ, 4
 674              	environ:
 675 0000 00000000 		.word	__env
 676              		.bss
 677              		.align	2
 678              		.set	.LANCHOR0,. + 0
 679              		.type	heap_end.6113, %object
 680              		.size	heap_end.6113, 4
 681              	heap_end.6113:
 682 0000 00000000 		.space	4
 683              		.type	__env, %object
 684              		.size	__env, 4
 685              	__env:
 686 0004 00000000 		.space	4
 687              		.text
 688              	.Letext0:
 689              		.file 2 "/usr/local/Cellar/arm-none-eabi-gcc/20150921/arm-none-eabi/include/machine/_default_types
 690              		.file 3 "/usr/local/Cellar/arm-none-eabi-gcc/20150921/arm-none-eabi/include/sys/_types.h"
 691              		.file 4 "/usr/local/Cellar/arm-none-eabi-gcc/20150921/arm-none-eabi/include/sys/_stdint.h"
 692              		.file 5 "/usr/local/Cellar/arm-none-eabi-gcc/20150921/arm-none-eabi/include/sys/types.h"
 693              		.file 6 "/usr/local/Cellar/arm-none-eabi-gcc/20150921/arm-none-eabi/include/sys/stat.h"
 694              		.file 7 "/usr/local/Cellar/arm-none-eabi-gcc/20150921/arm-none-eabi/include/sys/times.h"
 695              		.file 8 "./Libraries/CMSIS/CM3/DeviceSupport/ST/STM32F10x/stm32f10x.h"
 696              		.file 9 "/usr/local/Cellar/arm-none-eabi-gcc/20150921/arm-none-eabi/include/sys/unistd.h"
 697              		.file 10 "./Libraries/CMSIS/CM3/CoreSupport/core_cm3.h"