ARM GAS  /var/folders/yt/6z6x8bjn5sjf5fbb45bk5m4c0000gn/T//cczEeWdS.s 			page 1


   1              		.syntax unified
   2              		.cpu cortex-m3
   3              		.fpu softvfp
   4              		.eabi_attribute 20, 1	@ Tag_ABI_FP_denormal
   5              		.eabi_attribute 21, 1	@ Tag_ABI_FP_exceptions
   6              		.eabi_attribute 23, 3	@ Tag_ABI_FP_number_model
   7              		.eabi_attribute 24, 1	@ Tag_ABI_align8_needed
   8              		.eabi_attribute 25, 1	@ Tag_ABI_align8_preserved
   9              		.eabi_attribute 26, 1	@ Tag_ABI_enum_size
  10              		.eabi_attribute 30, 4	@ Tag_ABI_optimization_goals
  11              		.eabi_attribute 34, 1	@ Tag_CPU_unaligned_access
  12              		.eabi_attribute 18, 4	@ Tag_ABI_PCS_wchar_t
  13              		.file	"vectors_stm32f10x_md.c"
  14              	@ GNU C (GNU Tools for ARM Embedded Processors) version 4.9.3 20150529 (release) [ARM/embedded-4_9-
  15              	@	compiled by GNU C version 4.2.1 (Based on Apple Inc. build 5658) (LLVM build 2336.9.00), GMP vers
  16              	@ GGC heuristics: --param ggc-min-expand=100 --param ggc-min-heapsize=131072
  17              	@ options passed:  -I . -I ./Libraries/CMSIS/CM3/CoreSupport
  18              	@ -I ./Libraries/CMSIS/CM3/DeviceSupport/ST/STM32F10x
  19              	@ -I ./Libraries/STM32F10x_StdPeriph_Driver/inc -I ./Libraries/Drivers/Leds
  20              	@ -I ./Libraries/Drivers/Buttons -I ./Libraries/Drivers/Usart
  21              	@ -I ./Libraries/Drivers/i2c -I ./Libraries/Drivers/BH1750
  22              	@ -I ./Libraries/Drivers/Utilities -I ./FreeRTOS/Source/include
  23              	@ -I ./FreeRTOS/Source/portable/GCC/ARM_CM3 -imultilib armv7-m
  24              	@ -iprefix /usr/local/Cellar/arm-none-eabi-gcc/20150921/bin/../lib/gcc/arm-none-eabi/4.9.3/
  25              	@ -isysroot /usr/local/Cellar/arm-none-eabi-gcc/20150921/bin/../arm-none-eabi
  26              	@ -MD Device/startup/vectors_stm32f10x_md.d
  27              	@ -MF .dep/vectors_stm32f10x_md.o.d -MP
  28              	@ -MQ Device/startup/vectors_stm32f10x_md.o -D__USES_INITFINI__
  29              	@ -D STM32F10X_MD -D USE_STDPERIPH_DRIVER -D GCC_ARMCM3 -D RUN_FROM_FLASH=1
  30              	@ Device/startup/vectors_stm32f10x_md.c -mcpu=cortex-m3 -mthumb
  31              	@ -auxbase-strip Device/startup/vectors_stm32f10x_md.o -gdwarf-2 -Os -Wall
  32              	@ -Wstrict-prototypes -fomit-frame-pointer -fverbose-asm
  33              	@ options enabled:  -faggressive-loop-optimizations -fauto-inc-dec
  34              	@ -fbranch-count-reg -fcaller-saves -fcombine-stack-adjustments -fcommon
  35              	@ -fcompare-elim -fcprop-registers -fcrossjumping -fcse-follow-jumps
  36              	@ -fdefer-pop -fdelete-null-pointer-checks -fdevirtualize
  37              	@ -fdevirtualize-speculatively -fdwarf2-cfi-asm -fearly-inlining
  38              	@ -feliminate-unused-debug-types -fexpensive-optimizations
  39              	@ -fforward-propagate -ffunction-cse -fgcse -fgcse-lm -fgnu-runtime
  40              	@ -fgnu-unique -fguess-branch-probability -fhoist-adjacent-loads -fident
  41              	@ -fif-conversion -fif-conversion2 -findirect-inlining -finline
  42              	@ -finline-atomics -finline-functions -finline-functions-called-once
  43              	@ -finline-small-functions -fipa-cp -fipa-profile -fipa-pure-const
  44              	@ -fipa-reference -fipa-sra -fira-hoist-pressure -fira-share-save-slots
  45              	@ -fira-share-spill-slots -fisolate-erroneous-paths-dereference -fivopts
  46              	@ -fkeep-static-consts -fleading-underscore -flifetime-dse -fmath-errno
  47              	@ -fmerge-constants -fmerge-debug-strings -fomit-frame-pointer
  48              	@ -foptimize-sibling-calls -fpartial-inlining -fpeephole -fpeephole2
  49              	@ -fprefetch-loop-arrays -freg-struct-return -freorder-blocks
  50              	@ -freorder-functions -frerun-cse-after-loop
  51              	@ -fsched-critical-path-heuristic -fsched-dep-count-heuristic
  52              	@ -fsched-group-heuristic -fsched-interblock -fsched-last-insn-heuristic
  53              	@ -fsched-pressure -fsched-rank-heuristic -fsched-spec
  54              	@ -fsched-spec-insn-heuristic -fsched-stalled-insns-dep -fschedule-insns2
  55              	@ -fsection-anchors -fshow-column -fsigned-zeros -fsplit-ivs-in-unroller
  56              	@ -fsplit-wide-types -fstrict-aliasing -fstrict-overflow
  57              	@ -fstrict-volatile-bitfields -fsync-libcalls -fthread-jumps
ARM GAS  /var/folders/yt/6z6x8bjn5sjf5fbb45bk5m4c0000gn/T//cczEeWdS.s 			page 2


  58              	@ -ftoplevel-reorder -ftrapping-math -ftree-bit-ccp -ftree-builtin-call-dce
  59              	@ -ftree-ccp -ftree-ch -ftree-coalesce-vars -ftree-copy-prop
  60              	@ -ftree-copyrename -ftree-cselim -ftree-dce -ftree-dominator-opts
  61              	@ -ftree-dse -ftree-forwprop -ftree-fre -ftree-loop-if-convert
  62              	@ -ftree-loop-im -ftree-loop-ivcanon -ftree-loop-optimize
  63              	@ -ftree-parallelize-loops= -ftree-phiprop -ftree-pre -ftree-pta
  64              	@ -ftree-reassoc -ftree-scev-cprop -ftree-sink -ftree-slsr -ftree-sra
  65              	@ -ftree-switch-conversion -ftree-tail-merge -ftree-ter -ftree-vrp
  66              	@ -funit-at-a-time -fvar-tracking -fvar-tracking-assignments -fverbose-asm
  67              	@ -fzero-initialized-in-bss -mfix-cortex-m3-ldrd -mlittle-endian -mlra
  68              	@ -mpic-data-is-text-relative -msched-prolog -mthumb -munaligned-access
  69              	@ -mvectorize-with-neon-quad
  70              	
  71              		.text
  72              	.Ltext0:
  73              		.cfi_sections	.debug_frame
  74              		.align	1
  75              		.weak	NMI_Handler
  76              		.thumb
  77              		.thumb_func
  78              		.type	NMI_Handler, %function
  79              	NMI_Handler:
  80              	.LFB0:
  81              		.file 1 "Device/startup/vectors_stm32f10x_md.c"
   1:Device/startup/vectors_stm32f10x_md.c **** /****************************************************************************
   2:Device/startup/vectors_stm32f10x_md.c **** *  Copyright (c) 2011 by Michael Fischer. All rights reserved.
   3:Device/startup/vectors_stm32f10x_md.c **** *
   4:Device/startup/vectors_stm32f10x_md.c **** *  Redistribution and use in source and binary forms, with or without 
   5:Device/startup/vectors_stm32f10x_md.c **** *  modification, are permitted provided that the following conditions 
   6:Device/startup/vectors_stm32f10x_md.c **** *  are met:
   7:Device/startup/vectors_stm32f10x_md.c **** *  
   8:Device/startup/vectors_stm32f10x_md.c **** *  1. Redistributions of source code must retain the above copyright 
   9:Device/startup/vectors_stm32f10x_md.c **** *     notice, this list of conditions and the following disclaimer.
  10:Device/startup/vectors_stm32f10x_md.c **** *  2. Redistributions in binary form must reproduce the above copyright
  11:Device/startup/vectors_stm32f10x_md.c **** *     notice, this list of conditions and the following disclaimer in the 
  12:Device/startup/vectors_stm32f10x_md.c **** *     documentation and/or other materials provided with the distribution.
  13:Device/startup/vectors_stm32f10x_md.c **** *  3. Neither the name of the author nor the names of its contributors may 
  14:Device/startup/vectors_stm32f10x_md.c **** *     be used to endorse or promote products derived from this software 
  15:Device/startup/vectors_stm32f10x_md.c **** *     without specific prior written permission.
  16:Device/startup/vectors_stm32f10x_md.c **** *
  17:Device/startup/vectors_stm32f10x_md.c **** *  THIS SOFTWARE IS PROVIDED BY THE COPYRIGHT HOLDERS AND CONTRIBUTORS 
  18:Device/startup/vectors_stm32f10x_md.c **** *  "AS IS" AND ANY EXPRESS OR IMPLIED WARRANTIES, INCLUDING, BUT NOT 
  19:Device/startup/vectors_stm32f10x_md.c **** *  LIMITED TO, THE IMPLIED WARRANTIES OF MERCHANTABILITY AND FITNESS 
  20:Device/startup/vectors_stm32f10x_md.c **** *  FOR A PARTICULAR PURPOSE ARE DISCLAIMED. IN NO EVENT SHALL 
  21:Device/startup/vectors_stm32f10x_md.c **** *  THE COPYRIGHT OWNER OR CONTRIBUTORS BE LIABLE FOR ANY DIRECT, INDIRECT, 
  22:Device/startup/vectors_stm32f10x_md.c **** *  INCIDENTAL, SPECIAL, EXEMPLARY, OR CONSEQUENTIAL DAMAGES (INCLUDING, 
  23:Device/startup/vectors_stm32f10x_md.c **** *  BUT NOT LIMITED TO, PROCUREMENT OF SUBSTITUTE GOODS OR SERVICES; LOSS 
  24:Device/startup/vectors_stm32f10x_md.c **** *  OF USE, DATA, OR PROFITS; OR BUSINESS INTERRUPTION) HOWEVER CAUSED 
  25:Device/startup/vectors_stm32f10x_md.c **** *  AND ON ANY THEORY OF LIABILITY, WHETHER IN CONTRACT, STRICT LIABILITY, 
  26:Device/startup/vectors_stm32f10x_md.c **** *  OR TORT (INCLUDING NEGLIGENCE OR OTHERWISE) ARISING IN ANY WAY OUT OF 
  27:Device/startup/vectors_stm32f10x_md.c **** *  THE USE OF THIS SOFTWARE, EVEN IF ADVISED OF THE POSSIBILITY OF 
  28:Device/startup/vectors_stm32f10x_md.c **** *  SUCH DAMAGE.
  29:Device/startup/vectors_stm32f10x_md.c **** *
  30:Device/startup/vectors_stm32f10x_md.c **** ****************************************************************************
  31:Device/startup/vectors_stm32f10x_md.c **** *  History:
  32:Device/startup/vectors_stm32f10x_md.c **** *
  33:Device/startup/vectors_stm32f10x_md.c **** *  09.04.2011  mifi  First Version for the STM32-P103
ARM GAS  /var/folders/yt/6z6x8bjn5sjf5fbb45bk5m4c0000gn/T//cczEeWdS.s 			page 3


  34:Device/startup/vectors_stm32f10x_md.c **** ****************************************************************************/
  35:Device/startup/vectors_stm32f10x_md.c **** #define __VECTORS_STM32F10X_MD_C__
  36:Device/startup/vectors_stm32f10x_md.c **** #define FREERTOS
  37:Device/startup/vectors_stm32f10x_md.c **** /*=========================================================================*/
  38:Device/startup/vectors_stm32f10x_md.c **** /*  DEFINE: All extern Data                                                */
  39:Device/startup/vectors_stm32f10x_md.c **** /*=========================================================================*/
  40:Device/startup/vectors_stm32f10x_md.c **** extern unsigned long _estack;
  41:Device/startup/vectors_stm32f10x_md.c **** 
  42:Device/startup/vectors_stm32f10x_md.c **** /*=========================================================================*/
  43:Device/startup/vectors_stm32f10x_md.c **** /*  DEFINE: Prototypes                                                     */
  44:Device/startup/vectors_stm32f10x_md.c **** /*=========================================================================*/
  45:Device/startup/vectors_stm32f10x_md.c **** void ResetHandler(void);
  46:Device/startup/vectors_stm32f10x_md.c **** 
  47:Device/startup/vectors_stm32f10x_md.c **** void NMI_Handler (void) __attribute__((weak));
  48:Device/startup/vectors_stm32f10x_md.c **** void HardFault_Handler (void) __attribute__((weak));
  49:Device/startup/vectors_stm32f10x_md.c **** void MemManage_Handler (void) __attribute__((weak));
  50:Device/startup/vectors_stm32f10x_md.c **** void BusFault_Handler (void) __attribute__((weak));
  51:Device/startup/vectors_stm32f10x_md.c **** void UsageFault_Handler (void) __attribute__((weak));
  52:Device/startup/vectors_stm32f10x_md.c **** 
  53:Device/startup/vectors_stm32f10x_md.c **** #ifdef FREERTOS
  54:Device/startup/vectors_stm32f10x_md.c **** void vPortSVCHandler (void) __attribute__((weak));
  55:Device/startup/vectors_stm32f10x_md.c **** void xPortPendSVHandler (void) __attribute__((weak));
  56:Device/startup/vectors_stm32f10x_md.c **** void xPortSysTickHandler (void) __attribute__((weak));
  57:Device/startup/vectors_stm32f10x_md.c **** #else
  58:Device/startup/vectors_stm32f10x_md.c **** void SVC_Handler (void) __attribute__((weak));
  59:Device/startup/vectors_stm32f10x_md.c **** void PendSV_Handler (void) __attribute__((weak));
  60:Device/startup/vectors_stm32f10x_md.c **** void SysTick_Handler (void) __attribute__((weak));
  61:Device/startup/vectors_stm32f10x_md.c **** #endif
  62:Device/startup/vectors_stm32f10x_md.c **** void DebugMon_Handler (void) __attribute__((weak));
  63:Device/startup/vectors_stm32f10x_md.c **** 
  64:Device/startup/vectors_stm32f10x_md.c **** void WWDG_IRQHandler (void) __attribute__((weak));
  65:Device/startup/vectors_stm32f10x_md.c **** void PVD_IRQHandler (void) __attribute__((weak));
  66:Device/startup/vectors_stm32f10x_md.c **** void TAMPER_IRQHandler (void) __attribute__((weak));
  67:Device/startup/vectors_stm32f10x_md.c **** void RTC_IRQHandler (void) __attribute__((weak));
  68:Device/startup/vectors_stm32f10x_md.c **** void FLASH_IRQHandler (void) __attribute__((weak));
  69:Device/startup/vectors_stm32f10x_md.c **** void RCC_IRQHandler (void) __attribute__((weak));
  70:Device/startup/vectors_stm32f10x_md.c **** void EXTI0_IRQHandler (void) __attribute__((weak));
  71:Device/startup/vectors_stm32f10x_md.c **** void EXTI1_IRQHandler (void) __attribute__((weak));
  72:Device/startup/vectors_stm32f10x_md.c **** void EXTI2_IRQHandler (void) __attribute__((weak));
  73:Device/startup/vectors_stm32f10x_md.c **** void EXTI3_IRQHandler (void) __attribute__((weak));
  74:Device/startup/vectors_stm32f10x_md.c **** void EXTI4_IRQHandler (void) __attribute__((weak));
  75:Device/startup/vectors_stm32f10x_md.c **** void DMA1_Channel1_IRQHandler (void) __attribute__((weak));
  76:Device/startup/vectors_stm32f10x_md.c **** void DMA1_Channel2_IRQHandler (void) __attribute__((weak));
  77:Device/startup/vectors_stm32f10x_md.c **** void DMA1_Channel3_IRQHandler (void) __attribute__((weak));
  78:Device/startup/vectors_stm32f10x_md.c **** void DMA1_Channel4_IRQHandler (void) __attribute__((weak));
  79:Device/startup/vectors_stm32f10x_md.c **** void DMA1_Channel5_IRQHandler (void) __attribute__((weak));
  80:Device/startup/vectors_stm32f10x_md.c **** void DMA1_Channel6_IRQHandler (void) __attribute__((weak));
  81:Device/startup/vectors_stm32f10x_md.c **** void DMA1_Channel7_IRQHandler (void) __attribute__((weak));
  82:Device/startup/vectors_stm32f10x_md.c **** void ADC1_2_IRQHandler (void) __attribute__((weak));
  83:Device/startup/vectors_stm32f10x_md.c **** void USB_HP_CAN_TX_IRQHandler (void) __attribute__((weak));
  84:Device/startup/vectors_stm32f10x_md.c **** void USB_LP_CAN_RX0_IRQHandler (void) __attribute__((weak));
  85:Device/startup/vectors_stm32f10x_md.c **** void CAN_RX1_IRQHandler (void) __attribute__((weak));
  86:Device/startup/vectors_stm32f10x_md.c **** void CAN_SCE_IRQHandler (void) __attribute__((weak));
  87:Device/startup/vectors_stm32f10x_md.c **** void EXTI9_5_IRQHandler (void) __attribute__((weak));
  88:Device/startup/vectors_stm32f10x_md.c **** void TIM1_BRK_IRQHandler (void) __attribute__((weak));
  89:Device/startup/vectors_stm32f10x_md.c **** void TIM1_UP_IRQHandler (void) __attribute__((weak));
  90:Device/startup/vectors_stm32f10x_md.c **** void TIM1_TRG_COM_IRQHandler (void) __attribute__((weak));
ARM GAS  /var/folders/yt/6z6x8bjn5sjf5fbb45bk5m4c0000gn/T//cczEeWdS.s 			page 4


  91:Device/startup/vectors_stm32f10x_md.c **** void TIM1_CC_IRQHandler (void) __attribute__((weak));
  92:Device/startup/vectors_stm32f10x_md.c **** void TIM2_IRQHandler (void) __attribute__((weak));
  93:Device/startup/vectors_stm32f10x_md.c **** void TIM3_IRQHandler (void) __attribute__((weak));
  94:Device/startup/vectors_stm32f10x_md.c **** void TIM4_IRQHandler (void) __attribute__((weak));
  95:Device/startup/vectors_stm32f10x_md.c **** void I2C1_EV_IRQHandler (void) __attribute__((weak));
  96:Device/startup/vectors_stm32f10x_md.c **** void I2C1_ER_IRQHandler (void) __attribute__((weak));
  97:Device/startup/vectors_stm32f10x_md.c **** void I2C2_EV_IRQHandler (void) __attribute__((weak));
  98:Device/startup/vectors_stm32f10x_md.c **** void I2C2_ER_IRQHandler (void) __attribute__((weak));
  99:Device/startup/vectors_stm32f10x_md.c **** void SPI1_IRQHandler (void) __attribute__((weak));
 100:Device/startup/vectors_stm32f10x_md.c **** void SPI2_IRQHandler (void) __attribute__((weak));
 101:Device/startup/vectors_stm32f10x_md.c **** void USART1_IRQHandler (void) __attribute__((weak));
 102:Device/startup/vectors_stm32f10x_md.c **** void USART2_IRQHandler (void) __attribute__((weak));
 103:Device/startup/vectors_stm32f10x_md.c **** void USART3_IRQHandler (void) __attribute__((weak));
 104:Device/startup/vectors_stm32f10x_md.c **** void EXTI15_10_IRQHandler (void) __attribute__((weak));
 105:Device/startup/vectors_stm32f10x_md.c **** void RTCAlarm_IRQHandler (void) __attribute__((weak));
 106:Device/startup/vectors_stm32f10x_md.c **** void USBWakeUp_IRQHandler (void) __attribute__((weak));
 107:Device/startup/vectors_stm32f10x_md.c **** 
 108:Device/startup/vectors_stm32f10x_md.c **** /*=========================================================================*/
 109:Device/startup/vectors_stm32f10x_md.c **** /*  DEFINE: All code exported                                              */
 110:Device/startup/vectors_stm32f10x_md.c **** /*=========================================================================*/
 111:Device/startup/vectors_stm32f10x_md.c **** /*
 112:Device/startup/vectors_stm32f10x_md.c ****  * This is our vector table.
 113:Device/startup/vectors_stm32f10x_md.c ****  */
 114:Device/startup/vectors_stm32f10x_md.c **** __attribute__ ((section(".vectors"), used))
 115:Device/startup/vectors_stm32f10x_md.c **** void (* const gVectors[])(void) = 
 116:Device/startup/vectors_stm32f10x_md.c **** {
 117:Device/startup/vectors_stm32f10x_md.c ****    (void (*)(void))((unsigned long)&_estack),
 118:Device/startup/vectors_stm32f10x_md.c ****    ResetHandler,
 119:Device/startup/vectors_stm32f10x_md.c ****    NMI_Handler,
 120:Device/startup/vectors_stm32f10x_md.c ****    HardFault_Handler,
 121:Device/startup/vectors_stm32f10x_md.c ****    MemManage_Handler,
 122:Device/startup/vectors_stm32f10x_md.c ****    BusFault_Handler,
 123:Device/startup/vectors_stm32f10x_md.c ****    UsageFault_Handler,
 124:Device/startup/vectors_stm32f10x_md.c ****    0, 0, 0, 0,
 125:Device/startup/vectors_stm32f10x_md.c **** #ifdef FREERTOS
 126:Device/startup/vectors_stm32f10x_md.c ****    vPortSVCHandler,
 127:Device/startup/vectors_stm32f10x_md.c **** #else
 128:Device/startup/vectors_stm32f10x_md.c ****    SVC_Handler,
 129:Device/startup/vectors_stm32f10x_md.c **** #endif
 130:Device/startup/vectors_stm32f10x_md.c ****    DebugMon_Handler,
 131:Device/startup/vectors_stm32f10x_md.c ****    0,
 132:Device/startup/vectors_stm32f10x_md.c **** #ifdef FREERTOS
 133:Device/startup/vectors_stm32f10x_md.c ****    xPortPendSVHandler,
 134:Device/startup/vectors_stm32f10x_md.c ****    xPortSysTickHandler,
 135:Device/startup/vectors_stm32f10x_md.c **** #else
 136:Device/startup/vectors_stm32f10x_md.c ****    PendSV_Handler,
 137:Device/startup/vectors_stm32f10x_md.c ****    SysTick_Handler,
 138:Device/startup/vectors_stm32f10x_md.c **** #endif
 139:Device/startup/vectors_stm32f10x_md.c ****    WWDG_IRQHandler,
 140:Device/startup/vectors_stm32f10x_md.c ****    PVD_IRQHandler,
 141:Device/startup/vectors_stm32f10x_md.c ****    TAMPER_IRQHandler,
 142:Device/startup/vectors_stm32f10x_md.c ****    RTC_IRQHandler,
 143:Device/startup/vectors_stm32f10x_md.c ****    FLASH_IRQHandler,
 144:Device/startup/vectors_stm32f10x_md.c ****    RCC_IRQHandler,
 145:Device/startup/vectors_stm32f10x_md.c ****    EXTI0_IRQHandler,
 146:Device/startup/vectors_stm32f10x_md.c ****    EXTI1_IRQHandler,
 147:Device/startup/vectors_stm32f10x_md.c ****    EXTI2_IRQHandler,
ARM GAS  /var/folders/yt/6z6x8bjn5sjf5fbb45bk5m4c0000gn/T//cczEeWdS.s 			page 5


 148:Device/startup/vectors_stm32f10x_md.c ****    EXTI3_IRQHandler,
 149:Device/startup/vectors_stm32f10x_md.c ****    EXTI4_IRQHandler,
 150:Device/startup/vectors_stm32f10x_md.c ****    DMA1_Channel1_IRQHandler,
 151:Device/startup/vectors_stm32f10x_md.c ****    DMA1_Channel2_IRQHandler,
 152:Device/startup/vectors_stm32f10x_md.c ****    DMA1_Channel3_IRQHandler,
 153:Device/startup/vectors_stm32f10x_md.c ****    DMA1_Channel4_IRQHandler,
 154:Device/startup/vectors_stm32f10x_md.c ****    DMA1_Channel5_IRQHandler,
 155:Device/startup/vectors_stm32f10x_md.c ****    DMA1_Channel6_IRQHandler,
 156:Device/startup/vectors_stm32f10x_md.c ****    DMA1_Channel7_IRQHandler,
 157:Device/startup/vectors_stm32f10x_md.c ****    ADC1_2_IRQHandler,
 158:Device/startup/vectors_stm32f10x_md.c ****    USB_HP_CAN_TX_IRQHandler,
 159:Device/startup/vectors_stm32f10x_md.c ****    USB_LP_CAN_RX0_IRQHandler,
 160:Device/startup/vectors_stm32f10x_md.c ****    CAN_RX1_IRQHandler,
 161:Device/startup/vectors_stm32f10x_md.c ****    CAN_SCE_IRQHandler,
 162:Device/startup/vectors_stm32f10x_md.c ****    EXTI9_5_IRQHandler,
 163:Device/startup/vectors_stm32f10x_md.c ****    TIM1_BRK_IRQHandler,
 164:Device/startup/vectors_stm32f10x_md.c ****    TIM1_UP_IRQHandler,
 165:Device/startup/vectors_stm32f10x_md.c ****    TIM1_TRG_COM_IRQHandler,
 166:Device/startup/vectors_stm32f10x_md.c ****    TIM1_CC_IRQHandler,
 167:Device/startup/vectors_stm32f10x_md.c ****    TIM2_IRQHandler,
 168:Device/startup/vectors_stm32f10x_md.c ****    TIM3_IRQHandler,
 169:Device/startup/vectors_stm32f10x_md.c ****    TIM4_IRQHandler,
 170:Device/startup/vectors_stm32f10x_md.c ****    I2C1_EV_IRQHandler,
 171:Device/startup/vectors_stm32f10x_md.c ****    I2C1_ER_IRQHandler,
 172:Device/startup/vectors_stm32f10x_md.c ****    I2C2_EV_IRQHandler,
 173:Device/startup/vectors_stm32f10x_md.c ****    I2C2_ER_IRQHandler,
 174:Device/startup/vectors_stm32f10x_md.c ****    SPI1_IRQHandler,
 175:Device/startup/vectors_stm32f10x_md.c ****    SPI2_IRQHandler,
 176:Device/startup/vectors_stm32f10x_md.c ****    USART1_IRQHandler,
 177:Device/startup/vectors_stm32f10x_md.c ****    USART2_IRQHandler,
 178:Device/startup/vectors_stm32f10x_md.c ****    USART3_IRQHandler,
 179:Device/startup/vectors_stm32f10x_md.c ****    EXTI15_10_IRQHandler,
 180:Device/startup/vectors_stm32f10x_md.c ****    RTCAlarm_IRQHandler,
 181:Device/startup/vectors_stm32f10x_md.c ****    USBWakeUp_IRQHandler
 182:Device/startup/vectors_stm32f10x_md.c **** }; /* gVectors */
 183:Device/startup/vectors_stm32f10x_md.c **** 
 184:Device/startup/vectors_stm32f10x_md.c **** /*
 185:Device/startup/vectors_stm32f10x_md.c ****  * And here are the weak interrupt handlers.
 186:Device/startup/vectors_stm32f10x_md.c ****  */
 187:Device/startup/vectors_stm32f10x_md.c **** void NMI_Handler (void) { while(1); }
  82              		.loc 1 187 0
  83              		.cfi_startproc
  84              		@ args = 0, pretend = 0, frame = 0
  85              		@ frame_needed = 0, uses_anonymous_args = 0
  86              		@ link register save eliminated.
  87              	.L2:
  88              		.loc 1 187 0 discriminator 1
  89 0000 FEE7     		b	.L2	@
  90              		.cfi_endproc
  91              	.LFE0:
  92              		.size	NMI_Handler, .-NMI_Handler
  93              		.align	1
  94              		.weak	HardFault_Handler
  95              		.thumb
  96              		.thumb_func
  97              		.type	HardFault_Handler, %function
  98              	HardFault_Handler:
ARM GAS  /var/folders/yt/6z6x8bjn5sjf5fbb45bk5m4c0000gn/T//cczEeWdS.s 			page 6


  99              	.LFB1:
 188:Device/startup/vectors_stm32f10x_md.c **** void HardFault_Handler (void) { while(1); }
 100              		.loc 1 188 0
 101              		.cfi_startproc
 102              		@ args = 0, pretend = 0, frame = 0
 103              		@ frame_needed = 0, uses_anonymous_args = 0
 104              		@ link register save eliminated.
 105              	.L4:
 106              		.loc 1 188 0 discriminator 1
 107 0002 FEE7     		b	.L4	@
 108              		.cfi_endproc
 109              	.LFE1:
 110              		.size	HardFault_Handler, .-HardFault_Handler
 111              		.align	1
 112              		.weak	MemManage_Handler
 113              		.thumb
 114              		.thumb_func
 115              		.type	MemManage_Handler, %function
 116              	MemManage_Handler:
 117              	.LFB2:
 189:Device/startup/vectors_stm32f10x_md.c **** void MemManage_Handler (void) { while(1); }
 118              		.loc 1 189 0
 119              		.cfi_startproc
 120              		@ args = 0, pretend = 0, frame = 0
 121              		@ frame_needed = 0, uses_anonymous_args = 0
 122              		@ link register save eliminated.
 123              	.L6:
 124              		.loc 1 189 0 discriminator 1
 125 0004 FEE7     		b	.L6	@
 126              		.cfi_endproc
 127              	.LFE2:
 128              		.size	MemManage_Handler, .-MemManage_Handler
 129              		.align	1
 130              		.weak	BusFault_Handler
 131              		.thumb
 132              		.thumb_func
 133              		.type	BusFault_Handler, %function
 134              	BusFault_Handler:
 135              	.LFB3:
 190:Device/startup/vectors_stm32f10x_md.c **** void BusFault_Handler (void) { while(1); }
 136              		.loc 1 190 0
 137              		.cfi_startproc
 138              		@ args = 0, pretend = 0, frame = 0
 139              		@ frame_needed = 0, uses_anonymous_args = 0
 140              		@ link register save eliminated.
 141              	.L8:
 142              		.loc 1 190 0 discriminator 1
 143 0006 FEE7     		b	.L8	@
 144              		.cfi_endproc
 145              	.LFE3:
 146              		.size	BusFault_Handler, .-BusFault_Handler
 147              		.align	1
 148              		.weak	UsageFault_Handler
 149              		.thumb
 150              		.thumb_func
 151              		.type	UsageFault_Handler, %function
 152              	UsageFault_Handler:
ARM GAS  /var/folders/yt/6z6x8bjn5sjf5fbb45bk5m4c0000gn/T//cczEeWdS.s 			page 7


 153              	.LFB4:
 191:Device/startup/vectors_stm32f10x_md.c **** void UsageFault_Handler (void) { while(1); }
 154              		.loc 1 191 0
 155              		.cfi_startproc
 156              		@ args = 0, pretend = 0, frame = 0
 157              		@ frame_needed = 0, uses_anonymous_args = 0
 158              		@ link register save eliminated.
 159              	.L10:
 160              		.loc 1 191 0 discriminator 1
 161 0008 FEE7     		b	.L10	@
 162              		.cfi_endproc
 163              	.LFE4:
 164              		.size	UsageFault_Handler, .-UsageFault_Handler
 165              		.align	1
 166              		.weak	DebugMon_Handler
 167              		.thumb
 168              		.thumb_func
 169              		.type	DebugMon_Handler, %function
 170              	DebugMon_Handler:
 171              	.LFB6:
 192:Device/startup/vectors_stm32f10x_md.c **** void SVC_Handler (void) { while(1); }
 193:Device/startup/vectors_stm32f10x_md.c **** void DebugMon_Handler (void) { while(1); }
 172              		.loc 1 193 0
 173              		.cfi_startproc
 174              		@ args = 0, pretend = 0, frame = 0
 175              		@ frame_needed = 0, uses_anonymous_args = 0
 176              		@ link register save eliminated.
 177              	.L12:
 178              		.loc 1 193 0 discriminator 1
 179 000a FEE7     		b	.L12	@
 180              		.cfi_endproc
 181              	.LFE6:
 182              		.size	DebugMon_Handler, .-DebugMon_Handler
 183              		.align	1
 184              		.weak	WWDG_IRQHandler
 185              		.thumb
 186              		.thumb_func
 187              		.type	WWDG_IRQHandler, %function
 188              	WWDG_IRQHandler:
 189              	.LFB9:
 194:Device/startup/vectors_stm32f10x_md.c **** void PendSV_Handler (void) { while(1); }
 195:Device/startup/vectors_stm32f10x_md.c **** void SysTick_Handler (void) { while(1); }
 196:Device/startup/vectors_stm32f10x_md.c **** 
 197:Device/startup/vectors_stm32f10x_md.c **** void WWDG_IRQHandler (void) { while(1); }
 190              		.loc 1 197 0
 191              		.cfi_startproc
 192              		@ args = 0, pretend = 0, frame = 0
 193              		@ frame_needed = 0, uses_anonymous_args = 0
 194              		@ link register save eliminated.
 195              	.L14:
 196              		.loc 1 197 0 discriminator 1
 197 000c FEE7     		b	.L14	@
 198              		.cfi_endproc
 199              	.LFE9:
 200              		.size	WWDG_IRQHandler, .-WWDG_IRQHandler
 201              		.align	1
 202              		.weak	PVD_IRQHandler
ARM GAS  /var/folders/yt/6z6x8bjn5sjf5fbb45bk5m4c0000gn/T//cczEeWdS.s 			page 8


 203              		.thumb
 204              		.thumb_func
 205              		.type	PVD_IRQHandler, %function
 206              	PVD_IRQHandler:
 207              	.LFB10:
 198:Device/startup/vectors_stm32f10x_md.c **** void PVD_IRQHandler (void) { while(1); }
 208              		.loc 1 198 0
 209              		.cfi_startproc
 210              		@ args = 0, pretend = 0, frame = 0
 211              		@ frame_needed = 0, uses_anonymous_args = 0
 212              		@ link register save eliminated.
 213              	.L16:
 214              		.loc 1 198 0 discriminator 1
 215 000e FEE7     		b	.L16	@
 216              		.cfi_endproc
 217              	.LFE10:
 218              		.size	PVD_IRQHandler, .-PVD_IRQHandler
 219              		.align	1
 220              		.weak	TAMPER_IRQHandler
 221              		.thumb
 222              		.thumb_func
 223              		.type	TAMPER_IRQHandler, %function
 224              	TAMPER_IRQHandler:
 225              	.LFB11:
 199:Device/startup/vectors_stm32f10x_md.c **** void TAMPER_IRQHandler (void) { while(1); }
 226              		.loc 1 199 0
 227              		.cfi_startproc
 228              		@ args = 0, pretend = 0, frame = 0
 229              		@ frame_needed = 0, uses_anonymous_args = 0
 230              		@ link register save eliminated.
 231              	.L18:
 232              		.loc 1 199 0 discriminator 1
 233 0010 FEE7     		b	.L18	@
 234              		.cfi_endproc
 235              	.LFE11:
 236              		.size	TAMPER_IRQHandler, .-TAMPER_IRQHandler
 237              		.align	1
 238              		.weak	RTC_IRQHandler
 239              		.thumb
 240              		.thumb_func
 241              		.type	RTC_IRQHandler, %function
 242              	RTC_IRQHandler:
 243              	.LFB12:
 200:Device/startup/vectors_stm32f10x_md.c **** void RTC_IRQHandler (void) { while(1); }
 244              		.loc 1 200 0
 245              		.cfi_startproc
 246              		@ args = 0, pretend = 0, frame = 0
 247              		@ frame_needed = 0, uses_anonymous_args = 0
 248              		@ link register save eliminated.
 249              	.L20:
 250              		.loc 1 200 0 discriminator 1
 251 0012 FEE7     		b	.L20	@
 252              		.cfi_endproc
 253              	.LFE12:
 254              		.size	RTC_IRQHandler, .-RTC_IRQHandler
 255              		.align	1
 256              		.weak	FLASH_IRQHandler
ARM GAS  /var/folders/yt/6z6x8bjn5sjf5fbb45bk5m4c0000gn/T//cczEeWdS.s 			page 9


 257              		.thumb
 258              		.thumb_func
 259              		.type	FLASH_IRQHandler, %function
 260              	FLASH_IRQHandler:
 261              	.LFB13:
 201:Device/startup/vectors_stm32f10x_md.c **** void FLASH_IRQHandler (void) { while(1); }
 262              		.loc 1 201 0
 263              		.cfi_startproc
 264              		@ args = 0, pretend = 0, frame = 0
 265              		@ frame_needed = 0, uses_anonymous_args = 0
 266              		@ link register save eliminated.
 267              	.L22:
 268              		.loc 1 201 0 discriminator 1
 269 0014 FEE7     		b	.L22	@
 270              		.cfi_endproc
 271              	.LFE13:
 272              		.size	FLASH_IRQHandler, .-FLASH_IRQHandler
 273              		.align	1
 274              		.weak	RCC_IRQHandler
 275              		.thumb
 276              		.thumb_func
 277              		.type	RCC_IRQHandler, %function
 278              	RCC_IRQHandler:
 279              	.LFB14:
 202:Device/startup/vectors_stm32f10x_md.c **** void RCC_IRQHandler (void) { while(1); }
 280              		.loc 1 202 0
 281              		.cfi_startproc
 282              		@ args = 0, pretend = 0, frame = 0
 283              		@ frame_needed = 0, uses_anonymous_args = 0
 284              		@ link register save eliminated.
 285              	.L24:
 286              		.loc 1 202 0 discriminator 1
 287 0016 FEE7     		b	.L24	@
 288              		.cfi_endproc
 289              	.LFE14:
 290              		.size	RCC_IRQHandler, .-RCC_IRQHandler
 291              		.align	1
 292              		.weak	EXTI0_IRQHandler
 293              		.thumb
 294              		.thumb_func
 295              		.type	EXTI0_IRQHandler, %function
 296              	EXTI0_IRQHandler:
 297              	.LFB15:
 203:Device/startup/vectors_stm32f10x_md.c **** void EXTI0_IRQHandler (void) { while(1); }
 298              		.loc 1 203 0
 299              		.cfi_startproc
 300              		@ args = 0, pretend = 0, frame = 0
 301              		@ frame_needed = 0, uses_anonymous_args = 0
 302              		@ link register save eliminated.
 303              	.L26:
 304              		.loc 1 203 0 discriminator 1
 305 0018 FEE7     		b	.L26	@
 306              		.cfi_endproc
 307              	.LFE15:
 308              		.size	EXTI0_IRQHandler, .-EXTI0_IRQHandler
 309              		.align	1
 310              		.weak	EXTI1_IRQHandler
ARM GAS  /var/folders/yt/6z6x8bjn5sjf5fbb45bk5m4c0000gn/T//cczEeWdS.s 			page 10


 311              		.thumb
 312              		.thumb_func
 313              		.type	EXTI1_IRQHandler, %function
 314              	EXTI1_IRQHandler:
 315              	.LFB16:
 204:Device/startup/vectors_stm32f10x_md.c **** void EXTI1_IRQHandler (void) { while(1); }
 316              		.loc 1 204 0
 317              		.cfi_startproc
 318              		@ args = 0, pretend = 0, frame = 0
 319              		@ frame_needed = 0, uses_anonymous_args = 0
 320              		@ link register save eliminated.
 321              	.L28:
 322              		.loc 1 204 0 discriminator 1
 323 001a FEE7     		b	.L28	@
 324              		.cfi_endproc
 325              	.LFE16:
 326              		.size	EXTI1_IRQHandler, .-EXTI1_IRQHandler
 327              		.align	1
 328              		.weak	EXTI2_IRQHandler
 329              		.thumb
 330              		.thumb_func
 331              		.type	EXTI2_IRQHandler, %function
 332              	EXTI2_IRQHandler:
 333              	.LFB17:
 205:Device/startup/vectors_stm32f10x_md.c **** void EXTI2_IRQHandler (void) { while(1); }
 334              		.loc 1 205 0
 335              		.cfi_startproc
 336              		@ args = 0, pretend = 0, frame = 0
 337              		@ frame_needed = 0, uses_anonymous_args = 0
 338              		@ link register save eliminated.
 339              	.L30:
 340              		.loc 1 205 0 discriminator 1
 341 001c FEE7     		b	.L30	@
 342              		.cfi_endproc
 343              	.LFE17:
 344              		.size	EXTI2_IRQHandler, .-EXTI2_IRQHandler
 345              		.align	1
 346              		.weak	EXTI3_IRQHandler
 347              		.thumb
 348              		.thumb_func
 349              		.type	EXTI3_IRQHandler, %function
 350              	EXTI3_IRQHandler:
 351              	.LFB18:
 206:Device/startup/vectors_stm32f10x_md.c **** void EXTI3_IRQHandler (void) { while(1); }
 352              		.loc 1 206 0
 353              		.cfi_startproc
 354              		@ args = 0, pretend = 0, frame = 0
 355              		@ frame_needed = 0, uses_anonymous_args = 0
 356              		@ link register save eliminated.
 357              	.L32:
 358              		.loc 1 206 0 discriminator 1
 359 001e FEE7     		b	.L32	@
 360              		.cfi_endproc
 361              	.LFE18:
 362              		.size	EXTI3_IRQHandler, .-EXTI3_IRQHandler
 363              		.align	1
 364              		.weak	EXTI4_IRQHandler
ARM GAS  /var/folders/yt/6z6x8bjn5sjf5fbb45bk5m4c0000gn/T//cczEeWdS.s 			page 11


 365              		.thumb
 366              		.thumb_func
 367              		.type	EXTI4_IRQHandler, %function
 368              	EXTI4_IRQHandler:
 369              	.LFB19:
 207:Device/startup/vectors_stm32f10x_md.c **** void EXTI4_IRQHandler (void) { while(1); }
 370              		.loc 1 207 0
 371              		.cfi_startproc
 372              		@ args = 0, pretend = 0, frame = 0
 373              		@ frame_needed = 0, uses_anonymous_args = 0
 374              		@ link register save eliminated.
 375              	.L34:
 376              		.loc 1 207 0 discriminator 1
 377 0020 FEE7     		b	.L34	@
 378              		.cfi_endproc
 379              	.LFE19:
 380              		.size	EXTI4_IRQHandler, .-EXTI4_IRQHandler
 381              		.align	1
 382              		.weak	DMA1_Channel1_IRQHandler
 383              		.thumb
 384              		.thumb_func
 385              		.type	DMA1_Channel1_IRQHandler, %function
 386              	DMA1_Channel1_IRQHandler:
 387              	.LFB20:
 208:Device/startup/vectors_stm32f10x_md.c **** void DMA1_Channel1_IRQHandler (void) { while(1); }
 388              		.loc 1 208 0
 389              		.cfi_startproc
 390              		@ args = 0, pretend = 0, frame = 0
 391              		@ frame_needed = 0, uses_anonymous_args = 0
 392              		@ link register save eliminated.
 393              	.L36:
 394              		.loc 1 208 0 discriminator 1
 395 0022 FEE7     		b	.L36	@
 396              		.cfi_endproc
 397              	.LFE20:
 398              		.size	DMA1_Channel1_IRQHandler, .-DMA1_Channel1_IRQHandler
 399              		.align	1
 400              		.weak	DMA1_Channel2_IRQHandler
 401              		.thumb
 402              		.thumb_func
 403              		.type	DMA1_Channel2_IRQHandler, %function
 404              	DMA1_Channel2_IRQHandler:
 405              	.LFB21:
 209:Device/startup/vectors_stm32f10x_md.c **** void DMA1_Channel2_IRQHandler (void) { while(1); }
 406              		.loc 1 209 0
 407              		.cfi_startproc
 408              		@ args = 0, pretend = 0, frame = 0
 409              		@ frame_needed = 0, uses_anonymous_args = 0
 410              		@ link register save eliminated.
 411              	.L38:
 412              		.loc 1 209 0 discriminator 1
 413 0024 FEE7     		b	.L38	@
 414              		.cfi_endproc
 415              	.LFE21:
 416              		.size	DMA1_Channel2_IRQHandler, .-DMA1_Channel2_IRQHandler
 417              		.align	1
 418              		.weak	DMA1_Channel3_IRQHandler
ARM GAS  /var/folders/yt/6z6x8bjn5sjf5fbb45bk5m4c0000gn/T//cczEeWdS.s 			page 12


 419              		.thumb
 420              		.thumb_func
 421              		.type	DMA1_Channel3_IRQHandler, %function
 422              	DMA1_Channel3_IRQHandler:
 423              	.LFB22:
 210:Device/startup/vectors_stm32f10x_md.c **** void DMA1_Channel3_IRQHandler (void) { while(1); }
 424              		.loc 1 210 0
 425              		.cfi_startproc
 426              		@ args = 0, pretend = 0, frame = 0
 427              		@ frame_needed = 0, uses_anonymous_args = 0
 428              		@ link register save eliminated.
 429              	.L40:
 430              		.loc 1 210 0 discriminator 1
 431 0026 FEE7     		b	.L40	@
 432              		.cfi_endproc
 433              	.LFE22:
 434              		.size	DMA1_Channel3_IRQHandler, .-DMA1_Channel3_IRQHandler
 435              		.align	1
 436              		.weak	DMA1_Channel4_IRQHandler
 437              		.thumb
 438              		.thumb_func
 439              		.type	DMA1_Channel4_IRQHandler, %function
 440              	DMA1_Channel4_IRQHandler:
 441              	.LFB23:
 211:Device/startup/vectors_stm32f10x_md.c **** void DMA1_Channel4_IRQHandler (void) { while(1); }
 442              		.loc 1 211 0
 443              		.cfi_startproc
 444              		@ args = 0, pretend = 0, frame = 0
 445              		@ frame_needed = 0, uses_anonymous_args = 0
 446              		@ link register save eliminated.
 447              	.L42:
 448              		.loc 1 211 0 discriminator 1
 449 0028 FEE7     		b	.L42	@
 450              		.cfi_endproc
 451              	.LFE23:
 452              		.size	DMA1_Channel4_IRQHandler, .-DMA1_Channel4_IRQHandler
 453              		.align	1
 454              		.weak	DMA1_Channel5_IRQHandler
 455              		.thumb
 456              		.thumb_func
 457              		.type	DMA1_Channel5_IRQHandler, %function
 458              	DMA1_Channel5_IRQHandler:
 459              	.LFB24:
 212:Device/startup/vectors_stm32f10x_md.c **** void DMA1_Channel5_IRQHandler (void) { while(1); }
 460              		.loc 1 212 0
 461              		.cfi_startproc
 462              		@ args = 0, pretend = 0, frame = 0
 463              		@ frame_needed = 0, uses_anonymous_args = 0
 464              		@ link register save eliminated.
 465              	.L44:
 466              		.loc 1 212 0 discriminator 1
 467 002a FEE7     		b	.L44	@
 468              		.cfi_endproc
 469              	.LFE24:
 470              		.size	DMA1_Channel5_IRQHandler, .-DMA1_Channel5_IRQHandler
 471              		.align	1
 472              		.weak	DMA1_Channel6_IRQHandler
ARM GAS  /var/folders/yt/6z6x8bjn5sjf5fbb45bk5m4c0000gn/T//cczEeWdS.s 			page 13


 473              		.thumb
 474              		.thumb_func
 475              		.type	DMA1_Channel6_IRQHandler, %function
 476              	DMA1_Channel6_IRQHandler:
 477              	.LFB25:
 213:Device/startup/vectors_stm32f10x_md.c **** void DMA1_Channel6_IRQHandler (void) { while(1); }
 478              		.loc 1 213 0
 479              		.cfi_startproc
 480              		@ args = 0, pretend = 0, frame = 0
 481              		@ frame_needed = 0, uses_anonymous_args = 0
 482              		@ link register save eliminated.
 483              	.L46:
 484              		.loc 1 213 0 discriminator 1
 485 002c FEE7     		b	.L46	@
 486              		.cfi_endproc
 487              	.LFE25:
 488              		.size	DMA1_Channel6_IRQHandler, .-DMA1_Channel6_IRQHandler
 489              		.align	1
 490              		.weak	DMA1_Channel7_IRQHandler
 491              		.thumb
 492              		.thumb_func
 493              		.type	DMA1_Channel7_IRQHandler, %function
 494              	DMA1_Channel7_IRQHandler:
 495              	.LFB26:
 214:Device/startup/vectors_stm32f10x_md.c **** void DMA1_Channel7_IRQHandler (void) { while(1); }
 496              		.loc 1 214 0
 497              		.cfi_startproc
 498              		@ args = 0, pretend = 0, frame = 0
 499              		@ frame_needed = 0, uses_anonymous_args = 0
 500              		@ link register save eliminated.
 501              	.L48:
 502              		.loc 1 214 0 discriminator 1
 503 002e FEE7     		b	.L48	@
 504              		.cfi_endproc
 505              	.LFE26:
 506              		.size	DMA1_Channel7_IRQHandler, .-DMA1_Channel7_IRQHandler
 507              		.align	1
 508              		.weak	ADC1_2_IRQHandler
 509              		.thumb
 510              		.thumb_func
 511              		.type	ADC1_2_IRQHandler, %function
 512              	ADC1_2_IRQHandler:
 513              	.LFB27:
 215:Device/startup/vectors_stm32f10x_md.c **** void ADC1_2_IRQHandler (void) { while(1); }
 514              		.loc 1 215 0
 515              		.cfi_startproc
 516              		@ args = 0, pretend = 0, frame = 0
 517              		@ frame_needed = 0, uses_anonymous_args = 0
 518              		@ link register save eliminated.
 519              	.L50:
 520              		.loc 1 215 0 discriminator 1
 521 0030 FEE7     		b	.L50	@
 522              		.cfi_endproc
 523              	.LFE27:
 524              		.size	ADC1_2_IRQHandler, .-ADC1_2_IRQHandler
 525              		.align	1
 526              		.weak	USB_HP_CAN_TX_IRQHandler
ARM GAS  /var/folders/yt/6z6x8bjn5sjf5fbb45bk5m4c0000gn/T//cczEeWdS.s 			page 14


 527              		.thumb
 528              		.thumb_func
 529              		.type	USB_HP_CAN_TX_IRQHandler, %function
 530              	USB_HP_CAN_TX_IRQHandler:
 531              	.LFB28:
 216:Device/startup/vectors_stm32f10x_md.c **** void USB_HP_CAN_TX_IRQHandler (void) { while(1); }
 532              		.loc 1 216 0
 533              		.cfi_startproc
 534              		@ args = 0, pretend = 0, frame = 0
 535              		@ frame_needed = 0, uses_anonymous_args = 0
 536              		@ link register save eliminated.
 537              	.L52:
 538              		.loc 1 216 0 discriminator 1
 539 0032 FEE7     		b	.L52	@
 540              		.cfi_endproc
 541              	.LFE28:
 542              		.size	USB_HP_CAN_TX_IRQHandler, .-USB_HP_CAN_TX_IRQHandler
 543              		.align	1
 544              		.weak	USB_LP_CAN_RX0_IRQHandler
 545              		.thumb
 546              		.thumb_func
 547              		.type	USB_LP_CAN_RX0_IRQHandler, %function
 548              	USB_LP_CAN_RX0_IRQHandler:
 549              	.LFB29:
 217:Device/startup/vectors_stm32f10x_md.c **** void USB_LP_CAN_RX0_IRQHandler (void) { while(1); }
 550              		.loc 1 217 0
 551              		.cfi_startproc
 552              		@ args = 0, pretend = 0, frame = 0
 553              		@ frame_needed = 0, uses_anonymous_args = 0
 554              		@ link register save eliminated.
 555              	.L54:
 556              		.loc 1 217 0 discriminator 1
 557 0034 FEE7     		b	.L54	@
 558              		.cfi_endproc
 559              	.LFE29:
 560              		.size	USB_LP_CAN_RX0_IRQHandler, .-USB_LP_CAN_RX0_IRQHandler
 561              		.align	1
 562              		.weak	CAN_RX1_IRQHandler
 563              		.thumb
 564              		.thumb_func
 565              		.type	CAN_RX1_IRQHandler, %function
 566              	CAN_RX1_IRQHandler:
 567              	.LFB30:
 218:Device/startup/vectors_stm32f10x_md.c **** void CAN_RX1_IRQHandler (void) { while(1); }
 568              		.loc 1 218 0
 569              		.cfi_startproc
 570              		@ args = 0, pretend = 0, frame = 0
 571              		@ frame_needed = 0, uses_anonymous_args = 0
 572              		@ link register save eliminated.
 573              	.L56:
 574              		.loc 1 218 0 discriminator 1
 575 0036 FEE7     		b	.L56	@
 576              		.cfi_endproc
 577              	.LFE30:
 578              		.size	CAN_RX1_IRQHandler, .-CAN_RX1_IRQHandler
 579              		.align	1
 580              		.weak	CAN_SCE_IRQHandler
ARM GAS  /var/folders/yt/6z6x8bjn5sjf5fbb45bk5m4c0000gn/T//cczEeWdS.s 			page 15


 581              		.thumb
 582              		.thumb_func
 583              		.type	CAN_SCE_IRQHandler, %function
 584              	CAN_SCE_IRQHandler:
 585              	.LFB31:
 219:Device/startup/vectors_stm32f10x_md.c **** void CAN_SCE_IRQHandler (void) { while(1); }
 586              		.loc 1 219 0
 587              		.cfi_startproc
 588              		@ args = 0, pretend = 0, frame = 0
 589              		@ frame_needed = 0, uses_anonymous_args = 0
 590              		@ link register save eliminated.
 591              	.L58:
 592              		.loc 1 219 0 discriminator 1
 593 0038 FEE7     		b	.L58	@
 594              		.cfi_endproc
 595              	.LFE31:
 596              		.size	CAN_SCE_IRQHandler, .-CAN_SCE_IRQHandler
 597              		.align	1
 598              		.weak	EXTI9_5_IRQHandler
 599              		.thumb
 600              		.thumb_func
 601              		.type	EXTI9_5_IRQHandler, %function
 602              	EXTI9_5_IRQHandler:
 603              	.LFB32:
 220:Device/startup/vectors_stm32f10x_md.c **** void EXTI9_5_IRQHandler (void) { while(1); }
 604              		.loc 1 220 0
 605              		.cfi_startproc
 606              		@ args = 0, pretend = 0, frame = 0
 607              		@ frame_needed = 0, uses_anonymous_args = 0
 608              		@ link register save eliminated.
 609              	.L60:
 610              		.loc 1 220 0 discriminator 1
 611 003a FEE7     		b	.L60	@
 612              		.cfi_endproc
 613              	.LFE32:
 614              		.size	EXTI9_5_IRQHandler, .-EXTI9_5_IRQHandler
 615              		.align	1
 616              		.weak	TIM1_BRK_IRQHandler
 617              		.thumb
 618              		.thumb_func
 619              		.type	TIM1_BRK_IRQHandler, %function
 620              	TIM1_BRK_IRQHandler:
 621              	.LFB33:
 221:Device/startup/vectors_stm32f10x_md.c **** void TIM1_BRK_IRQHandler (void) { while(1); }
 622              		.loc 1 221 0
 623              		.cfi_startproc
 624              		@ args = 0, pretend = 0, frame = 0
 625              		@ frame_needed = 0, uses_anonymous_args = 0
 626              		@ link register save eliminated.
 627              	.L62:
 628              		.loc 1 221 0 discriminator 1
 629 003c FEE7     		b	.L62	@
 630              		.cfi_endproc
 631              	.LFE33:
 632              		.size	TIM1_BRK_IRQHandler, .-TIM1_BRK_IRQHandler
 633              		.align	1
 634              		.weak	TIM1_UP_IRQHandler
ARM GAS  /var/folders/yt/6z6x8bjn5sjf5fbb45bk5m4c0000gn/T//cczEeWdS.s 			page 16


 635              		.thumb
 636              		.thumb_func
 637              		.type	TIM1_UP_IRQHandler, %function
 638              	TIM1_UP_IRQHandler:
 639              	.LFB34:
 222:Device/startup/vectors_stm32f10x_md.c **** void TIM1_UP_IRQHandler (void) { while(1); }
 640              		.loc 1 222 0
 641              		.cfi_startproc
 642              		@ args = 0, pretend = 0, frame = 0
 643              		@ frame_needed = 0, uses_anonymous_args = 0
 644              		@ link register save eliminated.
 645              	.L64:
 646              		.loc 1 222 0 discriminator 1
 647 003e FEE7     		b	.L64	@
 648              		.cfi_endproc
 649              	.LFE34:
 650              		.size	TIM1_UP_IRQHandler, .-TIM1_UP_IRQHandler
 651              		.align	1
 652              		.weak	TIM1_TRG_COM_IRQHandler
 653              		.thumb
 654              		.thumb_func
 655              		.type	TIM1_TRG_COM_IRQHandler, %function
 656              	TIM1_TRG_COM_IRQHandler:
 657              	.LFB35:
 223:Device/startup/vectors_stm32f10x_md.c **** void TIM1_TRG_COM_IRQHandler (void) { while(1); }
 658              		.loc 1 223 0
 659              		.cfi_startproc
 660              		@ args = 0, pretend = 0, frame = 0
 661              		@ frame_needed = 0, uses_anonymous_args = 0
 662              		@ link register save eliminated.
 663              	.L66:
 664              		.loc 1 223 0 discriminator 1
 665 0040 FEE7     		b	.L66	@
 666              		.cfi_endproc
 667              	.LFE35:
 668              		.size	TIM1_TRG_COM_IRQHandler, .-TIM1_TRG_COM_IRQHandler
 669              		.align	1
 670              		.weak	TIM1_CC_IRQHandler
 671              		.thumb
 672              		.thumb_func
 673              		.type	TIM1_CC_IRQHandler, %function
 674              	TIM1_CC_IRQHandler:
 675              	.LFB36:
 224:Device/startup/vectors_stm32f10x_md.c **** void TIM1_CC_IRQHandler (void) { while(1); }
 676              		.loc 1 224 0
 677              		.cfi_startproc
 678              		@ args = 0, pretend = 0, frame = 0
 679              		@ frame_needed = 0, uses_anonymous_args = 0
 680              		@ link register save eliminated.
 681              	.L68:
 682              		.loc 1 224 0 discriminator 1
 683 0042 FEE7     		b	.L68	@
 684              		.cfi_endproc
 685              	.LFE36:
 686              		.size	TIM1_CC_IRQHandler, .-TIM1_CC_IRQHandler
 687              		.align	1
 688              		.weak	TIM2_IRQHandler
ARM GAS  /var/folders/yt/6z6x8bjn5sjf5fbb45bk5m4c0000gn/T//cczEeWdS.s 			page 17


 689              		.thumb
 690              		.thumb_func
 691              		.type	TIM2_IRQHandler, %function
 692              	TIM2_IRQHandler:
 693              	.LFB37:
 225:Device/startup/vectors_stm32f10x_md.c **** void TIM2_IRQHandler (void) { while(1); }
 694              		.loc 1 225 0
 695              		.cfi_startproc
 696              		@ args = 0, pretend = 0, frame = 0
 697              		@ frame_needed = 0, uses_anonymous_args = 0
 698              		@ link register save eliminated.
 699              	.L70:
 700              		.loc 1 225 0 discriminator 1
 701 0044 FEE7     		b	.L70	@
 702              		.cfi_endproc
 703              	.LFE37:
 704              		.size	TIM2_IRQHandler, .-TIM2_IRQHandler
 705              		.align	1
 706              		.weak	TIM3_IRQHandler
 707              		.thumb
 708              		.thumb_func
 709              		.type	TIM3_IRQHandler, %function
 710              	TIM3_IRQHandler:
 711              	.LFB38:
 226:Device/startup/vectors_stm32f10x_md.c **** void TIM3_IRQHandler (void) { while(1); }
 712              		.loc 1 226 0
 713              		.cfi_startproc
 714              		@ args = 0, pretend = 0, frame = 0
 715              		@ frame_needed = 0, uses_anonymous_args = 0
 716              		@ link register save eliminated.
 717              	.L72:
 718              		.loc 1 226 0 discriminator 1
 719 0046 FEE7     		b	.L72	@
 720              		.cfi_endproc
 721              	.LFE38:
 722              		.size	TIM3_IRQHandler, .-TIM3_IRQHandler
 723              		.align	1
 724              		.weak	TIM4_IRQHandler
 725              		.thumb
 726              		.thumb_func
 727              		.type	TIM4_IRQHandler, %function
 728              	TIM4_IRQHandler:
 729              	.LFB39:
 227:Device/startup/vectors_stm32f10x_md.c **** void TIM4_IRQHandler (void) { while(1); }
 730              		.loc 1 227 0
 731              		.cfi_startproc
 732              		@ args = 0, pretend = 0, frame = 0
 733              		@ frame_needed = 0, uses_anonymous_args = 0
 734              		@ link register save eliminated.
 735              	.L74:
 736              		.loc 1 227 0 discriminator 1
 737 0048 FEE7     		b	.L74	@
 738              		.cfi_endproc
 739              	.LFE39:
 740              		.size	TIM4_IRQHandler, .-TIM4_IRQHandler
 741              		.align	1
 742              		.weak	I2C1_EV_IRQHandler
ARM GAS  /var/folders/yt/6z6x8bjn5sjf5fbb45bk5m4c0000gn/T//cczEeWdS.s 			page 18


 743              		.thumb
 744              		.thumb_func
 745              		.type	I2C1_EV_IRQHandler, %function
 746              	I2C1_EV_IRQHandler:
 747              	.LFB40:
 228:Device/startup/vectors_stm32f10x_md.c **** void I2C1_EV_IRQHandler (void) { while(1); }
 748              		.loc 1 228 0
 749              		.cfi_startproc
 750              		@ args = 0, pretend = 0, frame = 0
 751              		@ frame_needed = 0, uses_anonymous_args = 0
 752              		@ link register save eliminated.
 753              	.L76:
 754              		.loc 1 228 0 discriminator 1
 755 004a FEE7     		b	.L76	@
 756              		.cfi_endproc
 757              	.LFE40:
 758              		.size	I2C1_EV_IRQHandler, .-I2C1_EV_IRQHandler
 759              		.align	1
 760              		.weak	I2C1_ER_IRQHandler
 761              		.thumb
 762              		.thumb_func
 763              		.type	I2C1_ER_IRQHandler, %function
 764              	I2C1_ER_IRQHandler:
 765              	.LFB41:
 229:Device/startup/vectors_stm32f10x_md.c **** void I2C1_ER_IRQHandler (void) { while(1); }
 766              		.loc 1 229 0
 767              		.cfi_startproc
 768              		@ args = 0, pretend = 0, frame = 0
 769              		@ frame_needed = 0, uses_anonymous_args = 0
 770              		@ link register save eliminated.
 771              	.L78:
 772              		.loc 1 229 0 discriminator 1
 773 004c FEE7     		b	.L78	@
 774              		.cfi_endproc
 775              	.LFE41:
 776              		.size	I2C1_ER_IRQHandler, .-I2C1_ER_IRQHandler
 777              		.align	1
 778              		.weak	I2C2_EV_IRQHandler
 779              		.thumb
 780              		.thumb_func
 781              		.type	I2C2_EV_IRQHandler, %function
 782              	I2C2_EV_IRQHandler:
 783              	.LFB42:
 230:Device/startup/vectors_stm32f10x_md.c **** void I2C2_EV_IRQHandler (void) { while(1); }
 784              		.loc 1 230 0
 785              		.cfi_startproc
 786              		@ args = 0, pretend = 0, frame = 0
 787              		@ frame_needed = 0, uses_anonymous_args = 0
 788              		@ link register save eliminated.
 789              	.L80:
 790              		.loc 1 230 0 discriminator 1
 791 004e FEE7     		b	.L80	@
 792              		.cfi_endproc
 793              	.LFE42:
 794              		.size	I2C2_EV_IRQHandler, .-I2C2_EV_IRQHandler
 795              		.align	1
 796              		.weak	I2C2_ER_IRQHandler
ARM GAS  /var/folders/yt/6z6x8bjn5sjf5fbb45bk5m4c0000gn/T//cczEeWdS.s 			page 19


 797              		.thumb
 798              		.thumb_func
 799              		.type	I2C2_ER_IRQHandler, %function
 800              	I2C2_ER_IRQHandler:
 801              	.LFB43:
 231:Device/startup/vectors_stm32f10x_md.c **** void I2C2_ER_IRQHandler (void) { while(1); }
 802              		.loc 1 231 0
 803              		.cfi_startproc
 804              		@ args = 0, pretend = 0, frame = 0
 805              		@ frame_needed = 0, uses_anonymous_args = 0
 806              		@ link register save eliminated.
 807              	.L82:
 808              		.loc 1 231 0 discriminator 1
 809 0050 FEE7     		b	.L82	@
 810              		.cfi_endproc
 811              	.LFE43:
 812              		.size	I2C2_ER_IRQHandler, .-I2C2_ER_IRQHandler
 813              		.align	1
 814              		.weak	SPI1_IRQHandler
 815              		.thumb
 816              		.thumb_func
 817              		.type	SPI1_IRQHandler, %function
 818              	SPI1_IRQHandler:
 819              	.LFB44:
 232:Device/startup/vectors_stm32f10x_md.c **** void SPI1_IRQHandler (void) { while(1); }
 820              		.loc 1 232 0
 821              		.cfi_startproc
 822              		@ args = 0, pretend = 0, frame = 0
 823              		@ frame_needed = 0, uses_anonymous_args = 0
 824              		@ link register save eliminated.
 825              	.L84:
 826              		.loc 1 232 0 discriminator 1
 827 0052 FEE7     		b	.L84	@
 828              		.cfi_endproc
 829              	.LFE44:
 830              		.size	SPI1_IRQHandler, .-SPI1_IRQHandler
 831              		.align	1
 832              		.weak	SPI2_IRQHandler
 833              		.thumb
 834              		.thumb_func
 835              		.type	SPI2_IRQHandler, %function
 836              	SPI2_IRQHandler:
 837              	.LFB45:
 233:Device/startup/vectors_stm32f10x_md.c **** void SPI2_IRQHandler (void) { while(1); }
 838              		.loc 1 233 0
 839              		.cfi_startproc
 840              		@ args = 0, pretend = 0, frame = 0
 841              		@ frame_needed = 0, uses_anonymous_args = 0
 842              		@ link register save eliminated.
 843              	.L86:
 844              		.loc 1 233 0 discriminator 1
 845 0054 FEE7     		b	.L86	@
 846              		.cfi_endproc
 847              	.LFE45:
 848              		.size	SPI2_IRQHandler, .-SPI2_IRQHandler
 849              		.align	1
 850              		.weak	USART1_IRQHandler
ARM GAS  /var/folders/yt/6z6x8bjn5sjf5fbb45bk5m4c0000gn/T//cczEeWdS.s 			page 20


 851              		.thumb
 852              		.thumb_func
 853              		.type	USART1_IRQHandler, %function
 854              	USART1_IRQHandler:
 855              	.LFB46:
 234:Device/startup/vectors_stm32f10x_md.c **** void USART1_IRQHandler (void) { while(1); }
 856              		.loc 1 234 0
 857              		.cfi_startproc
 858              		@ args = 0, pretend = 0, frame = 0
 859              		@ frame_needed = 0, uses_anonymous_args = 0
 860              		@ link register save eliminated.
 861              	.L88:
 862              		.loc 1 234 0 discriminator 1
 863 0056 FEE7     		b	.L88	@
 864              		.cfi_endproc
 865              	.LFE46:
 866              		.size	USART1_IRQHandler, .-USART1_IRQHandler
 867              		.align	1
 868              		.weak	USART2_IRQHandler
 869              		.thumb
 870              		.thumb_func
 871              		.type	USART2_IRQHandler, %function
 872              	USART2_IRQHandler:
 873              	.LFB47:
 235:Device/startup/vectors_stm32f10x_md.c **** void USART2_IRQHandler (void) { while(1); }
 874              		.loc 1 235 0
 875              		.cfi_startproc
 876              		@ args = 0, pretend = 0, frame = 0
 877              		@ frame_needed = 0, uses_anonymous_args = 0
 878              		@ link register save eliminated.
 879              	.L90:
 880              		.loc 1 235 0 discriminator 1
 881 0058 FEE7     		b	.L90	@
 882              		.cfi_endproc
 883              	.LFE47:
 884              		.size	USART2_IRQHandler, .-USART2_IRQHandler
 885              		.align	1
 886              		.weak	USART3_IRQHandler
 887              		.thumb
 888              		.thumb_func
 889              		.type	USART3_IRQHandler, %function
 890              	USART3_IRQHandler:
 891              	.LFB48:
 236:Device/startup/vectors_stm32f10x_md.c **** void USART3_IRQHandler (void) { while(1); }
 892              		.loc 1 236 0
 893              		.cfi_startproc
 894              		@ args = 0, pretend = 0, frame = 0
 895              		@ frame_needed = 0, uses_anonymous_args = 0
 896              		@ link register save eliminated.
 897              	.L92:
 898              		.loc 1 236 0 discriminator 1
 899 005a FEE7     		b	.L92	@
 900              		.cfi_endproc
 901              	.LFE48:
 902              		.size	USART3_IRQHandler, .-USART3_IRQHandler
 903              		.align	1
 904              		.weak	EXTI15_10_IRQHandler
ARM GAS  /var/folders/yt/6z6x8bjn5sjf5fbb45bk5m4c0000gn/T//cczEeWdS.s 			page 21


 905              		.thumb
 906              		.thumb_func
 907              		.type	EXTI15_10_IRQHandler, %function
 908              	EXTI15_10_IRQHandler:
 909              	.LFB49:
 237:Device/startup/vectors_stm32f10x_md.c **** void EXTI15_10_IRQHandler (void) { while(1); }
 910              		.loc 1 237 0
 911              		.cfi_startproc
 912              		@ args = 0, pretend = 0, frame = 0
 913              		@ frame_needed = 0, uses_anonymous_args = 0
 914              		@ link register save eliminated.
 915              	.L94:
 916              		.loc 1 237 0 discriminator 1
 917 005c FEE7     		b	.L94	@
 918              		.cfi_endproc
 919              	.LFE49:
 920              		.size	EXTI15_10_IRQHandler, .-EXTI15_10_IRQHandler
 921              		.align	1
 922              		.weak	RTCAlarm_IRQHandler
 923              		.thumb
 924              		.thumb_func
 925              		.type	RTCAlarm_IRQHandler, %function
 926              	RTCAlarm_IRQHandler:
 927              	.LFB50:
 238:Device/startup/vectors_stm32f10x_md.c **** void RTCAlarm_IRQHandler (void) { while(1); }
 928              		.loc 1 238 0
 929              		.cfi_startproc
 930              		@ args = 0, pretend = 0, frame = 0
 931              		@ frame_needed = 0, uses_anonymous_args = 0
 932              		@ link register save eliminated.
 933              	.L96:
 934              		.loc 1 238 0 discriminator 1
 935 005e FEE7     		b	.L96	@
 936              		.cfi_endproc
 937              	.LFE50:
 938              		.size	RTCAlarm_IRQHandler, .-RTCAlarm_IRQHandler
 939              		.align	1
 940              		.weak	USBWakeUp_IRQHandler
 941              		.thumb
 942              		.thumb_func
 943              		.type	USBWakeUp_IRQHandler, %function
 944              	USBWakeUp_IRQHandler:
 945              	.LFB51:
 239:Device/startup/vectors_stm32f10x_md.c **** void USBWakeUp_IRQHandler (void) { while(1); }
 946              		.loc 1 239 0
 947              		.cfi_startproc
 948              		@ args = 0, pretend = 0, frame = 0
 949              		@ frame_needed = 0, uses_anonymous_args = 0
 950              		@ link register save eliminated.
 951              	.L98:
 952              		.loc 1 239 0 discriminator 1
 953 0060 FEE7     		b	.L98	@
 954              		.cfi_endproc
 955              	.LFE51:
 956              		.size	USBWakeUp_IRQHandler, .-USBWakeUp_IRQHandler
 957              		.align	1
 958              		.global	SVC_Handler
ARM GAS  /var/folders/yt/6z6x8bjn5sjf5fbb45bk5m4c0000gn/T//cczEeWdS.s 			page 22


 959              		.thumb
 960              		.thumb_func
 961              		.type	SVC_Handler, %function
 962              	SVC_Handler:
 963              	.LFB5:
 192:Device/startup/vectors_stm32f10x_md.c **** void DebugMon_Handler (void) { while(1); }
 964              		.loc 1 192 0
 965              		.cfi_startproc
 966              		@ Volatile: function does not return.
 967              		@ args = 0, pretend = 0, frame = 0
 968              		@ frame_needed = 0, uses_anonymous_args = 0
 969              		@ link register save eliminated.
 970              	.L100:
 192:Device/startup/vectors_stm32f10x_md.c **** void DebugMon_Handler (void) { while(1); }
 971              		.loc 1 192 0 discriminator 1
 972 0062 FEE7     		b	.L100	@
 973              		.cfi_endproc
 974              	.LFE5:
 975              		.size	SVC_Handler, .-SVC_Handler
 976              		.align	1
 977              		.global	PendSV_Handler
 978              		.thumb
 979              		.thumb_func
 980              		.type	PendSV_Handler, %function
 981              	PendSV_Handler:
 982              	.LFB7:
 194:Device/startup/vectors_stm32f10x_md.c **** void SysTick_Handler (void) { while(1); }
 983              		.loc 1 194 0
 984              		.cfi_startproc
 985              		@ Volatile: function does not return.
 986              		@ args = 0, pretend = 0, frame = 0
 987              		@ frame_needed = 0, uses_anonymous_args = 0
 988              		@ link register save eliminated.
 989              	.L102:
 194:Device/startup/vectors_stm32f10x_md.c **** void SysTick_Handler (void) { while(1); }
 990              		.loc 1 194 0 discriminator 1
 991 0064 FEE7     		b	.L102	@
 992              		.cfi_endproc
 993              	.LFE7:
 994              		.size	PendSV_Handler, .-PendSV_Handler
 995              		.align	1
 996              		.global	SysTick_Handler
 997              		.thumb
 998              		.thumb_func
 999              		.type	SysTick_Handler, %function
 1000              	SysTick_Handler:
 1001              	.LFB8:
 195:Device/startup/vectors_stm32f10x_md.c **** 
 1002              		.loc 1 195 0
 1003              		.cfi_startproc
 1004              		@ Volatile: function does not return.
 1005              		@ args = 0, pretend = 0, frame = 0
 1006              		@ frame_needed = 0, uses_anonymous_args = 0
 1007              		@ link register save eliminated.
 1008              	.L104:
 195:Device/startup/vectors_stm32f10x_md.c **** 
 1009              		.loc 1 195 0 discriminator 1
ARM GAS  /var/folders/yt/6z6x8bjn5sjf5fbb45bk5m4c0000gn/T//cczEeWdS.s 			page 23


 1010 0066 FEE7     		b	.L104	@
 1011              		.cfi_endproc
 1012              	.LFE8:
 1013              		.size	SysTick_Handler, .-SysTick_Handler
 1014              		.global	gVectors
 1015              		.section	.vectors,"a",%progbits
 1016              		.align	2
 1017              		.type	gVectors, %object
 1018              		.size	gVectors, 236
 1019              	gVectors:
 1020 0000 00000000 		.word	_estack
 1021 0004 00000000 		.word	ResetHandler
 1022 0008 00000000 		.word	NMI_Handler
 1023 000c 00000000 		.word	HardFault_Handler
 1024 0010 00000000 		.word	MemManage_Handler
 1025 0014 00000000 		.word	BusFault_Handler
 1026 0018 00000000 		.word	UsageFault_Handler
 1027 001c 00000000 		.word	0
 1028 0020 00000000 		.word	0
 1029 0024 00000000 		.word	0
 1030 0028 00000000 		.word	0
 1031 002c 00000000 		.word	vPortSVCHandler
 1032 0030 00000000 		.word	DebugMon_Handler
 1033 0034 00000000 		.word	0
 1034 0038 00000000 		.word	xPortPendSVHandler
 1035 003c 00000000 		.word	xPortSysTickHandler
 1036 0040 00000000 		.word	WWDG_IRQHandler
 1037 0044 00000000 		.word	PVD_IRQHandler
 1038 0048 00000000 		.word	TAMPER_IRQHandler
 1039 004c 00000000 		.word	RTC_IRQHandler
 1040 0050 00000000 		.word	FLASH_IRQHandler
 1041 0054 00000000 		.word	RCC_IRQHandler
 1042 0058 00000000 		.word	EXTI0_IRQHandler
 1043 005c 00000000 		.word	EXTI1_IRQHandler
 1044 0060 00000000 		.word	EXTI2_IRQHandler
 1045 0064 00000000 		.word	EXTI3_IRQHandler
 1046 0068 00000000 		.word	EXTI4_IRQHandler
 1047 006c 00000000 		.word	DMA1_Channel1_IRQHandler
 1048 0070 00000000 		.word	DMA1_Channel2_IRQHandler
 1049 0074 00000000 		.word	DMA1_Channel3_IRQHandler
 1050 0078 00000000 		.word	DMA1_Channel4_IRQHandler
 1051 007c 00000000 		.word	DMA1_Channel5_IRQHandler
 1052 0080 00000000 		.word	DMA1_Channel6_IRQHandler
 1053 0084 00000000 		.word	DMA1_Channel7_IRQHandler
 1054 0088 00000000 		.word	ADC1_2_IRQHandler
 1055 008c 00000000 		.word	USB_HP_CAN_TX_IRQHandler
 1056 0090 00000000 		.word	USB_LP_CAN_RX0_IRQHandler
 1057 0094 00000000 		.word	CAN_RX1_IRQHandler
 1058 0098 00000000 		.word	CAN_SCE_IRQHandler
 1059 009c 00000000 		.word	EXTI9_5_IRQHandler
 1060 00a0 00000000 		.word	TIM1_BRK_IRQHandler
 1061 00a4 00000000 		.word	TIM1_UP_IRQHandler
 1062 00a8 00000000 		.word	TIM1_TRG_COM_IRQHandler
 1063 00ac 00000000 		.word	TIM1_CC_IRQHandler
 1064 00b0 00000000 		.word	TIM2_IRQHandler
 1065 00b4 00000000 		.word	TIM3_IRQHandler
 1066 00b8 00000000 		.word	TIM4_IRQHandler
ARM GAS  /var/folders/yt/6z6x8bjn5sjf5fbb45bk5m4c0000gn/T//cczEeWdS.s 			page 24


 1067 00bc 00000000 		.word	I2C1_EV_IRQHandler
 1068 00c0 00000000 		.word	I2C1_ER_IRQHandler
 1069 00c4 00000000 		.word	I2C2_EV_IRQHandler
 1070 00c8 00000000 		.word	I2C2_ER_IRQHandler
 1071 00cc 00000000 		.word	SPI1_IRQHandler
 1072 00d0 00000000 		.word	SPI2_IRQHandler
 1073 00d4 00000000 		.word	USART1_IRQHandler
 1074 00d8 00000000 		.word	USART2_IRQHandler
 1075 00dc 00000000 		.word	USART3_IRQHandler
 1076 00e0 00000000 		.word	EXTI15_10_IRQHandler
 1077 00e4 00000000 		.word	RTCAlarm_IRQHandler
 1078 00e8 00000000 		.word	USBWakeUp_IRQHandler
 1079              		.weak	xPortSysTickHandler
 1080              		.weak	xPortPendSVHandler
 1081              		.weak	vPortSVCHandler
 1082              		.text
 1083              	.Letext0: