ARM GAS  /var/folders/yt/6z6x8bjn5sjf5fbb45bk5m4c0000gn/T//ccYsuN66.s 			page 1


   1              		.syntax unified
   2              		.cpu cortex-m3
   3              		.fpu softvfp
   4              		.eabi_attribute 20, 1	@ Tag_ABI_FP_denormal
   5              		.eabi_attribute 21, 1	@ Tag_ABI_FP_exceptions
   6              		.eabi_attribute 23, 3	@ Tag_ABI_FP_number_model
   7              		.eabi_attribute 24, 1	@ Tag_ABI_align8_needed
   8              		.eabi_attribute 25, 1	@ Tag_ABI_align8_preserved
   9              		.eabi_attribute 26, 1	@ Tag_ABI_enum_size
  10              		.eabi_attribute 30, 4	@ Tag_ABI_optimization_goals
  11              		.eabi_attribute 34, 1	@ Tag_CPU_unaligned_access
  12              		.eabi_attribute 18, 4	@ Tag_ABI_PCS_wchar_t
  13              		.file	"i2c1_remap.c"
  14              	@ GNU C (GNU Tools for ARM Embedded Processors) version 4.9.3 20150529 (release) [ARM/embedded-4_9-
  15              	@	compiled by GNU C version 4.2.1 (Based on Apple Inc. build 5658) (LLVM build 2336.9.00), GMP vers
  16              	@ GGC heuristics: --param ggc-min-expand=100 --param ggc-min-heapsize=131072
  17              	@ options passed:  -I . -I ./Libraries/CMSIS/CM3/CoreSupport
  18              	@ -I ./Libraries/CMSIS/CM3/DeviceSupport/ST/STM32F10x
  19              	@ -I ./Libraries/STM32F10x_StdPeriph_Driver/inc -I ./Libraries/Drivers/Leds
  20              	@ -I ./Libraries/Drivers/Buttons -I ./Libraries/Drivers/Usart
  21              	@ -I ./Libraries/Drivers/i2c -I ./Libraries/Drivers/BH1750
  22              	@ -I ./Libraries/Drivers/Utilities -I ./FreeRTOS/Source/include
  23              	@ -I ./FreeRTOS/Source/portable/GCC/ARM_CM3 -imultilib armv7-m
  24              	@ -iprefix /usr/local/Cellar/arm-none-eabi-gcc/20150921/bin/../lib/gcc/arm-none-eabi/4.9.3/
  25              	@ -isysroot /usr/local/Cellar/arm-none-eabi-gcc/20150921/bin/../arm-none-eabi
  26              	@ -MD Libraries/Drivers/i2c/i2c1_remap.d -MF .dep/i2c1_remap.o.d -MP
  27              	@ -MQ Libraries/Drivers/i2c/i2c1_remap.o -D__USES_INITFINI__
  28              	@ -D STM32F10X_MD -D USE_STDPERIPH_DRIVER -D GCC_ARMCM3 -D RUN_FROM_FLASH=1
  29              	@ Libraries/Drivers/i2c/i2c1_remap.c -mcpu=cortex-m3 -mthumb
  30              	@ -auxbase-strip Libraries/Drivers/i2c/i2c1_remap.o -gdwarf-2 -Os -Wall
  31              	@ -Wstrict-prototypes -fomit-frame-pointer -fverbose-asm
  32              	@ options enabled:  -faggressive-loop-optimizations -fauto-inc-dec
  33              	@ -fbranch-count-reg -fcaller-saves -fcombine-stack-adjustments -fcommon
  34              	@ -fcompare-elim -fcprop-registers -fcrossjumping -fcse-follow-jumps
  35              	@ -fdefer-pop -fdelete-null-pointer-checks -fdevirtualize
  36              	@ -fdevirtualize-speculatively -fdwarf2-cfi-asm -fearly-inlining
  37              	@ -feliminate-unused-debug-types -fexpensive-optimizations
  38              	@ -fforward-propagate -ffunction-cse -fgcse -fgcse-lm -fgnu-runtime
  39              	@ -fgnu-unique -fguess-branch-probability -fhoist-adjacent-loads -fident
  40              	@ -fif-conversion -fif-conversion2 -findirect-inlining -finline
  41              	@ -finline-atomics -finline-functions -finline-functions-called-once
  42              	@ -finline-small-functions -fipa-cp -fipa-profile -fipa-pure-const
  43              	@ -fipa-reference -fipa-sra -fira-hoist-pressure -fira-share-save-slots
  44              	@ -fira-share-spill-slots -fisolate-erroneous-paths-dereference -fivopts
  45              	@ -fkeep-static-consts -fleading-underscore -flifetime-dse -fmath-errno
  46              	@ -fmerge-constants -fmerge-debug-strings -fomit-frame-pointer
  47              	@ -foptimize-sibling-calls -fpartial-inlining -fpeephole -fpeephole2
  48              	@ -fprefetch-loop-arrays -freg-struct-return -freorder-blocks
  49              	@ -freorder-functions -frerun-cse-after-loop
  50              	@ -fsched-critical-path-heuristic -fsched-dep-count-heuristic
  51              	@ -fsched-group-heuristic -fsched-interblock -fsched-last-insn-heuristic
  52              	@ -fsched-pressure -fsched-rank-heuristic -fsched-spec
  53              	@ -fsched-spec-insn-heuristic -fsched-stalled-insns-dep -fschedule-insns2
  54              	@ -fsection-anchors -fshow-column -fsigned-zeros -fsplit-ivs-in-unroller
  55              	@ -fsplit-wide-types -fstrict-aliasing -fstrict-overflow
  56              	@ -fstrict-volatile-bitfields -fsync-libcalls -fthread-jumps
  57              	@ -ftoplevel-reorder -ftrapping-math -ftree-bit-ccp -ftree-builtin-call-dce
ARM GAS  /var/folders/yt/6z6x8bjn5sjf5fbb45bk5m4c0000gn/T//ccYsuN66.s 			page 2


  58              	@ -ftree-ccp -ftree-ch -ftree-coalesce-vars -ftree-copy-prop
  59              	@ -ftree-copyrename -ftree-cselim -ftree-dce -ftree-dominator-opts
  60              	@ -ftree-dse -ftree-forwprop -ftree-fre -ftree-loop-if-convert
  61              	@ -ftree-loop-im -ftree-loop-ivcanon -ftree-loop-optimize
  62              	@ -ftree-parallelize-loops= -ftree-phiprop -ftree-pre -ftree-pta
  63              	@ -ftree-reassoc -ftree-scev-cprop -ftree-sink -ftree-slsr -ftree-sra
  64              	@ -ftree-switch-conversion -ftree-tail-merge -ftree-ter -ftree-vrp
  65              	@ -funit-at-a-time -fvar-tracking -fvar-tracking-assignments -fverbose-asm
  66              	@ -fzero-initialized-in-bss -mfix-cortex-m3-ldrd -mlittle-endian -mlra
  67              	@ -mpic-data-is-text-relative -msched-prolog -mthumb -munaligned-access
  68              	@ -mvectorize-with-neon-quad
  69              	
  70              		.text
  71              	.Ltext0:
  72              		.cfi_sections	.debug_frame
  73              		.align	1
  74              		.global	I2C1_Init
  75              		.thumb
  76              		.thumb_func
  77              		.type	I2C1_Init, %function
  78              	I2C1_Init:
  79              	.LFB34:
  80              		.file 1 "Libraries/Drivers/i2c/i2c1_remap.c"
   1:Libraries/Drivers/i2c/i2c1_remap.c **** /**
   2:Libraries/Drivers/i2c/i2c1_remap.c ****  ******************************************************************************
   3:Libraries/Drivers/i2c/i2c1_remap.c ****  * @file	i2c1_remap.c
   4:Libraries/Drivers/i2c/i2c1_remap.c ****  * @author	Hampus Sandberg
   5:Libraries/Drivers/i2c/i2c1_remap.c ****  * @edited by Amedeo <ingamedeo[at]gmail[dot]com>
   6:Libraries/Drivers/i2c/i2c1_remap.c ****  * @version	0.1
   7:Libraries/Drivers/i2c/i2c1_remap.c ****  * @date	2014-02-18
   8:Libraries/Drivers/i2c/i2c1_remap.c ****  * @brief	Manage I2C1
   9:Libraries/Drivers/i2c/i2c1_remap.c ****  ******************************************************************************
  10:Libraries/Drivers/i2c/i2c1_remap.c ****  */
  11:Libraries/Drivers/i2c/i2c1_remap.c **** 
  12:Libraries/Drivers/i2c/i2c1_remap.c **** /*
  13:Libraries/Drivers/i2c/i2c1_remap.c **** 	Comment by Amedeo
  14:Libraries/Drivers/i2c/i2c1_remap.c **** 
  15:Libraries/Drivers/i2c/i2c1_remap.c **** 	This library was taken from: https://github.com/hampussandberg/STM32-Libraries/tree/master/freerto
  16:Libraries/Drivers/i2c/i2c1_remap.c **** 
  17:Libraries/Drivers/i2c/i2c1_remap.c **** 	It was using GPIO Remapping MODE though which I found useless.
  18:Libraries/Drivers/i2c/i2c1_remap.c **** 	So I changed it to normal mode.
  19:Libraries/Drivers/i2c/i2c1_remap.c **** 
  20:Libraries/Drivers/i2c/i2c1_remap.c **** 	Refer to: http://www.st.com/content/ccc/resource/technical/document/datasheet/33/d4/6f/1d/df/0b/4c
  21:Libraries/Drivers/i2c/i2c1_remap.c **** 	Page 32/117 for PINOUT.
  22:Libraries/Drivers/i2c/i2c1_remap.c **** 
  23:Libraries/Drivers/i2c/i2c1_remap.c **** */
  24:Libraries/Drivers/i2c/i2c1_remap.c **** 
  25:Libraries/Drivers/i2c/i2c1_remap.c **** /* Includes ------------------------------------------------------------------*/
  26:Libraries/Drivers/i2c/i2c1_remap.c **** #include "i2c1_remap.h"
  27:Libraries/Drivers/i2c/i2c1_remap.c **** 
  28:Libraries/Drivers/i2c/i2c1_remap.c **** #include "FreeRTOS.h"
  29:Libraries/Drivers/i2c/i2c1_remap.c **** #include "semphr.h"
  30:Libraries/Drivers/i2c/i2c1_remap.c **** #include "task.h"
  31:Libraries/Drivers/i2c/i2c1_remap.c **** 
  32:Libraries/Drivers/i2c/i2c1_remap.c **** /* Private defines -----------------------------------------------------------*/
  33:Libraries/Drivers/i2c/i2c1_remap.c **** #define I2C_PERIPHERAL		I2C1
  34:Libraries/Drivers/i2c/i2c1_remap.c **** 
ARM GAS  /var/folders/yt/6z6x8bjn5sjf5fbb45bk5m4c0000gn/T//ccYsuN66.s 			page 3


  35:Libraries/Drivers/i2c/i2c1_remap.c **** #define I2C_GPIO			GPIOB
  36:Libraries/Drivers/i2c/i2c1_remap.c **** #define I2C_SCL_PIN			GPIO_Pin_6
  37:Libraries/Drivers/i2c/i2c1_remap.c **** #define I2C_SDA_PIN			GPIO_Pin_7
  38:Libraries/Drivers/i2c/i2c1_remap.c **** 
  39:Libraries/Drivers/i2c/i2c1_remap.c **** #define I2C_CLOCK_SPEED		400000
  40:Libraries/Drivers/i2c/i2c1_remap.c **** 
  41:Libraries/Drivers/i2c/i2c1_remap.c **** #define RTOS_QUICK_FIX_DELAY	(1 / portTICK_PERIOD_MS)
  42:Libraries/Drivers/i2c/i2c1_remap.c **** 
  43:Libraries/Drivers/i2c/i2c1_remap.c **** /* Private variables ---------------------------------------------------------*/
  44:Libraries/Drivers/i2c/i2c1_remap.c **** SemaphoreHandle_t xSemStartCondition = NULL;
  45:Libraries/Drivers/i2c/i2c1_remap.c **** 
  46:Libraries/Drivers/i2c/i2c1_remap.c **** /* Private functions ---------------------------------------------------------*/
  47:Libraries/Drivers/i2c/i2c1_remap.c **** /* Functions -----------------------------------------------------------------*/
  48:Libraries/Drivers/i2c/i2c1_remap.c **** /**
  49:Libraries/Drivers/i2c/i2c1_remap.c ****  * @brief	Initializes the I2C
  50:Libraries/Drivers/i2c/i2c1_remap.c ****  * @param	None
  51:Libraries/Drivers/i2c/i2c1_remap.c ****  * @retval	None
  52:Libraries/Drivers/i2c/i2c1_remap.c ****  */
  53:Libraries/Drivers/i2c/i2c1_remap.c **** void I2C1_Init()
  54:Libraries/Drivers/i2c/i2c1_remap.c **** {
  81              		.loc 1 54 0
  82              		.cfi_startproc
  83              		@ args = 0, pretend = 0, frame = 24
  84              		@ frame_needed = 0, uses_anonymous_args = 0
  85 0000 10B5     		push	{r4, lr}	@
  86              	.LCFI0:
  87              		.cfi_def_cfa_offset 8
  88              		.cfi_offset 4, -8
  89              		.cfi_offset 14, -4
  55:Libraries/Drivers/i2c/i2c1_remap.c **** 	/* Semaphores */
  56:Libraries/Drivers/i2c/i2c1_remap.c **** 	//xSemStartCondition = xSemaphoreCreateBinary();
  57:Libraries/Drivers/i2c/i2c1_remap.c **** 
  58:Libraries/Drivers/i2c/i2c1_remap.c **** 	/* Remap I2C1 */
  59:Libraries/Drivers/i2c/i2c1_remap.c **** 	//RCC_APB2PeriphClockCmd(RCC_APB2Periph_AFIO, ENABLE);
  60:Libraries/Drivers/i2c/i2c1_remap.c **** 	//GPIO_PinRemapConfig(GPIO_Remap_I2C1, ENABLE);
  61:Libraries/Drivers/i2c/i2c1_remap.c **** 
  62:Libraries/Drivers/i2c/i2c1_remap.c **** 	/* I2C clock & GPIOB enable */
  63:Libraries/Drivers/i2c/i2c1_remap.c **** 	RCC_APB1PeriphClockCmd(RCC_APB1Periph_I2C1, ENABLE);
  90              		.loc 1 63 0
  91 0002 4FF40010 		mov	r0, #2097152	@,
  54:Libraries/Drivers/i2c/i2c1_remap.c **** 	/* Semaphores */
  92              		.loc 1 54 0
  93 0006 86B0     		sub	sp, sp, #24	@,,
  94              	.LCFI1:
  95              		.cfi_def_cfa_offset 32
  96              		.loc 1 63 0
  97 0008 0121     		movs	r1, #1	@,
  98 000a FFF7FEFF 		bl	RCC_APB1PeriphClockCmd	@
  99              	.LVL0:
  64:Libraries/Drivers/i2c/i2c1_remap.c **** 	RCC_APB2PeriphClockCmd(RCC_APB2Periph_GPIOB, ENABLE);
 100              		.loc 1 64 0
 101 000e 0820     		movs	r0, #8	@,
 102 0010 0121     		movs	r1, #1	@,
 103 0012 FFF7FEFF 		bl	RCC_APB2PeriphClockCmd	@
 104              	.LVL1:
  65:Libraries/Drivers/i2c/i2c1_remap.c **** 
  66:Libraries/Drivers/i2c/i2c1_remap.c **** 	/* I2C SDA and SCL configuration */
ARM GAS  /var/folders/yt/6z6x8bjn5sjf5fbb45bk5m4c0000gn/T//ccYsuN66.s 			page 4


  67:Libraries/Drivers/i2c/i2c1_remap.c **** 	GPIO_InitTypeDef GPIO_InitStructure;
  68:Libraries/Drivers/i2c/i2c1_remap.c **** 	GPIO_InitStructure.GPIO_Pin = I2C_SCL_PIN | I2C_SDA_PIN;
 105              		.loc 1 68 0
 106 0016 C023     		movs	r3, #192	@ tmp111,
  69:Libraries/Drivers/i2c/i2c1_remap.c **** 	GPIO_InitStructure.GPIO_Speed = GPIO_Speed_50MHz;
  70:Libraries/Drivers/i2c/i2c1_remap.c **** 	GPIO_InitStructure.GPIO_Mode = GPIO_Mode_AF_OD; // Open Drain, I2C bus pulled high externally
  71:Libraries/Drivers/i2c/i2c1_remap.c **** 	GPIO_Init(I2C_GPIO, &GPIO_InitStructure);
  72:Libraries/Drivers/i2c/i2c1_remap.c **** 	
  73:Libraries/Drivers/i2c/i2c1_remap.c ****     I2C_DeInit(I2C1);
 107              		.loc 1 73 0
 108 0018 164C     		ldr	r4, .L2	@ tmp118,
  68:Libraries/Drivers/i2c/i2c1_remap.c **** 	GPIO_InitStructure.GPIO_Speed = GPIO_Speed_50MHz;
 109              		.loc 1 68 0
 110 001a ADF80430 		strh	r3, [sp, #4]	@ movhi	@ tmp111, GPIO_InitStructure.GPIO_Pin
  69:Libraries/Drivers/i2c/i2c1_remap.c **** 	GPIO_InitStructure.GPIO_Speed = GPIO_Speed_50MHz;
 111              		.loc 1 69 0
 112 001e 0323     		movs	r3, #3	@ tmp112,
  71:Libraries/Drivers/i2c/i2c1_remap.c **** 	
 113              		.loc 1 71 0
 114 0020 01A9     		add	r1, sp, #4	@,,
  69:Libraries/Drivers/i2c/i2c1_remap.c **** 	GPIO_InitStructure.GPIO_Speed = GPIO_Speed_50MHz;
 115              		.loc 1 69 0
 116 0022 8DF80630 		strb	r3, [sp, #6]	@ tmp112, GPIO_InitStructure.GPIO_Speed
  71:Libraries/Drivers/i2c/i2c1_remap.c **** 	
 117              		.loc 1 71 0
 118 0026 1448     		ldr	r0, .L2+4	@,
  70:Libraries/Drivers/i2c/i2c1_remap.c **** 	GPIO_Init(I2C_GPIO, &GPIO_InitStructure);
 119              		.loc 1 70 0
 120 0028 1C23     		movs	r3, #28	@ tmp114,
 121 002a 8DF80730 		strb	r3, [sp, #7]	@ tmp114, GPIO_InitStructure.GPIO_Mode
  71:Libraries/Drivers/i2c/i2c1_remap.c **** 	
 122              		.loc 1 71 0
 123 002e FFF7FEFF 		bl	GPIO_Init	@
 124              	.LVL2:
 125              		.loc 1 73 0
 126 0032 2046     		mov	r0, r4	@, tmp118
 127 0034 FFF7FEFF 		bl	I2C_DeInit	@
 128              	.LVL3:
  74:Libraries/Drivers/i2c/i2c1_remap.c **** 	
  75:Libraries/Drivers/i2c/i2c1_remap.c **** 	/* Enable I2C*/
  76:Libraries/Drivers/i2c/i2c1_remap.c ****     I2C_Cmd(I2C1, ENABLE);
 129              		.loc 1 76 0
 130 0038 2046     		mov	r0, r4	@, tmp118
 131 003a 0121     		movs	r1, #1	@,
 132 003c FFF7FEFF 		bl	I2C_Cmd	@
 133              	.LVL4:
  77:Libraries/Drivers/i2c/i2c1_remap.c **** 
  78:Libraries/Drivers/i2c/i2c1_remap.c **** //	/* NVIC Configuration */
  79:Libraries/Drivers/i2c/i2c1_remap.c **** //	NVIC_InitTypeDef NVIC_InitStructure;
  80:Libraries/Drivers/i2c/i2c1_remap.c **** //	/* Event interrupt */
  81:Libraries/Drivers/i2c/i2c1_remap.c **** //	NVIC_InitStructure.NVIC_IRQChannel = I2C1_EV_IRQn;
  82:Libraries/Drivers/i2c/i2c1_remap.c **** //	NVIC_InitStructure.NVIC_IRQChannelPreemptionPriority = configMAX_SYSCALL_INTERRUPT_PRIORITY;
  83:Libraries/Drivers/i2c/i2c1_remap.c **** //	NVIC_InitStructure.NVIC_IRQChannelSubPriority = 0;
  84:Libraries/Drivers/i2c/i2c1_remap.c **** //	NVIC_InitStructure.NVIC_IRQChannelCmd = ENABLE;
  85:Libraries/Drivers/i2c/i2c1_remap.c **** //	NVIC_Init(&NVIC_InitStructure);
  86:Libraries/Drivers/i2c/i2c1_remap.c **** //	/* Error interrupt */
  87:Libraries/Drivers/i2c/i2c1_remap.c **** //	NVIC_InitStructure.NVIC_IRQChannel = I2C1_ER_IRQn;
ARM GAS  /var/folders/yt/6z6x8bjn5sjf5fbb45bk5m4c0000gn/T//ccYsuN66.s 			page 5


  88:Libraries/Drivers/i2c/i2c1_remap.c **** //	NVIC_InitStructure.NVIC_IRQChannelPreemptionPriority = 14;
  89:Libraries/Drivers/i2c/i2c1_remap.c **** //	NVIC_InitStructure.NVIC_IRQChannelSubPriority = 0;
  90:Libraries/Drivers/i2c/i2c1_remap.c **** //	NVIC_InitStructure.NVIC_IRQChannelCmd = ENABLE;
  91:Libraries/Drivers/i2c/i2c1_remap.c **** //	NVIC_Init(&NVIC_InitStructure);
  92:Libraries/Drivers/i2c/i2c1_remap.c **** 
  93:Libraries/Drivers/i2c/i2c1_remap.c **** 	/* I2C Configuration */
  94:Libraries/Drivers/i2c/i2c1_remap.c **** 	I2C_InitTypeDef I2C_InitStructure;
  95:Libraries/Drivers/i2c/i2c1_remap.c **** 	I2C_InitStructure.I2C_ClockSpeed = I2C_CLOCK_SPEED;
 134              		.loc 1 95 0
 135 0040 0E4B     		ldr	r3, .L2+8	@ tmp120,
  96:Libraries/Drivers/i2c/i2c1_remap.c **** 	I2C_InitStructure.I2C_DutyCycle = I2C_DutyCycle_2;
  97:Libraries/Drivers/i2c/i2c1_remap.c **** 	I2C_InitStructure.I2C_Mode = I2C_Mode_I2C;
  98:Libraries/Drivers/i2c/i2c1_remap.c **** 	I2C_InitStructure.I2C_OwnAddress1 = 0x039;
  99:Libraries/Drivers/i2c/i2c1_remap.c **** 	I2C_InitStructure.I2C_AcknowledgedAddress = I2C_AcknowledgedAddress_7bit;
 100:Libraries/Drivers/i2c/i2c1_remap.c **** 	I2C_InitStructure.I2C_Ack = I2C_Ack_Enable;
 101:Libraries/Drivers/i2c/i2c1_remap.c **** 	I2C_Init(I2C_PERIPHERAL, &I2C_InitStructure);
 136              		.loc 1 101 0
 137 0042 2046     		mov	r0, r4	@, tmp118
  95:Libraries/Drivers/i2c/i2c1_remap.c **** 	I2C_InitStructure.I2C_DutyCycle = I2C_DutyCycle_2;
 138              		.loc 1 95 0
 139 0044 0293     		str	r3, [sp, #8]	@ tmp120, I2C_InitStructure.I2C_ClockSpeed
  96:Libraries/Drivers/i2c/i2c1_remap.c **** 	I2C_InitStructure.I2C_DutyCycle = I2C_DutyCycle_2;
 140              		.loc 1 96 0
 141 0046 4BF6FF73 		movw	r3, #49151	@ tmp122,
 142 004a ADF80E30 		strh	r3, [sp, #14]	@ movhi	@ tmp122, I2C_InitStructure.I2C_DutyCycle
  97:Libraries/Drivers/i2c/i2c1_remap.c **** 	I2C_InitStructure.I2C_OwnAddress1 = 0x039;
 143              		.loc 1 97 0
 144 004e 0023     		movs	r3, #0	@ tmp124,
 145 0050 ADF80C30 		strh	r3, [sp, #12]	@ movhi	@ tmp124, I2C_InitStructure.I2C_Mode
  98:Libraries/Drivers/i2c/i2c1_remap.c **** 	I2C_InitStructure.I2C_AcknowledgedAddress = I2C_AcknowledgedAddress_7bit;
 146              		.loc 1 98 0
 147 0054 3923     		movs	r3, #57	@ tmp126,
 148 0056 ADF81030 		strh	r3, [sp, #16]	@ movhi	@ tmp126, I2C_InitStructure.I2C_OwnAddress1
  99:Libraries/Drivers/i2c/i2c1_remap.c **** 	I2C_InitStructure.I2C_Ack = I2C_Ack_Enable;
 149              		.loc 1 99 0
 150 005a 4FF48043 		mov	r3, #16384	@ tmp128,
 151 005e ADF81430 		strh	r3, [sp, #20]	@ movhi	@ tmp128, I2C_InitStructure.I2C_AcknowledgedAddress
 152              		.loc 1 101 0
 153 0062 02A9     		add	r1, sp, #8	@,,
 100:Libraries/Drivers/i2c/i2c1_remap.c **** 	I2C_Init(I2C_PERIPHERAL, &I2C_InitStructure);
 154              		.loc 1 100 0
 155 0064 4FF48063 		mov	r3, #1024	@ tmp130,
 156 0068 ADF81230 		strh	r3, [sp, #18]	@ movhi	@ tmp130, I2C_InitStructure.I2C_Ack
 157              		.loc 1 101 0
 158 006c FFF7FEFF 		bl	I2C_Init	@
 159              	.LVL5:
 102:Libraries/Drivers/i2c/i2c1_remap.c **** 
 103:Libraries/Drivers/i2c/i2c1_remap.c **** 	/* Enable the I2C1 interrupts */
 104:Libraries/Drivers/i2c/i2c1_remap.c **** //	I2C_ITConfig(I2C_PERIPHERAL, I2C_IT_EVT, ENABLE);
 105:Libraries/Drivers/i2c/i2c1_remap.c **** //	I2C_ITConfig(I2C_PERIPHERAL, I2C_IT_ERR, ENABLE);
 106:Libraries/Drivers/i2c/i2c1_remap.c **** }
 160              		.loc 1 106 0
 161 0070 06B0     		add	sp, sp, #24	@,,
 162              	.LCFI2:
 163              		.cfi_def_cfa_offset 8
 164              		@ sp needed	@
 165 0072 10BD     		pop	{r4, pc}	@
ARM GAS  /var/folders/yt/6z6x8bjn5sjf5fbb45bk5m4c0000gn/T//ccYsuN66.s 			page 6


 166              	.L3:
 167              		.align	2
 168              	.L2:
 169 0074 00540040 		.word	1073763328
 170 0078 000C0140 		.word	1073810432
 171 007c 801A0600 		.word	400000
 172              		.cfi_endproc
 173              	.LFE34:
 174              		.size	I2C1_Init, .-I2C1_Init
 175              		.align	1
 176              		.global	I2C1_BeginTransmission
 177              		.thumb
 178              		.thumb_func
 179              		.type	I2C1_BeginTransmission, %function
 180              	I2C1_BeginTransmission:
 181              	.LFB35:
 107:Libraries/Drivers/i2c/i2c1_remap.c **** 
 108:Libraries/Drivers/i2c/i2c1_remap.c **** 
 109:Libraries/Drivers/i2c/i2c1_remap.c **** /**
 110:Libraries/Drivers/i2c/i2c1_remap.c ****  * @brief	Start transmission to a slave
 111:Libraries/Drivers/i2c/i2c1_remap.c ****  * @param	Address: Address to slave which transmission should be started with
 112:Libraries/Drivers/i2c/i2c1_remap.c ****  * @retval	...
 113:Libraries/Drivers/i2c/i2c1_remap.c ****  * 	- SUCCESS:
 114:Libraries/Drivers/i2c/i2c1_remap.c ****  * 	- ERROR:
 115:Libraries/Drivers/i2c/i2c1_remap.c ****  */
 116:Libraries/Drivers/i2c/i2c1_remap.c **** ErrorStatus I2C1_BeginTransmission(uint8_t Address)
 117:Libraries/Drivers/i2c/i2c1_remap.c **** {
 182              		.loc 1 117 0
 183              		.cfi_startproc
 184              		@ args = 0, pretend = 0, frame = 0
 185              		@ frame_needed = 0, uses_anonymous_args = 0
 186              	.LVL6:
 187 0080 70B5     		push	{r4, r5, r6, lr}	@
 188              	.LCFI3:
 189              		.cfi_def_cfa_offset 16
 190              		.cfi_offset 4, -16
 191              		.cfi_offset 5, -12
 192              		.cfi_offset 6, -8
 193              		.cfi_offset 14, -4
 118:Libraries/Drivers/i2c/i2c1_remap.c **** 	/* Send START condition */
 119:Libraries/Drivers/i2c/i2c1_remap.c **** 	I2C_GenerateSTART(I2C_PERIPHERAL, ENABLE);
 194              		.loc 1 119 0
 195 0082 0121     		movs	r1, #1	@,
 117:Libraries/Drivers/i2c/i2c1_remap.c **** 	/* Send START condition */
 196              		.loc 1 117 0
 197 0084 0546     		mov	r5, r0	@ Address, Address
 198              		.loc 1 119 0
 199 0086 1248     		ldr	r0, .L17	@,
 200              	.LVL7:
 201 0088 FFF7FEFF 		bl	I2C_GenerateSTART	@
 202              	.LVL8:
 120:Libraries/Drivers/i2c/i2c1_remap.c **** 
 121:Libraries/Drivers/i2c/i2c1_remap.c **** 	/* TODO: Replace with RTOS stuff */
 122:Libraries/Drivers/i2c/i2c1_remap.c **** 	/* Make sure the START condition has been released on the bus */
 123:Libraries/Drivers/i2c/i2c1_remap.c **** 	int TimeOut;
 124:Libraries/Drivers/i2c/i2c1_remap.c **** 	
 125:Libraries/Drivers/i2c/i2c1_remap.c **** 	TimeOut = I2C_TIMEOUT;
ARM GAS  /var/folders/yt/6z6x8bjn5sjf5fbb45bk5m4c0000gn/T//ccYsuN66.s 			page 7


 126:Libraries/Drivers/i2c/i2c1_remap.c **** 	while (!I2C_CheckEvent(I2C_PERIPHERAL, I2C_EVENT_MASTER_MODE_SELECT)) {
 203              		.loc 1 126 0
 204 008c 114E     		ldr	r6, .L17+4	@ D.6034,
 205              	.LVL9:
 206              	.L5:
 207 008e 1048     		ldr	r0, .L17	@,
 208 0090 1149     		ldr	r1, .L17+8	@,
 209 0092 FFF7FEFF 		bl	I2C_CheckEvent	@
 210              	.LVL10:
 211 0096 0446     		mov	r4, r0	@ D.6033,
 212 0098 10B9     		cbnz	r0, .L15	@ D.6033,
 213              	.LVL11:
 127:Libraries/Drivers/i2c/i2c1_remap.c ****         TimeOut--;
 128:Libraries/Drivers/i2c/i2c1_remap.c ****         if (TimeOut == 0){
 214              		.loc 1 128 0
 215 009a 013E     		subs	r6, r6, #1	@ D.6034, D.6034,
 216              	.LVL12:
 217 009c F7D1     		bne	.L5	@,
 218 009e 15E0     		b	.L6	@
 219              	.L15:
 129:Libraries/Drivers/i2c/i2c1_remap.c ****             //turn_on_error_led_pin();       // Error LED
 130:Libraries/Drivers/i2c/i2c1_remap.c ****             return ERROR;
 131:Libraries/Drivers/i2c/i2c1_remap.c ****         }
 132:Libraries/Drivers/i2c/i2c1_remap.c **** 	}
 133:Libraries/Drivers/i2c/i2c1_remap.c **** 
 134:Libraries/Drivers/i2c/i2c1_remap.c **** //	/* Try to take the semaphore */
 135:Libraries/Drivers/i2c/i2c1_remap.c **** //	if (!xSemaphoreTake(xSemStartCondition, portMAX_DELAY))
 136:Libraries/Drivers/i2c/i2c1_remap.c **** //	{
 137:Libraries/Drivers/i2c/i2c1_remap.c **** //		while (1);
 138:Libraries/Drivers/i2c/i2c1_remap.c **** //	}
 139:Libraries/Drivers/i2c/i2c1_remap.c **** 
 140:Libraries/Drivers/i2c/i2c1_remap.c **** 	/* Send the address for write */
 141:Libraries/Drivers/i2c/i2c1_remap.c **** 	I2C_Send7bitAddress(I2C_PERIPHERAL, Address << 1, I2C_Direction_Transmitter);
 220              		.loc 1 141 0
 221 00a0 6900     		lsls	r1, r5, #1	@ tmp121, Address,
 222 00a2 0B48     		ldr	r0, .L17	@,
 223 00a4 01F0FE01 		and	r1, r1, #254	@, tmp121,
 224 00a8 0022     		movs	r2, #0	@,
 225 00aa FFF7FEFF 		bl	I2C_Send7bitAddress	@
 226              	.LVL13:
 142:Libraries/Drivers/i2c/i2c1_remap.c **** 
 143:Libraries/Drivers/i2c/i2c1_remap.c **** 	/* TODO: Replace with RTOS stuff */
 144:Libraries/Drivers/i2c/i2c1_remap.c **** 	/* Make sure a slave has acknowledge the address */
 145:Libraries/Drivers/i2c/i2c1_remap.c **** 	TimeOut = I2C_TIMEOUT;
 146:Libraries/Drivers/i2c/i2c1_remap.c **** 	while (!I2C_CheckEvent(I2C_PERIPHERAL, I2C_EVENT_MASTER_TRANSMITTER_MODE_SELECTED)) {
 227              		.loc 1 146 0
 228 00ae 094D     		ldr	r5, .L17+4	@ D.6034,
 229              	.LVL14:
 230              	.L8:
 231 00b0 0748     		ldr	r0, .L17	@,
 232 00b2 0A49     		ldr	r1, .L17+12	@,
 233 00b4 FFF7FEFF 		bl	I2C_CheckEvent	@
 234              	.LVL15:
 235 00b8 0446     		mov	r4, r0	@ D.6033,
 236 00ba 30B9     		cbnz	r0, .L16	@ D.6033,
 237              	.LVL16:
 147:Libraries/Drivers/i2c/i2c1_remap.c ****         TimeOut--;
ARM GAS  /var/folders/yt/6z6x8bjn5sjf5fbb45bk5m4c0000gn/T//ccYsuN66.s 			page 8


 148:Libraries/Drivers/i2c/i2c1_remap.c ****         if (TimeOut == 0){
 238              		.loc 1 148 0
 239 00bc 013D     		subs	r5, r5, #1	@ D.6034, D.6034,
 240              	.LVL17:
 241 00be F7D1     		bne	.L8	@,
 242              	.LVL18:
 243              	.LBB4:
 244              	.LBB5:
 149:Libraries/Drivers/i2c/i2c1_remap.c ****             // Send I2C1 STOP Condition
 150:Libraries/Drivers/i2c/i2c1_remap.c ****             I2C_GenerateSTOP(I2C_PERIPHERAL, ENABLE);
 245              		.loc 1 150 0
 246 00c0 0348     		ldr	r0, .L17	@,
 247 00c2 0121     		movs	r1, #1	@,
 248 00c4 FFF7FEFF 		bl	I2C_GenerateSTOP	@
 249              	.LVL19:
 250 00c8 00E0     		b	.L6	@
 251              	.L16:
 252              	.LBE5:
 253              	.LBE4:
 151:Libraries/Drivers/i2c/i2c1_remap.c ****             //turn_on_error_led_pin();        // Error LED
 152:Libraries/Drivers/i2c/i2c1_remap.c **** 
 153:Libraries/Drivers/i2c/i2c1_remap.c ****             return ERROR;
 154:Libraries/Drivers/i2c/i2c1_remap.c ****         }
 155:Libraries/Drivers/i2c/i2c1_remap.c **** 	}
 156:Libraries/Drivers/i2c/i2c1_remap.c **** 	return SUCCESS;
 254              		.loc 1 156 0
 255 00ca 0124     		movs	r4, #1	@ D.6033,
 256              	.LVL20:
 257              	.L6:
 157:Libraries/Drivers/i2c/i2c1_remap.c **** }
 258              		.loc 1 157 0
 259 00cc 2046     		mov	r0, r4	@, D.6033
 260 00ce 70BD     		pop	{r4, r5, r6, pc}	@
 261              	.L18:
 262              		.align	2
 263              	.L17:
 264 00d0 00540040 		.word	1073763328
 265 00d4 A0860100 		.word	100000
 266 00d8 01000300 		.word	196609
 267 00dc 82000700 		.word	458882
 268              		.cfi_endproc
 269              	.LFE35:
 270              		.size	I2C1_BeginTransmission, .-I2C1_BeginTransmission
 271              		.align	1
 272              		.global	I2C1_EndTransmission
 273              		.thumb
 274              		.thumb_func
 275              		.type	I2C1_EndTransmission, %function
 276              	I2C1_EndTransmission:
 277              	.LFB36:
 158:Libraries/Drivers/i2c/i2c1_remap.c **** 
 159:Libraries/Drivers/i2c/i2c1_remap.c **** /**
 160:Libraries/Drivers/i2c/i2c1_remap.c ****  * @brief	End transmission on the bus
 161:Libraries/Drivers/i2c/i2c1_remap.c ****  * @param	None
 162:Libraries/Drivers/i2c/i2c1_remap.c ****  * @retval	None
 163:Libraries/Drivers/i2c/i2c1_remap.c ****  */
 164:Libraries/Drivers/i2c/i2c1_remap.c **** void I2C1_EndTransmission()
ARM GAS  /var/folders/yt/6z6x8bjn5sjf5fbb45bk5m4c0000gn/T//ccYsuN66.s 			page 9


 165:Libraries/Drivers/i2c/i2c1_remap.c **** {
 278              		.loc 1 165 0
 279              		.cfi_startproc
 280              		@ args = 0, pretend = 0, frame = 0
 281              		@ frame_needed = 0, uses_anonymous_args = 0
 282              		@ link register save eliminated.
 166:Libraries/Drivers/i2c/i2c1_remap.c **** 	I2C_GenerateSTOP(I2C_PERIPHERAL, ENABLE);
 283              		.loc 1 166 0
 284 00e0 0148     		ldr	r0, .L20	@,
 285 00e2 0121     		movs	r1, #1	@,
 286 00e4 FFF7FEBF 		b	I2C_GenerateSTOP	@
 287              	.LVL21:
 288              	.L21:
 289              		.align	2
 290              	.L20:
 291 00e8 00540040 		.word	1073763328
 292              		.cfi_endproc
 293              	.LFE36:
 294              		.size	I2C1_EndTransmission, .-I2C1_EndTransmission
 295              		.align	1
 296              		.global	I2C1_Write
 297              		.thumb
 298              		.thumb_func
 299              		.type	I2C1_Write, %function
 300              	I2C1_Write:
 301              	.LFB37:
 167:Libraries/Drivers/i2c/i2c1_remap.c **** }
 168:Libraries/Drivers/i2c/i2c1_remap.c **** 
 169:Libraries/Drivers/i2c/i2c1_remap.c **** /**
 170:Libraries/Drivers/i2c/i2c1_remap.c ****  * @brief	Write real data to the bus
 171:Libraries/Drivers/i2c/i2c1_remap.c ****  * @param	Data: The data to write
 172:Libraries/Drivers/i2c/i2c1_remap.c ****  * @retval	...
 173:Libraries/Drivers/i2c/i2c1_remap.c ****  * 	- SUCCESS:
 174:Libraries/Drivers/i2c/i2c1_remap.c ****  * 	- ERROR:
 175:Libraries/Drivers/i2c/i2c1_remap.c ****  */
 176:Libraries/Drivers/i2c/i2c1_remap.c **** ErrorStatus I2C1_Write(uint8_t Data)
 177:Libraries/Drivers/i2c/i2c1_remap.c **** {
 302              		.loc 1 177 0
 303              		.cfi_startproc
 304              		@ args = 0, pretend = 0, frame = 0
 305              		@ frame_needed = 0, uses_anonymous_args = 0
 306              	.LVL22:
 307 00ec 38B5     		push	{r3, r4, r5, lr}	@
 308              	.LCFI4:
 309              		.cfi_def_cfa_offset 16
 310              		.cfi_offset 3, -16
 311              		.cfi_offset 4, -12
 312              		.cfi_offset 5, -8
 313              		.cfi_offset 14, -4
 314              		.loc 1 177 0
 315 00ee 0146     		mov	r1, r0	@ Data, Data
 178:Libraries/Drivers/i2c/i2c1_remap.c **** 	/* Send the byte to be written */
 179:Libraries/Drivers/i2c/i2c1_remap.c **** 	I2C_SendData(I2C_PERIPHERAL, Data);
 316              		.loc 1 179 0
 317 00f0 0948     		ldr	r0, .L28	@,
 318              	.LVL23:
 319 00f2 FFF7FEFF 		bl	I2C_SendData	@
ARM GAS  /var/folders/yt/6z6x8bjn5sjf5fbb45bk5m4c0000gn/T//ccYsuN66.s 			page 10


 320              	.LVL24:
 180:Libraries/Drivers/i2c/i2c1_remap.c **** 
 181:Libraries/Drivers/i2c/i2c1_remap.c **** 	/* TODO: Replace with RTOS stuff,
 182:Libraries/Drivers/i2c/i2c1_remap.c **** 	 * see http://www.freertos.org/FreeRTOS_Support_Forum_Archive/September_2013/freertos_Best_way_to_
 183:Libraries/Drivers/i2c/i2c1_remap.c **** 	/* Make sure data has been transmitted */
 184:Libraries/Drivers/i2c/i2c1_remap.c **** 	int TimeOut = I2C_TIMEOUT;
 185:Libraries/Drivers/i2c/i2c1_remap.c **** 	while (!I2C_CheckEvent(I2C_PERIPHERAL, I2C_EVENT_MASTER_BYTE_TRANSMITTED)) {
 321              		.loc 1 185 0
 322 00f6 094D     		ldr	r5, .L28+4	@ D.6045,
 323              	.LVL25:
 324              	.L23:
 325 00f8 0748     		ldr	r0, .L28	@,
 326 00fa 0949     		ldr	r1, .L28+8	@,
 327 00fc FFF7FEFF 		bl	I2C_CheckEvent	@
 328              	.LVL26:
 329 0100 0446     		mov	r4, r0	@ D.6044,
 330 0102 30B9     		cbnz	r0, .L27	@ D.6044,
 331              	.LVL27:
 186:Libraries/Drivers/i2c/i2c1_remap.c ****         TimeOut--;
 187:Libraries/Drivers/i2c/i2c1_remap.c ****         if (TimeOut == 0){
 332              		.loc 1 187 0
 333 0104 013D     		subs	r5, r5, #1	@ D.6045, D.6045,
 334              	.LVL28:
 335 0106 F7D1     		bne	.L23	@,
 188:Libraries/Drivers/i2c/i2c1_remap.c ****             // Send I2C1 STOP Condition
 189:Libraries/Drivers/i2c/i2c1_remap.c ****             I2C_GenerateSTOP(I2C_PERIPHERAL, ENABLE);
 336              		.loc 1 189 0
 337 0108 0348     		ldr	r0, .L28	@,
 338 010a 0121     		movs	r1, #1	@,
 339 010c FFF7FEFF 		bl	I2C_GenerateSTOP	@
 340              	.LVL29:
 190:Libraries/Drivers/i2c/i2c1_remap.c ****             //turn_on_error_led_pin();        // Error LED
 191:Libraries/Drivers/i2c/i2c1_remap.c **** 
 192:Libraries/Drivers/i2c/i2c1_remap.c ****             return ERROR;
 341              		.loc 1 192 0
 342 0110 00E0     		b	.L24	@
 343              	.L27:
 193:Libraries/Drivers/i2c/i2c1_remap.c ****         }
 194:Libraries/Drivers/i2c/i2c1_remap.c **** 	}
 195:Libraries/Drivers/i2c/i2c1_remap.c **** 
 196:Libraries/Drivers/i2c/i2c1_remap.c **** 	return SUCCESS;
 344              		.loc 1 196 0
 345 0112 0124     		movs	r4, #1	@ D.6044,
 346              	.L24:
 197:Libraries/Drivers/i2c/i2c1_remap.c **** }
 347              		.loc 1 197 0
 348 0114 2046     		mov	r0, r4	@, D.6044
 349 0116 38BD     		pop	{r3, r4, r5, pc}	@
 350              	.LVL30:
 351              	.L29:
 352              		.align	2
 353              	.L28:
 354 0118 00540040 		.word	1073763328
 355 011c A0860100 		.word	100000
 356 0120 84000700 		.word	458884
 357              		.cfi_endproc
 358              	.LFE37:
ARM GAS  /var/folders/yt/6z6x8bjn5sjf5fbb45bk5m4c0000gn/T//ccYsuN66.s 			page 11


 359              		.size	I2C1_Write, .-I2C1_Write
 360              		.align	1
 361              		.global	I2C1_RequestFrom
 362              		.thumb
 363              		.thumb_func
 364              		.type	I2C1_RequestFrom, %function
 365              	I2C1_RequestFrom:
 366              	.LFB38:
 198:Libraries/Drivers/i2c/i2c1_remap.c **** 
 199:Libraries/Drivers/i2c/i2c1_remap.c **** /**
 200:Libraries/Drivers/i2c/i2c1_remap.c ****  * @brief	Requests a given amount of data from a slave
 201:Libraries/Drivers/i2c/i2c1_remap.c ****  * @param	Address: The address to the slave to request from
 202:Libraries/Drivers/i2c/i2c1_remap.c ****  * @param	Storage: Pointer to where the data should be stored
 203:Libraries/Drivers/i2c/i2c1_remap.c ****  * @param	ByteCount: The amount of bytes to receive
 204:Libraries/Drivers/i2c/i2c1_remap.c ****  * @retval	...
 205:Libraries/Drivers/i2c/i2c1_remap.c ****  * 	- SUCCESS:
 206:Libraries/Drivers/i2c/i2c1_remap.c ****  * 	- ERROR:
 207:Libraries/Drivers/i2c/i2c1_remap.c ****  */
 208:Libraries/Drivers/i2c/i2c1_remap.c **** ErrorStatus I2C1_RequestFrom(uint8_t Address, uint8_t* Storage, uint16_t NumByteToRead)
 209:Libraries/Drivers/i2c/i2c1_remap.c **** {
 367              		.loc 1 209 0
 368              		.cfi_startproc
 369              		@ args = 0, pretend = 0, frame = 0
 370              		@ frame_needed = 0, uses_anonymous_args = 0
 371              	.LVL31:
 372 0124 F8B5     		push	{r3, r4, r5, r6, r7, lr}	@
 373              	.LCFI5:
 374              		.cfi_def_cfa_offset 24
 375              		.cfi_offset 3, -24
 376              		.cfi_offset 4, -20
 377              		.cfi_offset 5, -16
 378              		.cfi_offset 6, -12
 379              		.cfi_offset 7, -8
 380              		.cfi_offset 14, -4
 381              		.loc 1 209 0
 382 0126 0546     		mov	r5, r0	@ Address, Address
 383 0128 0F46     		mov	r7, r1	@ Storage, Storage
 384 012a 1446     		mov	r4, r2	@ NumByteToRead, NumByteToRead
 210:Libraries/Drivers/i2c/i2c1_remap.c **** 	/* TODO: Replace with RTOS stuff */
 211:Libraries/Drivers/i2c/i2c1_remap.c **** 	/* While the bus is busy */
 212:Libraries/Drivers/i2c/i2c1_remap.c **** 	
 213:Libraries/Drivers/i2c/i2c1_remap.c **** 	/*
 214:Libraries/Drivers/i2c/i2c1_remap.c **** 	I2C is a transaction-based bus.
 215:Libraries/Drivers/i2c/i2c1_remap.c **** 	Each transaction ahs a start and stop condition and an arbitrary number of byte transfers in-betwe
 216:Libraries/Drivers/i2c/i2c1_remap.c **** 	If you're the only I2C master ont eh bus, the oly one who can start a transaction is you.
 217:Libraries/Drivers/i2c/i2c1_remap.c **** 	The busy bit only indicates whether a transaction start has been detected and no transaction end h
 218:Libraries/Drivers/i2c/i2c1_remap.c **** 	But if you're the only one who can start a transaction, who cares?
 219:Libraries/Drivers/i2c/i2c1_remap.c **** 	*/
 220:Libraries/Drivers/i2c/i2c1_remap.c **** 	
 221:Libraries/Drivers/i2c/i2c1_remap.c **** 	int TimeOut;
 222:Libraries/Drivers/i2c/i2c1_remap.c **** 	
 223:Libraries/Drivers/i2c/i2c1_remap.c **** 	TimeOut = I2C_TIMEOUT;
 224:Libraries/Drivers/i2c/i2c1_remap.c **** 	while (I2C_GetFlagStatus(I2C_PERIPHERAL, I2C_FLAG_BUSY)) {
 385              		.loc 1 224 0
 386 012c 224E     		ldr	r6, .L54	@ D.6070,
 387              	.LVL32:
 388              	.L31:
ARM GAS  /var/folders/yt/6z6x8bjn5sjf5fbb45bk5m4c0000gn/T//ccYsuN66.s 			page 12


 389 012e 2348     		ldr	r0, .L54+4	@,
 390 0130 4FF40031 		mov	r1, #131072	@,
 391 0134 FFF7FEFF 		bl	I2C_GetFlagStatus	@
 392              	.LVL33:
 393 0138 18B1     		cbz	r0, .L51	@,
 394              	.LVL34:
 225:Libraries/Drivers/i2c/i2c1_remap.c ****         TimeOut--;
 226:Libraries/Drivers/i2c/i2c1_remap.c ****         if (TimeOut == 0){
 395              		.loc 1 226 0
 396 013a 013E     		subs	r6, r6, #1	@ D.6070, D.6070,
 397              	.LVL35:
 398 013c F7D1     		bne	.L31	@,
 399              	.L35:
 227:Libraries/Drivers/i2c/i2c1_remap.c ****             //turn_on_error_led_pin();       // Error LED
 228:Libraries/Drivers/i2c/i2c1_remap.c ****             return ERROR;
 400              		.loc 1 228 0
 401 013e 0025     		movs	r5, #0	@ D.6071,
 402 0140 37E0     		b	.L32	@
 403              	.L51:
 229:Libraries/Drivers/i2c/i2c1_remap.c ****         }
 230:Libraries/Drivers/i2c/i2c1_remap.c **** 	}
 231:Libraries/Drivers/i2c/i2c1_remap.c **** 
 232:Libraries/Drivers/i2c/i2c1_remap.c **** 	/* Send START condition */
 233:Libraries/Drivers/i2c/i2c1_remap.c **** 	I2C_GenerateSTART(I2C_PERIPHERAL, ENABLE);
 404              		.loc 1 233 0
 405 0142 1E48     		ldr	r0, .L54+4	@,
 406 0144 0121     		movs	r1, #1	@,
 407 0146 FFF7FEFF 		bl	I2C_GenerateSTART	@
 408              	.LVL36:
 234:Libraries/Drivers/i2c/i2c1_remap.c **** 
 235:Libraries/Drivers/i2c/i2c1_remap.c **** 	/* TODO: Replace with RTOS stuff */
 236:Libraries/Drivers/i2c/i2c1_remap.c **** 	/* Make sure the START condition has been released on the bus */
 237:Libraries/Drivers/i2c/i2c1_remap.c **** 	
 238:Libraries/Drivers/i2c/i2c1_remap.c **** 	
 239:Libraries/Drivers/i2c/i2c1_remap.c **** 	TimeOut = I2C_TIMEOUT;
 240:Libraries/Drivers/i2c/i2c1_remap.c **** 	while (!I2C_CheckEvent(I2C_PERIPHERAL, I2C_EVENT_MASTER_MODE_SELECT)) {
 409              		.loc 1 240 0
 410 014a 1B4E     		ldr	r6, .L54	@ D.6070,
 411              	.LVL37:
 412              	.L34:
 413 014c 1B48     		ldr	r0, .L54+4	@,
 414 014e 1C49     		ldr	r1, .L54+8	@,
 415 0150 FFF7FEFF 		bl	I2C_CheckEvent	@
 416              	.LVL38:
 417 0154 10B9     		cbnz	r0, .L52	@,
 418              	.LVL39:
 241:Libraries/Drivers/i2c/i2c1_remap.c ****         TimeOut--;
 242:Libraries/Drivers/i2c/i2c1_remap.c ****         if (TimeOut == 0){
 419              		.loc 1 242 0
 420 0156 013E     		subs	r6, r6, #1	@ D.6070, D.6070,
 421              	.LVL40:
 422 0158 F8D1     		bne	.L34	@,
 423 015a F0E7     		b	.L35	@
 424              	.L52:
 243:Libraries/Drivers/i2c/i2c1_remap.c ****             //turn_on_error_led_pin();       // Error LED
 244:Libraries/Drivers/i2c/i2c1_remap.c ****             return ERROR;
 245:Libraries/Drivers/i2c/i2c1_remap.c ****         }
ARM GAS  /var/folders/yt/6z6x8bjn5sjf5fbb45bk5m4c0000gn/T//ccYsuN66.s 			page 13


 246:Libraries/Drivers/i2c/i2c1_remap.c **** 	}
 247:Libraries/Drivers/i2c/i2c1_remap.c **** 
 248:Libraries/Drivers/i2c/i2c1_remap.c **** //	/* Try to take the semaphore */
 249:Libraries/Drivers/i2c/i2c1_remap.c **** //	if (!xSemaphoreTake(xSemStartCondition, portMAX_DELAY))
 250:Libraries/Drivers/i2c/i2c1_remap.c **** //	{
 251:Libraries/Drivers/i2c/i2c1_remap.c **** //		while (1);
 252:Libraries/Drivers/i2c/i2c1_remap.c **** //	}
 253:Libraries/Drivers/i2c/i2c1_remap.c **** 
 254:Libraries/Drivers/i2c/i2c1_remap.c **** 	/* Send the address for read */
 255:Libraries/Drivers/i2c/i2c1_remap.c **** 	I2C_Send7bitAddress(I2C_PERIPHERAL, Address << 1, I2C_Direction_Receiver);
 425              		.loc 1 255 0
 426 015c 6900     		lsls	r1, r5, #1	@ tmp236, Address,
 427 015e 1748     		ldr	r0, .L54+4	@,
 428 0160 01F0FE01 		and	r1, r1, #254	@, tmp236,
 429 0164 0122     		movs	r2, #1	@,
 430 0166 FFF7FEFF 		bl	I2C_Send7bitAddress	@
 431              	.LVL41:
 256:Libraries/Drivers/i2c/i2c1_remap.c **** 
 257:Libraries/Drivers/i2c/i2c1_remap.c **** 	/* TODO: Replace with RTOS stuff */
 258:Libraries/Drivers/i2c/i2c1_remap.c **** 	/* Make sure a slave has acknowledge the address */
 259:Libraries/Drivers/i2c/i2c1_remap.c **** 	TimeOut = I2C_TIMEOUT;
 260:Libraries/Drivers/i2c/i2c1_remap.c **** 	while (!I2C_CheckEvent(I2C_PERIPHERAL, I2C_EVENT_MASTER_RECEIVER_MODE_SELECTED)) {
 432              		.loc 1 260 0
 433 016a 134E     		ldr	r6, .L54	@ D.6070,
 434              	.LVL42:
 435              	.L37:
 436 016c 1348     		ldr	r0, .L54+4	@,
 437 016e 1549     		ldr	r1, .L54+12	@,
 438 0170 FFF7FEFF 		bl	I2C_CheckEvent	@
 439              	.LVL43:
 440 0174 0546     		mov	r5, r0	@ D.6071,
 441 0176 58B9     		cbnz	r0, .L40	@ D.6071,
 442              	.LVL44:
 261:Libraries/Drivers/i2c/i2c1_remap.c ****         TimeOut--;
 262:Libraries/Drivers/i2c/i2c1_remap.c ****         if (TimeOut == 0){
 443              		.loc 1 262 0
 444 0178 013E     		subs	r6, r6, #1	@ D.6070, D.6070,
 445              	.LVL45:
 446 017a F7D1     		bne	.L37	@,
 263:Libraries/Drivers/i2c/i2c1_remap.c ****             // Send I2C1 STOP Condition
 264:Libraries/Drivers/i2c/i2c1_remap.c ****             I2C_GenerateSTOP(I2C_PERIPHERAL, ENABLE);
 447              		.loc 1 264 0
 448 017c 0F48     		ldr	r0, .L54+4	@,
 449 017e 0121     		movs	r1, #1	@,
 450 0180 FFF7FEFF 		bl	I2C_GenerateSTOP	@
 451              	.LVL46:
 265:Libraries/Drivers/i2c/i2c1_remap.c ****             //turn_on_error_led_pin();        // Error LED
 266:Libraries/Drivers/i2c/i2c1_remap.c **** 
 267:Libraries/Drivers/i2c/i2c1_remap.c ****             return ERROR;
 452              		.loc 1 267 0
 453 0184 15E0     		b	.L32	@
 454              	.LVL47:
 455              	.L42:
 268:Libraries/Drivers/i2c/i2c1_remap.c ****         }
 269:Libraries/Drivers/i2c/i2c1_remap.c **** 	}
 270:Libraries/Drivers/i2c/i2c1_remap.c **** 	
 271:Libraries/Drivers/i2c/i2c1_remap.c **** 	/* While there is data to be read */
ARM GAS  /var/folders/yt/6z6x8bjn5sjf5fbb45bk5m4c0000gn/T//ccYsuN66.s 			page 14


 272:Libraries/Drivers/i2c/i2c1_remap.c **** 	while (NumByteToRead)
 273:Libraries/Drivers/i2c/i2c1_remap.c **** 	{
 274:Libraries/Drivers/i2c/i2c1_remap.c **** 		/* Check if data has been received */
 275:Libraries/Drivers/i2c/i2c1_remap.c **** 		if (I2C_CheckEvent(I2C_PERIPHERAL, I2C_EVENT_MASTER_BYTE_RECEIVED))
 456              		.loc 1 275 0
 457 0186 0D48     		ldr	r0, .L54+4	@,
 458 0188 0F49     		ldr	r1, .L54+16	@,
 459 018a FFF7FEFF 		bl	I2C_CheckEvent	@
 460              	.LVL48:
 461 018e 10B9     		cbnz	r0, .L53	@,
 462              	.LVL49:
 463              	.L40:
 272:Libraries/Drivers/i2c/i2c1_remap.c **** 	{
 464              		.loc 1 272 0
 465 0190 002C     		cmp	r4, #0	@ NumByteToRead
 466 0192 F8D1     		bne	.L42	@
 467 0194 0CE0     		b	.L50	@
 468              	.L53:
 276:Libraries/Drivers/i2c/i2c1_remap.c **** 		{
 277:Libraries/Drivers/i2c/i2c1_remap.c **** 			/* Read a byte from the slave */
 278:Libraries/Drivers/i2c/i2c1_remap.c **** 			*Storage = I2C_ReceiveData(I2C_PERIPHERAL);
 469              		.loc 1 278 0
 470 0196 0948     		ldr	r0, .L54+4	@,
 471 0198 FFF7FEFF 		bl	I2C_ReceiveData	@
 472              	.LVL50:
 279:Libraries/Drivers/i2c/i2c1_remap.c **** 
 280:Libraries/Drivers/i2c/i2c1_remap.c **** 			/* Point to the next location where the next byte read will be saved */
 281:Libraries/Drivers/i2c/i2c1_remap.c **** 			Storage++;
 282:Libraries/Drivers/i2c/i2c1_remap.c **** 
 283:Libraries/Drivers/i2c/i2c1_remap.c **** 			/* Decrement the read bytes counter */
 284:Libraries/Drivers/i2c/i2c1_remap.c **** 			NumByteToRead--;
 473              		.loc 1 284 0
 474 019c 013C     		subs	r4, r4, #1	@ tmp248, NumByteToRead,
 475              	.LVL51:
 476 019e A4B2     		uxth	r4, r4	@ NumByteToRead, tmp248
 278:Libraries/Drivers/i2c/i2c1_remap.c **** 
 477              		.loc 1 278 0
 478 01a0 07F8010B 		strb	r0, [r7], #1	@, MEM[base: Storage_44, offset: 0B]
 479              	.LVL52:
 285:Libraries/Drivers/i2c/i2c1_remap.c **** 			if (NumByteToRead == 0)
 480              		.loc 1 285 0
 481 01a4 002C     		cmp	r4, #0	@ NumByteToRead
 482 01a6 F3D1     		bne	.L40	@
 286:Libraries/Drivers/i2c/i2c1_remap.c **** 			{
 287:Libraries/Drivers/i2c/i2c1_remap.c **** 				/* Send STOP Condition */
 288:Libraries/Drivers/i2c/i2c1_remap.c **** 				I2C_GenerateSTOP(I2C_PERIPHERAL, ENABLE);
 483              		.loc 1 288 0
 484 01a8 0448     		ldr	r0, .L54+4	@,
 485 01aa 0121     		movs	r1, #1	@,
 486 01ac FFF7FEFF 		bl	I2C_GenerateSTOP	@
 487              	.LVL53:
 488              	.L50:
 289:Libraries/Drivers/i2c/i2c1_remap.c **** 			}
 290:Libraries/Drivers/i2c/i2c1_remap.c **** 		}
 291:Libraries/Drivers/i2c/i2c1_remap.c **** 	}
 292:Libraries/Drivers/i2c/i2c1_remap.c **** 
 293:Libraries/Drivers/i2c/i2c1_remap.c **** 	return SUCCESS;
ARM GAS  /var/folders/yt/6z6x8bjn5sjf5fbb45bk5m4c0000gn/T//ccYsuN66.s 			page 15


 489              		.loc 1 293 0
 490 01b0 0125     		movs	r5, #1	@ D.6071,
 491              	.LVL54:
 492              	.L32:
 294:Libraries/Drivers/i2c/i2c1_remap.c **** }
 493              		.loc 1 294 0
 494 01b2 2846     		mov	r0, r5	@, D.6071
 495 01b4 F8BD     		pop	{r3, r4, r5, r6, r7, pc}	@
 496              	.LVL55:
 497              	.L55:
 498 01b6 00BF     		.align	2
 499              	.L54:
 500 01b8 A0860100 		.word	100000
 501 01bc 00540040 		.word	1073763328
 502 01c0 01000300 		.word	196609
 503 01c4 02000300 		.word	196610
 504 01c8 40000300 		.word	196672
 505              		.cfi_endproc
 506              	.LFE38:
 507              		.size	I2C1_RequestFrom, .-I2C1_RequestFrom
 508              		.align	1
 509              		.global	I2C1_SlaveAtAddress
 510              		.thumb
 511              		.thumb_func
 512              		.type	I2C1_SlaveAtAddress, %function
 513              	I2C1_SlaveAtAddress:
 514              	.LFB39:
 295:Libraries/Drivers/i2c/i2c1_remap.c **** 
 296:Libraries/Drivers/i2c/i2c1_remap.c **** /**
 297:Libraries/Drivers/i2c/i2c1_remap.c ****  * @brief	Checks to see if there is a slave at a given address. This is done by beginning a transmi
 298:Libraries/Drivers/i2c/i2c1_remap.c ****  *			and see if a slave is responding with an ACK or not
 299:Libraries/Drivers/i2c/i2c1_remap.c ****  * @param	Address: The address to look for a slave at
 300:Libraries/Drivers/i2c/i2c1_remap.c ****  * @retval	1: There is a slave at the address [Address]
 301:Libraries/Drivers/i2c/i2c1_remap.c ****  * @retval	0: There is no slave there
 302:Libraries/Drivers/i2c/i2c1_remap.c ****  */
 303:Libraries/Drivers/i2c/i2c1_remap.c **** uint8_t I2C1_SlaveAtAddress(const uint8_t Address) {
 515              		.loc 1 303 0
 516              		.cfi_startproc
 517              		@ args = 0, pretend = 0, frame = 0
 518              		@ frame_needed = 0, uses_anonymous_args = 0
 519              	.LVL56:
 520 01cc 10B5     		push	{r4, lr}	@
 521              	.LCFI6:
 522              		.cfi_def_cfa_offset 8
 523              		.cfi_offset 4, -8
 524              		.cfi_offset 14, -4
 304:Libraries/Drivers/i2c/i2c1_remap.c **** 	if (I2C1_BeginTransmission(Address)==SUCCESS) {
 525              		.loc 1 304 0
 526 01ce FFF7FEFF 		bl	I2C1_BeginTransmission	@
 527              	.LVL57:
 528 01d2 0128     		cmp	r0, #1	@ tmp114,
 529 01d4 0446     		mov	r4, r0	@ tmp114,
 530 01d6 03D1     		bne	.L57	@,
 305:Libraries/Drivers/i2c/i2c1_remap.c **** 		I2C1_EndTransmission();
 531              		.loc 1 305 0
 532 01d8 FFF7FEFF 		bl	I2C1_EndTransmission	@
 533              	.LVL58:
ARM GAS  /var/folders/yt/6z6x8bjn5sjf5fbb45bk5m4c0000gn/T//ccYsuN66.s 			page 16


 306:Libraries/Drivers/i2c/i2c1_remap.c **** 		return 1;
 534              		.loc 1 306 0
 535 01dc 2046     		mov	r0, r4	@ D.6077, tmp114
 536 01de 10BD     		pop	{r4, pc}	@
 537              	.L57:
 307:Libraries/Drivers/i2c/i2c1_remap.c **** 	} else {
 308:Libraries/Drivers/i2c/i2c1_remap.c **** 		I2C1_EndTransmission();
 538              		.loc 1 308 0
 539 01e0 FFF7FEFF 		bl	I2C1_EndTransmission	@
 540              	.LVL59:
 309:Libraries/Drivers/i2c/i2c1_remap.c **** 		return 0;
 541              		.loc 1 309 0
 542 01e4 0020     		movs	r0, #0	@ D.6077,
 310:Libraries/Drivers/i2c/i2c1_remap.c **** 	}
 311:Libraries/Drivers/i2c/i2c1_remap.c **** }
 543              		.loc 1 311 0
 544 01e6 10BD     		pop	{r4, pc}	@
 545              		.cfi_endproc
 546              	.LFE39:
 547              		.size	I2C1_SlaveAtAddress, .-I2C1_SlaveAtAddress
 548              		.global	xSemStartCondition
 549              		.bss
 550              		.align	2
 551              		.type	xSemStartCondition, %object
 552              		.size	xSemStartCondition, 4
 553              	xSemStartCondition:
 554 0000 00000000 		.space	4
 555              		.text
 556              	.Letext0:
 557              		.file 2 "/usr/local/Cellar/arm-none-eabi-gcc/20150921/arm-none-eabi/include/machine/_default_types
 558              		.file 3 "/usr/local/Cellar/arm-none-eabi-gcc/20150921/arm-none-eabi/include/sys/_stdint.h"
 559              		.file 4 "./Libraries/CMSIS/CM3/DeviceSupport/ST/STM32F10x/stm32f10x.h"
 560              		.file 5 "./Libraries/STM32F10x_StdPeriph_Driver/inc/stm32f10x_gpio.h"
 561              		.file 6 "./Libraries/STM32F10x_StdPeriph_Driver/inc/stm32f10x_i2c.h"
 562              		.file 7 "./FreeRTOS/Source/include/queue.h"
 563              		.file 8 "./FreeRTOS/Source/include/semphr.h"
 564              		.file 9 "./Libraries/CMSIS/CM3/CoreSupport/core_cm3.h"
 565              		.file 10 "./Libraries/STM32F10x_StdPeriph_Driver/inc/stm32f10x_rcc.h"