ARM GAS  /var/folders/yt/6z6x8bjn5sjf5fbb45bk5m4c0000gn/T//ccYsuN66.s 			page 1


   1              		.syntax unified
   2              		.cpu cortex-m3
   3              		.fpu softvfp
   4              		.eabi_attribute 20, 1	@ Tag_ABI_FP_denormal
   5              		.eabi_attribute 21, 1	@ Tag_ABI_FP_exceptions
   6              		.eabi_attribute 23, 3	@ Tag_ABI_FP_number_model
   7              		.eabi_attribute 24, 1	@ Tag_ABI_align8_needed
   8              		.eabi_attribute 25, 1	@ Tag_ABI_align8_preserved
   9              		.eabi_attribute 26, 1	@ Tag_ABI_enum_size
  10              		.eabi_attribute 30, 4	@ Tag_ABI_optimization_goals
  11              		.eabi_attribute 34, 1	@ Tag_CPU_unaligned_access
  12              		.eabi_attribute 18, 4	@ Tag_ABI_PCS_wchar_t
  13              		.file	"i2c1_remap.c"
  14              	@ GNU C (GNU Tools for ARM Embedded Processors) version 4.9.3 20150529 (release) [ARM/embedded-4_9-
  15              	@	compiled by GNU C version 4.2.1 (Based on Apple Inc. build 5658) (LLVM build 2336.9.00), GMP vers
  16              	@ GGC heuristics: --param ggc-min-expand=100 --param ggc-min-heapsize=131072
  17              	@ options passed:  -I . -I ./Libraries/CMSIS/CM3/CoreSupport
  18              	@ -I ./Libraries/CMSIS/CM3/DeviceSupport/ST/STM32F10x
  19              	@ -I ./Libraries/STM32F10x_StdPeriph_Driver/inc -I ./Libraries/Drivers/Leds
  20              	@ -I ./Libraries/Drivers/Buttons -I ./Libraries/Drivers/Usart
  21              	@ -I ./Libraries/Drivers/i2c -I ./Libraries/Drivers/BH1750
  22              	@ -I ./Libraries/Drivers/Utilities -I ./FreeRTOS/Source/include
  23              	@ -I ./FreeRTOS/Source/portable/GCC/ARM_CM3 -imultilib armv7-m
  24              	@ -iprefix /usr/local/Cellar/arm-none-eabi-gcc/20150921/bin/../lib/gcc/arm-none-eabi/4.9.3/
  25              	@ -isysroot /usr/local/Cellar/arm-none-eabi-gcc/20150921/bin/../arm-none-eabi
  26              	@ -MD Libraries/Drivers/i2c/i2c1_remap.d -MF .dep/i2c1_remap.o.d -MP
  27              	@ -MQ Libraries/Drivers/i2c/i2c1_remap.o -D__USES_INITFINI__
  28              	@ -D STM32F10X_MD -D USE_STDPERIPH_DRIVER -D GCC_ARMCM3 -D RUN_FROM_FLASH=1
  29              	@ Libraries/Drivers/i2c/i2c1_remap.c -mcpu=cortex-m3 -mthumb
  30              	@ -auxbase-strip Libraries/Drivers/i2c/i2c1_remap.o -gdwarf-2 -Os -Wall
  31              	@ -Wstrict-prototypes -fomit-frame-pointer -fverbose-asm
  32              	@ options enabled:  -faggressive-loop-optimizations -fauto-inc-dec
  33              	@ -fbranch-count-reg -fcaller-saves -fcombine-stack-adjustments -fcommon
  34              	@ -fcompare-elim -fcprop-registers -fcrossjumping -fcse-follow-jumps
  35              	@ -fdefer-pop -fdelete-null-pointer-checks -fdevirtualize
  36              	@ -fdevirtualize-speculatively -fdwarf2-cfi-asm -fearly-inlining
  37              	@ -feliminate-unused-debug-types -fexpensive-optimizations
  38              	@ -fforward-propagate -ffunction-cse -fgcse -fgcse-lm -fgnu-runtime
  39              	@ -fgnu-unique -fguess-branch-probability -fhoist-adjacent-loads -fident
  40              	@ -fif-conversion -fif-conversion2 -findirect-inlining -finline
  41              	@ -finline-atomics -finline-functions -finline-functions-called-once
  42              	@ -finline-small-functions -fipa-cp -fipa-profile -fipa-pure-const
  43              	@ -fipa-reference -fipa-sra -fira-hoist-pressure -fira-share-save-slots
  44              	@ -fira-share-spill-slots -fisolate-erroneous-paths-dereference -fivopts
  45              	@ -fkeep-static-consts -fleading-underscore -flifetime-dse -fmath-errno
  46              	@ -fmerge-constants -fmerge-debug-strings -fomit-frame-pointer
  47              	@ -foptimize-sibling-calls -fpartial-inlining -fpeephole -fpeephole2
  48              	@ -fprefetch-loop-arrays -freg-struct-return -freorder-blocks
  49              	@ -freorder-functions -frerun-cse-after-loop
  50              	@ -fsched-critical-path-heuristic -fsched-dep-count-heuristic
  51              	@ -fsched-group-heuristic -fsched-interblock -fsched-last-insn-heuristic
  52              	@ -fsched-pressure -fsched-rank-heuristic -fsched-spec
  53              	@ -fsched-spec-insn-heuristic -fsched-stalled-insns-dep -fschedule-insns2
  54              	@ -fsection-anchors -fshow-column -fsigned-zeros -fsplit-ivs-in-unroller
  55              	@ -fsplit-wide-types -fstrict-aliasing -fstrict-overflow
  56              	@ -fstrict-volatile-bitfields -fsync-libcalls -fthread-jumps
  57              	@ -ftoplevel-reorder -ftrapping-math -ftree-bit-ccp -ftree-builtin-call-dce
ARM GAS  /var/folders/yt/6z6x8bjn5sjf5fbb45bk5m4c0000gn/T//ccYsuN66.s 			page 2


  58              	@ -ftree-ccp -ftree-ch -ftree-coalesce-vars -ftree-copy-prop
  59              	@ -ftree-copyrename -ftree-cselim -ftree-dce -ftree-dominator-opts
  60              	@ -ftree-dse -ftree-forwprop -ftree-fre -ftree-loop-if-convert
  61              	@ -ftree-loop-im -ftree-loop-ivcanon -ftree-loop-optimize
  62              	@ -ftree-parallelize-loops= -ftree-phiprop -ftree-pre -ftree-pta
  63              	@ -ftree-reassoc -ftree-scev-cprop -ftree-sink -ftree-slsr -ftree-sra
  64              	@ -ftree-switch-conversion -ftree-tail-merge -ftree-ter -ftree-vrp
  65              	@ -funit-at-a-time -fvar-tracking -fvar-tracking-assignments -fverbose-asm
  66              	@ -fzero-initialized-in-bss -mfix-cortex-m3-ldrd -mlittle-endian -mlra
  67              	@ -mpic-data-is-text-relative -msched-prolog -mthumb -munaligned-access
  68              	@ -mvectorize-with-neon-quad
  69              	
  70              		.text
  71              	.Ltext0:
  72              		.cfi_sections	.debug_frame
  73              		.align	1
  74              		.global	I2C1_Init
  75              		.thumb
  76              		.thumb_func
  77              		.type	I2C1_Init, %function
  78              	I2C1_Init:
  79              	.LFB34:
  80              		.file 1 "Libraries/Drivers/i2c/i2c1_remap.c"
   1:Libraries/Drivers/i2c/i2c1_remap.c **** /**
   2:Libraries/Drivers/i2c/i2c1_remap.c ****  ******************************************************************************
   3:Libraries/Drivers/i2c/i2c1_remap.c ****  * @file	i2c1_remap.c
   4:Libraries/Drivers/i2c/i2c1_remap.c ****  * @author	Hampus Sandberg
   5:Libraries/Drivers/i2c/i2c1_remap.c ****  * @edited by Amedeo <ingamedeo[at]gmail[dot]com>
   6:Libraries/Drivers/i2c/i2c1_remap.c ****  * @version	0.1
   7:Libraries/Drivers/i2c/i2c1_remap.c ****  * @date	2014-02-18
   8:Libraries/Drivers/i2c/i2c1_remap.c ****  * @brief	Manage I2C1
   9:Libraries/Drivers/i2c/i2c1_remap.c ****  ******************************************************************************
  10:Libraries/Drivers/i2c/i2c1_remap.c ****  */
  11:Libraries/Drivers/i2c/i2c1_remap.c **** 
  12:Libraries/Drivers/i2c/i2c1_remap.c **** /*
  13:Libraries/Drivers/i2c/i2c1_remap.c **** 	Comment by Amedeo
  14:Libraries/Drivers/i2c/i2c1_remap.c **** 
  15:Libraries/Drivers/i2c/i2c1_remap.c **** 	This library was taken from: https://github.com/hampussandberg/STM32-Libraries/tree/master/freerto
  16:Libraries/Drivers/i2c/i2c1_remap.c **** 
  17:Libraries/Drivers/i2c/i2c1_remap.c **** 	It was using GPIO Remapping MODE though which I found useless.
  18:Libraries/Drivers/i2c/i2c1_remap.c **** 	So I changed it to normal mode.
  19:Libraries/Drivers/i2c/i2c1_remap.c **** 
  20:Libraries/Drivers/i2c/i2c1_remap.c **** 	Refer to: http://www.st.com/content/ccc/resource/technical/document/datasheet/33/d4/6f/1d/df/0b/4c
  21:Libraries/Drivers/i2c/i2c1_remap.c **** 	Page 32/117 for PINOUT.
  22:Libraries/Drivers/i2c/i2c1_remap.c **** 
  23:Libraries/Drivers/i2c/i2c1_remap.c **** */
  24:Libraries/Drivers/i2c/i2c1_remap.c **** 
  25:Libraries/Drivers/i2c/i2c1_remap.c **** /* Includes ------------------------------------------------------------------*/
  26:Libraries/Drivers/i2c/i2c1_remap.c **** #include "i2c1_remap.h"
  27:Libraries/Drivers/i2c/i2c1_remap.c **** 
  28:Libraries/Drivers/i2c/i2c1_remap.c **** #include "FreeRTOS.h"
  29:Libraries/Drivers/i2c/i2c1_remap.c **** #include "semphr.h"
  30:Libraries/Drivers/i2c/i2c1_remap.c **** #include "task.h"
  31:Libraries/Drivers/i2c/i2c1_remap.c **** 
  32:Libraries/Drivers/i2c/i2c1_remap.c **** /* Private defines -----------------------------------------------------------*/
  33:Libraries/Drivers/i2c/i2c1_remap.c **** #define I2C_PERIPHERAL		I2C1
  34:Libraries/Drivers/i2c/i2c1_remap.c **** 
ARM GAS  /var/folders/yt/6z6x8bjn5sjf5fbb45bk5m4c0000gn/T//ccYsuN66.s 			page 3


  35:Libraries/Drivers/i2c/i2c1_remap.c **** #define I2C_GPIO			GPIOB
  36:Libraries/Drivers/i2c/i2c1_remap.c **** #define I2C_SCL_PIN			GPIO_Pin_6
  37:Libraries/Drivers/i2c/i2c1_remap.c **** #define I2C_SDA_PIN			GPIO_Pin_7
  38:Libraries/Drivers/i2c/i2c1_remap.c **** 
  39:Libraries/Drivers/i2c/i2c1_remap.c **** #define I2C_CLOCK_SPEED		400000
  40:Libraries/Drivers/i2c/i2c1_remap.c **** 
  41:Libraries/Drivers/i2c/i2c1_remap.c **** #define RTOS_QUICK_FIX_DELAY	(1 / portTICK_PERIOD_MS)
  42:Libraries/Drivers/i2c/i2c1_remap.c **** 
  43:Libraries/Drivers/i2c/i2c1_remap.c **** /* Private variables ---------------------------------------------------------*/
  44:Libraries/Drivers/i2c/i2c1_remap.c **** SemaphoreHandle_t xSemStartCondition = NULL;
  45:Libraries/Drivers/i2c/i2c1_remap.c **** 
  46:Libraries/Drivers/i2c/i2c1_remap.c **** /* Private functions ---------------------------------------------------------*/
  47:Libraries/Drivers/i2c/i2c1_remap.c **** /* Functions -----------------------------------------------------------------*/
  48:Libraries/Drivers/i2c/i2c1_remap.c **** /**
  49:Libraries/Drivers/i2c/i2c1_remap.c ****  * @brief	Initializes the I2C
  50:Libraries/Drivers/i2c/i2c1_remap.c ****  * @param	None
  51:Libraries/Drivers/i2c/i2c1_remap.c ****  * @retval	None
  52:Libraries/Drivers/i2c/i2c1_remap.c ****  */
  53:Libraries/Drivers/i2c/i2c1_remap.c **** void I2C1_Init()
  54:Libraries/Drivers/i2c/i2c1_remap.c **** {
  81              		.loc 1 54 0
  82              		.cfi_startproc
  83              		@ args = 0, pretend = 0, frame = 24
  84              		@ frame_needed = 0, uses_anonymous_args = 0
  85 0000 10B5     		push	{r4, lr}	@
  86              	.LCFI0:
  87              		.cfi_def_cfa_offset 8
  88              		.cfi_offset 4, -8
  89              		.cfi_offset 14, -4
  55:Libraries/Drivers/i2c/i2c1_remap.c **** 	/* Semaphores */
  56:Libraries/Drivers/i2c/i2c1_remap.c **** 	//xSemStartCondition = xSemaphoreCreateBinary();
  57:Libraries/Drivers/i2c/i2c1_remap.c **** 
  58:Libraries/Drivers/i2c/i2c1_remap.c **** 	/* Remap I2C1 */
  59:Libraries/Drivers/i2c/i2c1_remap.c **** 	//RCC_APB2PeriphClockCmd(RCC_APB2Periph_AFIO, ENABLE);
  60:Libraries/Drivers/i2c/i2c1_remap.c **** 	//GPIO_PinRemapConfig(GPIO_Remap_I2C1, ENABLE);
  61:Libraries/Drivers/i2c/i2c1_remap.c **** 
  62:Libraries/Drivers/i2c/i2c1_remap.c **** 	/* I2C clock & GPIOB enable */
  63:Libraries/Drivers/i2c/i2c1_remap.c **** 	RCC_APB1PeriphClockCmd(RCC_APB1Periph_I2C1, ENABLE);
  90              		.loc 1 63 0
  91 0002 4FF40010 		mov	r0, #2097152	@,
  54:Libraries/Drivers/i2c/i2c1_remap.c **** 	/* Semaphores */
  92              		.loc 1 54 0
  93 0006 86B0     		sub	sp, sp, #24	@,,
  94              	.LCFI1:
  95              		.cfi_def_cfa_offset 32
  96              		.loc 1 63 0
  97 0008 0121     		movs	r1, #1	@,
  98 000a FFF7FEFF 		bl	RCC_APB1PeriphClockCmd	@
  99              	.LVL0:
  64:Libraries/Drivers/i2c/i2c1_remap.c **** 	RCC_APB2PeriphClockCmd(RCC_APB2Periph_GPIOB, ENABLE);
 100              		.loc 1 64 0
 101 000e 0820     		movs	r0, #8	@,
 102 0010 0121     		movs	r1, #1	@,
 103 0012 FFF7FEFF 		bl	RCC_APB2PeriphClockCmd	@
 104              	.LVL1:
  65:Libraries/Drivers/i2c/i2c1_remap.c **** 
  66:Libraries/Drivers/i2c/i2c1_remap.c **** 	/* I2C SDA and SCL configuration */
ARM GAS  /var/folders/yt/6z6x8bjn5sjf5fbb45bk5m4c0000gn/T//ccYsuN66.s 			page 4


  67:Libraries/Drivers/i2c/i2c1_remap.c **** 	GPIO_InitTypeDef GPIO_InitStructure;
  68:Libraries/Drivers/i2c/i2c1_remap.c **** 	GPIO_InitStructure.GPIO_Pin = I2C_SCL_PIN | I2C_SDA_PIN;
 105              		.loc 1 68 0
 106 0016 C023     		movs	r3, #192	@ tmp111,
  69:Libraries/Drivers/i2c/i2c1_remap.c **** 	GPIO_InitStructure.GPIO_Speed = GPIO_Speed_50MHz;
  70:Libraries/Drivers/i2c/i2c1_remap.c **** 	GPIO_InitStructure.GPIO_Mode = GPIO_Mode_AF_OD; // Open Drain, I2C bus pulled high externally
  71:Libraries/Drivers/i2c/i2c1_remap.c **** 	GPIO_Init(I2C_GPIO, &GPIO_InitStructure);
  72:Libraries/Drivers/i2c/i2c1_remap.c **** 	
  73:Libraries/Drivers/i2c/i2c1_remap.c ****     I2C_DeInit(I2C1);
 107              		.loc 1 73 0
 108 0018 164C     		ldr	r4, .L2	@ tmp118,
  68:Libraries/Drivers/i2c/i2c1_remap.c **** 	GPIO_InitStructure.GPIO_Speed = GPIO_Speed_50MHz;
 109              		.loc 1 68 0
 110 001a ADF80430 		strh	r3, [sp, #4]	@ movhi	@ tmp111, GPIO_InitStructure.GPIO_Pin
  69:Libraries/Drivers/i2c/i2c1_remap.c **** 	GPIO_InitStructure.GPIO_Speed = GPIO_Speed_50MHz;
 111              		.loc 1 69 0
 112 001e 0323     		movs	r3, #3	@ tmp112,
  71:Libraries/Drivers/i2c/i2c1_remap.c **** 	
 113              		.loc 1 71 0
 114 0020 01A9     		add	r1, sp, #4	@,,
  69:Libraries/Drivers/i2c/i2c1_remap.c **** 	GPIO_InitStructure.GPIO_Speed = GPIO_Speed_50MHz;
 115              		.loc 1 69 0
 116 0022 8DF80630 		strb	r3, [sp, #6]	@ tmp112, GPIO_InitStructure.GPIO_Speed
  71:Libraries/Drivers/i2c/i2c1_remap.c **** 	
 117              		.loc 1 71 0
 118 0026 1448     		ldr	r0, .L2+4	@,
  70:Libraries/Drivers/i2c/i2c1_remap.c **** 	GPIO_Init(I2C_GPIO, &GPIO_InitStructure);
 119              		.loc 1 70 0
 120 0028 1C23     		movs	r3, #28	@ tmp114,
 121 002a 8DF80730 		strb	r3, [sp, #7]	@ tmp114, GPIO_InitStructure.GPIO_Mode
  71:Libraries/Drivers/i2c/i2c1_remap.c **** 	
 122              		.loc 1 71 0
 123 002e FFF7FEFF 		bl	GPIO_Init	@
 124              	.LVL2:
 125              		.loc 1 73 0
 126 0032 2046     		mov	r0, r4	@, tmp118
 127 0034 FFF7FEFF 		bl	I2C_DeInit	@
 128              	.LVL3:
  74:Libraries/Drivers/i2c/i2c1_remap.c **** 	
  75:Libraries/Drivers/i2c/i2c1_remap.c **** 	/* Enable I2C*/
  76:Libraries/Drivers/i2c/i2c1_remap.c ****     I2C_Cmd(I2C1, ENABLE);
 129              		.loc 1 76 0
 130 0038 2046     		mov	r0, r4	@, tmp118
 131 003a 0121     		movs	r1, #1	@,
 132 003c FFF7FEFF 		bl	I2C_Cmd	@
 133              	.LVL4:
  77:Libraries/Drivers/i2c/i2c1_remap.c **** 
  78:Libraries/Drivers/i2c/i2c1_remap.c **** //	/* NVIC Configuration */
  79:Libraries/Drivers/i2c/i2c1_remap.c **** //	NVIC_InitTypeDef NVIC_InitStructure;
  80:Libraries/Drivers/i2c/i2c1_remap.c **** //	/* Event interrupt */
  81:Libraries/Drivers/i2c/i2c1_remap.c **** //	NVIC_InitStructure.NVIC_IRQChannel = I2C1_EV_IRQn;
  82:Libraries/Drivers/i2c/i2c1_remap.c **** //	NVIC_InitStructure.NVIC_IRQChannelPreemptionPriority = configMAX_SYSCALL_INTERRUPT_PRIORITY;
  83:Libraries/Drivers/i2c/i2c1_remap.c **** //	NVIC_InitStructure.NVIC_IRQChannelSubPriority = 0;
  84:Libraries/Drivers/i2c/i2c1_remap.c **** //	NVIC_InitStructure.NVIC_IRQChannelCmd = ENABLE;
  85:Libraries/Drivers/i2c/i2c1_remap.c **** //	NVIC_Init(&NVIC_InitStructure);
  86:Libraries/Drivers/i2c/i2c1_remap.c **** //	/* Error interrupt */
  87:Libraries/Drivers/i2c/i2c1_remap.c **** //	NVIC_InitStructure.NVIC_IRQChannel = I2C1_ER_IRQn;
ARM GAS  /var/folders/yt/6z6x8bjn5sjf5fbb45bk5m4c0000gn/T//ccYsuN66.s 			page 5


  88:Libraries/Drivers/i2c/i2c1_remap.c **** //	NVIC_InitStructure.NVIC_IRQChannelPreemptionPriority = 14;
  89:Libraries/Drivers/i2c/i2c1_remap.c **** //	NVIC_InitStructure.NVIC_IRQChannelSubPriority = 0;
  90:Libraries/Drivers/i2c/i2c1_remap.c **** //	NVIC_InitStructure.NVIC_IRQChannelCmd = ENABLE;
  91:Libraries/Drivers/i2c/i2c1_remap.c **** //	NVIC_Init(&NVIC_InitStructure);
  92:Libraries/Drivers/i2c/i2c1_remap.c **** 
  93:Libraries/Drivers/i2c/i2c1_remap.c **** 	/* I2C Configuration */
  94:Libraries/Drivers/i2c/i2c1_remap.c **** 	I2C_InitTypeDef I2C_InitStructure;
  95:Libraries/Drivers/i2c/i2c1_remap.c **** 	I2C_InitStructure.I2C_ClockSpeed = I2C_CLOCK_SPEED;
 134              		.loc 1 95 0
 135 0040 0E4B     		ldr	r3, .L2+8	@ tmp120,
  96:Libraries/Drivers/i2c/i2c1_remap.c **** 	I2C_InitStructure.I2C_DutyCycle = I2C_DutyCycle_2;
  97:Libraries/Drivers/i2c/i2c1_remap.c **** 	I2C_InitStructure.I2C_Mode = I2C_Mode_I2C;
  98:Libraries/Drivers/i2c/i2c1_remap.c **** 	I2C_InitStructure.I2C_OwnAddress1 = 0x039;
  99:Libraries/Drivers/i2c/i2c1_remap.c **** 	I2C_InitStructure.I2C_AcknowledgedAddress = I2C_AcknowledgedAddress_7bit;
 100:Libraries/Drivers/i2c/i2c1_remap.c **** 	I2C_InitStructure.I2C_Ack = I2C_Ack_Enable;
 101:Libraries/Drivers/i2c/i2c1_remap.c **** 	I2C_Init(I2C_PERIPHERAL, &I2C_InitStructure);
 136              		.loc 1 101 0
 137 0042 2046     		mov	r0, r4	@, tmp118
  95:Libraries/Drivers/i2c/i2c1_remap.c **** 	I2C_InitStructure.I2C_DutyCycle = I2C_DutyCycle_2;
 138              		.loc 1 95 0
 139 0044 0293     		str	r3, [sp, #8]	@ tmp120, I2C_InitStructure.I2C_ClockSpeed
  96:Libraries/Drivers/i2c/i2c1_remap.c **** 	I2C_InitStructure.I2C_DutyCycle = I2C_DutyCycle_2;
 140              		.loc 1 96 0
 141 0046 4BF6FF73 		movw	r3, #49151	@ tmp122,
 142 004a ADF80E30 		strh	r3, [sp, #14]	@ movhi	@ tmp122, I2C_InitStructure.I2C_DutyCycle
  97:Libraries/Drivers/i2c/i2c1_remap.c **** 	I2C_InitStructure.I2C_OwnAddress1 = 0x039;
 143              		.loc 1 97 0
 144 004e 0023     		movs	r3, #0	@ tmp124,
 145 0050 ADF80C30 		strh	r3, [sp, #12]	@ movhi	@ tmp124, I2C_InitStructure.I2C_Mode
  98:Libraries/Drivers/i2c/i2c1_remap.c **** 	I2C_InitStructure.I2C_AcknowledgedAddress = I2C_AcknowledgedAddress_7bit;
 146              		.loc 1 98 0
 147 0054 3923     		movs	r3, #57	@ tmp126,
 148 0056 ADF81030 		strh	r3, [sp, #16]	@ movhi	@ tmp126, I2C_InitStructure.I2C_OwnAddress1
  99:Libraries/Drivers/i2c/i2c1_remap.c **** 	I2C_InitStructure.I2C_Ack = I2C_Ack_Enable;
 149              		.loc 1 99 0
 150 005a 4FF48043 		mov	r3, #16384	@ tmp128,
 151 005e ADF81430 		strh	r3, [sp, #20]	@ movhi	@ tmp128, I2C_InitStructure.I2C_AcknowledgedAddress
 152              		.loc 1 101 0
 153 0062 02A9     		add	r1, sp, #8	@,,
 100:Libraries/Drivers/i2c/i2c1_remap.c **** 	I2C_Init(I2C_PERIPHERAL, &I2C_InitStructure);
 154              		.loc 1 100 0
 155 0064 4FF48063 		mov	r3, #1024	@ tmp130,
 156 0068 ADF81230 		strh	r3, [sp, #18]	@ movhi	@ tmp130, I2C_InitStructure.I2C_Ack
 157              		.loc 1 101 0
 158 006c FFF7FEFF 		bl	I2C_Init	@
 159              	.LVL5:
 102:Libraries/Drivers/i2c/i2c1_remap.c **** 
 103:Libraries/Drivers/i2c/i2c1_remap.c **** 	/* Enable the I2C1 interrupts */
 104:Libraries/Drivers/i2c/i2c1_remap.c **** //	I2C_ITConfig(I2C_PERIPHERAL, I2C_IT_EVT, ENABLE);
 105:Libraries/Drivers/i2c/i2c1_remap.c **** //	I2C_ITConfig(I2C_PERIPHERAL, I2C_IT_ERR, ENABLE);
 106:Libraries/Drivers/i2c/i2c1_remap.c **** }
 160              		.loc 1 106 0
 161 0070 06B0     		add	sp, sp, #24	@,,
 162              	.LCFI2:
 163              		.cfi_def_cfa_offset 8
 164              		@ sp needed	@
 165 0072 10BD     		pop	{r4, pc}	@
ARM GAS  /var/folders/yt/6z6x8bjn5sjf5fbb45bk5m4c0000gn/T//ccYsuN66.s 			page 6


 166              	.L3:
 167              		.align	2
 168              	.L2:
 169 0074 00540040 		.word	1073763328
 170 0078 000C0140 		.word	1073810432
 171 007c 801A0600 		.word	400000
 172              		.cfi_endproc
 173              	.LFE34:
 174              		.size	I2C1_Init, .-I2C1_Init
 175              		.align	1
 176              		.global	I2C1_BeginTransmission
 177              		.thumb
 178              		.thumb_func
 179              		.type	I2C1_BeginTransmission, %function
 180              	I2C1_BeginTransmission:
 181              	.LFB35:
 107:Libraries/Drivers/i2c/i2c1_remap.c **** 
 108:Libraries/Drivers/i2c/i2c1_remap.c **** 
 109:Libraries/Drivers/i2c/i2c1_remap.c **** /**
 110:Libraries/Drivers/i2c/i2c1_remap.c ****  * @brief	Start transmission to a slave
 111:Libraries/Drivers/i2c/i2c1_remap.c ****  * @param	Address: Address to slave which transmission should be started with
 112:Libraries/Drivers/i2c/i2c1_remap.c ****  * @retval	...
 113:Libraries/Drivers/i2c/i2c1_remap.c ****  * 	- SUCCESS:
 114:Libraries/Drivers/i2c/i2c1_remap.c ****  * 	- ERROR:
 115:Libraries/Drivers/i2c/i2c1_remap.c ****  */
 116:Libraries/Drivers/i2c/i2c1_remap.c **** ErrorStatus I2C1_BeginTransmission(uint8_t Address)
 117:Libraries/Drivers/i2c/i2c1_remap.c **** {
 182              		.loc 1 117 0
 183              		.cfi_startproc
 184              		@ args = 0, pretend = 0, frame = 0
 185              		@ frame_needed = 0, uses_anonymous_args = 0
 186              	.LVL6:
 187 0080 70B5     		push	{r4, r5, r6, lr}	@
 188              	.LCFI3:
 189              		.cfi_def_cfa_offset 16
 190              		.cfi_offset 4, -16
 191              		.cfi_offset 5, -12
 192              		.cfi_offset 6, -8
 193              		.cfi_offset 14, -4
 118:Libraries/Drivers/i2c/i2c1_remap.c **** 	/* Send START condition */
 119:Libraries/Drivers/i2c/i2c1_remap.c **** 	I2C_GenerateSTART(I2C_PERIPHERAL, ENABLE);
 194              		.loc 1 119 0
 195 0082 0121     		movs	r1, #1	@,
 117:Libraries/Drivers/i2c/i2c1_remap.c **** 	/* Send START condition */
 196              		.loc 1 117 0
 197 0084 0546     		mov	r5, r0	@ Address, Address
 198              		.loc 1 119 0
 199 0086 1248     		ldr	r0, .L17	@,
 200              	.LVL7:
 201 0088 FFF7FEFF 		bl	I2C_GenerateSTART	@
 202              	.LVL8:
 120:Libraries/Drivers/i2c/i2c1_remap.c **** 
 121:Libraries/Drivers/i2c/i2c1_remap.c **** 	/* TODO: Replace with RTOS stuff */
 122:Libraries/Drivers/i2c/i2c1_remap.c **** 	/* Make sure the START condition has been released on the bus */
 123:Libraries/Drivers/i2c/i2c1_remap.c **** 	int TimeOut;
 124:Libraries/Drivers/i2c/i2c1_remap.c **** 	
 125:Libraries/Drivers/i2c/i2c1_remap.c **** 	TimeOut = I2C_TIMEOUT;
ARM GAS  /var/folders/yt/6z6x8bjn5sjf5fbb45bk5m4c0000gn/T//ccYsuN66.s 			page 7


 126:Libraries/Drivers/i2c/i2c1_remap.c **** 	while (!I2C_CheckEvent(I2C_PERIPHERAL, I2C_EVENT_MASTER_MODE_SELECT)) {
 203              		.loc 1 126 0
 204 008c 114E     		ldr	r6, .L17+4	@ D.6034,
 205              	.LVL9:
 206              	.L5:
 207 008e 1048     		ldr	r0, .L17	@,
 208 0090 1149     		ldr	r1, .L17+8	@,
 209 0092 FFF7FEFF 		bl	I2C_CheckEvent	@
 210              	.LVL10:
 211 0096 0446     		mov	r4, r0	@ D.6033,
 212 0098 10B9     		cbnz	r0, .L15	@ D.6033,
 213              	.LVL11:
 127:Libraries/Drivers/i2c/i2c1_remap.c ****         TimeOut--;
 128:Libraries/Drivers/i2c/i2c1_remap.c ****         if (TimeOut == 0){
 214              		.loc 1 128 0
 215 009a 013E     		subs	r6, r6, #1	@ D.6034, D.6034,
 216              	.LVL12:
 217 009c F7D1     		bne	.L5	@,
 218 009e 15E0     		b	.L6	@
 219              	.L15:
 129:Libraries/Drivers/i2c/i2c1_remap.c ****             //turn_on_error_led_pin();       // Error LED
 130:Libraries/Drivers/i2c/i2c1_remap.c ****             return ERROR;
 131:Libraries/Drivers/i2c/i2c1_remap.c ****         }
 132:Libraries/Drivers/i2c/i2c1_remap.c **** 	}
 133:Libraries/Drivers/i2c/i2c1_remap.c **** 
 134:Libraries/Drivers/i2c/i2c1_remap.c **** //	/* Try to take the semaphore */
 135:Libraries/Drivers/i2c/i2c1_remap.c **** //	if (!xSemaphoreTake(xSemStartCondition, portMAX_DELAY))
 136:Libraries/Drivers/i2c/i2c1_remap.c **** //	{
 137:Libraries/Drivers/i2c/i2c1_remap.c **** //		while (1);
 138:Libraries/Drivers/i2c/i2c1_remap.c **** //	}
 139:Libraries/Drivers/i2c/i2c1_remap.c **** 
 140:Libraries/Drivers/i2c/i2c1_remap.c **** 	/* Send the address for write */
 141:Libraries/Drivers/i2c/i2c1_remap.c **** 	I2C_Send7bitAddress(I2C_PERIPHERAL, Address << 1, I2C_Direction_Transmitter);
 220              		.loc 1 141 0
 221 00a0 6900     		lsls	r1, r5, #1	@ tmp121, Address,
 222 00a2 0B48     		ldr	r0, .L17	@,
 223 00a4 01F0FE01 		and	r1, r1, #254	@, tmp121,
 224 00a8 0022     		movs	r2, #0	@,
 225 00aa FFF7FEFF 		bl	I2C_Send7bitAddress	@
 226              	.LVL13:
 142:Libraries/Drivers/i2c/i2c1_remap.c **** 
 143:Libraries/Drivers/i2c/i2c1_remap.c **** 	/* TODO: Replace with RTOS stuff */
 144:Libraries/Drivers/i2c/i2c1_remap.c **** 	/* Make sure a slave has acknowledge the address */
 145:Libraries/Drivers/i2c/i2c1_remap.c **** 	TimeOut = I2C_TIMEOUT;
 146:Libraries/Drivers/i2c/i2c1_remap.c **** 	while (!I2C_CheckEvent(I2C_PERIPHERAL, I2C_EVENT_MASTER_TRANSMITTER_MODE_SELECTED)) {
 227              		.loc 1 146 0
 228 00ae 094D     		ldr	r5, .L17+4	@ D.6034,
 229              	.LVL14:
 230              	.L8:
 231 00b0 0748     		ldr	r0, .L17	@,
 232 00b2 0A49     		ldr	r1, .L17+12	@,
 233 00b4 FFF7FEFF 		bl	I2C_CheckEvent	@
 234              	.LVL15:
 235 00b8 0446     		mov	r4, r0	@ D.6033,
 236 00ba 30B9     		cbnz	r0, .L16	@ D.6033,
 237              	.LVL16:
 147:Libraries/Drivers/i2c/i2c1_remap.c ****         TimeOut--;
ARM GAS  /var/folders/yt/6z6x8bjn5sjf5fbb45bk5m4c0000gn/T//ccYsuN66.s 			page 8


 148:Libraries/Drivers/i2c/i2c1_remap.c ****         if (TimeOut == 0){
 238              		.loc 1 148 0
 239 00bc 013D     		subs	r5, r5, #1	@ D.6034, D.6034,
 240              	.LVL17:
 241 00be F7D1     		bne	.L8	@,
 242              	.LVL18:
 243              	.LBB4:
 244              	.LBB5:
 149:Libraries/Drivers/i2c/i2c1_remap.c ****             // Send I2C1 STOP Condition
 150:Libraries/Drivers/i2c/i2c1_remap.c ****             I2C_GenerateSTOP(I2C_PERIPHERAL, ENABLE);
 245              		.loc 1 150 0
 246 00c0 0348     		ldr	r0, .L17	@,
 247 00c2 0121     		movs	r1, #1	@,
 248 00c4 FFF7FEFF 		bl	I2C_GenerateSTOP	@
 249              	.LVL19:
 250 00c8 00E0     		b	.L6	@
 251              	.L16:
 252              	.LBE5:
 253              	.LBE4:
 151:Libraries/Drivers/i2c/i2c1_remap.c ****             //turn_on_error_led_pin();        // Error LED
 152:Libraries/Drivers/i2c/i2c1_remap.c **** 
 153:Libraries/Drivers/i2c/i2c1_remap.c ****             return ERROR;
 154:Libraries/Drivers/i2c/i2c1_remap.c ****         }
 155:Libraries/Drivers/i2c/i2c1_remap.c **** 	}
 156:Libraries/Drivers/i2c/i2c1_remap.c **** 	return SUCCESS;
 254              		.loc 1 156 0
 255 00ca 0124     		movs	r4, #1	@ D.6033,
 256              	.LVL20:
 257              	.L6:
 157:Libraries/Drivers/i2c/i2c1_remap.c **** }
 258              		.loc 1 157 0
 259 00cc 2046     		mov	r0, r4	@, D.6033
 260 00ce 70BD     		pop	{r4, r5, r6, pc}	@
 261              	.L18:
 262              		.align	2
 263              	.L17:
 264 00d0 00540040 		.word	1073763328
 265 00d4 A0860100 		.word	100000
 266 00d8 01000300 		.word	196609
 267 00dc 82000700 		.word	458882
 268              		.cfi_endproc
 269              	.LFE35:
 270              		.size	I2C1_BeginTransmission, .-I2C1_BeginTransmission
 271              		.align	1
 272              		.global	I2C1_EndTransmission
 273              		.thumb
 274              		.thumb_func
 275              		.type	I2C1_EndTransmission, %function
 276              	I2C1_EndTransmission:
 277              	.LFB36:
 158:Libraries/Drivers/i2c/i2c1_remap.c **** 
 159:Libraries/Drivers/i2c/i2c1_remap.c **** /**
 160:Libraries/Drivers/i2c/i2c1_remap.c ****  * @brief	End transmission on the bus
 161:Libraries/Drivers/i2c/i2c1_remap.c ****  * @param	None
 162:Libraries/Drivers/i2c/i2c1_remap.c ****  * @retval	None
 163:Libraries/Drivers/i2c/i2c1_remap.c ****  */
 164:Libraries/Drivers/i2c/i2c1_remap.c **** void I2C1_EndTransmission()
ARM GAS  /var/folders/yt/6z6x8bjn5sjf5fbb45bk5m4c0000gn/T//ccYsuN66.s 			page 9


 165:Libraries/Drivers/i2c/i2c1_remap.c **** {
 278              		.loc 1 165 0
 279              		.cfi_startproc
 280              		@ args = 0, pretend = 0, frame = 0
 281              		@ frame_needed = 0, uses_anonymous_args = 0
 282              		@ link register save eliminated.
 166:Libraries/Drivers/i2c/i2c1_remap.c **** 	I2C_GenerateSTOP(I2C_PERIPHERAL, ENABLE);
 283              		.loc 1 166 0
 284 00e0 0148     		ldr	r0, .L20	@,
 285 00e2 0121     		movs	r1, #1	@,
 286 00e4 FFF7FEBF 		b	I2C_GenerateSTOP	@
 287              	.LVL21:
 288              	.L21:
 289              		.align	2
 290              	.L20:
 291 00e8 00540040 		.word	1073763328
 292              		.cfi_endproc
 293              	.LFE36:
 294              		.size	I2C1_EndTransmission, .-I2C1_EndTransmission
 295              		.align	1
 296              		.global	I2C1_Write
 297              		.thumb
 298              		.thumb_func
 299              		.type	I2C1_Write, %function
 300              	I2C1_Write:
 301              	.LFB37:
 167:Libraries/Drivers/i2c/i2c1_remap.c **** }
 168:Libraries/Drivers/i2c/i2c1_remap.c **** 
 169:Libraries/Drivers/i2c/i2c1_remap.c **** /**
 170:Libraries/Drivers/i2c/i2c1_remap.c ****  * @brief	Write real data to the bus
 171:Libraries/Drivers/i2c/i2c1_remap.c ****  * @param	Data: The data to write
 172:Libraries/Drivers/i2c/i2c1_remap.c ****  * @retval	...
 173:Libraries/Drivers/i2c/i2c1_remap.c ****  * 	- SUCCESS:
 174:Libraries/Drivers/i2c/i2c1_remap.c ****  * 	- ERROR:
 175:Libraries/Drivers/i2c/i2c1_remap.c ****  */
 176:Libraries/Drivers/i2c/i2c1_remap.c **** ErrorStatus I2C1_Write(uint8_t Data)
 177:Libraries/Drivers/i2c/i2c1_remap.c **** {
 302              		.loc 1 177 0
 303              		.cfi_startproc
 304              		@ args = 0, pretend = 0, frame = 0
 305              		@ frame_needed = 0, uses_anonymous_args = 0
 306              	.LVL22:
 307 00ec 38B5     		push	{r3, r4, r5, lr}	@
 308              	.LCFI4:
 309              		.cfi_def_cfa_offset 16
 310              		.cfi_offset 3, -16
 311              		.cfi_offset 4, -12
 312              		.cfi_offset 5, -8
 313              		.cfi_offset 14, -4
 314              		.loc 1 177 0
 315 00ee 0146     		mov	r1, r0	@ Data, Data
 178:Libraries/Drivers/i2c/i2c1_remap.c **** 	/* Send the byte to be written */
 179:Libraries/Drivers/i2c/i2c1_remap.c **** 	I2C_SendData(I2C_PERIPHERAL, Data);
 316              		.loc 1 179 0
 317 00f0 0948     		ldr	r0, .L28	@,
 318              	.LVL23:
 319 00f2 FFF7FEFF 		bl	I2C_SendData	@
ARM GAS  /var/folders/yt/6z6x8bjn5sjf5fbb45bk5m4c0000gn/T//ccYsuN66.s 			page 10


 320              	.LVL24:
 180:Libraries/Drivers/i2c/i2c1_remap.c **** 
 181:Libraries/Drivers/i2c/i2c1_remap.c **** 	/* TODO: Replace with RTOS stuff,
 182:Libraries/Drivers/i2c/i2c1_remap.c **** 	 * see http://www.freertos.org/FreeRTOS_Support_Forum_Archive/September_2013/freertos_Best_way_to_
 183:Libraries/Drivers/i2c/i2c1_remap.c **** 	/* Make sure data has been transmitted */
 184:Libraries/Drivers/i2c/i2c1_remap.c **** 	int TimeOut = I2C_TIMEOUT;
 185:Libraries/Drivers/i2c/i2c1_remap.c **** 	while (!I2C_CheckEvent(I2C_PERIPHERAL, I2C_EVENT_MASTER_BYTE_TRANSMITTED)) {
 321              		.loc 1 185 0
 322 00f6 094D     		ldr	r5, .L28+4	@ D.6045,
 323              	.LVL25:
 324              	.L23:
 325 00f8 0748     		ldr	r0, .L28	@,
 326 00fa 0949     		ldr	r1, .L28+8	@,
 327 00fc FFF7FEFF 		bl	I2C_CheckEvent	@
 328              	.LVL26:
 329 0100 0446     		mov	r4, r0	@ D.6044,
 330 0102 30B9     		cbnz	r0, .L27	@ D.6044,
 331              	.LVL27:
 186:Libraries/Drivers/i2c/i2c1_remap.c ****         TimeOut--;
 187:Libraries/Drivers/i2c/i2c1_remap.c ****         if (TimeOut == 0){
 332              		.loc 1 187 0
 333 0104 013D     		subs	r5, r5, #1	@ D.6045, D.6045,
 334              	.LVL28:
 335 0106 F7D1     		bne	.L23	@,
 188:Libraries/Drivers/i2c/i2c1_remap.c ****             // Send I2C1 STOP Condition
 189:Libraries/Drivers/i2c/i2c1_remap.c ****             I2C_GenerateSTOP(I2C_PERIPHERAL, ENABLE);
 336              		.loc 1 189 0
 337 0108 0348     		ldr	r0, .L28	@,
 338 010a 0121     		movs	r1, #1	@,
 339 010c FFF7FEFF 		bl	I2C_GenerateSTOP	@
 340              	.LVL29:
 190:Libraries/Drivers/i2c/i2c1_remap.c ****             //turn_on_error_led_pin();        // Error LED
 191:Libraries/Drivers/i2c/i2c1_remap.c **** 
 192:Libraries/Drivers/i2c/i2c1_remap.c ****             return ERROR;
 341              		.loc 1 192 0
 342 0110 00E0     		b	.L24	@
 343              	.L27:
 193:Libraries/Drivers/i2c/i2c1_remap.c ****         }
 194:Libraries/Drivers/i2c/i2c1_remap.c **** 	}
 195:Libraries/Drivers/i2c/i2c1_remap.c **** 
 196:Libraries/Drivers/i2c/i2c1_remap.c **** 	return SUCCESS;
 344              		.loc 1 196 0
 345 0112 0124     		movs	r4, #1	@ D.6044,
 346              	.L24:
 197:Libraries/Drivers/i2c/i2c1_remap.c **** }
 347              		.loc 1 197 0
 348 0114 2046     		mov	r0, r4	@, D.6044
 349 0116 38BD     		pop	{r3, r4, r5, pc}	@
 350              	.LVL30:
 351              	.L29:
 352              		.align	2
 353              	.L28:
 354 0118 00540040 		.word	1073763328
 355 011c A0860100 		.word	100000
 356 0120 84000700 		.word	458884
 357              		.cfi_endproc
 358              	.LFE37:
ARM GAS  /var/folders/yt/6z6x8bjn5sjf5fbb45bk5m4c0000gn/T//ccYsuN66.s 			page 11


 359              		.size	I2C1_Write, .-I2C1_Write
 360              		.align	1
 361              		.global	I2C1_RequestFrom
 362              		.thumb
 363              		.thumb_func
 364              		.type	I2C1_RequestFrom, %function
 365              	I2C1_RequestFrom:
 366              	.LFB38:
 198:Libraries/Drivers/i2c/i2c1_remap.c **** 
 199:Libraries/Drivers/i2c/i2c1_remap.c **** /**
 200:Libraries/Drivers/i2c/i2c1_remap.c ****  * @brief	Requests a given amount of data from a slave
 201:Libraries/Drivers/i2c/i2c1_remap.c ****  * @param	Address: The address to the slave to request from
 202:Libraries/Drivers/i2c/i2c1_remap.c ****  * @param	Storage: Pointer to where the data should be stored
 203:Libraries/Drivers/i2c/i2c1_remap.c ****  * @param	ByteCount: The amount of bytes to receive
 204:Libraries/Drivers/i2c/i2c1_remap.c ****  * @retval	...
 205:Libraries/Drivers/i2c/i2c1_remap.c ****  * 	- SUCCESS:
 206:Libraries/Drivers/i2c/i2c1_remap.c ****  * 	- ERROR:
 207:Libraries/Drivers/i2c/i2c1_remap.c ****  */
 208:Libraries/Drivers/i2c/i2c1_remap.c **** ErrorStatus I2C1_RequestFrom(uint8_t Address, uint8_t* Storage, uint16_t NumByteToRead)
 209:Libraries/Drivers/i2c/i2c1_remap.c **** {
 367              		.loc 1 209 0
 368              		.cfi_startproc
 369              		@ args = 0, pretend = 0, frame = 0
 370              		@ frame_needed = 0, uses_anonymous_args = 0
 371              	.LVL31:
 372 0124 F8B5     		push	{r3, r4, r5, r6, r7, lr}	@
 373              	.LCFI5:
 374              		.cfi_def_cfa_offset 24
 375              		.cfi_offset 3, -24
 376              		.cfi_offset 4, -20
 377              		.cfi_offset 5, -16
 378              		.cfi_offset 6, -12
 379              		.cfi_offset 7, -8
 380              		.cfi_offset 14, -4
 381              		.loc 1 209 0
 382 0126 0546     		mov	r5, r0	@ Address, Address
 383 0128 0F46     		mov	r7, r1	@ Storage, Storage
 384 012a 1446     		mov	r4, r2	@ NumByteToRead, NumByteToRead
 210:Libraries/Drivers/i2c/i2c1_remap.c **** 	/* TODO: Replace with RTOS stuff */
 211:Libraries/Drivers/i2c/i2c1_remap.c **** 	/* While the bus is busy */
 212:Libraries/Drivers/i2c/i2c1_remap.c **** 	
 213:Libraries/Drivers/i2c/i2c1_remap.c **** 	/*
 214:Libraries/Drivers/i2c/i2c1_remap.c **** 	I2C is a transaction-based bus.
 215:Libraries/Drivers/i2c/i2c1_remap.c **** 	Each transaction ahs a start and stop condition and an arbitrary number of byte transfers in-betwe
 216:Libraries/Drivers/i2c/i2c1_remap.c **** 	If you're the only I2C master ont eh bus, the oly one who can start a transaction is you.
 217:Libraries/Drivers/i2c/i2c1_remap.c **** 	The busy bit only indicates whether a transaction start has been detected and no transaction end h
 218:Libraries/Drivers/i2c/i2c1_remap.c **** 	But if you're the only one who can start a transaction, who cares?
 219:Libraries/Drivers/i2c/i2c1_remap.c **** 	*/
 220:Libraries/Drivers/i2c/i2c1_remap.c **** 	
 221:Libraries/Drivers/i2c/i2c1_remap.c **** 	int TimeOut;
 222:Libraries/Drivers/i2c/i2c1_remap.c **** 	
 223:Libraries/Drivers/i2c/i2c1_remap.c **** 	TimeOut = I2C_TIMEOUT;
 224:Libraries/Drivers/i2c/i2c1_remap.c **** 	while (I2C_GetFlagStatus(I2C_PERIPHERAL, I2C_FLAG_BUSY)) {
 385              		.loc 1 224 0
 386 012c 224E     		ldr	r6, .L54	@ D.6070,
 387              	.LVL32:
 388              	.L31:
ARM GAS  /var/folders/yt/6z6x8bjn5sjf5fbb45bk5m4c0000gn/T//ccYsuN66.s 			page 12


 389 012e 2348     		ldr	r0, .L54+4	@,
 390 0130 4FF40031 		mov	r1, #131072	@,
 391 0134 FFF7FEFF 		bl	I2C_GetFlagStatus	@
 392              	.LVL33:
 393 0138 18B1     		cbz	r0, .L51	@,
 394              	.LVL34:
 225:Libraries/Drivers/i2c/i2c1_remap.c ****         TimeOut--;
 226:Libraries/Drivers/i2c/i2c1_remap.c ****         if (TimeOut == 0){
 395              		.loc 1 226 0
 396 013a 013E     		subs	r6, r6, #1	@ D.6070, D.6070,
 397              	.LVL35:
 398 013c F7D1     		bne	.L31	@,
 399              	.L35:
 227:Libraries/Drivers/i2c/i2c1_remap.c ****             //turn_on_error_led_pin();       // Error LED
 228:Libraries/Drivers/i2c/i2c1_remap.c ****             return ERROR;
 400              		.loc 1 228 0
 401 013e 0025     		movs	r5, #0	@ D.6071,
 402 0140 37E0     		b	.L32	@
 403              	.L51:
 229:Libraries/Drivers/i2c/i2c1_remap.c ****         }
 230:Libraries/Drivers/i2c/i2c1_remap.c **** 	}
 231:Libraries/Drivers/i2c/i2c1_remap.c **** 
 232:Libraries/Drivers/i2c/i2c1_remap.c **** 	/* Send START condition */
 233:Libraries/Drivers/i2c/i2c1_remap.c **** 	I2C_GenerateSTART(I2C_PERIPHERAL, ENABLE);
 404              		.loc 1 233 0
 405 0142 1E48     		ldr	r0, .L54+4	@,
 406 0144 0121     		movs	r1, #1	@,
 407 0146 FFF7FEFF 		bl	I2C_GenerateSTART	@
 408              	.LVL36:
 234:Libraries/Drivers/i2c/i2c1_remap.c **** 
 235:Libraries/Drivers/i2c/i2c1_remap.c **** 	/* TODO: Replace with RTOS stuff */
 236:Libraries/Drivers/i2c/i2c1_remap.c **** 	/* Make sure the START condition has been released on the bus */
 237:Libraries/Drivers/i2c/i2c1_remap.c **** 	
 238:Libraries/Drivers/i2c/i2c1_remap.c **** 	
 239:Libraries/Drivers/i2c/i2c1_remap.c **** 	TimeOut = I2C_TIMEOUT;
 240:Libraries/Drivers/i2c/i2c1_remap.c **** 	while (!I2C_CheckEvent(I2C_PERIPHERAL, I2C_EVENT_MASTER_MODE_SELECT)) {
 409              		.loc 1 240 0
 410 014a 1B4E     		ldr	r6, .L54	@ D.6070,
 411              	.LVL37:
 412              	.L34:
 413 014c 1B48     		ldr	r0, .L54+4	@,
 414 014e 1C49     		ldr	r1, .L54+8	@,
 415 0150 FFF7FEFF 		bl	I2C_CheckEvent	@
 416              	.LVL38:
 417 0154 10B9     		cbnz	r0, .L52	@,
 418              	.LVL39:
 241:Libraries/Drivers/i2c/i2c1_remap.c ****         TimeOut--;
 242:Libraries/Drivers/i2c/i2c1_remap.c ****         if (TimeOut == 0){
 419              		.loc 1 242 0
 420 0156 013E     		subs	r6, r6, #1	@ D.6070, D.6070,
 421              	.LVL40:
 422 0158 F8D1     		bne	.L34	@,
 423 015a F0E7     		b	.L35	@
 424              	.L52:
 243:Libraries/Drivers/i2c/i2c1_remap.c ****             //turn_on_error_led_pin();       // Error LED
 244:Libraries/Drivers/i2c/i2c1_remap.c ****             return ERROR;
 245:Libraries/Drivers/i2c/i2c1_remap.c ****         }
ARM GAS  /var/folders/yt/6z6x8bjn5sjf5fbb45bk5m4c0000gn/T//ccYsuN66.s 			page 13


 246:Libraries/Drivers/i2c/i2c1_remap.c **** 	}
 247:Libraries/Drivers/i2c/i2c1_remap.c **** 
 248:Libraries/Drivers/i2c/i2c1_remap.c **** //	/* Try to take the semaphore */
 249:Libraries/Drivers/i2c/i2c1_remap.c **** //	if (!xSemaphoreTake(xSemStartCondition, portMAX_DELAY))
 250:Libraries/Drivers/i2c/i2c1_remap.c **** //	{
 251:Libraries/Drivers/i2c/i2c1_remap.c **** //		while (1);
 252:Libraries/Drivers/i2c/i2c1_remap.c **** //	}
 253:Libraries/Drivers/i2c/i2c1_remap.c **** 
 254:Libraries/Drivers/i2c/i2c1_remap.c **** 	/* Send the address for read */
 255:Libraries/Drivers/i2c/i2c1_remap.c **** 	I2C_Send7bitAddress(I2C_PERIPHERAL, Address << 1, I2C_Direction_Receiver);
 425              		.loc 1 255 0
 426 015c 6900     		lsls	r1, r5, #1	@ tmp236, Address,
 427 015e 1748     		ldr	r0, .L54+4	@,
 428 0160 01F0FE01 		and	r1, r1, #254	@, tmp236,
 429 0164 0122     		movs	r2, #1	@,
 430 0166 FFF7FEFF 		bl	I2C_Send7bitAddress	@
 431              	.LVL41:
 256:Libraries/Drivers/i2c/i2c1_remap.c **** 
 257:Libraries/Drivers/i2c/i2c1_remap.c **** 	/* TODO: Replace with RTOS stuff */
 258:Libraries/Drivers/i2c/i2c1_remap.c **** 	/* Make sure a slave has acknowledge the address */
 259:Libraries/Drivers/i2c/i2c1_remap.c **** 	TimeOut = I2C_TIMEOUT;
 260:Libraries/Drivers/i2c/i2c1_remap.c **** 	while (!I2C_CheckEvent(I2C_PERIPHERAL, I2C_EVENT_MASTER_RECEIVER_MODE_SELECTED)) {
 432              		.loc 1 260 0
 433 016a 134E     		ldr	r6, .L54	@ D.6070,
 434              	.LVL42:
 435              	.L37:
 436 016c 1348     		ldr	r0, .L54+4	@,
 437 016e 1549     		ldr	r1, .L54+12	@,
 438 0170 FFF7FEFF 		bl	I2C_CheckEvent	@
 439              	.LVL43:
 440 0174 0546     		mov	r5, r0	@ D.6071,
 441 0176 58B9     		cbnz	r0, .L40	@ D.6071,
 442              	.LVL44:
 261:Libraries/Drivers/i2c/i2c1_remap.c ****         TimeOut--;
 262:Libraries/Drivers/i2c/i2c1_remap.c ****         if (TimeOut == 0){
 443              		.loc 1 262 0
 444 0178 013E     		subs	r6, r6, #1	@ D.6070, D.6070,
 445              	.LVL45:
 446 017a F7D1     		bne	.L37	@,
 263:Libraries/Drivers/i2c/i2c1_remap.c ****             // Send I2C1 STOP Condition
 264:Libraries/Drivers/i2c/i2c1_remap.c ****             I2C_GenerateSTOP(I2C_PERIPHERAL, ENABLE);
 447              		.loc 1 264 0
 448 017c 0F48     		ldr	r0, .L54+4	@,
 449 017e 0121     		movs	r1, #1	@,
 450 0180 FFF7FEFF 		bl	I2C_GenerateSTOP	@
 451              	.LVL46:
 265:Libraries/Drivers/i2c/i2c1_remap.c ****             //turn_on_error_led_pin();        // Error LED
 266:Libraries/Drivers/i2c/i2c1_remap.c **** 
 267:Libraries/Drivers/i2c/i2c1_remap.c ****             return ERROR;
 452              		.loc 1 267 0
 453 0184 15E0     		b	.L32	@
 454              	.LVL47:
 455              	.L42:
 268:Libraries/Drivers/i2c/i2c1_remap.c ****         }
 269:Libraries/Drivers/i2c/i2c1_remap.c **** 	}
 270:Libraries/Drivers/i2c/i2c1_remap.c **** 	
 271:Libraries/Drivers/i2c/i2c1_remap.c **** 	/* While there is data to be read */
ARM GAS  /var/folders/yt/6z6x8bjn5sjf5fbb45bk5m4c0000gn/T//ccYsuN66.s 			page 14


 272:Libraries/Drivers/i2c/i2c1_remap.c **** 	while (NumByteToRead)
 273:Libraries/Drivers/i2c/i2c1_remap.c **** 	{
 274:Libraries/Drivers/i2c/i2c1_remap.c **** 		/* Check if data has been received */
 275:Libraries/Drivers/i2c/i2c1_remap.c **** 		if (I2C_CheckEvent(I2C_PERIPHERAL, I2C_EVENT_MASTER_BYTE_RECEIVED))
 456              		.loc 1 275 0
 457 0186 0D48     		ldr	r0, .L54+4	@,
 458 0188 0F49     		ldr	r1, .L54+16	@,
 459 018a FFF7FEFF 		bl	I2C_CheckEvent	@
 460              	.LVL48:
 461 018e 10B9     		cbnz	r0, .L53	@,
 462              	.LVL49:
 463              	.L40:
 272:Libraries/Drivers/i2c/i2c1_remap.c **** 	{
 464              		.loc 1 272 0
 465 0190 002C     		cmp	r4, #0	@ NumByteToRead
 466 0192 F8D1     		bne	.L42	@
 467 0194 0CE0     		b	.L50	@
 468              	.L53:
 276:Libraries/Drivers/i2c/i2c1_remap.c **** 		{
 277:Libraries/Drivers/i2c/i2c1_remap.c **** 			/* Read a byte from the slave */
 278:Libraries/Drivers/i2c/i2c1_remap.c **** 			*Storage = I2C_ReceiveData(I2C_PERIPHERAL);
 469              		.loc 1 278 0
 470 0196 0948     		ldr	r0, .L54+4	@,
 471 0198 FFF7FEFF 		bl	I2C_ReceiveData	@
 472              	.LVL50:
 279:Libraries/Drivers/i2c/i2c1_remap.c **** 
 280:Libraries/Drivers/i2c/i2c1_remap.c **** 			/* Point to the next location where the next byte read will be saved */
 281:Libraries/Drivers/i2c/i2c1_remap.c **** 			Storage++;
 282:Libraries/Drivers/i2c/i2c1_remap.c **** 
 283:Libraries/Drivers/i2c/i2c1_remap.c **** 			/* Decrement the read bytes counter */
 284:Libraries/Drivers/i2c/i2c1_remap.c **** 			NumByteToRead--;
 473              		.loc 1 284 0
 474 019c 013C     		subs	r4, r4, #1	@ tmp248, NumByteToRead,
 475              	.LVL51:
 476 019e A4B2     		uxth	r4, r4	@ NumByteToRead, tmp248
 278:Libraries/Drivers/i2c/i2c1_remap.c **** 
 477              		.loc 1 278 0
 478 01a0 07F8010B 		strb	r0, [r7], #1	@, MEM[base: Storage_44, offset: 0B]
 479              	.LVL52:
 285:Libraries/Drivers/i2c/i2c1_remap.c **** 			if (NumByteToRead == 0)
 480              		.loc 1 285 0
 481 01a4 002C     		cmp	r4, #0	@ NumByteToRead
 482 01a6 F3D1     		bne	.L40	@
 286:Libraries/Drivers/i2c/i2c1_remap.c **** 			{
 287:Libraries/Drivers/i2c/i2c1_remap.c **** 				/* Send STOP Condition */
 288:Libraries/Drivers/i2c/i2c1_remap.c **** 				I2C_GenerateSTOP(I2C_PERIPHERAL, ENABLE);
 483              		.loc 1 288 0
 484 01a8 0448     		ldr	r0, .L54+4	@,
 485 01aa 0121     		movs	r1, #1	@,
 486 01ac FFF7FEFF 		bl	I2C_GenerateSTOP	@
 487              	.LVL53:
 488              	.L50:
 289:Libraries/Drivers/i2c/i2c1_remap.c **** 			}
 290:Libraries/Drivers/i2c/i2c1_remap.c **** 		}
 291:Libraries/Drivers/i2c/i2c1_remap.c **** 	}
 292:Libraries/Drivers/i2c/i2c1_remap.c **** 
 293:Libraries/Drivers/i2c/i2c1_remap.c **** 	return SUCCESS;
ARM GAS  /var/folders/yt/6z6x8bjn5sjf5fbb45bk5m4c0000gn/T//ccYsuN66.s 			page 15


 489              		.loc 1 293 0
 490 01b0 0125     		movs	r5, #1	@ D.6071,
 491              	.LVL54:
 492              	.L32:
 294:Libraries/Drivers/i2c/i2c1_remap.c **** }
 493              		.loc 1 294 0
 494 01b2 2846     		mov	r0, r5	@, D.6071
 495 01b4 F8BD     		pop	{r3, r4, r5, r6, r7, pc}	@
 496              	.LVL55:
 497              	.L55:
 498 01b6 00BF     		.align	2
 499              	.L54:
 500 01b8 A0860100 		.word	100000
 501 01bc 00540040 		.word	1073763328
 502 01c0 01000300 		.word	196609
 503 01c4 02000300 		.word	196610
 504 01c8 40000300 		.word	196672
 505              		.cfi_endproc
 506              	.LFE38:
 507              		.size	I2C1_RequestFrom, .-I2C1_RequestFrom
 508              		.align	1
 509              		.global	I2C1_SlaveAtAddress
 510              		.thumb
 511              		.thumb_func
 512              		.type	I2C1_SlaveAtAddress, %function
 513              	I2C1_SlaveAtAddress:
 514              	.LFB39:
 295:Libraries/Drivers/i2c/i2c1_remap.c **** 
 296:Libraries/Drivers/i2c/i2c1_remap.c **** /**
 297:Libraries/Drivers/i2c/i2c1_remap.c ****  * @brief	Checks to see if there is a slave at a given address. This is done by beginning a transmi
 298:Libraries/Drivers/i2c/i2c1_remap.c ****  *			and see if a slave is responding with an ACK or not
 299:Libraries/Drivers/i2c/i2c1_remap.c ****  * @param	Address: The address to look for a slave at
 300:Libraries/Drivers/i2c/i2c1_remap.c ****  * @retval	1: There is a slave at the address [Address]
 301:Libraries/Drivers/i2c/i2c1_remap.c ****  * @retval	0: There is no slave there
 302:Libraries/Drivers/i2c/i2c1_remap.c ****  */
 303:Libraries/Drivers/i2c/i2c1_remap.c **** uint8_t I2C1_SlaveAtAddress(const uint8_t Address) {
 515              		.loc 1 303 0
 516              		.cfi_startproc
 517              		@ args = 0, pretend = 0, frame = 0
 518              		@ frame_needed = 0, uses_anonymous_args = 0
 519              	.LVL56:
 520 01cc 10B5     		push	{r4, lr}	@
 521              	.LCFI6:
 522              		.cfi_def_cfa_offset 8
 523              		.cfi_offset 4, -8
 524              		.cfi_offset 14, -4
 304:Libraries/Drivers/i2c/i2c1_remap.c **** 	if (I2C1_BeginTransmission(Address)==SUCCESS) {
 525              		.loc 1 304 0
 526 01ce FFF7FEFF 		bl	I2C1_BeginTransmission	@
 527              	.LVL57:
 528 01d2 0128     		cmp	r0, #1	@ tmp114,
 529 01d4 0446     		mov	r4, r0	@ tmp114,
 530 01d6 03D1     		bne	.L57	@,
 305:Libraries/Drivers/i2c/i2c1_remap.c **** 		I2C1_EndTransmission();
 531              		.loc 1 305 0
 532 01d8 FFF7FEFF 		bl	I2C1_EndTransmission	@
 533              	.LVL58:
ARM GAS  /var/folders/yt/6z6x8bjn5sjf5fbb45bk5m4c0000gn/T//ccYsuN66.s 			page 16


 306:Libraries/Drivers/i2c/i2c1_remap.c **** 		return 1;
 534              		.loc 1 306 0
 535 01dc 2046     		mov	r0, r4	@ D.6077, tmp114
 536 01de 10BD     		pop	{r4, pc}	@
 537              	.L57:
 307:Libraries/Drivers/i2c/i2c1_remap.c **** 	} else {
 308:Libraries/Drivers/i2c/i2c1_remap.c **** 		I2C1_EndTransmission();
 538              		.loc 1 308 0
 539 01e0 FFF7FEFF 		bl	I2C1_EndTransmission	@
 540              	.LVL59:
 309:Libraries/Drivers/i2c/i2c1_remap.c **** 		return 0;
 541              		.loc 1 309 0
 542 01e4 0020     		movs	r0, #0	@ D.6077,
 310:Libraries/Drivers/i2c/i2c1_remap.c **** 	}
 311:Libraries/Drivers/i2c/i2c1_remap.c **** }
 543              		.loc 1 311 0
 544 01e6 10BD     		pop	{r4, pc}	@
 545              		.cfi_endproc
 546              	.LFE39:
 547              		.size	I2C1_SlaveAtAddress, .-I2C1_SlaveAtAddress
 548              		.global	xSemStartCondition
 549              		.bss
 550              		.align	2
 551              		.type	xSemStartCondition, %object
 552              		.size	xSemStartCondition, 4
 553              	xSemStartCondition:
 554 0000 00000000 		.space	4
 555              		.text
 556              	.Letext0:
 557              		.file 2 "/usr/local/Cellar/arm-none-eabi-gcc/20150921/arm-none-eabi/include/machine/_default_types
 558              		.file 3 "/usr/local/Cellar/arm-none-eabi-gcc/20150921/arm-none-eabi/include/sys/_stdint.h"
 559              		.file 4 "./Libraries/CMSIS/CM3/DeviceSupport/ST/STM32F10x/stm32f10x.h"
 560              		.file 5 "./Libraries/STM32F10x_StdPeriph_Driver/inc/stm32f10x_gpio.h"
 561              		.file 6 "./Libraries/STM32F10x_StdPeriph_Driver/inc/stm32f10x_i2c.h"
 562              		.file 7 "./FreeRTOS/Source/include/queue.h"
 563              		.file 8 "./FreeRTOS/Source/include/semphr.h"
 564              		.file 9 "./Libraries/CMSIS/CM3/CoreSupport/core_cm3.h"
 565              		.file 10 "./Libraries/STM32F10x_StdPeriph_Driver/inc/stm32f10x_rcc.h"
 566              		.section	.debug_info,"",%progbits
 567              	.Ldebug_info0:
 568 0000 D5090000 		.4byte	0x9d5
 569 0004 0200     		.2byte	0x2
 570 0006 00000000 		.4byte	.Ldebug_abbrev0
 571 000a 04       		.byte	0x4
 572 000b 01       		.uleb128 0x1
 573 000c 30000000 		.4byte	.LASF95
 574 0010 01       		.byte	0x1
 575 0011 29030000 		.4byte	.LASF96
 576 0015 B9040000 		.4byte	.LASF97
 577 0019 00000000 		.4byte	.Ltext0
 578 001d E8010000 		.4byte	.Letext0
 579 0021 00000000 		.4byte	.Ldebug_line0
 580 0025 02       		.uleb128 0x2
 581 0026 01       		.byte	0x1
 582 0027 06       		.byte	0x6
 583 0028 98010000 		.4byte	.LASF0
 584 002c 03       		.uleb128 0x3
ARM GAS  /var/folders/yt/6z6x8bjn5sjf5fbb45bk5m4c0000gn/T//ccYsuN66.s 			page 17


 585 002d F8010000 		.4byte	.LASF3
 586 0031 02       		.byte	0x2
 587 0032 1D       		.byte	0x1d
 588 0033 37000000 		.4byte	0x37
 589 0037 02       		.uleb128 0x2
 590 0038 01       		.byte	0x1
 591 0039 08       		.byte	0x8
 592 003a 72020000 		.4byte	.LASF1
 593 003e 02       		.uleb128 0x2
 594 003f 02       		.byte	0x2
 595 0040 05       		.byte	0x5
 596 0041 80020000 		.4byte	.LASF2
 597 0045 03       		.uleb128 0x3
 598 0046 2B010000 		.4byte	.LASF4
 599 004a 02       		.byte	0x2
 600 004b 2B       		.byte	0x2b
 601 004c 50000000 		.4byte	0x50
 602 0050 02       		.uleb128 0x2
 603 0051 02       		.byte	0x2
 604 0052 07       		.byte	0x7
 605 0053 16030000 		.4byte	.LASF5
 606 0057 02       		.uleb128 0x2
 607 0058 04       		.byte	0x4
 608 0059 05       		.byte	0x5
 609 005a D6010000 		.4byte	.LASF6
 610 005e 03       		.uleb128 0x3
 611 005f 18010000 		.4byte	.LASF7
 612 0063 02       		.byte	0x2
 613 0064 41       		.byte	0x41
 614 0065 69000000 		.4byte	0x69
 615 0069 02       		.uleb128 0x2
 616 006a 04       		.byte	0x4
 617 006b 07       		.byte	0x7
 618 006c EB020000 		.4byte	.LASF8
 619 0070 02       		.uleb128 0x2
 620 0071 08       		.byte	0x8
 621 0072 05       		.byte	0x5
 622 0073 BC010000 		.4byte	.LASF9
 623 0077 02       		.uleb128 0x2
 624 0078 08       		.byte	0x8
 625 0079 07       		.byte	0x7
 626 007a 9A020000 		.4byte	.LASF10
 627 007e 04       		.uleb128 0x4
 628 007f 04       		.byte	0x4
 629 0080 05       		.byte	0x5
 630 0081 696E7400 		.ascii	"int\000"
 631 0085 02       		.uleb128 0x2
 632 0086 04       		.byte	0x4
 633 0087 07       		.byte	0x7
 634 0088 CB020000 		.4byte	.LASF11
 635 008c 03       		.uleb128 0x3
 636 008d 65010000 		.4byte	.LASF12
 637 0091 03       		.byte	0x3
 638 0092 14       		.byte	0x14
 639 0093 2C000000 		.4byte	0x2c
 640 0097 03       		.uleb128 0x3
 641 0098 51030000 		.4byte	.LASF13
ARM GAS  /var/folders/yt/6z6x8bjn5sjf5fbb45bk5m4c0000gn/T//ccYsuN66.s 			page 18


 642 009c 03       		.byte	0x3
 643 009d 1A       		.byte	0x1a
 644 009e 45000000 		.4byte	0x45
 645 00a2 03       		.uleb128 0x3
 646 00a3 B1020000 		.4byte	.LASF14
 647 00a7 03       		.byte	0x3
 648 00a8 20       		.byte	0x20
 649 00a9 5E000000 		.4byte	0x5e
 650 00ad 02       		.uleb128 0x2
 651 00ae 04       		.byte	0x4
 652 00af 07       		.byte	0x7
 653 00b0 D3000000 		.4byte	.LASF15
 654 00b4 05       		.uleb128 0x5
 655 00b5 A2000000 		.4byte	0xa2
 656 00b9 05       		.uleb128 0x5
 657 00ba 97000000 		.4byte	0x97
 658 00be 06       		.uleb128 0x6
 659 00bf 8C000000 		.4byte	0x8c
 660 00c3 07       		.uleb128 0x7
 661 00c4 01       		.byte	0x1
 662 00c5 04       		.byte	0x4
 663 00c6 0702     		.2byte	0x207
 664 00c8 D9000000 		.4byte	0xd9
 665 00cc 08       		.uleb128 0x8
 666 00cd A5040000 		.4byte	.LASF16
 667 00d1 00       		.sleb128 0
 668 00d2 09       		.uleb128 0x9
 669 00d3 53455400 		.ascii	"SET\000"
 670 00d7 01       		.sleb128 1
 671 00d8 00       		.byte	0
 672 00d9 0A       		.uleb128 0xa
 673 00da 6A050000 		.4byte	.LASF17
 674 00de 04       		.byte	0x4
 675 00df 0702     		.2byte	0x207
 676 00e1 C3000000 		.4byte	0xc3
 677 00e5 07       		.uleb128 0x7
 678 00e6 01       		.byte	0x1
 679 00e7 04       		.byte	0x4
 680 00e8 0902     		.2byte	0x209
 681 00ea FB000000 		.4byte	0xfb
 682 00ee 08       		.uleb128 0x8
 683 00ef 90010000 		.4byte	.LASF18
 684 00f3 00       		.sleb128 0
 685 00f4 08       		.uleb128 0x8
 686 00f5 CA010000 		.4byte	.LASF19
 687 00f9 01       		.sleb128 1
 688 00fa 00       		.byte	0
 689 00fb 0A       		.uleb128 0xa
 690 00fc 4B040000 		.4byte	.LASF20
 691 0100 04       		.byte	0x4
 692 0101 0902     		.2byte	0x209
 693 0103 E5000000 		.4byte	0xe5
 694 0107 07       		.uleb128 0x7
 695 0108 01       		.byte	0x1
 696 0109 04       		.byte	0x4
 697 010a 0C02     		.2byte	0x20c
 698 010c 1D010000 		.4byte	0x11d
ARM GAS  /var/folders/yt/6z6x8bjn5sjf5fbb45bk5m4c0000gn/T//ccYsuN66.s 			page 19


 699 0110 08       		.uleb128 0x8
 700 0111 EA040000 		.4byte	.LASF21
 701 0115 00       		.sleb128 0
 702 0116 08       		.uleb128 0x8
 703 0117 0E030000 		.4byte	.LASF22
 704 011b 01       		.sleb128 1
 705 011c 00       		.byte	0
 706 011d 0A       		.uleb128 0xa
 707 011e DF010000 		.4byte	.LASF23
 708 0122 04       		.byte	0x4
 709 0123 0C02     		.2byte	0x20c
 710 0125 07010000 		.4byte	0x107
 711 0129 0B       		.uleb128 0xb
 712 012a 1C       		.byte	0x1c
 713 012b 04       		.byte	0x4
 714 012c E903     		.2byte	0x3e9
 715 012e 9C010000 		.4byte	0x19c
 716 0132 0C       		.uleb128 0xc
 717 0133 43524C00 		.ascii	"CRL\000"
 718 0137 04       		.byte	0x4
 719 0138 EB03     		.2byte	0x3eb
 720 013a B4000000 		.4byte	0xb4
 721 013e 02       		.byte	0x2
 722 013f 23       		.byte	0x23
 723 0140 00       		.uleb128 0
 724 0141 0C       		.uleb128 0xc
 725 0142 43524800 		.ascii	"CRH\000"
 726 0146 04       		.byte	0x4
 727 0147 EC03     		.2byte	0x3ec
 728 0149 B4000000 		.4byte	0xb4
 729 014d 02       		.byte	0x2
 730 014e 23       		.byte	0x23
 731 014f 04       		.uleb128 0x4
 732 0150 0C       		.uleb128 0xc
 733 0151 49445200 		.ascii	"IDR\000"
 734 0155 04       		.byte	0x4
 735 0156 ED03     		.2byte	0x3ed
 736 0158 B4000000 		.4byte	0xb4
 737 015c 02       		.byte	0x2
 738 015d 23       		.byte	0x23
 739 015e 08       		.uleb128 0x8
 740 015f 0C       		.uleb128 0xc
 741 0160 4F445200 		.ascii	"ODR\000"
 742 0164 04       		.byte	0x4
 743 0165 EE03     		.2byte	0x3ee
 744 0167 B4000000 		.4byte	0xb4
 745 016b 02       		.byte	0x2
 746 016c 23       		.byte	0x23
 747 016d 0C       		.uleb128 0xc
 748 016e 0D       		.uleb128 0xd
 749 016f EB010000 		.4byte	.LASF24
 750 0173 04       		.byte	0x4
 751 0174 EF03     		.2byte	0x3ef
 752 0176 B4000000 		.4byte	0xb4
 753 017a 02       		.byte	0x2
 754 017b 23       		.byte	0x23
 755 017c 10       		.uleb128 0x10
ARM GAS  /var/folders/yt/6z6x8bjn5sjf5fbb45bk5m4c0000gn/T//ccYsuN66.s 			page 20


 756 017d 0C       		.uleb128 0xc
 757 017e 42525200 		.ascii	"BRR\000"
 758 0182 04       		.byte	0x4
 759 0183 F003     		.2byte	0x3f0
 760 0185 B4000000 		.4byte	0xb4
 761 0189 02       		.byte	0x2
 762 018a 23       		.byte	0x23
 763 018b 14       		.uleb128 0x14
 764 018c 0D       		.uleb128 0xd
 765 018d 65050000 		.4byte	.LASF25
 766 0191 04       		.byte	0x4
 767 0192 F103     		.2byte	0x3f1
 768 0194 B4000000 		.4byte	0xb4
 769 0198 02       		.byte	0x2
 770 0199 23       		.byte	0x23
 771 019a 18       		.uleb128 0x18
 772 019b 00       		.byte	0
 773 019c 0A       		.uleb128 0xa
 774 019d 01050000 		.4byte	.LASF26
 775 01a1 04       		.byte	0x4
 776 01a2 F203     		.2byte	0x3f2
 777 01a4 29010000 		.4byte	0x129
 778 01a8 0B       		.uleb128 0xb
 779 01a9 24       		.byte	0x24
 780 01aa 04       		.byte	0x4
 781 01ab 0404     		.2byte	0x404
 782 01ad BF020000 		.4byte	0x2bf
 783 01b1 0C       		.uleb128 0xc
 784 01b2 43523100 		.ascii	"CR1\000"
 785 01b6 04       		.byte	0x4
 786 01b7 0604     		.2byte	0x406
 787 01b9 B9000000 		.4byte	0xb9
 788 01bd 02       		.byte	0x2
 789 01be 23       		.byte	0x23
 790 01bf 00       		.uleb128 0
 791 01c0 0D       		.uleb128 0xd
 792 01c1 DB030000 		.4byte	.LASF27
 793 01c5 04       		.byte	0x4
 794 01c6 0704     		.2byte	0x407
 795 01c8 97000000 		.4byte	0x97
 796 01cc 02       		.byte	0x2
 797 01cd 23       		.byte	0x23
 798 01ce 02       		.uleb128 0x2
 799 01cf 0C       		.uleb128 0xc
 800 01d0 43523200 		.ascii	"CR2\000"
 801 01d4 04       		.byte	0x4
 802 01d5 0804     		.2byte	0x408
 803 01d7 B9000000 		.4byte	0xb9
 804 01db 02       		.byte	0x2
 805 01dc 23       		.byte	0x23
 806 01dd 04       		.uleb128 0x4
 807 01de 0D       		.uleb128 0xd
 808 01df 46010000 		.4byte	.LASF28
 809 01e3 04       		.byte	0x4
 810 01e4 0904     		.2byte	0x409
 811 01e6 97000000 		.4byte	0x97
 812 01ea 02       		.byte	0x2
ARM GAS  /var/folders/yt/6z6x8bjn5sjf5fbb45bk5m4c0000gn/T//ccYsuN66.s 			page 21


 813 01eb 23       		.byte	0x23
 814 01ec 06       		.uleb128 0x6
 815 01ed 0D       		.uleb128 0xd
 816 01ee 10000000 		.4byte	.LASF29
 817 01f2 04       		.byte	0x4
 818 01f3 0A04     		.2byte	0x40a
 819 01f5 B9000000 		.4byte	0xb9
 820 01f9 02       		.byte	0x2
 821 01fa 23       		.byte	0x23
 822 01fb 08       		.uleb128 0x8
 823 01fc 0D       		.uleb128 0xd
 824 01fd F3030000 		.4byte	.LASF30
 825 0201 04       		.byte	0x4
 826 0202 0B04     		.2byte	0x40b
 827 0204 97000000 		.4byte	0x97
 828 0208 02       		.byte	0x2
 829 0209 23       		.byte	0x23
 830 020a 0A       		.uleb128 0xa
 831 020b 0D       		.uleb128 0xd
 832 020c D1010000 		.4byte	.LASF31
 833 0210 04       		.byte	0x4
 834 0211 0C04     		.2byte	0x40c
 835 0213 B9000000 		.4byte	0xb9
 836 0217 02       		.byte	0x2
 837 0218 23       		.byte	0x23
 838 0219 0C       		.uleb128 0xc
 839 021a 0D       		.uleb128 0xd
 840 021b FD030000 		.4byte	.LASF32
 841 021f 04       		.byte	0x4
 842 0220 0D04     		.2byte	0x40d
 843 0222 97000000 		.4byte	0x97
 844 0226 02       		.byte	0x2
 845 0227 23       		.byte	0x23
 846 0228 0E       		.uleb128 0xe
 847 0229 0C       		.uleb128 0xc
 848 022a 445200   		.ascii	"DR\000"
 849 022d 04       		.byte	0x4
 850 022e 0E04     		.2byte	0x40e
 851 0230 B9000000 		.4byte	0xb9
 852 0234 02       		.byte	0x2
 853 0235 23       		.byte	0x23
 854 0236 10       		.uleb128 0x10
 855 0237 0D       		.uleb128 0xd
 856 0238 07040000 		.4byte	.LASF33
 857 023c 04       		.byte	0x4
 858 023d 0F04     		.2byte	0x40f
 859 023f 97000000 		.4byte	0x97
 860 0243 02       		.byte	0x2
 861 0244 23       		.byte	0x23
 862 0245 12       		.uleb128 0x12
 863 0246 0C       		.uleb128 0xc
 864 0247 53523100 		.ascii	"SR1\000"
 865 024b 04       		.byte	0x4
 866 024c 1004     		.2byte	0x410
 867 024e B9000000 		.4byte	0xb9
 868 0252 02       		.byte	0x2
 869 0253 23       		.byte	0x23
ARM GAS  /var/folders/yt/6z6x8bjn5sjf5fbb45bk5m4c0000gn/T//ccYsuN66.s 			page 22


 870 0254 14       		.uleb128 0x14
 871 0255 0D       		.uleb128 0xd
 872 0256 11040000 		.4byte	.LASF34
 873 025a 04       		.byte	0x4
 874 025b 1104     		.2byte	0x411
 875 025d 97000000 		.4byte	0x97
 876 0261 02       		.byte	0x2
 877 0262 23       		.byte	0x23
 878 0263 16       		.uleb128 0x16
 879 0264 0C       		.uleb128 0xc
 880 0265 53523200 		.ascii	"SR2\000"
 881 0269 04       		.byte	0x4
 882 026a 1204     		.2byte	0x412
 883 026c B9000000 		.4byte	0xb9
 884 0270 02       		.byte	0x2
 885 0271 23       		.byte	0x23
 886 0272 18       		.uleb128 0x18
 887 0273 0D       		.uleb128 0xd
 888 0274 1B040000 		.4byte	.LASF35
 889 0278 04       		.byte	0x4
 890 0279 1304     		.2byte	0x413
 891 027b 97000000 		.4byte	0x97
 892 027f 02       		.byte	0x2
 893 0280 23       		.byte	0x23
 894 0281 1A       		.uleb128 0x1a
 895 0282 0C       		.uleb128 0xc
 896 0283 43435200 		.ascii	"CCR\000"
 897 0287 04       		.byte	0x4
 898 0288 1404     		.2byte	0x414
 899 028a B9000000 		.4byte	0xb9
 900 028e 02       		.byte	0x2
 901 028f 23       		.byte	0x23
 902 0290 1C       		.uleb128 0x1c
 903 0291 0D       		.uleb128 0xd
 904 0292 25040000 		.4byte	.LASF36
 905 0296 04       		.byte	0x4
 906 0297 1504     		.2byte	0x415
 907 0299 97000000 		.4byte	0x97
 908 029d 02       		.byte	0x2
 909 029e 23       		.byte	0x23
 910 029f 1E       		.uleb128 0x1e
 911 02a0 0D       		.uleb128 0xd
 912 02a1 0E050000 		.4byte	.LASF37
 913 02a5 04       		.byte	0x4
 914 02a6 1604     		.2byte	0x416
 915 02a8 B9000000 		.4byte	0xb9
 916 02ac 02       		.byte	0x2
 917 02ad 23       		.byte	0x23
 918 02ae 20       		.uleb128 0x20
 919 02af 0D       		.uleb128 0xd
 920 02b0 2F040000 		.4byte	.LASF38
 921 02b4 04       		.byte	0x4
 922 02b5 1704     		.2byte	0x417
 923 02b7 97000000 		.4byte	0x97
 924 02bb 02       		.byte	0x2
 925 02bc 23       		.byte	0x23
 926 02bd 22       		.uleb128 0x22
ARM GAS  /var/folders/yt/6z6x8bjn5sjf5fbb45bk5m4c0000gn/T//ccYsuN66.s 			page 23


 927 02be 00       		.byte	0
 928 02bf 0A       		.uleb128 0xa
 929 02c0 45050000 		.4byte	.LASF39
 930 02c4 04       		.byte	0x4
 931 02c5 1804     		.2byte	0x418
 932 02c7 A8010000 		.4byte	0x1a8
 933 02cb 0E       		.uleb128 0xe
 934 02cc 01       		.byte	0x1
 935 02cd 05       		.byte	0x5
 936 02ce 3B       		.byte	0x3b
 937 02cf E6020000 		.4byte	0x2e6
 938 02d3 08       		.uleb128 0x8
 939 02d4 28020000 		.4byte	.LASF40
 940 02d8 01       		.sleb128 1
 941 02d9 08       		.uleb128 0x8
 942 02da 8A020000 		.4byte	.LASF41
 943 02de 02       		.sleb128 2
 944 02df 08       		.uleb128 0x8
 945 02e0 94040000 		.4byte	.LASF42
 946 02e4 03       		.sleb128 3
 947 02e5 00       		.byte	0
 948 02e6 03       		.uleb128 0x3
 949 02e7 39040000 		.4byte	.LASF43
 950 02eb 05       		.byte	0x5
 951 02ec 3F       		.byte	0x3f
 952 02ed CB020000 		.4byte	0x2cb
 953 02f1 0E       		.uleb128 0xe
 954 02f2 01       		.byte	0x1
 955 02f3 05       		.byte	0x5
 956 02f4 48       		.byte	0x48
 957 02f5 2B030000 		.4byte	0x32b
 958 02f9 08       		.uleb128 0x8
 959 02fa E5030000 		.4byte	.LASF44
 960 02fe 00       		.sleb128 0
 961 02ff 08       		.uleb128 0x8
 962 0300 5A030000 		.4byte	.LASF45
 963 0304 04       		.sleb128 4
 964 0305 08       		.uleb128 0x8
 965 0306 AB040000 		.4byte	.LASF46
 966 030a 28       		.sleb128 40
 967 030b 08       		.uleb128 0x8
 968 030c AE030000 		.4byte	.LASF47
 969 0310 C800     		.sleb128 72
 970 0312 08       		.uleb128 0x8
 971 0313 7F010000 		.4byte	.LASF48
 972 0317 14       		.sleb128 20
 973 0318 08       		.uleb128 0x8
 974 0319 5B040000 		.4byte	.LASF49
 975 031d 10       		.sleb128 16
 976 031e 08       		.uleb128 0x8
 977 031f 8C050000 		.4byte	.LASF50
 978 0323 1C       		.sleb128 28
 979 0324 08       		.uleb128 0x8
 980 0325 A4010000 		.4byte	.LASF51
 981 0329 18       		.sleb128 24
 982 032a 00       		.byte	0
 983 032b 03       		.uleb128 0x3
ARM GAS  /var/folders/yt/6z6x8bjn5sjf5fbb45bk5m4c0000gn/T//ccYsuN66.s 			page 24


 984 032c F0040000 		.4byte	.LASF52
 985 0330 05       		.byte	0x5
 986 0331 50       		.byte	0x50
 987 0332 F1020000 		.4byte	0x2f1
 988 0336 0F       		.uleb128 0xf
 989 0337 04       		.byte	0x4
 990 0338 05       		.byte	0x5
 991 0339 5B       		.byte	0x5b
 992 033a 69030000 		.4byte	0x369
 993 033e 10       		.uleb128 0x10
 994 033f 15000000 		.4byte	.LASF53
 995 0343 05       		.byte	0x5
 996 0344 5D       		.byte	0x5d
 997 0345 97000000 		.4byte	0x97
 998 0349 02       		.byte	0x2
 999 034a 23       		.byte	0x23
 1000 034b 00       		.uleb128 0
 1001 034c 10       		.uleb128 0x10
 1002 034d 50010000 		.4byte	.LASF54
 1003 0351 05       		.byte	0x5
 1004 0352 60       		.byte	0x60
 1005 0353 E6020000 		.4byte	0x2e6
 1006 0357 02       		.byte	0x2
 1007 0358 23       		.byte	0x23
 1008 0359 02       		.uleb128 0x2
 1009 035a 10       		.uleb128 0x10
 1010 035b 9C050000 		.4byte	.LASF55
 1011 035f 05       		.byte	0x5
 1012 0360 63       		.byte	0x63
 1013 0361 2B030000 		.4byte	0x32b
 1014 0365 02       		.byte	0x2
 1015 0366 23       		.byte	0x23
 1016 0367 03       		.uleb128 0x3
 1017 0368 00       		.byte	0
 1018 0369 03       		.uleb128 0x3
 1019 036a BA020000 		.4byte	.LASF56
 1020 036e 05       		.byte	0x5
 1021 036f 65       		.byte	0x65
 1022 0370 36030000 		.4byte	0x336
 1023 0374 0F       		.uleb128 0xf
 1024 0375 10       		.byte	0x10
 1025 0376 06       		.byte	0x6
 1026 0377 32       		.byte	0x32
 1027 0378 D1030000 		.4byte	0x3d1
 1028 037c 10       		.uleb128 0x10
 1029 037d 7E030000 		.4byte	.LASF57
 1030 0381 06       		.byte	0x6
 1031 0382 34       		.byte	0x34
 1032 0383 A2000000 		.4byte	0xa2
 1033 0387 02       		.byte	0x2
 1034 0388 23       		.byte	0x23
 1035 0389 00       		.uleb128 0
 1036 038a 10       		.uleb128 0x10
 1037 038b 1F020000 		.4byte	.LASF58
 1038 038f 06       		.byte	0x6
 1039 0390 37       		.byte	0x37
 1040 0391 97000000 		.4byte	0x97
ARM GAS  /var/folders/yt/6z6x8bjn5sjf5fbb45bk5m4c0000gn/T//ccYsuN66.s 			page 25


 1041 0395 02       		.byte	0x2
 1042 0396 23       		.byte	0x23
 1043 0397 04       		.uleb128 0x4
 1044 0398 10       		.uleb128 0x10
 1045 0399 14050000 		.4byte	.LASF59
 1046 039d 06       		.byte	0x6
 1047 039e 3A       		.byte	0x3a
 1048 039f 97000000 		.4byte	0x97
 1049 03a3 02       		.byte	0x2
 1050 03a4 23       		.byte	0x23
 1051 03a5 06       		.uleb128 0x6
 1052 03a6 10       		.uleb128 0x10
 1053 03a7 00000000 		.4byte	.LASF60
 1054 03ab 06       		.byte	0x6
 1055 03ac 3D       		.byte	0x3d
 1056 03ad 97000000 		.4byte	0x97
 1057 03b1 02       		.byte	0x2
 1058 03b2 23       		.byte	0x23
 1059 03b3 08       		.uleb128 0x8
 1060 03b4 10       		.uleb128 0x10
 1061 03b5 BC030000 		.4byte	.LASF61
 1062 03b9 06       		.byte	0x6
 1063 03ba 40       		.byte	0x40
 1064 03bb 97000000 		.4byte	0x97
 1065 03bf 02       		.byte	0x2
 1066 03c0 23       		.byte	0x23
 1067 03c1 0A       		.uleb128 0xa
 1068 03c2 10       		.uleb128 0x10
 1069 03c3 ED000000 		.4byte	.LASF62
 1070 03c7 06       		.byte	0x6
 1071 03c8 43       		.byte	0x43
 1072 03c9 97000000 		.4byte	0x97
 1073 03cd 02       		.byte	0x2
 1074 03ce 23       		.byte	0x23
 1075 03cf 0C       		.uleb128 0xc
 1076 03d0 00       		.byte	0
 1077 03d1 03       		.uleb128 0x3
 1078 03d2 36010000 		.4byte	.LASF63
 1079 03d6 06       		.byte	0x6
 1080 03d7 45       		.byte	0x45
 1081 03d8 74030000 		.4byte	0x374
 1082 03dc 11       		.uleb128 0x11
 1083 03dd 04       		.byte	0x4
 1084 03de 12       		.uleb128 0x12
 1085 03df 04       		.byte	0x4
 1086 03e0 8C000000 		.4byte	0x8c
 1087 03e4 03       		.uleb128 0x3
 1088 03e5 02020000 		.4byte	.LASF64
 1089 03e9 07       		.byte	0x7
 1090 03ea 58       		.byte	0x58
 1091 03eb DC030000 		.4byte	0x3dc
 1092 03ef 03       		.uleb128 0x3
 1093 03f0 50020000 		.4byte	.LASF65
 1094 03f4 08       		.byte	0x8
 1095 03f5 4F       		.byte	0x4f
 1096 03f6 E4030000 		.4byte	0x3e4
 1097 03fa 02       		.uleb128 0x2
ARM GAS  /var/folders/yt/6z6x8bjn5sjf5fbb45bk5m4c0000gn/T//ccYsuN66.s 			page 26


 1098 03fb 01       		.byte	0x1
 1099 03fc 08       		.byte	0x8
 1100 03fd 4C030000 		.4byte	.LASF66
 1101 0401 13       		.uleb128 0x13
 1102 0402 01       		.byte	0x1
 1103 0403 75050000 		.4byte	.LASF89
 1104 0407 01       		.byte	0x1
 1105 0408 74       		.byte	0x74
 1106 0409 01       		.byte	0x1
 1107 040a 1D010000 		.4byte	0x11d
 1108 040e 01       		.byte	0x1
 1109 040f 2A040000 		.4byte	0x42a
 1110 0413 14       		.uleb128 0x14
 1111 0414 23010000 		.4byte	.LASF75
 1112 0418 01       		.byte	0x1
 1113 0419 74       		.byte	0x74
 1114 041a 8C000000 		.4byte	0x8c
 1115 041e 15       		.uleb128 0x15
 1116 041f B4010000 		.4byte	.LASF71
 1117 0423 01       		.byte	0x1
 1118 0424 7B       		.byte	0x7b
 1119 0425 7E000000 		.4byte	0x7e
 1120 0429 00       		.byte	0
 1121 042a 16       		.uleb128 0x16
 1122 042b 01       		.byte	0x1
 1123 042c 15020000 		.4byte	.LASF69
 1124 0430 01       		.byte	0x1
 1125 0431 35       		.byte	0x35
 1126 0432 01       		.byte	0x1
 1127 0433 00000000 		.4byte	.LFB34
 1128 0437 80000000 		.4byte	.LFE34
 1129 043b 00000000 		.4byte	.LLST0
 1130 043f 01       		.byte	0x1
 1131 0440 F3040000 		.4byte	0x4f3
 1132 0444 17       		.uleb128 0x17
 1133 0445 81040000 		.4byte	.LASF67
 1134 0449 01       		.byte	0x1
 1135 044a 43       		.byte	0x43
 1136 044b 69030000 		.4byte	0x369
 1137 044f 02       		.byte	0x2
 1138 0450 91       		.byte	0x91
 1139 0451 64       		.sleb128 -28
 1140 0452 17       		.uleb128 0x17
 1141 0453 6D010000 		.4byte	.LASF68
 1142 0457 01       		.byte	0x1
 1143 0458 5E       		.byte	0x5e
 1144 0459 D1030000 		.4byte	0x3d1
 1145 045d 02       		.byte	0x2
 1146 045e 91       		.byte	0x91
 1147 045f 68       		.sleb128 -24
 1148 0460 18       		.uleb128 0x18
 1149 0461 0E000000 		.4byte	.LVL0
 1150 0465 6B080000 		.4byte	0x86b
 1151 0469 7A040000 		.4byte	0x47a
 1152 046d 19       		.uleb128 0x19
 1153 046e 01       		.byte	0x1
 1154 046f 51       		.byte	0x51
ARM GAS  /var/folders/yt/6z6x8bjn5sjf5fbb45bk5m4c0000gn/T//ccYsuN66.s 			page 27


 1155 0470 01       		.byte	0x1
 1156 0471 31       		.byte	0x31
 1157 0472 19       		.uleb128 0x19
 1158 0473 01       		.byte	0x1
 1159 0474 50       		.byte	0x50
 1160 0475 03       		.byte	0x3
 1161 0476 40       		.byte	0x40
 1162 0477 41       		.byte	0x41
 1163 0478 24       		.byte	0x24
 1164 0479 00       		.byte	0
 1165 047a 18       		.uleb128 0x18
 1166 047b 16000000 		.4byte	.LVL1
 1167 047f 85080000 		.4byte	0x885
 1168 0483 92040000 		.4byte	0x492
 1169 0487 19       		.uleb128 0x19
 1170 0488 01       		.byte	0x1
 1171 0489 51       		.byte	0x51
 1172 048a 01       		.byte	0x1
 1173 048b 31       		.byte	0x31
 1174 048c 19       		.uleb128 0x19
 1175 048d 01       		.byte	0x1
 1176 048e 50       		.byte	0x50
 1177 048f 01       		.byte	0x1
 1178 0490 38       		.byte	0x38
 1179 0491 00       		.byte	0
 1180 0492 18       		.uleb128 0x18
 1181 0493 32000000 		.4byte	.LVL2
 1182 0497 9F080000 		.4byte	0x89f
 1183 049b AF040000 		.4byte	0x4af
 1184 049f 19       		.uleb128 0x19
 1185 04a0 01       		.byte	0x1
 1186 04a1 51       		.byte	0x51
 1187 04a2 02       		.byte	0x2
 1188 04a3 91       		.byte	0x91
 1189 04a4 64       		.sleb128 -28
 1190 04a5 19       		.uleb128 0x19
 1191 04a6 01       		.byte	0x1
 1192 04a7 50       		.byte	0x50
 1193 04a8 05       		.byte	0x5
 1194 04a9 0C       		.byte	0xc
 1195 04aa 000C0140 		.4byte	0x40010c00
 1196 04ae 00       		.byte	0
 1197 04af 18       		.uleb128 0x18
 1198 04b0 38000000 		.4byte	.LVL3
 1199 04b4 C5080000 		.4byte	0x8c5
 1200 04b8 C3040000 		.4byte	0x4c3
 1201 04bc 19       		.uleb128 0x19
 1202 04bd 01       		.byte	0x1
 1203 04be 50       		.byte	0x50
 1204 04bf 02       		.byte	0x2
 1205 04c0 74       		.byte	0x74
 1206 04c1 00       		.sleb128 0
 1207 04c2 00       		.byte	0
 1208 04c3 18       		.uleb128 0x18
 1209 04c4 40000000 		.4byte	.LVL4
 1210 04c8 E0080000 		.4byte	0x8e0
 1211 04cc DC040000 		.4byte	0x4dc
ARM GAS  /var/folders/yt/6z6x8bjn5sjf5fbb45bk5m4c0000gn/T//ccYsuN66.s 			page 28


 1212 04d0 19       		.uleb128 0x19
 1213 04d1 01       		.byte	0x1
 1214 04d2 51       		.byte	0x51
 1215 04d3 01       		.byte	0x1
 1216 04d4 31       		.byte	0x31
 1217 04d5 19       		.uleb128 0x19
 1218 04d6 01       		.byte	0x1
 1219 04d7 50       		.byte	0x50
 1220 04d8 02       		.byte	0x2
 1221 04d9 74       		.byte	0x74
 1222 04da 00       		.sleb128 0
 1223 04db 00       		.byte	0
 1224 04dc 1A       		.uleb128 0x1a
 1225 04dd 70000000 		.4byte	.LVL5
 1226 04e1 FA080000 		.4byte	0x8fa
 1227 04e5 19       		.uleb128 0x19
 1228 04e6 01       		.byte	0x1
 1229 04e7 51       		.byte	0x51
 1230 04e8 02       		.byte	0x2
 1231 04e9 91       		.byte	0x91
 1232 04ea 68       		.sleb128 -24
 1233 04eb 19       		.uleb128 0x19
 1234 04ec 01       		.byte	0x1
 1235 04ed 50       		.byte	0x50
 1236 04ee 02       		.byte	0x2
 1237 04ef 74       		.byte	0x74
 1238 04f0 00       		.sleb128 0
 1239 04f1 00       		.byte	0
 1240 04f2 00       		.byte	0
 1241 04f3 1B       		.uleb128 0x1b
 1242 04f4 01040000 		.4byte	0x401
 1243 04f8 80000000 		.4byte	.LFB35
 1244 04fc E0000000 		.4byte	.LFE35
 1245 0500 38000000 		.4byte	.LLST1
 1246 0504 01       		.byte	0x1
 1247 0505 D5050000 		.4byte	0x5d5
 1248 0509 1C       		.uleb128 0x1c
 1249 050a 13040000 		.4byte	0x413
 1250 050e 58000000 		.4byte	.LLST2
 1251 0512 1D       		.uleb128 0x1d
 1252 0513 1E040000 		.4byte	0x41e
 1253 0517 79000000 		.4byte	.LLST3
 1254 051b 1E       		.uleb128 0x1e
 1255 051c C0000000 		.4byte	.LBB4
 1256 0520 CA000000 		.4byte	.LBE4
 1257 0524 55050000 		.4byte	0x555
 1258 0528 1F       		.uleb128 0x1f
 1259 0529 13040000 		.4byte	0x413
 1260 052d 20       		.uleb128 0x20
 1261 052e C0000000 		.4byte	.LBB5
 1262 0532 CA000000 		.4byte	.LBE5
 1263 0536 21       		.uleb128 0x21
 1264 0537 1E040000 		.4byte	0x41e
 1265 053b 1A       		.uleb128 0x1a
 1266 053c C8000000 		.4byte	.LVL19
 1267 0540 1A090000 		.4byte	0x91a
 1268 0544 19       		.uleb128 0x19
ARM GAS  /var/folders/yt/6z6x8bjn5sjf5fbb45bk5m4c0000gn/T//ccYsuN66.s 			page 29


 1269 0545 01       		.byte	0x1
 1270 0546 51       		.byte	0x51
 1271 0547 01       		.byte	0x1
 1272 0548 31       		.byte	0x31
 1273 0549 19       		.uleb128 0x19
 1274 054a 01       		.byte	0x1
 1275 054b 50       		.byte	0x50
 1276 054c 05       		.byte	0x5
 1277 054d 0C       		.byte	0xc
 1278 054e 00540040 		.4byte	0x40005400
 1279 0552 00       		.byte	0
 1280 0553 00       		.byte	0
 1281 0554 00       		.byte	0
 1282 0555 18       		.uleb128 0x18
 1283 0556 8C000000 		.4byte	.LVL8
 1284 055a 34090000 		.4byte	0x934
 1285 055e 71050000 		.4byte	0x571
 1286 0562 19       		.uleb128 0x19
 1287 0563 01       		.byte	0x1
 1288 0564 51       		.byte	0x51
 1289 0565 01       		.byte	0x1
 1290 0566 31       		.byte	0x31
 1291 0567 19       		.uleb128 0x19
 1292 0568 01       		.byte	0x1
 1293 0569 50       		.byte	0x50
 1294 056a 05       		.byte	0x5
 1295 056b 0C       		.byte	0xc
 1296 056c 00540040 		.4byte	0x40005400
 1297 0570 00       		.byte	0
 1298 0571 18       		.uleb128 0x18
 1299 0572 96000000 		.4byte	.LVL10
 1300 0576 4E090000 		.4byte	0x94e
 1301 057a 91050000 		.4byte	0x591
 1302 057e 19       		.uleb128 0x19
 1303 057f 01       		.byte	0x1
 1304 0580 51       		.byte	0x51
 1305 0581 05       		.byte	0x5
 1306 0582 0C       		.byte	0xc
 1307 0583 01000300 		.4byte	0x30001
 1308 0587 19       		.uleb128 0x19
 1309 0588 01       		.byte	0x1
 1310 0589 50       		.byte	0x50
 1311 058a 05       		.byte	0x5
 1312 058b 0C       		.byte	0xc
 1313 058c 00540040 		.4byte	0x40005400
 1314 0590 00       		.byte	0
 1315 0591 18       		.uleb128 0x18
 1316 0592 AE000000 		.4byte	.LVL13
 1317 0596 6C090000 		.4byte	0x96c
 1318 059a B8050000 		.4byte	0x5b8
 1319 059e 19       		.uleb128 0x19
 1320 059f 01       		.byte	0x1
 1321 05a0 52       		.byte	0x52
 1322 05a1 01       		.byte	0x1
 1323 05a2 30       		.byte	0x30
 1324 05a3 19       		.uleb128 0x19
 1325 05a4 01       		.byte	0x1
ARM GAS  /var/folders/yt/6z6x8bjn5sjf5fbb45bk5m4c0000gn/T//ccYsuN66.s 			page 30


 1326 05a5 51       		.byte	0x51
 1327 05a6 07       		.byte	0x7
 1328 05a7 75       		.byte	0x75
 1329 05a8 00       		.sleb128 0
 1330 05a9 31       		.byte	0x31
 1331 05aa 24       		.byte	0x24
 1332 05ab 08       		.byte	0x8
 1333 05ac FE       		.byte	0xfe
 1334 05ad 1A       		.byte	0x1a
 1335 05ae 19       		.uleb128 0x19
 1336 05af 01       		.byte	0x1
 1337 05b0 50       		.byte	0x50
 1338 05b1 05       		.byte	0x5
 1339 05b2 0C       		.byte	0xc
 1340 05b3 00540040 		.4byte	0x40005400
 1341 05b7 00       		.byte	0
 1342 05b8 1A       		.uleb128 0x1a
 1343 05b9 B8000000 		.4byte	.LVL15
 1344 05bd 4E090000 		.4byte	0x94e
 1345 05c1 19       		.uleb128 0x19
 1346 05c2 01       		.byte	0x1
 1347 05c3 51       		.byte	0x51
 1348 05c4 05       		.byte	0x5
 1349 05c5 0C       		.byte	0xc
 1350 05c6 82000700 		.4byte	0x70082
 1351 05ca 19       		.uleb128 0x19
 1352 05cb 01       		.byte	0x1
 1353 05cc 50       		.byte	0x50
 1354 05cd 05       		.byte	0x5
 1355 05ce 0C       		.byte	0xc
 1356 05cf 00540040 		.4byte	0x40005400
 1357 05d3 00       		.byte	0
 1358 05d4 00       		.byte	0
 1359 05d5 22       		.uleb128 0x22
 1360 05d6 01       		.byte	0x1
 1361 05d7 6C040000 		.4byte	.LASF70
 1362 05db 01       		.byte	0x1
 1363 05dc A4       		.byte	0xa4
 1364 05dd 01       		.byte	0x1
 1365 05de E0000000 		.4byte	.LFB36
 1366 05e2 EC000000 		.4byte	.LFE36
 1367 05e6 02       		.byte	0x2
 1368 05e7 7D       		.byte	0x7d
 1369 05e8 00       		.sleb128 0
 1370 05e9 01       		.byte	0x1
 1371 05ea 08060000 		.4byte	0x608
 1372 05ee 23       		.uleb128 0x23
 1373 05ef E8000000 		.4byte	.LVL21
 1374 05f3 01       		.byte	0x1
 1375 05f4 1A090000 		.4byte	0x91a
 1376 05f8 19       		.uleb128 0x19
 1377 05f9 01       		.byte	0x1
 1378 05fa 51       		.byte	0x51
 1379 05fb 01       		.byte	0x1
 1380 05fc 31       		.byte	0x31
 1381 05fd 19       		.uleb128 0x19
 1382 05fe 01       		.byte	0x1
ARM GAS  /var/folders/yt/6z6x8bjn5sjf5fbb45bk5m4c0000gn/T//ccYsuN66.s 			page 31


 1383 05ff 50       		.byte	0x50
 1384 0600 05       		.byte	0x5
 1385 0601 0C       		.byte	0xc
 1386 0602 00540040 		.4byte	0x40005400
 1387 0606 00       		.byte	0
 1388 0607 00       		.byte	0
 1389 0608 24       		.uleb128 0x24
 1390 0609 01       		.byte	0x1
 1391 060a C8000000 		.4byte	.LASF72
 1392 060e 01       		.byte	0x1
 1393 060f B0       		.byte	0xb0
 1394 0610 01       		.byte	0x1
 1395 0611 1D010000 		.4byte	0x11d
 1396 0615 EC000000 		.4byte	.LFB37
 1397 0619 24010000 		.4byte	.LFE37
 1398 061d E7000000 		.4byte	.LLST4
 1399 0621 01       		.byte	0x1
 1400 0622 94060000 		.4byte	0x694
 1401 0626 25       		.uleb128 0x25
 1402 0627 10020000 		.4byte	.LASF74
 1403 062b 01       		.byte	0x1
 1404 062c B0       		.byte	0xb0
 1405 062d 8C000000 		.4byte	0x8c
 1406 0631 07010000 		.4byte	.LLST5
 1407 0635 26       		.uleb128 0x26
 1408 0636 B4010000 		.4byte	.LASF71
 1409 063a 01       		.byte	0x1
 1410 063b B8       		.byte	0xb8
 1411 063c 7E000000 		.4byte	0x7e
 1412 0640 28010000 		.4byte	.LLST6
 1413 0644 18       		.uleb128 0x18
 1414 0645 F6000000 		.4byte	.LVL24
 1415 0649 8B090000 		.4byte	0x98b
 1416 064d 5B060000 		.4byte	0x65b
 1417 0651 19       		.uleb128 0x19
 1418 0652 01       		.byte	0x1
 1419 0653 50       		.byte	0x50
 1420 0654 05       		.byte	0x5
 1421 0655 0C       		.byte	0xc
 1422 0656 00540040 		.4byte	0x40005400
 1423 065a 00       		.byte	0
 1424 065b 18       		.uleb128 0x18
 1425 065c 00010000 		.4byte	.LVL26
 1426 0660 4E090000 		.4byte	0x94e
 1427 0664 7B060000 		.4byte	0x67b
 1428 0668 19       		.uleb128 0x19
 1429 0669 01       		.byte	0x1
 1430 066a 51       		.byte	0x51
 1431 066b 05       		.byte	0x5
 1432 066c 0C       		.byte	0xc
 1433 066d 84000700 		.4byte	0x70084
 1434 0671 19       		.uleb128 0x19
 1435 0672 01       		.byte	0x1
 1436 0673 50       		.byte	0x50
 1437 0674 05       		.byte	0x5
 1438 0675 0C       		.byte	0xc
 1439 0676 00540040 		.4byte	0x40005400
ARM GAS  /var/folders/yt/6z6x8bjn5sjf5fbb45bk5m4c0000gn/T//ccYsuN66.s 			page 32


 1440 067a 00       		.byte	0
 1441 067b 1A       		.uleb128 0x1a
 1442 067c 10010000 		.4byte	.LVL29
 1443 0680 1A090000 		.4byte	0x91a
 1444 0684 19       		.uleb128 0x19
 1445 0685 01       		.byte	0x1
 1446 0686 51       		.byte	0x51
 1447 0687 01       		.byte	0x1
 1448 0688 31       		.byte	0x31
 1449 0689 19       		.uleb128 0x19
 1450 068a 01       		.byte	0x1
 1451 068b 50       		.byte	0x50
 1452 068c 05       		.byte	0x5
 1453 068d 0C       		.byte	0xc
 1454 068e 00540040 		.4byte	0x40005400
 1455 0692 00       		.byte	0
 1456 0693 00       		.byte	0
 1457 0694 24       		.uleb128 0x24
 1458 0695 01       		.byte	0x1
 1459 0696 DC000000 		.4byte	.LASF73
 1460 069a 01       		.byte	0x1
 1461 069b D0       		.byte	0xd0
 1462 069c 01       		.byte	0x1
 1463 069d 1D010000 		.4byte	0x11d
 1464 06a1 24010000 		.4byte	.LFB38
 1465 06a5 CC010000 		.4byte	.LFE38
 1466 06a9 63010000 		.4byte	.LLST7
 1467 06ad 01       		.byte	0x1
 1468 06ae FB070000 		.4byte	0x7fb
 1469 06b2 25       		.uleb128 0x25
 1470 06b3 23010000 		.4byte	.LASF75
 1471 06b7 01       		.byte	0x1
 1472 06b8 D0       		.byte	0xd0
 1473 06b9 8C000000 		.4byte	0x8c
 1474 06bd 83010000 		.4byte	.LLST8
 1475 06c1 25       		.uleb128 0x25
 1476 06c2 F0010000 		.4byte	.LASF76
 1477 06c6 01       		.byte	0x1
 1478 06c7 D0       		.byte	0xd0
 1479 06c8 DE030000 		.4byte	0x3de
 1480 06cc A4010000 		.4byte	.LLST9
 1481 06d0 25       		.uleb128 0x25
 1482 06d1 70030000 		.4byte	.LASF77
 1483 06d5 01       		.byte	0x1
 1484 06d6 D0       		.byte	0xd0
 1485 06d7 97000000 		.4byte	0x97
 1486 06db CD010000 		.4byte	.LLST10
 1487 06df 26       		.uleb128 0x26
 1488 06e0 B4010000 		.4byte	.LASF71
 1489 06e4 01       		.byte	0x1
 1490 06e5 DD       		.byte	0xdd
 1491 06e6 7E000000 		.4byte	0x7e
 1492 06ea 04020000 		.4byte	.LLST11
 1493 06ee 18       		.uleb128 0x18
 1494 06ef 38010000 		.4byte	.LVL33
 1495 06f3 A5090000 		.4byte	0x9a5
 1496 06f7 0C070000 		.4byte	0x70c
ARM GAS  /var/folders/yt/6z6x8bjn5sjf5fbb45bk5m4c0000gn/T//ccYsuN66.s 			page 33


 1497 06fb 19       		.uleb128 0x19
 1498 06fc 01       		.byte	0x1
 1499 06fd 51       		.byte	0x51
 1500 06fe 03       		.byte	0x3
 1501 06ff 40       		.byte	0x40
 1502 0700 3D       		.byte	0x3d
 1503 0701 24       		.byte	0x24
 1504 0702 19       		.uleb128 0x19
 1505 0703 01       		.byte	0x1
 1506 0704 50       		.byte	0x50
 1507 0705 05       		.byte	0x5
 1508 0706 0C       		.byte	0xc
 1509 0707 00540040 		.4byte	0x40005400
 1510 070b 00       		.byte	0
 1511 070c 18       		.uleb128 0x18
 1512 070d 4A010000 		.4byte	.LVL36
 1513 0711 34090000 		.4byte	0x934
 1514 0715 28070000 		.4byte	0x728
 1515 0719 19       		.uleb128 0x19
 1516 071a 01       		.byte	0x1
 1517 071b 51       		.byte	0x51
 1518 071c 01       		.byte	0x1
 1519 071d 31       		.byte	0x31
 1520 071e 19       		.uleb128 0x19
 1521 071f 01       		.byte	0x1
 1522 0720 50       		.byte	0x50
 1523 0721 05       		.byte	0x5
 1524 0722 0C       		.byte	0xc
 1525 0723 00540040 		.4byte	0x40005400
 1526 0727 00       		.byte	0
 1527 0728 18       		.uleb128 0x18
 1528 0729 54010000 		.4byte	.LVL38
 1529 072d 4E090000 		.4byte	0x94e
 1530 0731 48070000 		.4byte	0x748
 1531 0735 19       		.uleb128 0x19
 1532 0736 01       		.byte	0x1
 1533 0737 51       		.byte	0x51
 1534 0738 05       		.byte	0x5
 1535 0739 0C       		.byte	0xc
 1536 073a 01000300 		.4byte	0x30001
 1537 073e 19       		.uleb128 0x19
 1538 073f 01       		.byte	0x1
 1539 0740 50       		.byte	0x50
 1540 0741 05       		.byte	0x5
 1541 0742 0C       		.byte	0xc
 1542 0743 00540040 		.4byte	0x40005400
 1543 0747 00       		.byte	0
 1544 0748 18       		.uleb128 0x18
 1545 0749 6A010000 		.4byte	.LVL41
 1546 074d 6C090000 		.4byte	0x96c
 1547 0751 6F070000 		.4byte	0x76f
 1548 0755 19       		.uleb128 0x19
 1549 0756 01       		.byte	0x1
 1550 0757 52       		.byte	0x52
 1551 0758 01       		.byte	0x1
 1552 0759 31       		.byte	0x31
 1553 075a 19       		.uleb128 0x19
ARM GAS  /var/folders/yt/6z6x8bjn5sjf5fbb45bk5m4c0000gn/T//ccYsuN66.s 			page 34


 1554 075b 01       		.byte	0x1
 1555 075c 51       		.byte	0x51
 1556 075d 07       		.byte	0x7
 1557 075e 75       		.byte	0x75
 1558 075f 00       		.sleb128 0
 1559 0760 31       		.byte	0x31
 1560 0761 24       		.byte	0x24
 1561 0762 08       		.byte	0x8
 1562 0763 FE       		.byte	0xfe
 1563 0764 1A       		.byte	0x1a
 1564 0765 19       		.uleb128 0x19
 1565 0766 01       		.byte	0x1
 1566 0767 50       		.byte	0x50
 1567 0768 05       		.byte	0x5
 1568 0769 0C       		.byte	0xc
 1569 076a 00540040 		.4byte	0x40005400
 1570 076e 00       		.byte	0
 1571 076f 18       		.uleb128 0x18
 1572 0770 74010000 		.4byte	.LVL43
 1573 0774 4E090000 		.4byte	0x94e
 1574 0778 8F070000 		.4byte	0x78f
 1575 077c 19       		.uleb128 0x19
 1576 077d 01       		.byte	0x1
 1577 077e 51       		.byte	0x51
 1578 077f 05       		.byte	0x5
 1579 0780 0C       		.byte	0xc
 1580 0781 02000300 		.4byte	0x30002
 1581 0785 19       		.uleb128 0x19
 1582 0786 01       		.byte	0x1
 1583 0787 50       		.byte	0x50
 1584 0788 05       		.byte	0x5
 1585 0789 0C       		.byte	0xc
 1586 078a 00540040 		.4byte	0x40005400
 1587 078e 00       		.byte	0
 1588 078f 18       		.uleb128 0x18
 1589 0790 84010000 		.4byte	.LVL46
 1590 0794 1A090000 		.4byte	0x91a
 1591 0798 AB070000 		.4byte	0x7ab
 1592 079c 19       		.uleb128 0x19
 1593 079d 01       		.byte	0x1
 1594 079e 51       		.byte	0x51
 1595 079f 01       		.byte	0x1
 1596 07a0 31       		.byte	0x31
 1597 07a1 19       		.uleb128 0x19
 1598 07a2 01       		.byte	0x1
 1599 07a3 50       		.byte	0x50
 1600 07a4 05       		.byte	0x5
 1601 07a5 0C       		.byte	0xc
 1602 07a6 00540040 		.4byte	0x40005400
 1603 07aa 00       		.byte	0
 1604 07ab 18       		.uleb128 0x18
 1605 07ac 8E010000 		.4byte	.LVL48
 1606 07b0 4E090000 		.4byte	0x94e
 1607 07b4 CB070000 		.4byte	0x7cb
 1608 07b8 19       		.uleb128 0x19
 1609 07b9 01       		.byte	0x1
 1610 07ba 51       		.byte	0x51
ARM GAS  /var/folders/yt/6z6x8bjn5sjf5fbb45bk5m4c0000gn/T//ccYsuN66.s 			page 35


 1611 07bb 05       		.byte	0x5
 1612 07bc 0C       		.byte	0xc
 1613 07bd 40000300 		.4byte	0x30040
 1614 07c1 19       		.uleb128 0x19
 1615 07c2 01       		.byte	0x1
 1616 07c3 50       		.byte	0x50
 1617 07c4 05       		.byte	0x5
 1618 07c5 0C       		.byte	0xc
 1619 07c6 00540040 		.4byte	0x40005400
 1620 07ca 00       		.byte	0
 1621 07cb 18       		.uleb128 0x18
 1622 07cc 9C010000 		.4byte	.LVL50
 1623 07d0 C3090000 		.4byte	0x9c3
 1624 07d4 E2070000 		.4byte	0x7e2
 1625 07d8 19       		.uleb128 0x19
 1626 07d9 01       		.byte	0x1
 1627 07da 50       		.byte	0x50
 1628 07db 05       		.byte	0x5
 1629 07dc 0C       		.byte	0xc
 1630 07dd 00540040 		.4byte	0x40005400
 1631 07e1 00       		.byte	0
 1632 07e2 1A       		.uleb128 0x1a
 1633 07e3 B0010000 		.4byte	.LVL53
 1634 07e7 1A090000 		.4byte	0x91a
 1635 07eb 19       		.uleb128 0x19
 1636 07ec 01       		.byte	0x1
 1637 07ed 51       		.byte	0x51
 1638 07ee 01       		.byte	0x1
 1639 07ef 31       		.byte	0x31
 1640 07f0 19       		.uleb128 0x19
 1641 07f1 01       		.byte	0x1
 1642 07f2 50       		.byte	0x50
 1643 07f3 05       		.byte	0x5
 1644 07f4 0C       		.byte	0xc
 1645 07f5 00540040 		.4byte	0x40005400
 1646 07f9 00       		.byte	0
 1647 07fa 00       		.byte	0
 1648 07fb 27       		.uleb128 0x27
 1649 07fc 01       		.byte	0x1
 1650 07fd B4000000 		.4byte	.LASF78
 1651 0801 01       		.byte	0x1
 1652 0802 2F01     		.2byte	0x12f
 1653 0804 01       		.byte	0x1
 1654 0805 8C000000 		.4byte	0x8c
 1655 0809 CC010000 		.4byte	.LFB39
 1656 080d E8010000 		.4byte	.LFE39
 1657 0811 A5020000 		.4byte	.LLST12
 1658 0815 01       		.byte	0x1
 1659 0816 46080000 		.4byte	0x846
 1660 081a 28       		.uleb128 0x28
 1661 081b 23010000 		.4byte	.LASF75
 1662 081f 01       		.byte	0x1
 1663 0820 2F01     		.2byte	0x12f
 1664 0822 BE000000 		.4byte	0xbe
 1665 0826 C5020000 		.4byte	.LLST13
 1666 082a 29       		.uleb128 0x29
 1667 082b D2010000 		.4byte	.LVL57
ARM GAS  /var/folders/yt/6z6x8bjn5sjf5fbb45bk5m4c0000gn/T//ccYsuN66.s 			page 36


 1668 082f 01040000 		.4byte	0x401
 1669 0833 29       		.uleb128 0x29
 1670 0834 DC010000 		.4byte	.LVL58
 1671 0838 D5050000 		.4byte	0x5d5
 1672 083c 29       		.uleb128 0x29
 1673 083d E4010000 		.4byte	.LVL59
 1674 0841 D5050000 		.4byte	0x5d5
 1675 0845 00       		.byte	0
 1676 0846 2A       		.uleb128 0x2a
 1677 0847 22050000 		.4byte	.LASF79
 1678 084b 09       		.byte	0x9
 1679 084c CF06     		.2byte	0x6cf
 1680 084e 54080000 		.4byte	0x854
 1681 0852 01       		.byte	0x1
 1682 0853 01       		.byte	0x1
 1683 0854 05       		.uleb128 0x5
 1684 0855 7E000000 		.4byte	0x7e
 1685 0859 2B       		.uleb128 0x2b
 1686 085a 05010000 		.4byte	.LASF80
 1687 085e 01       		.byte	0x1
 1688 085f 2C       		.byte	0x2c
 1689 0860 EF030000 		.4byte	0x3ef
 1690 0864 01       		.byte	0x1
 1691 0865 05       		.byte	0x5
 1692 0866 03       		.byte	0x3
 1693 0867 00000000 		.4byte	xSemStartCondition
 1694 086b 2C       		.uleb128 0x2c
 1695 086c 01       		.byte	0x1
 1696 086d 39020000 		.4byte	.LASF81
 1697 0871 0A       		.byte	0xa
 1698 0872 B602     		.2byte	0x2b6
 1699 0874 01       		.byte	0x1
 1700 0875 01       		.byte	0x1
 1701 0876 85080000 		.4byte	0x885
 1702 087a 2D       		.uleb128 0x2d
 1703 087b A2000000 		.4byte	0xa2
 1704 087f 2D       		.uleb128 0x2d
 1705 0880 FB000000 		.4byte	0xfb
 1706 0884 00       		.byte	0
 1707 0885 2C       		.uleb128 0x2c
 1708 0886 01       		.byte	0x1
 1709 0887 C4030000 		.4byte	.LASF82
 1710 088b 0A       		.byte	0xa
 1711 088c B502     		.2byte	0x2b5
 1712 088e 01       		.byte	0x1
 1713 088f 01       		.byte	0x1
 1714 0890 9F080000 		.4byte	0x89f
 1715 0894 2D       		.uleb128 0x2d
 1716 0895 A2000000 		.4byte	0xa2
 1717 0899 2D       		.uleb128 0x2d
 1718 089a FB000000 		.4byte	0xfb
 1719 089e 00       		.byte	0
 1720 089f 2C       		.uleb128 0x2c
 1721 08a0 01       		.byte	0x1
 1722 08a1 5B010000 		.4byte	.LASF83
 1723 08a5 05       		.byte	0x5
 1724 08a6 5F01     		.2byte	0x15f
ARM GAS  /var/folders/yt/6z6x8bjn5sjf5fbb45bk5m4c0000gn/T//ccYsuN66.s 			page 37


 1725 08a8 01       		.byte	0x1
 1726 08a9 01       		.byte	0x1
 1727 08aa B9080000 		.4byte	0x8b9
 1728 08ae 2D       		.uleb128 0x2d
 1729 08af B9080000 		.4byte	0x8b9
 1730 08b3 2D       		.uleb128 0x2d
 1731 08b4 BF080000 		.4byte	0x8bf
 1732 08b8 00       		.byte	0
 1733 08b9 12       		.uleb128 0x12
 1734 08ba 04       		.byte	0x4
 1735 08bb 9C010000 		.4byte	0x19c
 1736 08bf 12       		.uleb128 0x12
 1737 08c0 04       		.byte	0x4
 1738 08c1 69030000 		.4byte	0x369
 1739 08c5 2C       		.uleb128 0x2c
 1740 08c6 01       		.byte	0x1
 1741 08c7 E0020000 		.4byte	.LASF84
 1742 08cb 06       		.byte	0x6
 1743 08cc 1602     		.2byte	0x216
 1744 08ce 01       		.byte	0x1
 1745 08cf 01       		.byte	0x1
 1746 08d0 DA080000 		.4byte	0x8da
 1747 08d4 2D       		.uleb128 0x2d
 1748 08d5 DA080000 		.4byte	0x8da
 1749 08d9 00       		.byte	0
 1750 08da 12       		.uleb128 0x12
 1751 08db 04       		.byte	0x4
 1752 08dc BF020000 		.4byte	0x2bf
 1753 08e0 2C       		.uleb128 0x2c
 1754 08e1 01       		.byte	0x1
 1755 08e2 D8020000 		.4byte	.LASF85
 1756 08e6 06       		.byte	0x6
 1757 08e7 1902     		.2byte	0x219
 1758 08e9 01       		.byte	0x1
 1759 08ea 01       		.byte	0x1
 1760 08eb FA080000 		.4byte	0x8fa
 1761 08ef 2D       		.uleb128 0x2d
 1762 08f0 DA080000 		.4byte	0x8da
 1763 08f4 2D       		.uleb128 0x2d
 1764 08f5 FB000000 		.4byte	0xfb
 1765 08f9 00       		.byte	0
 1766 08fa 2C       		.uleb128 0x2c
 1767 08fb 01       		.byte	0x1
 1768 08fc 2F050000 		.4byte	.LASF86
 1769 0900 06       		.byte	0x6
 1770 0901 1702     		.2byte	0x217
 1771 0903 01       		.byte	0x1
 1772 0904 01       		.byte	0x1
 1773 0905 14090000 		.4byte	0x914
 1774 0909 2D       		.uleb128 0x2d
 1775 090a DA080000 		.4byte	0x8da
 1776 090e 2D       		.uleb128 0x2d
 1777 090f 14090000 		.4byte	0x914
 1778 0913 00       		.byte	0
 1779 0914 12       		.uleb128 0x12
 1780 0915 04       		.byte	0x4
 1781 0916 D1030000 		.4byte	0x3d1
ARM GAS  /var/folders/yt/6z6x8bjn5sjf5fbb45bk5m4c0000gn/T//ccYsuN66.s 			page 38


 1782 091a 2C       		.uleb128 0x2c
 1783 091b 01       		.byte	0x1
 1784 091c FD020000 		.4byte	.LASF87
 1785 0920 06       		.byte	0x6
 1786 0921 1D02     		.2byte	0x21d
 1787 0923 01       		.byte	0x1
 1788 0924 01       		.byte	0x1
 1789 0925 34090000 		.4byte	0x934
 1790 0929 2D       		.uleb128 0x2d
 1791 092a DA080000 		.4byte	0x8da
 1792 092e 2D       		.uleb128 0x2d
 1793 092f FB000000 		.4byte	0xfb
 1794 0933 00       		.byte	0
 1795 0934 2C       		.uleb128 0x2c
 1796 0935 01       		.byte	0x1
 1797 0936 8D030000 		.4byte	.LASF88
 1798 093a 06       		.byte	0x6
 1799 093b 1C02     		.2byte	0x21c
 1800 093d 01       		.byte	0x1
 1801 093e 01       		.byte	0x1
 1802 093f 4E090000 		.4byte	0x94e
 1803 0943 2D       		.uleb128 0x2d
 1804 0944 DA080000 		.4byte	0x8da
 1805 0948 2D       		.uleb128 0x2d
 1806 0949 FB000000 		.4byte	0xfb
 1807 094d 00       		.byte	0
 1808 094e 2E       		.uleb128 0x2e
 1809 094f 01       		.byte	0x1
 1810 0950 9F030000 		.4byte	.LASF90
 1811 0954 06       		.byte	0x6
 1812 0955 8502     		.2byte	0x285
 1813 0957 01       		.byte	0x1
 1814 0958 1D010000 		.4byte	0x11d
 1815 095c 01       		.byte	0x1
 1816 095d 6C090000 		.4byte	0x96c
 1817 0961 2D       		.uleb128 0x2d
 1818 0962 DA080000 		.4byte	0x8da
 1819 0966 2D       		.uleb128 0x2d
 1820 0967 A2000000 		.4byte	0xa2
 1821 096b 00       		.byte	0
 1822 096c 2C       		.uleb128 0x2c
 1823 096d 01       		.byte	0x1
 1824 096e 51050000 		.4byte	.LASF91
 1825 0972 06       		.byte	0x6
 1826 0973 2502     		.2byte	0x225
 1827 0975 01       		.byte	0x1
 1828 0976 01       		.byte	0x1
 1829 0977 8B090000 		.4byte	0x98b
 1830 097b 2D       		.uleb128 0x2d
 1831 097c DA080000 		.4byte	0x8da
 1832 0980 2D       		.uleb128 0x2d
 1833 0981 8C000000 		.4byte	0x8c
 1834 0985 2D       		.uleb128 0x2d
 1835 0986 8C000000 		.4byte	0x8c
 1836 098a 00       		.byte	0
 1837 098b 2C       		.uleb128 0x2c
 1838 098c 01       		.byte	0x1
ARM GAS  /var/folders/yt/6z6x8bjn5sjf5fbb45bk5m4c0000gn/T//ccYsuN66.s 			page 39


 1839 098d 38050000 		.4byte	.LASF92
 1840 0991 06       		.byte	0x6
 1841 0992 2302     		.2byte	0x223
 1842 0994 01       		.byte	0x1
 1843 0995 01       		.byte	0x1
 1844 0996 A5090000 		.4byte	0x9a5
 1845 099a 2D       		.uleb128 0x2d
 1846 099b DA080000 		.4byte	0x8da
 1847 099f 2D       		.uleb128 0x2d
 1848 09a0 8C000000 		.4byte	0x8c
 1849 09a4 00       		.byte	0
 1850 09a5 2E       		.uleb128 0x2e
 1851 09a6 01       		.byte	0x1
 1852 09a7 1E000000 		.4byte	.LASF93
 1853 09ab 06       		.byte	0x6
 1854 09ac 9102     		.2byte	0x291
 1855 09ae 01       		.byte	0x1
 1856 09af D9000000 		.4byte	0xd9
 1857 09b3 01       		.byte	0x1
 1858 09b4 C3090000 		.4byte	0x9c3
 1859 09b8 2D       		.uleb128 0x2d
 1860 09b9 DA080000 		.4byte	0x8da
 1861 09bd 2D       		.uleb128 0x2d
 1862 09be A2000000 		.4byte	0xa2
 1863 09c2 00       		.byte	0
 1864 09c3 2F       		.uleb128 0x2f
 1865 09c4 01       		.byte	0x1
 1866 09c5 62020000 		.4byte	.LASF94
 1867 09c9 06       		.byte	0x6
 1868 09ca 2402     		.2byte	0x224
 1869 09cc 01       		.byte	0x1
 1870 09cd 8C000000 		.4byte	0x8c
 1871 09d1 01       		.byte	0x1
 1872 09d2 2D       		.uleb128 0x2d
 1873 09d3 DA080000 		.4byte	0x8da
 1874 09d7 00       		.byte	0
 1875 09d8 00       		.byte	0
 1876              		.section	.debug_abbrev,"",%progbits
 1877              	.Ldebug_abbrev0:
 1878 0000 01       		.uleb128 0x1
 1879 0001 11       		.uleb128 0x11
 1880 0002 01       		.byte	0x1
 1881 0003 25       		.uleb128 0x25
 1882 0004 0E       		.uleb128 0xe
 1883 0005 13       		.uleb128 0x13
 1884 0006 0B       		.uleb128 0xb
 1885 0007 03       		.uleb128 0x3
 1886 0008 0E       		.uleb128 0xe
 1887 0009 1B       		.uleb128 0x1b
 1888 000a 0E       		.uleb128 0xe
 1889 000b 11       		.uleb128 0x11
 1890 000c 01       		.uleb128 0x1
 1891 000d 12       		.uleb128 0x12
 1892 000e 01       		.uleb128 0x1
 1893 000f 10       		.uleb128 0x10
 1894 0010 06       		.uleb128 0x6
 1895 0011 00       		.byte	0
ARM GAS  /var/folders/yt/6z6x8bjn5sjf5fbb45bk5m4c0000gn/T//ccYsuN66.s 			page 40


 1896 0012 00       		.byte	0
 1897 0013 02       		.uleb128 0x2
 1898 0014 24       		.uleb128 0x24
 1899 0015 00       		.byte	0
 1900 0016 0B       		.uleb128 0xb
 1901 0017 0B       		.uleb128 0xb
 1902 0018 3E       		.uleb128 0x3e
 1903 0019 0B       		.uleb128 0xb
 1904 001a 03       		.uleb128 0x3
 1905 001b 0E       		.uleb128 0xe
 1906 001c 00       		.byte	0
 1907 001d 00       		.byte	0
 1908 001e 03       		.uleb128 0x3
 1909 001f 16       		.uleb128 0x16
 1910 0020 00       		.byte	0
 1911 0021 03       		.uleb128 0x3
 1912 0022 0E       		.uleb128 0xe
 1913 0023 3A       		.uleb128 0x3a
 1914 0024 0B       		.uleb128 0xb
 1915 0025 3B       		.uleb128 0x3b
 1916 0026 0B       		.uleb128 0xb
 1917 0027 49       		.uleb128 0x49
 1918 0028 13       		.uleb128 0x13
 1919 0029 00       		.byte	0
 1920 002a 00       		.byte	0
 1921 002b 04       		.uleb128 0x4
 1922 002c 24       		.uleb128 0x24
 1923 002d 00       		.byte	0
 1924 002e 0B       		.uleb128 0xb
 1925 002f 0B       		.uleb128 0xb
 1926 0030 3E       		.uleb128 0x3e
 1927 0031 0B       		.uleb128 0xb
 1928 0032 03       		.uleb128 0x3
 1929 0033 08       		.uleb128 0x8
 1930 0034 00       		.byte	0
 1931 0035 00       		.byte	0
 1932 0036 05       		.uleb128 0x5
 1933 0037 35       		.uleb128 0x35
 1934 0038 00       		.byte	0
 1935 0039 49       		.uleb128 0x49
 1936 003a 13       		.uleb128 0x13
 1937 003b 00       		.byte	0
 1938 003c 00       		.byte	0
 1939 003d 06       		.uleb128 0x6
 1940 003e 26       		.uleb128 0x26
 1941 003f 00       		.byte	0
 1942 0040 49       		.uleb128 0x49
 1943 0041 13       		.uleb128 0x13
 1944 0042 00       		.byte	0
 1945 0043 00       		.byte	0
 1946 0044 07       		.uleb128 0x7
 1947 0045 04       		.uleb128 0x4
 1948 0046 01       		.byte	0x1
 1949 0047 0B       		.uleb128 0xb
 1950 0048 0B       		.uleb128 0xb
 1951 0049 3A       		.uleb128 0x3a
 1952 004a 0B       		.uleb128 0xb
ARM GAS  /var/folders/yt/6z6x8bjn5sjf5fbb45bk5m4c0000gn/T//ccYsuN66.s 			page 41


 1953 004b 3B       		.uleb128 0x3b
 1954 004c 05       		.uleb128 0x5
 1955 004d 01       		.uleb128 0x1
 1956 004e 13       		.uleb128 0x13
 1957 004f 00       		.byte	0
 1958 0050 00       		.byte	0
 1959 0051 08       		.uleb128 0x8
 1960 0052 28       		.uleb128 0x28
 1961 0053 00       		.byte	0
 1962 0054 03       		.uleb128 0x3
 1963 0055 0E       		.uleb128 0xe
 1964 0056 1C       		.uleb128 0x1c
 1965 0057 0D       		.uleb128 0xd
 1966 0058 00       		.byte	0
 1967 0059 00       		.byte	0
 1968 005a 09       		.uleb128 0x9
 1969 005b 28       		.uleb128 0x28
 1970 005c 00       		.byte	0
 1971 005d 03       		.uleb128 0x3
 1972 005e 08       		.uleb128 0x8
 1973 005f 1C       		.uleb128 0x1c
 1974 0060 0D       		.uleb128 0xd
 1975 0061 00       		.byte	0
 1976 0062 00       		.byte	0
 1977 0063 0A       		.uleb128 0xa
 1978 0064 16       		.uleb128 0x16
 1979 0065 00       		.byte	0
 1980 0066 03       		.uleb128 0x3
 1981 0067 0E       		.uleb128 0xe
 1982 0068 3A       		.uleb128 0x3a
 1983 0069 0B       		.uleb128 0xb
 1984 006a 3B       		.uleb128 0x3b
 1985 006b 05       		.uleb128 0x5
 1986 006c 49       		.uleb128 0x49
 1987 006d 13       		.uleb128 0x13
 1988 006e 00       		.byte	0
 1989 006f 00       		.byte	0
 1990 0070 0B       		.uleb128 0xb
 1991 0071 13       		.uleb128 0x13
 1992 0072 01       		.byte	0x1
 1993 0073 0B       		.uleb128 0xb
 1994 0074 0B       		.uleb128 0xb
 1995 0075 3A       		.uleb128 0x3a
 1996 0076 0B       		.uleb128 0xb
 1997 0077 3B       		.uleb128 0x3b
 1998 0078 05       		.uleb128 0x5
 1999 0079 01       		.uleb128 0x1
 2000 007a 13       		.uleb128 0x13
 2001 007b 00       		.byte	0
 2002 007c 00       		.byte	0
 2003 007d 0C       		.uleb128 0xc
 2004 007e 0D       		.uleb128 0xd
 2005 007f 00       		.byte	0
 2006 0080 03       		.uleb128 0x3
 2007 0081 08       		.uleb128 0x8
 2008 0082 3A       		.uleb128 0x3a
 2009 0083 0B       		.uleb128 0xb
ARM GAS  /var/folders/yt/6z6x8bjn5sjf5fbb45bk5m4c0000gn/T//ccYsuN66.s 			page 42


 2010 0084 3B       		.uleb128 0x3b
 2011 0085 05       		.uleb128 0x5
 2012 0086 49       		.uleb128 0x49
 2013 0087 13       		.uleb128 0x13
 2014 0088 38       		.uleb128 0x38
 2015 0089 0A       		.uleb128 0xa
 2016 008a 00       		.byte	0
 2017 008b 00       		.byte	0
 2018 008c 0D       		.uleb128 0xd
 2019 008d 0D       		.uleb128 0xd
 2020 008e 00       		.byte	0
 2021 008f 03       		.uleb128 0x3
 2022 0090 0E       		.uleb128 0xe
 2023 0091 3A       		.uleb128 0x3a
 2024 0092 0B       		.uleb128 0xb
 2025 0093 3B       		.uleb128 0x3b
 2026 0094 05       		.uleb128 0x5
 2027 0095 49       		.uleb128 0x49
 2028 0096 13       		.uleb128 0x13
 2029 0097 38       		.uleb128 0x38
 2030 0098 0A       		.uleb128 0xa
 2031 0099 00       		.byte	0
 2032 009a 00       		.byte	0
 2033 009b 0E       		.uleb128 0xe
 2034 009c 04       		.uleb128 0x4
 2035 009d 01       		.byte	0x1
 2036 009e 0B       		.uleb128 0xb
 2037 009f 0B       		.uleb128 0xb
 2038 00a0 3A       		.uleb128 0x3a
 2039 00a1 0B       		.uleb128 0xb
 2040 00a2 3B       		.uleb128 0x3b
 2041 00a3 0B       		.uleb128 0xb
 2042 00a4 01       		.uleb128 0x1
 2043 00a5 13       		.uleb128 0x13
 2044 00a6 00       		.byte	0
 2045 00a7 00       		.byte	0
 2046 00a8 0F       		.uleb128 0xf
 2047 00a9 13       		.uleb128 0x13
 2048 00aa 01       		.byte	0x1
 2049 00ab 0B       		.uleb128 0xb
 2050 00ac 0B       		.uleb128 0xb
 2051 00ad 3A       		.uleb128 0x3a
 2052 00ae 0B       		.uleb128 0xb
 2053 00af 3B       		.uleb128 0x3b
 2054 00b0 0B       		.uleb128 0xb
 2055 00b1 01       		.uleb128 0x1
 2056 00b2 13       		.uleb128 0x13
 2057 00b3 00       		.byte	0
 2058 00b4 00       		.byte	0
 2059 00b5 10       		.uleb128 0x10
 2060 00b6 0D       		.uleb128 0xd
 2061 00b7 00       		.byte	0
 2062 00b8 03       		.uleb128 0x3
 2063 00b9 0E       		.uleb128 0xe
 2064 00ba 3A       		.uleb128 0x3a
 2065 00bb 0B       		.uleb128 0xb
 2066 00bc 3B       		.uleb128 0x3b
ARM GAS  /var/folders/yt/6z6x8bjn5sjf5fbb45bk5m4c0000gn/T//ccYsuN66.s 			page 43


 2067 00bd 0B       		.uleb128 0xb
 2068 00be 49       		.uleb128 0x49
 2069 00bf 13       		.uleb128 0x13
 2070 00c0 38       		.uleb128 0x38
 2071 00c1 0A       		.uleb128 0xa
 2072 00c2 00       		.byte	0
 2073 00c3 00       		.byte	0
 2074 00c4 11       		.uleb128 0x11
 2075 00c5 0F       		.uleb128 0xf
 2076 00c6 00       		.byte	0
 2077 00c7 0B       		.uleb128 0xb
 2078 00c8 0B       		.uleb128 0xb
 2079 00c9 00       		.byte	0
 2080 00ca 00       		.byte	0
 2081 00cb 12       		.uleb128 0x12
 2082 00cc 0F       		.uleb128 0xf
 2083 00cd 00       		.byte	0
 2084 00ce 0B       		.uleb128 0xb
 2085 00cf 0B       		.uleb128 0xb
 2086 00d0 49       		.uleb128 0x49
 2087 00d1 13       		.uleb128 0x13
 2088 00d2 00       		.byte	0
 2089 00d3 00       		.byte	0
 2090 00d4 13       		.uleb128 0x13
 2091 00d5 2E       		.uleb128 0x2e
 2092 00d6 01       		.byte	0x1
 2093 00d7 3F       		.uleb128 0x3f
 2094 00d8 0C       		.uleb128 0xc
 2095 00d9 03       		.uleb128 0x3
 2096 00da 0E       		.uleb128 0xe
 2097 00db 3A       		.uleb128 0x3a
 2098 00dc 0B       		.uleb128 0xb
 2099 00dd 3B       		.uleb128 0x3b
 2100 00de 0B       		.uleb128 0xb
 2101 00df 27       		.uleb128 0x27
 2102 00e0 0C       		.uleb128 0xc
 2103 00e1 49       		.uleb128 0x49
 2104 00e2 13       		.uleb128 0x13
 2105 00e3 20       		.uleb128 0x20
 2106 00e4 0B       		.uleb128 0xb
 2107 00e5 01       		.uleb128 0x1
 2108 00e6 13       		.uleb128 0x13
 2109 00e7 00       		.byte	0
 2110 00e8 00       		.byte	0
 2111 00e9 14       		.uleb128 0x14
 2112 00ea 05       		.uleb128 0x5
 2113 00eb 00       		.byte	0
 2114 00ec 03       		.uleb128 0x3
 2115 00ed 0E       		.uleb128 0xe
 2116 00ee 3A       		.uleb128 0x3a
 2117 00ef 0B       		.uleb128 0xb
 2118 00f0 3B       		.uleb128 0x3b
 2119 00f1 0B       		.uleb128 0xb
 2120 00f2 49       		.uleb128 0x49
 2121 00f3 13       		.uleb128 0x13
 2122 00f4 00       		.byte	0
 2123 00f5 00       		.byte	0
ARM GAS  /var/folders/yt/6z6x8bjn5sjf5fbb45bk5m4c0000gn/T//ccYsuN66.s 			page 44


 2124 00f6 15       		.uleb128 0x15
 2125 00f7 34       		.uleb128 0x34
 2126 00f8 00       		.byte	0
 2127 00f9 03       		.uleb128 0x3
 2128 00fa 0E       		.uleb128 0xe
 2129 00fb 3A       		.uleb128 0x3a
 2130 00fc 0B       		.uleb128 0xb
 2131 00fd 3B       		.uleb128 0x3b
 2132 00fe 0B       		.uleb128 0xb
 2133 00ff 49       		.uleb128 0x49
 2134 0100 13       		.uleb128 0x13
 2135 0101 00       		.byte	0
 2136 0102 00       		.byte	0
 2137 0103 16       		.uleb128 0x16
 2138 0104 2E       		.uleb128 0x2e
 2139 0105 01       		.byte	0x1
 2140 0106 3F       		.uleb128 0x3f
 2141 0107 0C       		.uleb128 0xc
 2142 0108 03       		.uleb128 0x3
 2143 0109 0E       		.uleb128 0xe
 2144 010a 3A       		.uleb128 0x3a
 2145 010b 0B       		.uleb128 0xb
 2146 010c 3B       		.uleb128 0x3b
 2147 010d 0B       		.uleb128 0xb
 2148 010e 27       		.uleb128 0x27
 2149 010f 0C       		.uleb128 0xc
 2150 0110 11       		.uleb128 0x11
 2151 0111 01       		.uleb128 0x1
 2152 0112 12       		.uleb128 0x12
 2153 0113 01       		.uleb128 0x1
 2154 0114 40       		.uleb128 0x40
 2155 0115 06       		.uleb128 0x6
 2156 0116 9742     		.uleb128 0x2117
 2157 0118 0C       		.uleb128 0xc
 2158 0119 01       		.uleb128 0x1
 2159 011a 13       		.uleb128 0x13
 2160 011b 00       		.byte	0
 2161 011c 00       		.byte	0
 2162 011d 17       		.uleb128 0x17
 2163 011e 34       		.uleb128 0x34
 2164 011f 00       		.byte	0
 2165 0120 03       		.uleb128 0x3
 2166 0121 0E       		.uleb128 0xe
 2167 0122 3A       		.uleb128 0x3a
 2168 0123 0B       		.uleb128 0xb
 2169 0124 3B       		.uleb128 0x3b
 2170 0125 0B       		.uleb128 0xb
 2171 0126 49       		.uleb128 0x49
 2172 0127 13       		.uleb128 0x13
 2173 0128 02       		.uleb128 0x2
 2174 0129 0A       		.uleb128 0xa
 2175 012a 00       		.byte	0
 2176 012b 00       		.byte	0
 2177 012c 18       		.uleb128 0x18
 2178 012d 898201   		.uleb128 0x4109
 2179 0130 01       		.byte	0x1
 2180 0131 11       		.uleb128 0x11
ARM GAS  /var/folders/yt/6z6x8bjn5sjf5fbb45bk5m4c0000gn/T//ccYsuN66.s 			page 45


 2181 0132 01       		.uleb128 0x1
 2182 0133 31       		.uleb128 0x31
 2183 0134 13       		.uleb128 0x13
 2184 0135 01       		.uleb128 0x1
 2185 0136 13       		.uleb128 0x13
 2186 0137 00       		.byte	0
 2187 0138 00       		.byte	0
 2188 0139 19       		.uleb128 0x19
 2189 013a 8A8201   		.uleb128 0x410a
 2190 013d 00       		.byte	0
 2191 013e 02       		.uleb128 0x2
 2192 013f 0A       		.uleb128 0xa
 2193 0140 9142     		.uleb128 0x2111
 2194 0142 0A       		.uleb128 0xa
 2195 0143 00       		.byte	0
 2196 0144 00       		.byte	0
 2197 0145 1A       		.uleb128 0x1a
 2198 0146 898201   		.uleb128 0x4109
 2199 0149 01       		.byte	0x1
 2200 014a 11       		.uleb128 0x11
 2201 014b 01       		.uleb128 0x1
 2202 014c 31       		.uleb128 0x31
 2203 014d 13       		.uleb128 0x13
 2204 014e 00       		.byte	0
 2205 014f 00       		.byte	0
 2206 0150 1B       		.uleb128 0x1b
 2207 0151 2E       		.uleb128 0x2e
 2208 0152 01       		.byte	0x1
 2209 0153 31       		.uleb128 0x31
 2210 0154 13       		.uleb128 0x13
 2211 0155 11       		.uleb128 0x11
 2212 0156 01       		.uleb128 0x1
 2213 0157 12       		.uleb128 0x12
 2214 0158 01       		.uleb128 0x1
 2215 0159 40       		.uleb128 0x40
 2216 015a 06       		.uleb128 0x6
 2217 015b 9742     		.uleb128 0x2117
 2218 015d 0C       		.uleb128 0xc
 2219 015e 01       		.uleb128 0x1
 2220 015f 13       		.uleb128 0x13
 2221 0160 00       		.byte	0
 2222 0161 00       		.byte	0
 2223 0162 1C       		.uleb128 0x1c
 2224 0163 05       		.uleb128 0x5
 2225 0164 00       		.byte	0
 2226 0165 31       		.uleb128 0x31
 2227 0166 13       		.uleb128 0x13
 2228 0167 02       		.uleb128 0x2
 2229 0168 06       		.uleb128 0x6
 2230 0169 00       		.byte	0
 2231 016a 00       		.byte	0
 2232 016b 1D       		.uleb128 0x1d
 2233 016c 34       		.uleb128 0x34
 2234 016d 00       		.byte	0
 2235 016e 31       		.uleb128 0x31
 2236 016f 13       		.uleb128 0x13
 2237 0170 02       		.uleb128 0x2
ARM GAS  /var/folders/yt/6z6x8bjn5sjf5fbb45bk5m4c0000gn/T//ccYsuN66.s 			page 46


 2238 0171 06       		.uleb128 0x6
 2239 0172 00       		.byte	0
 2240 0173 00       		.byte	0
 2241 0174 1E       		.uleb128 0x1e
 2242 0175 0B       		.uleb128 0xb
 2243 0176 01       		.byte	0x1
 2244 0177 11       		.uleb128 0x11
 2245 0178 01       		.uleb128 0x1
 2246 0179 12       		.uleb128 0x12
 2247 017a 01       		.uleb128 0x1
 2248 017b 01       		.uleb128 0x1
 2249 017c 13       		.uleb128 0x13
 2250 017d 00       		.byte	0
 2251 017e 00       		.byte	0
 2252 017f 1F       		.uleb128 0x1f
 2253 0180 05       		.uleb128 0x5
 2254 0181 00       		.byte	0
 2255 0182 31       		.uleb128 0x31
 2256 0183 13       		.uleb128 0x13
 2257 0184 00       		.byte	0
 2258 0185 00       		.byte	0
 2259 0186 20       		.uleb128 0x20
 2260 0187 0B       		.uleb128 0xb
 2261 0188 01       		.byte	0x1
 2262 0189 11       		.uleb128 0x11
 2263 018a 01       		.uleb128 0x1
 2264 018b 12       		.uleb128 0x12
 2265 018c 01       		.uleb128 0x1
 2266 018d 00       		.byte	0
 2267 018e 00       		.byte	0
 2268 018f 21       		.uleb128 0x21
 2269 0190 34       		.uleb128 0x34
 2270 0191 00       		.byte	0
 2271 0192 31       		.uleb128 0x31
 2272 0193 13       		.uleb128 0x13
 2273 0194 00       		.byte	0
 2274 0195 00       		.byte	0
 2275 0196 22       		.uleb128 0x22
 2276 0197 2E       		.uleb128 0x2e
 2277 0198 01       		.byte	0x1
 2278 0199 3F       		.uleb128 0x3f
 2279 019a 0C       		.uleb128 0xc
 2280 019b 03       		.uleb128 0x3
 2281 019c 0E       		.uleb128 0xe
 2282 019d 3A       		.uleb128 0x3a
 2283 019e 0B       		.uleb128 0xb
 2284 019f 3B       		.uleb128 0x3b
 2285 01a0 0B       		.uleb128 0xb
 2286 01a1 27       		.uleb128 0x27
 2287 01a2 0C       		.uleb128 0xc
 2288 01a3 11       		.uleb128 0x11
 2289 01a4 01       		.uleb128 0x1
 2290 01a5 12       		.uleb128 0x12
 2291 01a6 01       		.uleb128 0x1
 2292 01a7 40       		.uleb128 0x40
 2293 01a8 0A       		.uleb128 0xa
 2294 01a9 9742     		.uleb128 0x2117
ARM GAS  /var/folders/yt/6z6x8bjn5sjf5fbb45bk5m4c0000gn/T//ccYsuN66.s 			page 47


 2295 01ab 0C       		.uleb128 0xc
 2296 01ac 01       		.uleb128 0x1
 2297 01ad 13       		.uleb128 0x13
 2298 01ae 00       		.byte	0
 2299 01af 00       		.byte	0
 2300 01b0 23       		.uleb128 0x23
 2301 01b1 898201   		.uleb128 0x4109
 2302 01b4 01       		.byte	0x1
 2303 01b5 11       		.uleb128 0x11
 2304 01b6 01       		.uleb128 0x1
 2305 01b7 9542     		.uleb128 0x2115
 2306 01b9 0C       		.uleb128 0xc
 2307 01ba 31       		.uleb128 0x31
 2308 01bb 13       		.uleb128 0x13
 2309 01bc 00       		.byte	0
 2310 01bd 00       		.byte	0
 2311 01be 24       		.uleb128 0x24
 2312 01bf 2E       		.uleb128 0x2e
 2313 01c0 01       		.byte	0x1
 2314 01c1 3F       		.uleb128 0x3f
 2315 01c2 0C       		.uleb128 0xc
 2316 01c3 03       		.uleb128 0x3
 2317 01c4 0E       		.uleb128 0xe
 2318 01c5 3A       		.uleb128 0x3a
 2319 01c6 0B       		.uleb128 0xb
 2320 01c7 3B       		.uleb128 0x3b
 2321 01c8 0B       		.uleb128 0xb
 2322 01c9 27       		.uleb128 0x27
 2323 01ca 0C       		.uleb128 0xc
 2324 01cb 49       		.uleb128 0x49
 2325 01cc 13       		.uleb128 0x13
 2326 01cd 11       		.uleb128 0x11
 2327 01ce 01       		.uleb128 0x1
 2328 01cf 12       		.uleb128 0x12
 2329 01d0 01       		.uleb128 0x1
 2330 01d1 40       		.uleb128 0x40
 2331 01d2 06       		.uleb128 0x6
 2332 01d3 9742     		.uleb128 0x2117
 2333 01d5 0C       		.uleb128 0xc
 2334 01d6 01       		.uleb128 0x1
 2335 01d7 13       		.uleb128 0x13
 2336 01d8 00       		.byte	0
 2337 01d9 00       		.byte	0
 2338 01da 25       		.uleb128 0x25
 2339 01db 05       		.uleb128 0x5
 2340 01dc 00       		.byte	0
 2341 01dd 03       		.uleb128 0x3
 2342 01de 0E       		.uleb128 0xe
 2343 01df 3A       		.uleb128 0x3a
 2344 01e0 0B       		.uleb128 0xb
 2345 01e1 3B       		.uleb128 0x3b
 2346 01e2 0B       		.uleb128 0xb
 2347 01e3 49       		.uleb128 0x49
 2348 01e4 13       		.uleb128 0x13
 2349 01e5 02       		.uleb128 0x2
 2350 01e6 06       		.uleb128 0x6
 2351 01e7 00       		.byte	0
ARM GAS  /var/folders/yt/6z6x8bjn5sjf5fbb45bk5m4c0000gn/T//ccYsuN66.s 			page 48


 2352 01e8 00       		.byte	0
 2353 01e9 26       		.uleb128 0x26
 2354 01ea 34       		.uleb128 0x34
 2355 01eb 00       		.byte	0
 2356 01ec 03       		.uleb128 0x3
 2357 01ed 0E       		.uleb128 0xe
 2358 01ee 3A       		.uleb128 0x3a
 2359 01ef 0B       		.uleb128 0xb
 2360 01f0 3B       		.uleb128 0x3b
 2361 01f1 0B       		.uleb128 0xb
 2362 01f2 49       		.uleb128 0x49
 2363 01f3 13       		.uleb128 0x13
 2364 01f4 02       		.uleb128 0x2
 2365 01f5 06       		.uleb128 0x6
 2366 01f6 00       		.byte	0
 2367 01f7 00       		.byte	0
 2368 01f8 27       		.uleb128 0x27
 2369 01f9 2E       		.uleb128 0x2e
 2370 01fa 01       		.byte	0x1
 2371 01fb 3F       		.uleb128 0x3f
 2372 01fc 0C       		.uleb128 0xc
 2373 01fd 03       		.uleb128 0x3
 2374 01fe 0E       		.uleb128 0xe
 2375 01ff 3A       		.uleb128 0x3a
 2376 0200 0B       		.uleb128 0xb
 2377 0201 3B       		.uleb128 0x3b
 2378 0202 05       		.uleb128 0x5
 2379 0203 27       		.uleb128 0x27
 2380 0204 0C       		.uleb128 0xc
 2381 0205 49       		.uleb128 0x49
 2382 0206 13       		.uleb128 0x13
 2383 0207 11       		.uleb128 0x11
 2384 0208 01       		.uleb128 0x1
 2385 0209 12       		.uleb128 0x12
 2386 020a 01       		.uleb128 0x1
 2387 020b 40       		.uleb128 0x40
 2388 020c 06       		.uleb128 0x6
 2389 020d 9742     		.uleb128 0x2117
 2390 020f 0C       		.uleb128 0xc
 2391 0210 01       		.uleb128 0x1
 2392 0211 13       		.uleb128 0x13
 2393 0212 00       		.byte	0
 2394 0213 00       		.byte	0
 2395 0214 28       		.uleb128 0x28
 2396 0215 05       		.uleb128 0x5
 2397 0216 00       		.byte	0
 2398 0217 03       		.uleb128 0x3
 2399 0218 0E       		.uleb128 0xe
 2400 0219 3A       		.uleb128 0x3a
 2401 021a 0B       		.uleb128 0xb
 2402 021b 3B       		.uleb128 0x3b
 2403 021c 05       		.uleb128 0x5
 2404 021d 49       		.uleb128 0x49
 2405 021e 13       		.uleb128 0x13
 2406 021f 02       		.uleb128 0x2
 2407 0220 06       		.uleb128 0x6
 2408 0221 00       		.byte	0
ARM GAS  /var/folders/yt/6z6x8bjn5sjf5fbb45bk5m4c0000gn/T//ccYsuN66.s 			page 49


 2409 0222 00       		.byte	0
 2410 0223 29       		.uleb128 0x29
 2411 0224 898201   		.uleb128 0x4109
 2412 0227 00       		.byte	0
 2413 0228 11       		.uleb128 0x11
 2414 0229 01       		.uleb128 0x1
 2415 022a 31       		.uleb128 0x31
 2416 022b 13       		.uleb128 0x13
 2417 022c 00       		.byte	0
 2418 022d 00       		.byte	0
 2419 022e 2A       		.uleb128 0x2a
 2420 022f 34       		.uleb128 0x34
 2421 0230 00       		.byte	0
 2422 0231 03       		.uleb128 0x3
 2423 0232 0E       		.uleb128 0xe
 2424 0233 3A       		.uleb128 0x3a
 2425 0234 0B       		.uleb128 0xb
 2426 0235 3B       		.uleb128 0x3b
 2427 0236 05       		.uleb128 0x5
 2428 0237 49       		.uleb128 0x49
 2429 0238 13       		.uleb128 0x13
 2430 0239 3F       		.uleb128 0x3f
 2431 023a 0C       		.uleb128 0xc
 2432 023b 3C       		.uleb128 0x3c
 2433 023c 0C       		.uleb128 0xc
 2434 023d 00       		.byte	0
 2435 023e 00       		.byte	0
 2436 023f 2B       		.uleb128 0x2b
 2437 0240 34       		.uleb128 0x34
 2438 0241 00       		.byte	0
 2439 0242 03       		.uleb128 0x3
 2440 0243 0E       		.uleb128 0xe
 2441 0244 3A       		.uleb128 0x3a
 2442 0245 0B       		.uleb128 0xb
 2443 0246 3B       		.uleb128 0x3b
 2444 0247 0B       		.uleb128 0xb
 2445 0248 49       		.uleb128 0x49
 2446 0249 13       		.uleb128 0x13
 2447 024a 3F       		.uleb128 0x3f
 2448 024b 0C       		.uleb128 0xc
 2449 024c 02       		.uleb128 0x2
 2450 024d 0A       		.uleb128 0xa
 2451 024e 00       		.byte	0
 2452 024f 00       		.byte	0
 2453 0250 2C       		.uleb128 0x2c
 2454 0251 2E       		.uleb128 0x2e
 2455 0252 01       		.byte	0x1
 2456 0253 3F       		.uleb128 0x3f
 2457 0254 0C       		.uleb128 0xc
 2458 0255 03       		.uleb128 0x3
 2459 0256 0E       		.uleb128 0xe
 2460 0257 3A       		.uleb128 0x3a
 2461 0258 0B       		.uleb128 0xb
 2462 0259 3B       		.uleb128 0x3b
 2463 025a 05       		.uleb128 0x5
 2464 025b 27       		.uleb128 0x27
 2465 025c 0C       		.uleb128 0xc
ARM GAS  /var/folders/yt/6z6x8bjn5sjf5fbb45bk5m4c0000gn/T//ccYsuN66.s 			page 50


 2466 025d 3C       		.uleb128 0x3c
 2467 025e 0C       		.uleb128 0xc
 2468 025f 01       		.uleb128 0x1
 2469 0260 13       		.uleb128 0x13
 2470 0261 00       		.byte	0
 2471 0262 00       		.byte	0
 2472 0263 2D       		.uleb128 0x2d
 2473 0264 05       		.uleb128 0x5
 2474 0265 00       		.byte	0
 2475 0266 49       		.uleb128 0x49
 2476 0267 13       		.uleb128 0x13
 2477 0268 00       		.byte	0
 2478 0269 00       		.byte	0
 2479 026a 2E       		.uleb128 0x2e
 2480 026b 2E       		.uleb128 0x2e
 2481 026c 01       		.byte	0x1
 2482 026d 3F       		.uleb128 0x3f
 2483 026e 0C       		.uleb128 0xc
 2484 026f 03       		.uleb128 0x3
 2485 0270 0E       		.uleb128 0xe
 2486 0271 3A       		.uleb128 0x3a
 2487 0272 0B       		.uleb128 0xb
 2488 0273 3B       		.uleb128 0x3b
 2489 0274 05       		.uleb128 0x5
 2490 0275 27       		.uleb128 0x27
 2491 0276 0C       		.uleb128 0xc
 2492 0277 49       		.uleb128 0x49
 2493 0278 13       		.uleb128 0x13
 2494 0279 3C       		.uleb128 0x3c
 2495 027a 0C       		.uleb128 0xc
 2496 027b 01       		.uleb128 0x1
 2497 027c 13       		.uleb128 0x13
 2498 027d 00       		.byte	0
 2499 027e 00       		.byte	0
 2500 027f 2F       		.uleb128 0x2f
 2501 0280 2E       		.uleb128 0x2e
 2502 0281 01       		.byte	0x1
 2503 0282 3F       		.uleb128 0x3f
 2504 0283 0C       		.uleb128 0xc
 2505 0284 03       		.uleb128 0x3
 2506 0285 0E       		.uleb128 0xe
 2507 0286 3A       		.uleb128 0x3a
 2508 0287 0B       		.uleb128 0xb
 2509 0288 3B       		.uleb128 0x3b
 2510 0289 05       		.uleb128 0x5
 2511 028a 27       		.uleb128 0x27
 2512 028b 0C       		.uleb128 0xc
 2513 028c 49       		.uleb128 0x49
 2514 028d 13       		.uleb128 0x13
 2515 028e 3C       		.uleb128 0x3c
 2516 028f 0C       		.uleb128 0xc
 2517 0290 00       		.byte	0
 2518 0291 00       		.byte	0
 2519 0292 00       		.byte	0
 2520              		.section	.debug_loc,"",%progbits
 2521              	.Ldebug_loc0:
 2522              	.LLST0:
ARM GAS  /var/folders/yt/6z6x8bjn5sjf5fbb45bk5m4c0000gn/T//ccYsuN66.s 			page 51


 2523 0000 00000000 		.4byte	.LFB34-.Ltext0
 2524 0004 02000000 		.4byte	.LCFI0-.Ltext0
 2525 0008 0200     		.2byte	0x2
 2526 000a 7D       		.byte	0x7d
 2527 000b 00       		.sleb128 0
 2528 000c 02000000 		.4byte	.LCFI0-.Ltext0
 2529 0010 08000000 		.4byte	.LCFI1-.Ltext0
 2530 0014 0200     		.2byte	0x2
 2531 0016 7D       		.byte	0x7d
 2532 0017 08       		.sleb128 8
 2533 0018 08000000 		.4byte	.LCFI1-.Ltext0
 2534 001c 72000000 		.4byte	.LCFI2-.Ltext0
 2535 0020 0200     		.2byte	0x2
 2536 0022 7D       		.byte	0x7d
 2537 0023 20       		.sleb128 32
 2538 0024 72000000 		.4byte	.LCFI2-.Ltext0
 2539 0028 80000000 		.4byte	.LFE34-.Ltext0
 2540 002c 0200     		.2byte	0x2
 2541 002e 7D       		.byte	0x7d
 2542 002f 08       		.sleb128 8
 2543 0030 00000000 		.4byte	0
 2544 0034 00000000 		.4byte	0
 2545              	.LLST1:
 2546 0038 80000000 		.4byte	.LFB35-.Ltext0
 2547 003c 82000000 		.4byte	.LCFI3-.Ltext0
 2548 0040 0200     		.2byte	0x2
 2549 0042 7D       		.byte	0x7d
 2550 0043 00       		.sleb128 0
 2551 0044 82000000 		.4byte	.LCFI3-.Ltext0
 2552 0048 E0000000 		.4byte	.LFE35-.Ltext0
 2553 004c 0200     		.2byte	0x2
 2554 004e 7D       		.byte	0x7d
 2555 004f 10       		.sleb128 16
 2556 0050 00000000 		.4byte	0
 2557 0054 00000000 		.4byte	0
 2558              	.LLST2:
 2559 0058 80000000 		.4byte	.LVL6-.Ltext0
 2560 005c 88000000 		.4byte	.LVL7-.Ltext0
 2561 0060 0100     		.2byte	0x1
 2562 0062 50       		.byte	0x50
 2563 0063 88000000 		.4byte	.LVL7-.Ltext0
 2564 0067 E0000000 		.4byte	.LFE35-.Ltext0
 2565 006b 0400     		.2byte	0x4
 2566 006d F3       		.byte	0xf3
 2567 006e 01       		.uleb128 0x1
 2568 006f 50       		.byte	0x50
 2569 0070 9F       		.byte	0x9f
 2570 0071 00000000 		.4byte	0
 2571 0075 00000000 		.4byte	0
 2572              	.LLST3:
 2573 0079 8C000000 		.4byte	.LVL8-.Ltext0
 2574 007d 8E000000 		.4byte	.LVL9-.Ltext0
 2575 0081 0600     		.2byte	0x6
 2576 0083 0C       		.byte	0xc
 2577 0084 A0860100 		.4byte	0x186a0
 2578 0088 9F       		.byte	0x9f
 2579 0089 8E000000 		.4byte	.LVL9-.Ltext0
ARM GAS  /var/folders/yt/6z6x8bjn5sjf5fbb45bk5m4c0000gn/T//ccYsuN66.s 			page 52


 2580 008d 9A000000 		.4byte	.LVL11-.Ltext0
 2581 0091 0100     		.2byte	0x1
 2582 0093 56       		.byte	0x56
 2583 0094 9A000000 		.4byte	.LVL11-.Ltext0
 2584 0098 9C000000 		.4byte	.LVL12-.Ltext0
 2585 009c 0300     		.2byte	0x3
 2586 009e 76       		.byte	0x76
 2587 009f 7F       		.sleb128 -1
 2588 00a0 9F       		.byte	0x9f
 2589 00a1 9C000000 		.4byte	.LVL12-.Ltext0
 2590 00a5 AE000000 		.4byte	.LVL13-.Ltext0
 2591 00a9 0100     		.2byte	0x1
 2592 00ab 56       		.byte	0x56
 2593 00ac AE000000 		.4byte	.LVL13-.Ltext0
 2594 00b0 B0000000 		.4byte	.LVL14-.Ltext0
 2595 00b4 0600     		.2byte	0x6
 2596 00b6 0C       		.byte	0xc
 2597 00b7 A0860100 		.4byte	0x186a0
 2598 00bb 9F       		.byte	0x9f
 2599 00bc B0000000 		.4byte	.LVL14-.Ltext0
 2600 00c0 BC000000 		.4byte	.LVL16-.Ltext0
 2601 00c4 0100     		.2byte	0x1
 2602 00c6 55       		.byte	0x55
 2603 00c7 BC000000 		.4byte	.LVL16-.Ltext0
 2604 00cb BE000000 		.4byte	.LVL17-.Ltext0
 2605 00cf 0300     		.2byte	0x3
 2606 00d1 75       		.byte	0x75
 2607 00d2 7F       		.sleb128 -1
 2608 00d3 9F       		.byte	0x9f
 2609 00d4 BE000000 		.4byte	.LVL17-.Ltext0
 2610 00d8 CC000000 		.4byte	.LVL20-.Ltext0
 2611 00dc 0100     		.2byte	0x1
 2612 00de 55       		.byte	0x55
 2613 00df 00000000 		.4byte	0
 2614 00e3 00000000 		.4byte	0
 2615              	.LLST4:
 2616 00e7 EC000000 		.4byte	.LFB37-.Ltext0
 2617 00eb EE000000 		.4byte	.LCFI4-.Ltext0
 2618 00ef 0200     		.2byte	0x2
 2619 00f1 7D       		.byte	0x7d
 2620 00f2 00       		.sleb128 0
 2621 00f3 EE000000 		.4byte	.LCFI4-.Ltext0
 2622 00f7 24010000 		.4byte	.LFE37-.Ltext0
 2623 00fb 0200     		.2byte	0x2
 2624 00fd 7D       		.byte	0x7d
 2625 00fe 10       		.sleb128 16
 2626 00ff 00000000 		.4byte	0
 2627 0103 00000000 		.4byte	0
 2628              	.LLST5:
 2629 0107 EC000000 		.4byte	.LVL22-.Ltext0
 2630 010b F2000000 		.4byte	.LVL23-.Ltext0
 2631 010f 0100     		.2byte	0x1
 2632 0111 50       		.byte	0x50
 2633 0112 F2000000 		.4byte	.LVL23-.Ltext0
 2634 0116 24010000 		.4byte	.LFE37-.Ltext0
 2635 011a 0400     		.2byte	0x4
 2636 011c F3       		.byte	0xf3
ARM GAS  /var/folders/yt/6z6x8bjn5sjf5fbb45bk5m4c0000gn/T//ccYsuN66.s 			page 53


 2637 011d 01       		.uleb128 0x1
 2638 011e 50       		.byte	0x50
 2639 011f 9F       		.byte	0x9f
 2640 0120 00000000 		.4byte	0
 2641 0124 00000000 		.4byte	0
 2642              	.LLST6:
 2643 0128 F6000000 		.4byte	.LVL24-.Ltext0
 2644 012c F8000000 		.4byte	.LVL25-.Ltext0
 2645 0130 0600     		.2byte	0x6
 2646 0132 0C       		.byte	0xc
 2647 0133 A0860100 		.4byte	0x186a0
 2648 0137 9F       		.byte	0x9f
 2649 0138 F8000000 		.4byte	.LVL25-.Ltext0
 2650 013c 04010000 		.4byte	.LVL27-.Ltext0
 2651 0140 0100     		.2byte	0x1
 2652 0142 55       		.byte	0x55
 2653 0143 04010000 		.4byte	.LVL27-.Ltext0
 2654 0147 06010000 		.4byte	.LVL28-.Ltext0
 2655 014b 0300     		.2byte	0x3
 2656 014d 75       		.byte	0x75
 2657 014e 7F       		.sleb128 -1
 2658 014f 9F       		.byte	0x9f
 2659 0150 06010000 		.4byte	.LVL28-.Ltext0
 2660 0154 18010000 		.4byte	.LVL30-.Ltext0
 2661 0158 0100     		.2byte	0x1
 2662 015a 55       		.byte	0x55
 2663 015b 00000000 		.4byte	0
 2664 015f 00000000 		.4byte	0
 2665              	.LLST7:
 2666 0163 24010000 		.4byte	.LFB38-.Ltext0
 2667 0167 26010000 		.4byte	.LCFI5-.Ltext0
 2668 016b 0200     		.2byte	0x2
 2669 016d 7D       		.byte	0x7d
 2670 016e 00       		.sleb128 0
 2671 016f 26010000 		.4byte	.LCFI5-.Ltext0
 2672 0173 CC010000 		.4byte	.LFE38-.Ltext0
 2673 0177 0200     		.2byte	0x2
 2674 0179 7D       		.byte	0x7d
 2675 017a 18       		.sleb128 24
 2676 017b 00000000 		.4byte	0
 2677 017f 00000000 		.4byte	0
 2678              	.LLST8:
 2679 0183 24010000 		.4byte	.LVL31-.Ltext0
 2680 0187 2E010000 		.4byte	.LVL32-.Ltext0
 2681 018b 0100     		.2byte	0x1
 2682 018d 50       		.byte	0x50
 2683 018e 2E010000 		.4byte	.LVL32-.Ltext0
 2684 0192 CC010000 		.4byte	.LFE38-.Ltext0
 2685 0196 0400     		.2byte	0x4
 2686 0198 F3       		.byte	0xf3
 2687 0199 01       		.uleb128 0x1
 2688 019a 50       		.byte	0x50
 2689 019b 9F       		.byte	0x9f
 2690 019c 00000000 		.4byte	0
 2691 01a0 00000000 		.4byte	0
 2692              	.LLST9:
 2693 01a4 24010000 		.4byte	.LVL31-.Ltext0
ARM GAS  /var/folders/yt/6z6x8bjn5sjf5fbb45bk5m4c0000gn/T//ccYsuN66.s 			page 54


 2694 01a8 2E010000 		.4byte	.LVL32-.Ltext0
 2695 01ac 0100     		.2byte	0x1
 2696 01ae 51       		.byte	0x51
 2697 01af 2E010000 		.4byte	.LVL32-.Ltext0
 2698 01b3 86010000 		.4byte	.LVL47-.Ltext0
 2699 01b7 0100     		.2byte	0x1
 2700 01b9 57       		.byte	0x57
 2701 01ba A4010000 		.4byte	.LVL52-.Ltext0
 2702 01be B0010000 		.4byte	.LVL53-.Ltext0
 2703 01c2 0100     		.2byte	0x1
 2704 01c4 57       		.byte	0x57
 2705 01c5 00000000 		.4byte	0
 2706 01c9 00000000 		.4byte	0
 2707              	.LLST10:
 2708 01cd 24010000 		.4byte	.LVL31-.Ltext0
 2709 01d1 2E010000 		.4byte	.LVL32-.Ltext0
 2710 01d5 0100     		.2byte	0x1
 2711 01d7 52       		.byte	0x52
 2712 01d8 2E010000 		.4byte	.LVL32-.Ltext0
 2713 01dc 86010000 		.4byte	.LVL47-.Ltext0
 2714 01e0 0400     		.2byte	0x4
 2715 01e2 F3       		.byte	0xf3
 2716 01e3 01       		.uleb128 0x1
 2717 01e4 52       		.byte	0x52
 2718 01e5 9F       		.byte	0x9f
 2719 01e6 86010000 		.4byte	.LVL47-.Ltext0
 2720 01ea 9E010000 		.4byte	.LVL51-.Ltext0
 2721 01ee 0100     		.2byte	0x1
 2722 01f0 54       		.byte	0x54
 2723 01f1 A4010000 		.4byte	.LVL52-.Ltext0
 2724 01f5 B2010000 		.4byte	.LVL54-.Ltext0
 2725 01f9 0100     		.2byte	0x1
 2726 01fb 54       		.byte	0x54
 2727 01fc 00000000 		.4byte	0
 2728 0200 00000000 		.4byte	0
 2729              	.LLST11:
 2730 0204 24010000 		.4byte	.LVL31-.Ltext0
 2731 0208 2E010000 		.4byte	.LVL32-.Ltext0
 2732 020c 0600     		.2byte	0x6
 2733 020e 0C       		.byte	0xc
 2734 020f A0860100 		.4byte	0x186a0
 2735 0213 9F       		.byte	0x9f
 2736 0214 2E010000 		.4byte	.LVL32-.Ltext0
 2737 0218 3A010000 		.4byte	.LVL34-.Ltext0
 2738 021c 0100     		.2byte	0x1
 2739 021e 56       		.byte	0x56
 2740 021f 3A010000 		.4byte	.LVL34-.Ltext0
 2741 0223 3C010000 		.4byte	.LVL35-.Ltext0
 2742 0227 0300     		.2byte	0x3
 2743 0229 76       		.byte	0x76
 2744 022a 7F       		.sleb128 -1
 2745 022b 9F       		.byte	0x9f
 2746 022c 3C010000 		.4byte	.LVL35-.Ltext0
 2747 0230 4A010000 		.4byte	.LVL36-.Ltext0
 2748 0234 0100     		.2byte	0x1
 2749 0236 56       		.byte	0x56
 2750 0237 4A010000 		.4byte	.LVL36-.Ltext0
ARM GAS  /var/folders/yt/6z6x8bjn5sjf5fbb45bk5m4c0000gn/T//ccYsuN66.s 			page 55


 2751 023b 4C010000 		.4byte	.LVL37-.Ltext0
 2752 023f 0600     		.2byte	0x6
 2753 0241 0C       		.byte	0xc
 2754 0242 A0860100 		.4byte	0x186a0
 2755 0246 9F       		.byte	0x9f
 2756 0247 4C010000 		.4byte	.LVL37-.Ltext0
 2757 024b 56010000 		.4byte	.LVL39-.Ltext0
 2758 024f 0100     		.2byte	0x1
 2759 0251 56       		.byte	0x56
 2760 0252 56010000 		.4byte	.LVL39-.Ltext0
 2761 0256 58010000 		.4byte	.LVL40-.Ltext0
 2762 025a 0300     		.2byte	0x3
 2763 025c 76       		.byte	0x76
 2764 025d 7F       		.sleb128 -1
 2765 025e 9F       		.byte	0x9f
 2766 025f 58010000 		.4byte	.LVL40-.Ltext0
 2767 0263 6A010000 		.4byte	.LVL41-.Ltext0
 2768 0267 0100     		.2byte	0x1
 2769 0269 56       		.byte	0x56
 2770 026a 6A010000 		.4byte	.LVL41-.Ltext0
 2771 026e 6C010000 		.4byte	.LVL42-.Ltext0
 2772 0272 0600     		.2byte	0x6
 2773 0274 0C       		.byte	0xc
 2774 0275 A0860100 		.4byte	0x186a0
 2775 0279 9F       		.byte	0x9f
 2776 027a 6C010000 		.4byte	.LVL42-.Ltext0
 2777 027e 78010000 		.4byte	.LVL44-.Ltext0
 2778 0282 0100     		.2byte	0x1
 2779 0284 56       		.byte	0x56
 2780 0285 78010000 		.4byte	.LVL44-.Ltext0
 2781 0289 7A010000 		.4byte	.LVL45-.Ltext0
 2782 028d 0300     		.2byte	0x3
 2783 028f 76       		.byte	0x76
 2784 0290 7F       		.sleb128 -1
 2785 0291 9F       		.byte	0x9f
 2786 0292 7A010000 		.4byte	.LVL45-.Ltext0
 2787 0296 B6010000 		.4byte	.LVL55-.Ltext0
 2788 029a 0100     		.2byte	0x1
 2789 029c 56       		.byte	0x56
 2790 029d 00000000 		.4byte	0
 2791 02a1 00000000 		.4byte	0
 2792              	.LLST12:
 2793 02a5 CC010000 		.4byte	.LFB39-.Ltext0
 2794 02a9 CE010000 		.4byte	.LCFI6-.Ltext0
 2795 02ad 0200     		.2byte	0x2
 2796 02af 7D       		.byte	0x7d
 2797 02b0 00       		.sleb128 0
 2798 02b1 CE010000 		.4byte	.LCFI6-.Ltext0
 2799 02b5 E8010000 		.4byte	.LFE39-.Ltext0
 2800 02b9 0200     		.2byte	0x2
 2801 02bb 7D       		.byte	0x7d
 2802 02bc 08       		.sleb128 8
 2803 02bd 00000000 		.4byte	0
 2804 02c1 00000000 		.4byte	0
 2805              	.LLST13:
 2806 02c5 CC010000 		.4byte	.LVL56-.Ltext0
 2807 02c9 D1010000 		.4byte	.LVL57-1-.Ltext0
ARM GAS  /var/folders/yt/6z6x8bjn5sjf5fbb45bk5m4c0000gn/T//ccYsuN66.s 			page 56


 2808 02cd 0100     		.2byte	0x1
 2809 02cf 50       		.byte	0x50
 2810 02d0 D1010000 		.4byte	.LVL57-1-.Ltext0
 2811 02d4 E8010000 		.4byte	.LFE39-.Ltext0
 2812 02d8 0400     		.2byte	0x4
 2813 02da F3       		.byte	0xf3
 2814 02db 01       		.uleb128 0x1
 2815 02dc 50       		.byte	0x50
 2816 02dd 9F       		.byte	0x9f
 2817 02de 00000000 		.4byte	0
 2818 02e2 00000000 		.4byte	0
 2819              		.section	.debug_aranges,"",%progbits
 2820 0000 1C000000 		.4byte	0x1c
 2821 0004 0200     		.2byte	0x2
 2822 0006 00000000 		.4byte	.Ldebug_info0
 2823 000a 04       		.byte	0x4
 2824 000b 00       		.byte	0
 2825 000c 0000     		.2byte	0
 2826 000e 0000     		.2byte	0
 2827 0010 00000000 		.4byte	.Ltext0
 2828 0014 E8010000 		.4byte	.Letext0-.Ltext0
 2829 0018 00000000 		.4byte	0
 2830 001c 00000000 		.4byte	0
 2831              		.section	.debug_line,"",%progbits
 2832              	.Ldebug_line0:
 2833 0000 6F020000 		.section	.debug_str,"MS",%progbits,1
 2833      0200F201 
 2833      00000201 
 2833      FB0E0D00 
 2833      01010101 
 2834              	.LASF60:
 2835 0000 4932435F 		.ascii	"I2C_OwnAddress1\000"
 2835      4F776E41 
 2835      64647265 
 2835      73733100 
 2836              	.LASF29:
 2837 0010 4F415231 		.ascii	"OAR1\000"
 2837      00
 2838              	.LASF53:
 2839 0015 4750494F 		.ascii	"GPIO_Pin\000"
 2839      5F50696E 
 2839      00
 2840              	.LASF93:
 2841 001e 4932435F 		.ascii	"I2C_GetFlagStatus\000"
 2841      47657446 
 2841      6C616753 
 2841      74617475 
 2841      7300
 2842              	.LASF95:
 2843 0030 474E5520 		.ascii	"GNU C 4.9.3 20150529 (release) [ARM/embedded-4_9-br"
 2843      4320342E 
 2843      392E3320 
 2843      32303135 
 2843      30353239 
 2844 0063 616E6368 		.ascii	"anch revision 227977] -mcpu=cortex-m3 -mthumb -gdwa"
 2844      20726576 
 2844      6973696F 
ARM GAS  /var/folders/yt/6z6x8bjn5sjf5fbb45bk5m4c0000gn/T//ccYsuN66.s 			page 57


 2844      6E203232 
 2844      37393737 
 2845 0096 72662D32 		.ascii	"rf-2 -Os -fomit-frame-pointer\000"
 2845      202D4F73 
 2845      202D666F 
 2845      6D69742D 
 2845      6672616D 
 2846              	.LASF78:
 2847 00b4 49324331 		.ascii	"I2C1_SlaveAtAddress\000"
 2847      5F536C61 
 2847      76654174 
 2847      41646472 
 2847      65737300 
 2848              	.LASF72:
 2849 00c8 49324331 		.ascii	"I2C1_Write\000"
 2849      5F577269 
 2849      746500
 2850              	.LASF15:
 2851 00d3 73697A65 		.ascii	"sizetype\000"
 2851      74797065 
 2851      00
 2852              	.LASF73:
 2853 00dc 49324331 		.ascii	"I2C1_RequestFrom\000"
 2853      5F526571 
 2853      75657374 
 2853      46726F6D 
 2853      00
 2854              	.LASF62:
 2855 00ed 4932435F 		.ascii	"I2C_AcknowledgedAddress\000"
 2855      41636B6E 
 2855      6F776C65 
 2855      64676564 
 2855      41646472 
 2856              	.LASF80:
 2857 0105 7853656D 		.ascii	"xSemStartCondition\000"
 2857      53746172 
 2857      74436F6E 
 2857      64697469 
 2857      6F6E00
 2858              	.LASF7:
 2859 0118 5F5F7569 		.ascii	"__uint32_t\000"
 2859      6E743332 
 2859      5F7400
 2860              	.LASF75:
 2861 0123 41646472 		.ascii	"Address\000"
 2861      65737300 
 2862              	.LASF4:
 2863 012b 5F5F7569 		.ascii	"__uint16_t\000"
 2863      6E743136 
 2863      5F7400
 2864              	.LASF63:
 2865 0136 4932435F 		.ascii	"I2C_InitTypeDef\000"
 2865      496E6974 
 2865      54797065 
 2865      44656600 
 2866              	.LASF28:
 2867 0146 52455345 		.ascii	"RESERVED1\000"
ARM GAS  /var/folders/yt/6z6x8bjn5sjf5fbb45bk5m4c0000gn/T//ccYsuN66.s 			page 58


 2867      52564544 
 2867      3100
 2868              	.LASF54:
 2869 0150 4750494F 		.ascii	"GPIO_Speed\000"
 2869      5F537065 
 2869      656400
 2870              	.LASF83:
 2871 015b 4750494F 		.ascii	"GPIO_Init\000"
 2871      5F496E69 
 2871      7400
 2872              	.LASF12:
 2873 0165 75696E74 		.ascii	"uint8_t\000"
 2873      385F7400 
 2874              	.LASF68:
 2875 016d 4932435F 		.ascii	"I2C_InitStructure\000"
 2875      496E6974 
 2875      53747275 
 2875      63747572 
 2875      6500
 2876              	.LASF48:
 2877 017f 4750494F 		.ascii	"GPIO_Mode_Out_OD\000"
 2877      5F4D6F64 
 2877      655F4F75 
 2877      745F4F44 
 2877      00
 2878              	.LASF18:
 2879 0190 44495341 		.ascii	"DISABLE\000"
 2879      424C4500 
 2880              	.LASF0:
 2881 0198 7369676E 		.ascii	"signed char\000"
 2881      65642063 
 2881      68617200 
 2882              	.LASF51:
 2883 01a4 4750494F 		.ascii	"GPIO_Mode_AF_PP\000"
 2883      5F4D6F64 
 2883      655F4146 
 2883      5F505000 
 2884              	.LASF71:
 2885 01b4 54696D65 		.ascii	"TimeOut\000"
 2885      4F757400 
 2886              	.LASF9:
 2887 01bc 6C6F6E67 		.ascii	"long long int\000"
 2887      206C6F6E 
 2887      6720696E 
 2887      7400
 2888              	.LASF19:
 2889 01ca 454E4142 		.ascii	"ENABLE\000"
 2889      4C4500
 2890              	.LASF31:
 2891 01d1 4F415232 		.ascii	"OAR2\000"
 2891      00
 2892              	.LASF6:
 2893 01d6 6C6F6E67 		.ascii	"long int\000"
 2893      20696E74 
 2893      00
 2894              	.LASF23:
 2895 01df 4572726F 		.ascii	"ErrorStatus\000"
ARM GAS  /var/folders/yt/6z6x8bjn5sjf5fbb45bk5m4c0000gn/T//ccYsuN66.s 			page 59


 2895      72537461 
 2895      74757300 
 2896              	.LASF24:
 2897 01eb 42535252 		.ascii	"BSRR\000"
 2897      00
 2898              	.LASF76:
 2899 01f0 53746F72 		.ascii	"Storage\000"
 2899      61676500 
 2900              	.LASF3:
 2901 01f8 5F5F7569 		.ascii	"__uint8_t\000"
 2901      6E74385F 
 2901      7400
 2902              	.LASF64:
 2903 0202 51756575 		.ascii	"QueueHandle_t\000"
 2903      6548616E 
 2903      646C655F 
 2903      7400
 2904              	.LASF74:
 2905 0210 44617461 		.ascii	"Data\000"
 2905      00
 2906              	.LASF69:
 2907 0215 49324331 		.ascii	"I2C1_Init\000"
 2907      5F496E69 
 2907      7400
 2908              	.LASF58:
 2909 021f 4932435F 		.ascii	"I2C_Mode\000"
 2909      4D6F6465 
 2909      00
 2910              	.LASF40:
 2911 0228 4750494F 		.ascii	"GPIO_Speed_10MHz\000"
 2911      5F537065 
 2911      65645F31 
 2911      304D487A 
 2911      00
 2912              	.LASF81:
 2913 0239 5243435F 		.ascii	"RCC_APB1PeriphClockCmd\000"
 2913      41504231 
 2913      50657269 
 2913      7068436C 
 2913      6F636B43 
 2914              	.LASF65:
 2915 0250 53656D61 		.ascii	"SemaphoreHandle_t\000"
 2915      70686F72 
 2915      6548616E 
 2915      646C655F 
 2915      7400
 2916              	.LASF94:
 2917 0262 4932435F 		.ascii	"I2C_ReceiveData\000"
 2917      52656365 
 2917      69766544 
 2917      61746100 
 2918              	.LASF1:
 2919 0272 756E7369 		.ascii	"unsigned char\000"
 2919      676E6564 
 2919      20636861 
 2919      7200
 2920              	.LASF2:
ARM GAS  /var/folders/yt/6z6x8bjn5sjf5fbb45bk5m4c0000gn/T//ccYsuN66.s 			page 60


 2921 0280 73686F72 		.ascii	"short int\000"
 2921      7420696E 
 2921      7400
 2922              	.LASF41:
 2923 028a 4750494F 		.ascii	"GPIO_Speed_2MHz\000"
 2923      5F537065 
 2923      65645F32 
 2923      4D487A00 
 2924              	.LASF10:
 2925 029a 6C6F6E67 		.ascii	"long long unsigned int\000"
 2925      206C6F6E 
 2925      6720756E 
 2925      7369676E 
 2925      65642069 
 2926              	.LASF14:
 2927 02b1 75696E74 		.ascii	"uint32_t\000"
 2927      33325F74 
 2927      00
 2928              	.LASF56:
 2929 02ba 4750494F 		.ascii	"GPIO_InitTypeDef\000"
 2929      5F496E69 
 2929      74547970 
 2929      65446566 
 2929      00
 2930              	.LASF11:
 2931 02cb 756E7369 		.ascii	"unsigned int\000"
 2931      676E6564 
 2931      20696E74 
 2931      00
 2932              	.LASF85:
 2933 02d8 4932435F 		.ascii	"I2C_Cmd\000"
 2933      436D6400 
 2934              	.LASF84:
 2935 02e0 4932435F 		.ascii	"I2C_DeInit\000"
 2935      4465496E 
 2935      697400
 2936              	.LASF8:
 2937 02eb 6C6F6E67 		.ascii	"long unsigned int\000"
 2937      20756E73 
 2937      69676E65 
 2937      6420696E 
 2937      7400
 2938              	.LASF87:
 2939 02fd 4932435F 		.ascii	"I2C_GenerateSTOP\000"
 2939      47656E65 
 2939      72617465 
 2939      53544F50 
 2939      00
 2940              	.LASF22:
 2941 030e 53554343 		.ascii	"SUCCESS\000"
 2941      45535300 
 2942              	.LASF5:
 2943 0316 73686F72 		.ascii	"short unsigned int\000"
 2943      7420756E 
 2943      7369676E 
 2943      65642069 
 2943      6E7400
ARM GAS  /var/folders/yt/6z6x8bjn5sjf5fbb45bk5m4c0000gn/T//ccYsuN66.s 			page 61


 2944              	.LASF96:
 2945 0329 4C696272 		.ascii	"Libraries/Drivers/i2c/i2c1_remap.c\000"
 2945      61726965 
 2945      732F4472 
 2945      69766572 
 2945      732F6932 
 2946              	.LASF66:
 2947 034c 63686172 		.ascii	"char\000"
 2947      00
 2948              	.LASF13:
 2949 0351 75696E74 		.ascii	"uint16_t\000"
 2949      31365F74 
 2949      00
 2950              	.LASF45:
 2951 035a 4750494F 		.ascii	"GPIO_Mode_IN_FLOATING\000"
 2951      5F4D6F64 
 2951      655F494E 
 2951      5F464C4F 
 2951      4154494E 
 2952              	.LASF77:
 2953 0370 4E756D42 		.ascii	"NumByteToRead\000"
 2953      79746554 
 2953      6F526561 
 2953      6400
 2954              	.LASF57:
 2955 037e 4932435F 		.ascii	"I2C_ClockSpeed\000"
 2955      436C6F63 
 2955      6B537065 
 2955      656400
 2956              	.LASF88:
 2957 038d 4932435F 		.ascii	"I2C_GenerateSTART\000"
 2957      47656E65 
 2957      72617465 
 2957      53544152 
 2957      5400
 2958              	.LASF90:
 2959 039f 4932435F 		.ascii	"I2C_CheckEvent\000"
 2959      43686563 
 2959      6B457665 
 2959      6E7400
 2960              	.LASF47:
 2961 03ae 4750494F 		.ascii	"GPIO_Mode_IPU\000"
 2961      5F4D6F64 
 2961      655F4950 
 2961      5500
 2962              	.LASF61:
 2963 03bc 4932435F 		.ascii	"I2C_Ack\000"
 2963      41636B00 
 2964              	.LASF82:
 2965 03c4 5243435F 		.ascii	"RCC_APB2PeriphClockCmd\000"
 2965      41504232 
 2965      50657269 
 2965      7068436C 
 2965      6F636B43 
 2966              	.LASF27:
 2967 03db 52455345 		.ascii	"RESERVED0\000"
 2967      52564544 
ARM GAS  /var/folders/yt/6z6x8bjn5sjf5fbb45bk5m4c0000gn/T//ccYsuN66.s 			page 62


 2967      3000
 2968              	.LASF44:
 2969 03e5 4750494F 		.ascii	"GPIO_Mode_AIN\000"
 2969      5F4D6F64 
 2969      655F4149 
 2969      4E00
 2970              	.LASF30:
 2971 03f3 52455345 		.ascii	"RESERVED2\000"
 2971      52564544 
 2971      3200
 2972              	.LASF32:
 2973 03fd 52455345 		.ascii	"RESERVED3\000"
 2973      52564544 
 2973      3300
 2974              	.LASF33:
 2975 0407 52455345 		.ascii	"RESERVED4\000"
 2975      52564544 
 2975      3400
 2976              	.LASF34:
 2977 0411 52455345 		.ascii	"RESERVED5\000"
 2977      52564544 
 2977      3500
 2978              	.LASF35:
 2979 041b 52455345 		.ascii	"RESERVED6\000"
 2979      52564544 
 2979      3600
 2980              	.LASF36:
 2981 0425 52455345 		.ascii	"RESERVED7\000"
 2981      52564544 
 2981      3700
 2982              	.LASF38:
 2983 042f 52455345 		.ascii	"RESERVED8\000"
 2983      52564544 
 2983      3800
 2984              	.LASF43:
 2985 0439 4750494F 		.ascii	"GPIOSpeed_TypeDef\000"
 2985      53706565 
 2985      645F5479 
 2985      70654465 
 2985      6600
 2986              	.LASF20:
 2987 044b 46756E63 		.ascii	"FunctionalState\000"
 2987      74696F6E 
 2987      616C5374 
 2987      61746500 
 2988              	.LASF49:
 2989 045b 4750494F 		.ascii	"GPIO_Mode_Out_PP\000"
 2989      5F4D6F64 
 2989      655F4F75 
 2989      745F5050 
 2989      00
 2990              	.LASF70:
 2991 046c 49324331 		.ascii	"I2C1_EndTransmission\000"
 2991      5F456E64 
 2991      5472616E 
 2991      736D6973 
 2991      73696F6E 
ARM GAS  /var/folders/yt/6z6x8bjn5sjf5fbb45bk5m4c0000gn/T//ccYsuN66.s 			page 63


 2992              	.LASF67:
 2993 0481 4750494F 		.ascii	"GPIO_InitStructure\000"
 2993      5F496E69 
 2993      74537472 
 2993      75637475 
 2993      726500
 2994              	.LASF42:
 2995 0494 4750494F 		.ascii	"GPIO_Speed_50MHz\000"
 2995      5F537065 
 2995      65645F35 
 2995      304D487A 
 2995      00
 2996              	.LASF16:
 2997 04a5 52455345 		.ascii	"RESET\000"
 2997      5400
 2998              	.LASF46:
 2999 04ab 4750494F 		.ascii	"GPIO_Mode_IPD\000"
 2999      5F4D6F64 
 2999      655F4950 
 2999      4400
 3000              	.LASF97:
 3001 04b9 2F557365 		.ascii	"/Users/ingamedeo/Downloads/STM32F103RBT6FreeRTOS\000"
 3001      72732F69 
 3001      6E67616D 
 3001      6564656F 
 3001      2F446F77 
 3002              	.LASF21:
 3003 04ea 4552524F 		.ascii	"ERROR\000"
 3003      5200
 3004              	.LASF52:
 3005 04f0 4750494F 		.ascii	"GPIOMode_TypeDef\000"
 3005      4D6F6465 
 3005      5F547970 
 3005      65446566 
 3005      00
 3006              	.LASF26:
 3007 0501 4750494F 		.ascii	"GPIO_TypeDef\000"
 3007      5F547970 
 3007      65446566 
 3007      00
 3008              	.LASF37:
 3009 050e 54524953 		.ascii	"TRISE\000"
 3009      4500
 3010              	.LASF59:
 3011 0514 4932435F 		.ascii	"I2C_DutyCycle\000"
 3011      44757479 
 3011      4379636C 
 3011      6500
 3012              	.LASF79:
 3013 0522 49544D5F 		.ascii	"ITM_RxBuffer\000"
 3013      52784275 
 3013      66666572 
 3013      00
 3014              	.LASF86:
 3015 052f 4932435F 		.ascii	"I2C_Init\000"
 3015      496E6974 
 3015      00
ARM GAS  /var/folders/yt/6z6x8bjn5sjf5fbb45bk5m4c0000gn/T//ccYsuN66.s 			page 64


 3016              	.LASF92:
 3017 0538 4932435F 		.ascii	"I2C_SendData\000"
 3017      53656E64 
 3017      44617461 
 3017      00
 3018              	.LASF39:
 3019 0545 4932435F 		.ascii	"I2C_TypeDef\000"
 3019      54797065 
 3019      44656600 
 3020              	.LASF91:
 3021 0551 4932435F 		.ascii	"I2C_Send7bitAddress\000"
 3021      53656E64 
 3021      37626974 
 3021      41646472 
 3021      65737300 
 3022              	.LASF25:
 3023 0565 4C434B52 		.ascii	"LCKR\000"
 3023      00
 3024              	.LASF17:
 3025 056a 466C6167 		.ascii	"FlagStatus\000"
 3025      53746174 
 3025      757300
 3026              	.LASF89:
 3027 0575 49324331 		.ascii	"I2C1_BeginTransmission\000"
 3027      5F426567 
 3027      696E5472 
 3027      616E736D 
 3027      69737369 
 3028              	.LASF50:
 3029 058c 4750494F 		.ascii	"GPIO_Mode_AF_OD\000"
 3029      5F4D6F64 
 3029      655F4146 
 3029      5F4F4400 
 3030              	.LASF55:
 3031 059c 4750494F 		.ascii	"GPIO_Mode\000"
 3031      5F4D6F64 
 3031      6500
 3032              		.ident	"GCC: (GNU Tools for ARM Embedded Processors) 4.9.3 20150529 (release) [ARM/embedded-4_9-br
ARM GAS  /var/folders/yt/6z6x8bjn5sjf5fbb45bk5m4c0000gn/T//ccYsuN66.s 			page 65


DEFINED SYMBOLS
                            *ABS*:0000000000000000 i2c1_remap.c
/var/folders/yt/6z6x8bjn5sjf5fbb45bk5m4c0000gn/T//ccYsuN66.s:73     .text:0000000000000000 $t
/var/folders/yt/6z6x8bjn5sjf5fbb45bk5m4c0000gn/T//ccYsuN66.s:78     .text:0000000000000000 I2C1_Init
/var/folders/yt/6z6x8bjn5sjf5fbb45bk5m4c0000gn/T//ccYsuN66.s:169    .text:0000000000000074 $d
/var/folders/yt/6z6x8bjn5sjf5fbb45bk5m4c0000gn/T//ccYsuN66.s:175    .text:0000000000000080 $t
/var/folders/yt/6z6x8bjn5sjf5fbb45bk5m4c0000gn/T//ccYsuN66.s:180    .text:0000000000000080 I2C1_BeginTransmission
/var/folders/yt/6z6x8bjn5sjf5fbb45bk5m4c0000gn/T//ccYsuN66.s:264    .text:00000000000000d0 $d
/var/folders/yt/6z6x8bjn5sjf5fbb45bk5m4c0000gn/T//ccYsuN66.s:271    .text:00000000000000e0 $t
/var/folders/yt/6z6x8bjn5sjf5fbb45bk5m4c0000gn/T//ccYsuN66.s:276    .text:00000000000000e0 I2C1_EndTransmission
/var/folders/yt/6z6x8bjn5sjf5fbb45bk5m4c0000gn/T//ccYsuN66.s:291    .text:00000000000000e8 $d
/var/folders/yt/6z6x8bjn5sjf5fbb45bk5m4c0000gn/T//ccYsuN66.s:295    .text:00000000000000ec $t
/var/folders/yt/6z6x8bjn5sjf5fbb45bk5m4c0000gn/T//ccYsuN66.s:300    .text:00000000000000ec I2C1_Write
/var/folders/yt/6z6x8bjn5sjf5fbb45bk5m4c0000gn/T//ccYsuN66.s:354    .text:0000000000000118 $d
/var/folders/yt/6z6x8bjn5sjf5fbb45bk5m4c0000gn/T//ccYsuN66.s:360    .text:0000000000000124 $t
/var/folders/yt/6z6x8bjn5sjf5fbb45bk5m4c0000gn/T//ccYsuN66.s:365    .text:0000000000000124 I2C1_RequestFrom
/var/folders/yt/6z6x8bjn5sjf5fbb45bk5m4c0000gn/T//ccYsuN66.s:500    .text:00000000000001b8 $d
/var/folders/yt/6z6x8bjn5sjf5fbb45bk5m4c0000gn/T//ccYsuN66.s:508    .text:00000000000001cc $t
/var/folders/yt/6z6x8bjn5sjf5fbb45bk5m4c0000gn/T//ccYsuN66.s:513    .text:00000000000001cc I2C1_SlaveAtAddress
/var/folders/yt/6z6x8bjn5sjf5fbb45bk5m4c0000gn/T//ccYsuN66.s:553    .bss:0000000000000000 xSemStartCondition
/var/folders/yt/6z6x8bjn5sjf5fbb45bk5m4c0000gn/T//ccYsuN66.s:550    .bss:0000000000000000 $d
                     .debug_frame:0000000000000010 $d

UNDEFINED SYMBOLS
RCC_APB1PeriphClockCmd
RCC_APB2PeriphClockCmd
GPIO_Init
I2C_DeInit
I2C_Cmd
I2C_Init
I2C_GenerateSTART
I2C_CheckEvent
I2C_Send7bitAddress
I2C_GenerateSTOP
I2C_SendData
I2C_GetFlagStatus
I2C_ReceiveData
